ARM GAS  C:\Users\HP\AppData\Local\Temp\ccq996lt.s 			page 1


   1              		.cpu cortex-m4
   2              		.arch armv7e-m
   3              		.fpu fpv4-sp-d16
   4              		.eabi_attribute 27, 1
   5              		.eabi_attribute 28, 1
   6              		.eabi_attribute 20, 1
   7              		.eabi_attribute 21, 1
   8              		.eabi_attribute 23, 3
   9              		.eabi_attribute 24, 1
  10              		.eabi_attribute 25, 1
  11              		.eabi_attribute 26, 1
  12              		.eabi_attribute 30, 1
  13              		.eabi_attribute 34, 1
  14              		.eabi_attribute 18, 4
  15              		.file	"fx_directory_entry_read.c"
  16              		.text
  17              	.Ltext0:
  18              		.cfi_sections	.debug_frame
  19              		.section	.text._fx_directory_entry_read,"ax",%progbits
  20              		.align	1
  21              		.global	_fx_directory_entry_read
  22              		.syntax unified
  23              		.thumb
  24              		.thumb_func
  26              	_fx_directory_entry_read:
  27              	.LVL0:
  28              	.LFB8:
  29              		.file 1 "Middlewares/ST/filex/common/src/fx_directory_entry_read.c"
   1:Middlewares/ST/filex/common/src/fx_directory_entry_read.c **** /**************************************************************************/
   2:Middlewares/ST/filex/common/src/fx_directory_entry_read.c **** /*                                                                        */
   3:Middlewares/ST/filex/common/src/fx_directory_entry_read.c **** /*       Copyright (c) Microsoft Corporation. All rights reserved.        */
   4:Middlewares/ST/filex/common/src/fx_directory_entry_read.c **** /*                                                                        */
   5:Middlewares/ST/filex/common/src/fx_directory_entry_read.c **** /*       This software is licensed under the Microsoft Software License   */
   6:Middlewares/ST/filex/common/src/fx_directory_entry_read.c **** /*       Terms for Microsoft Azure RTOS. Full text of the license can be  */
   7:Middlewares/ST/filex/common/src/fx_directory_entry_read.c **** /*       found in the LICENSE file at https://aka.ms/AzureRTOS_EULA       */
   8:Middlewares/ST/filex/common/src/fx_directory_entry_read.c **** /*       and in the root directory of this software.                      */
   9:Middlewares/ST/filex/common/src/fx_directory_entry_read.c **** /*                                                                        */
  10:Middlewares/ST/filex/common/src/fx_directory_entry_read.c **** /**************************************************************************/
  11:Middlewares/ST/filex/common/src/fx_directory_entry_read.c **** 
  12:Middlewares/ST/filex/common/src/fx_directory_entry_read.c **** 
  13:Middlewares/ST/filex/common/src/fx_directory_entry_read.c **** /**************************************************************************/
  14:Middlewares/ST/filex/common/src/fx_directory_entry_read.c **** /**************************************************************************/
  15:Middlewares/ST/filex/common/src/fx_directory_entry_read.c **** /**                                                                       */
  16:Middlewares/ST/filex/common/src/fx_directory_entry_read.c **** /** FileX Component                                                       */
  17:Middlewares/ST/filex/common/src/fx_directory_entry_read.c **** /**                                                                       */
  18:Middlewares/ST/filex/common/src/fx_directory_entry_read.c **** /**   Directory                                                           */
  19:Middlewares/ST/filex/common/src/fx_directory_entry_read.c **** /**                                                                       */
  20:Middlewares/ST/filex/common/src/fx_directory_entry_read.c **** /**************************************************************************/
  21:Middlewares/ST/filex/common/src/fx_directory_entry_read.c **** /**************************************************************************/
  22:Middlewares/ST/filex/common/src/fx_directory_entry_read.c **** 
  23:Middlewares/ST/filex/common/src/fx_directory_entry_read.c **** #define FX_SOURCE_CODE
  24:Middlewares/ST/filex/common/src/fx_directory_entry_read.c **** 
  25:Middlewares/ST/filex/common/src/fx_directory_entry_read.c **** 
  26:Middlewares/ST/filex/common/src/fx_directory_entry_read.c **** /* Include necessary system files.  */
  27:Middlewares/ST/filex/common/src/fx_directory_entry_read.c **** 
  28:Middlewares/ST/filex/common/src/fx_directory_entry_read.c **** #include "fx_api.h"
  29:Middlewares/ST/filex/common/src/fx_directory_entry_read.c **** #include "fx_system.h"
ARM GAS  C:\Users\HP\AppData\Local\Temp\ccq996lt.s 			page 2


  30:Middlewares/ST/filex/common/src/fx_directory_entry_read.c **** #include "fx_directory.h"
  31:Middlewares/ST/filex/common/src/fx_directory_entry_read.c **** #include "fx_utility.h"
  32:Middlewares/ST/filex/common/src/fx_directory_entry_read.c **** #ifdef FX_ENABLE_EXFAT
  33:Middlewares/ST/filex/common/src/fx_directory_entry_read.c **** #include "fx_directory_exFAT.h"
  34:Middlewares/ST/filex/common/src/fx_directory_entry_read.c **** 
  35:Middlewares/ST/filex/common/src/fx_directory_entry_read.c **** 
  36:Middlewares/ST/filex/common/src/fx_directory_entry_read.c **** 
  37:Middlewares/ST/filex/common/src/fx_directory_entry_read.c **** #endif /* FX_ENABLE_EXFAT */
  38:Middlewares/ST/filex/common/src/fx_directory_entry_read.c **** 
  39:Middlewares/ST/filex/common/src/fx_directory_entry_read.c **** 
  40:Middlewares/ST/filex/common/src/fx_directory_entry_read.c **** /**************************************************************************/
  41:Middlewares/ST/filex/common/src/fx_directory_entry_read.c **** /*                                                                        */
  42:Middlewares/ST/filex/common/src/fx_directory_entry_read.c **** /*  FUNCTION                                               RELEASE        */
  43:Middlewares/ST/filex/common/src/fx_directory_entry_read.c **** /*                                                                        */
  44:Middlewares/ST/filex/common/src/fx_directory_entry_read.c **** /*    _fx_directory_entry_read                            PORTABLE C      */
  45:Middlewares/ST/filex/common/src/fx_directory_entry_read.c **** /*                                                           6.1          */
  46:Middlewares/ST/filex/common/src/fx_directory_entry_read.c **** /*  AUTHOR                                                                */
  47:Middlewares/ST/filex/common/src/fx_directory_entry_read.c **** /*                                                                        */
  48:Middlewares/ST/filex/common/src/fx_directory_entry_read.c **** /*    William E. Lamie, Microsoft Corporation                             */
  49:Middlewares/ST/filex/common/src/fx_directory_entry_read.c **** /*                                                                        */
  50:Middlewares/ST/filex/common/src/fx_directory_entry_read.c **** /*  DESCRIPTION                                                           */
  51:Middlewares/ST/filex/common/src/fx_directory_entry_read.c **** /*                                                                        */
  52:Middlewares/ST/filex/common/src/fx_directory_entry_read.c **** /*    This function reads the supplied directory entry from the supplied  */
  53:Middlewares/ST/filex/common/src/fx_directory_entry_read.c **** /*    source directory.  If the supplied directory entry is NULL, then    */
  54:Middlewares/ST/filex/common/src/fx_directory_entry_read.c **** /*    the root directory is assumed.                                      */
  55:Middlewares/ST/filex/common/src/fx_directory_entry_read.c **** /*                                                                        */
  56:Middlewares/ST/filex/common/src/fx_directory_entry_read.c **** /*  INPUT                                                                 */
  57:Middlewares/ST/filex/common/src/fx_directory_entry_read.c **** /*                                                                        */
  58:Middlewares/ST/filex/common/src/fx_directory_entry_read.c **** /*    media_ptr                             Media control block pointer   */
  59:Middlewares/ST/filex/common/src/fx_directory_entry_read.c **** /*    source_dir                            Source directory entry        */
  60:Middlewares/ST/filex/common/src/fx_directory_entry_read.c **** /*    entry_ptr                             Directory entry number        */
  61:Middlewares/ST/filex/common/src/fx_directory_entry_read.c **** /*    destination_ptr                       Pointer to destination for    */
  62:Middlewares/ST/filex/common/src/fx_directory_entry_read.c **** /*                                            the directory entry         */
  63:Middlewares/ST/filex/common/src/fx_directory_entry_read.c **** /*                                                                        */
  64:Middlewares/ST/filex/common/src/fx_directory_entry_read.c **** /*  OUTPUT                                                                */
  65:Middlewares/ST/filex/common/src/fx_directory_entry_read.c **** /*                                                                        */
  66:Middlewares/ST/filex/common/src/fx_directory_entry_read.c **** /*    return status                                                       */
  67:Middlewares/ST/filex/common/src/fx_directory_entry_read.c **** /*    *entry_ptr should point to the 8:3 entry if it is a long name       */
  68:Middlewares/ST/filex/common/src/fx_directory_entry_read.c **** /*                                                                        */
  69:Middlewares/ST/filex/common/src/fx_directory_entry_read.c **** /*  CALLS                                                                 */
  70:Middlewares/ST/filex/common/src/fx_directory_entry_read.c **** /*                                                                        */
  71:Middlewares/ST/filex/common/src/fx_directory_entry_read.c **** /*    _fx_directory_exFAT_entry_read        Read exFAT entries            */
  72:Middlewares/ST/filex/common/src/fx_directory_entry_read.c **** /*    _fx_utility_FAT_entry_read            Read a FAT entry              */
  73:Middlewares/ST/filex/common/src/fx_directory_entry_read.c **** /*    _fx_utility_logical_sector_read       Read directory sector         */
  74:Middlewares/ST/filex/common/src/fx_directory_entry_read.c **** /*    _fx_utility_16_unsigned_read          Read a UINT from memory       */
  75:Middlewares/ST/filex/common/src/fx_directory_entry_read.c **** /*    _fx_utility_32_unsigned_read          Read a ULONG from memory      */
  76:Middlewares/ST/filex/common/src/fx_directory_entry_read.c **** /*                                                                        */
  77:Middlewares/ST/filex/common/src/fx_directory_entry_read.c **** /*  CALLED BY                                                             */
  78:Middlewares/ST/filex/common/src/fx_directory_entry_read.c **** /*                                                                        */
  79:Middlewares/ST/filex/common/src/fx_directory_entry_read.c **** /*    FileX System Functions                                              */
  80:Middlewares/ST/filex/common/src/fx_directory_entry_read.c **** /*                                                                        */
  81:Middlewares/ST/filex/common/src/fx_directory_entry_read.c **** /*  RELEASE HISTORY                                                       */
  82:Middlewares/ST/filex/common/src/fx_directory_entry_read.c **** /*                                                                        */
  83:Middlewares/ST/filex/common/src/fx_directory_entry_read.c **** /*    DATE              NAME                      DESCRIPTION             */
  84:Middlewares/ST/filex/common/src/fx_directory_entry_read.c **** /*                                                                        */
  85:Middlewares/ST/filex/common/src/fx_directory_entry_read.c **** /*  05-19-2020     William E. Lamie         Initial Version 6.0           */
  86:Middlewares/ST/filex/common/src/fx_directory_entry_read.c **** /*  09-30-2020     William E. Lamie         Modified comment(s),          */
ARM GAS  C:\Users\HP\AppData\Local\Temp\ccq996lt.s 			page 3


  87:Middlewares/ST/filex/common/src/fx_directory_entry_read.c **** /*                                            resulting in version 6.1    */
  88:Middlewares/ST/filex/common/src/fx_directory_entry_read.c **** /*                                                                        */
  89:Middlewares/ST/filex/common/src/fx_directory_entry_read.c **** /**************************************************************************/
  90:Middlewares/ST/filex/common/src/fx_directory_entry_read.c **** #ifdef FX_ENABLE_EXFAT
  91:Middlewares/ST/filex/common/src/fx_directory_entry_read.c **** UINT  _fx_directory_entry_read_FAT(FX_MEDIA *media_ptr, FX_DIR_ENTRY *source_dir,
  92:Middlewares/ST/filex/common/src/fx_directory_entry_read.c ****                                    ULONG *entry_ptr, FX_DIR_ENTRY *destination_ptr)
  93:Middlewares/ST/filex/common/src/fx_directory_entry_read.c **** #else
  94:Middlewares/ST/filex/common/src/fx_directory_entry_read.c **** UINT  _fx_directory_entry_read(FX_MEDIA *media_ptr, FX_DIR_ENTRY *source_dir,
  95:Middlewares/ST/filex/common/src/fx_directory_entry_read.c ****                                ULONG *entry_ptr, FX_DIR_ENTRY *destination_ptr)
  96:Middlewares/ST/filex/common/src/fx_directory_entry_read.c **** #endif /* FX_ENABLE_EXFAT */
  97:Middlewares/ST/filex/common/src/fx_directory_entry_read.c **** {
  30              		.loc 1 97 1 view -0
  31              		.cfi_startproc
  32              		@ args = 0, pretend = 0, frame = 40
  33              		@ frame_needed = 0, uses_anonymous_args = 0
  34              		.loc 1 97 1 is_stmt 0 view .LVU1
  35 0000 2DE9F04F 		push	{r4, r5, r6, r7, r8, r9, r10, fp, lr}
  36              	.LCFI0:
  37              		.cfi_def_cfa_offset 36
  38              		.cfi_offset 4, -36
  39              		.cfi_offset 5, -32
  40              		.cfi_offset 6, -28
  41              		.cfi_offset 7, -24
  42              		.cfi_offset 8, -20
  43              		.cfi_offset 9, -16
  44              		.cfi_offset 10, -12
  45              		.cfi_offset 11, -8
  46              		.cfi_offset 14, -4
  47 0004 8FB0     		sub	sp, sp, #60
  48              	.LCFI1:
  49              		.cfi_def_cfa_offset 96
  50 0006 0546     		mov	r5, r0
  51 0008 0792     		str	r2, [sp, #28]
  52 000a 1F46     		mov	r7, r3
  98:Middlewares/ST/filex/common/src/fx_directory_entry_read.c **** 
  99:Middlewares/ST/filex/common/src/fx_directory_entry_read.c **** UINT   i, j, card, dotflag, get_short_name;
  53              		.loc 1 99 1 is_stmt 1 view .LVU2
 100:Middlewares/ST/filex/common/src/fx_directory_entry_read.c **** UINT   number_of_lfns;
  54              		.loc 1 100 1 view .LVU3
 101:Middlewares/ST/filex/common/src/fx_directory_entry_read.c **** UINT   status;
  55              		.loc 1 101 1 view .LVU4
 102:Middlewares/ST/filex/common/src/fx_directory_entry_read.c **** ULONG  cluster, next_cluster = 0;
  56              		.loc 1 102 1 view .LVU5
  57              		.loc 1 102 17 is_stmt 0 view .LVU6
  58 000c 0023     		movs	r3, #0
  59              	.LVL1:
  60              		.loc 1 102 17 view .LVU7
  61 000e 0D93     		str	r3, [sp, #52]
 103:Middlewares/ST/filex/common/src/fx_directory_entry_read.c **** UINT   relative_cluster;
  62              		.loc 1 103 1 is_stmt 1 view .LVU8
 104:Middlewares/ST/filex/common/src/fx_directory_entry_read.c **** UINT   relative_sector;
  63              		.loc 1 104 1 view .LVU9
 105:Middlewares/ST/filex/common/src/fx_directory_entry_read.c **** ULONG  logical_sector;
  64              		.loc 1 105 1 view .LVU10
 106:Middlewares/ST/filex/common/src/fx_directory_entry_read.c **** ULONG  byte_offset;
  65              		.loc 1 106 1 view .LVU11
 107:Middlewares/ST/filex/common/src/fx_directory_entry_read.c **** ULONG  bytes_per_cluster;
ARM GAS  C:\Users\HP\AppData\Local\Temp\ccq996lt.s 			page 4


  66              		.loc 1 107 1 view .LVU12
 108:Middlewares/ST/filex/common/src/fx_directory_entry_read.c **** UCHAR *read_ptr;
  67              		.loc 1 108 1 view .LVU13
 109:Middlewares/ST/filex/common/src/fx_directory_entry_read.c **** CHAR  *short_name_ptr;
  68              		.loc 1 109 1 view .LVU14
 110:Middlewares/ST/filex/common/src/fx_directory_entry_read.c **** ULONG  entry = *entry_ptr;
  69              		.loc 1 110 1 view .LVU15
  70              		.loc 1 110 8 is_stmt 0 view .LVU16
  71 0010 1268     		ldr	r2, [r2]
  72              	.LVL2:
  73              		.loc 1 110 8 view .LVU17
  74 0012 0692     		str	r2, [sp, #24]
  75              	.LVL3:
 111:Middlewares/ST/filex/common/src/fx_directory_entry_read.c **** 
 112:Middlewares/ST/filex/common/src/fx_directory_entry_read.c **** 
 113:Middlewares/ST/filex/common/src/fx_directory_entry_read.c **** #ifndef FX_MEDIA_STATISTICS_DISABLE
 114:Middlewares/ST/filex/common/src/fx_directory_entry_read.c **** 
 115:Middlewares/ST/filex/common/src/fx_directory_entry_read.c ****     /* Increment the number of directory entry read requests.  */
 116:Middlewares/ST/filex/common/src/fx_directory_entry_read.c ****     media_ptr -> fx_media_directory_entry_reads++;
  76              		.loc 1 116 5 is_stmt 1 view .LVU18
  77              		.loc 1 116 15 is_stmt 0 view .LVU19
  78 0014 D0F86831 		ldr	r3, [r0, #360]
  79              		.loc 1 116 48 view .LVU20
  80 0018 0133     		adds	r3, r3, #1
  81 001a C0F86831 		str	r3, [r0, #360]
 117:Middlewares/ST/filex/common/src/fx_directory_entry_read.c **** #endif
 118:Middlewares/ST/filex/common/src/fx_directory_entry_read.c **** 
 119:Middlewares/ST/filex/common/src/fx_directory_entry_read.c ****     /* Extended port-specific processing macro, which is by default defined to white space.  */
 120:Middlewares/ST/filex/common/src/fx_directory_entry_read.c ****     FX_DIRECTORY_ENTRY_READ_EXTENSION
 121:Middlewares/ST/filex/common/src/fx_directory_entry_read.c **** 
 122:Middlewares/ST/filex/common/src/fx_directory_entry_read.c ****     /* If trace is enabled, insert this event into the trace buffer.  */
 123:Middlewares/ST/filex/common/src/fx_directory_entry_read.c ****     FX_TRACE_IN_LINE_INSERT(FX_TRACE_INTERNAL_DIR_ENTRY_READ, media_ptr, 0, 0, 0, FX_TRACE_INTERNAL
 124:Middlewares/ST/filex/common/src/fx_directory_entry_read.c **** 
 125:Middlewares/ST/filex/common/src/fx_directory_entry_read.c ****     /* Calculate the byte offset of this directory entry.  */
 126:Middlewares/ST/filex/common/src/fx_directory_entry_read.c ****     byte_offset =  entry * FX_DIR_ENTRY_SIZE;
  82              		.loc 1 126 5 is_stmt 1 view .LVU21
  83              		.loc 1 126 17 is_stmt 0 view .LVU22
  84 001e 5401     		lsls	r4, r2, #5
  85              	.LVL4:
 127:Middlewares/ST/filex/common/src/fx_directory_entry_read.c **** 
 128:Middlewares/ST/filex/common/src/fx_directory_entry_read.c ****     /* Determine if a sub-directory or FAT32 root directory is specified.  */
 129:Middlewares/ST/filex/common/src/fx_directory_entry_read.c **** #ifdef FX_ENABLE_EXFAT
 130:Middlewares/ST/filex/common/src/fx_directory_entry_read.c ****     if ((source_dir) || (media_ptr -> fx_media_FAT_type == FX_FAT32))
 131:Middlewares/ST/filex/common/src/fx_directory_entry_read.c **** #else
 132:Middlewares/ST/filex/common/src/fx_directory_entry_read.c ****     if ((source_dir) || (media_ptr -> fx_media_32_bit_FAT))
  86              		.loc 1 132 5 is_stmt 1 view .LVU23
  87              		.loc 1 132 8 is_stmt 0 view .LVU24
  88 0020 8B46     		mov	fp, r1
  89 0022 0029     		cmp	r1, #0
  90 0024 40D0     		beq	.L70
  91              	.L2:
 133:Middlewares/ST/filex/common/src/fx_directory_entry_read.c **** #endif
 134:Middlewares/ST/filex/common/src/fx_directory_entry_read.c ****     {
 135:Middlewares/ST/filex/common/src/fx_directory_entry_read.c **** 
 136:Middlewares/ST/filex/common/src/fx_directory_entry_read.c ****         /* Yes, a sub-directory is present.  */
 137:Middlewares/ST/filex/common/src/fx_directory_entry_read.c **** 
 138:Middlewares/ST/filex/common/src/fx_directory_entry_read.c ****         /* Calculate the number of bytes per cluster.  */
ARM GAS  C:\Users\HP\AppData\Local\Temp\ccq996lt.s 			page 5


 139:Middlewares/ST/filex/common/src/fx_directory_entry_read.c ****         bytes_per_cluster =  ((ULONG)media_ptr -> fx_media_bytes_per_sector) *
  92              		.loc 1 139 9 is_stmt 1 view .LVU25
  93              		.loc 1 139 48 is_stmt 0 view .LVU26
  94 0026 AB6A     		ldr	r3, [r5, #40]
 140:Middlewares/ST/filex/common/src/fx_directory_entry_read.c ****             ((ULONG)media_ptr -> fx_media_sectors_per_cluster);
  95              		.loc 1 140 31 view .LVU27
  96 0028 6E6D     		ldr	r6, [r5, #84]
 139:Middlewares/ST/filex/common/src/fx_directory_entry_read.c ****             ((ULONG)media_ptr -> fx_media_sectors_per_cluster);
  97              		.loc 1 139 27 view .LVU28
  98 002a 03FB06F6 		mul	r6, r3, r6
  99              	.LVL5:
 141:Middlewares/ST/filex/common/src/fx_directory_entry_read.c **** 
 142:Middlewares/ST/filex/common/src/fx_directory_entry_read.c ****         /* Check for invalid value.  */
 143:Middlewares/ST/filex/common/src/fx_directory_entry_read.c ****         if (bytes_per_cluster == 0)
 100              		.loc 1 143 9 is_stmt 1 view .LVU29
 101              		.loc 1 143 12 is_stmt 0 view .LVU30
 102 002e 002E     		cmp	r6, #0
 103 0030 00F04C82 		beq	.L49
 144:Middlewares/ST/filex/common/src/fx_directory_entry_read.c ****         {
 145:Middlewares/ST/filex/common/src/fx_directory_entry_read.c **** 
 146:Middlewares/ST/filex/common/src/fx_directory_entry_read.c ****             /* Invalid media, return error.  */
 147:Middlewares/ST/filex/common/src/fx_directory_entry_read.c ****             return(FX_MEDIA_INVALID);
 148:Middlewares/ST/filex/common/src/fx_directory_entry_read.c ****         }
 149:Middlewares/ST/filex/common/src/fx_directory_entry_read.c **** 
 150:Middlewares/ST/filex/common/src/fx_directory_entry_read.c ****         /* Now determine the relative cluster in the sub-directory file.  */
 151:Middlewares/ST/filex/common/src/fx_directory_entry_read.c ****         relative_cluster =   (UINT)(byte_offset / bytes_per_cluster);
 104              		.loc 1 151 9 is_stmt 1 view .LVU31
 105              		.loc 1 151 26 is_stmt 0 view .LVU32
 106 0034 B4FBF6F9 		udiv	r9, r4, r6
 107              	.LVL6:
 152:Middlewares/ST/filex/common/src/fx_directory_entry_read.c **** 
 153:Middlewares/ST/filex/common/src/fx_directory_entry_read.c ****         /* Calculate the byte offset within the cluster.  */
 154:Middlewares/ST/filex/common/src/fx_directory_entry_read.c ****         byte_offset =  byte_offset % bytes_per_cluster;
 108              		.loc 1 154 9 is_stmt 1 view .LVU33
 109              		.loc 1 154 21 is_stmt 0 view .LVU34
 110 0038 06FB1946 		mls	r6, r6, r9, r4
 111              	.LVL7:
 155:Middlewares/ST/filex/common/src/fx_directory_entry_read.c **** 
 156:Middlewares/ST/filex/common/src/fx_directory_entry_read.c ****         /* Now figure out the relative sector within the cluster.  */
 157:Middlewares/ST/filex/common/src/fx_directory_entry_read.c ****         relative_sector =    (UINT)(byte_offset / ((ULONG)media_ptr -> fx_media_bytes_per_sector));
 112              		.loc 1 157 9 is_stmt 1 view .LVU35
 113              		.loc 1 157 25 is_stmt 0 view .LVU36
 114 003c B6FBF3F3 		udiv	r3, r6, r3
 115              	.LVL8:
 116              		.loc 1 157 25 view .LVU37
 117 0040 0893     		str	r3, [sp, #32]
 118              	.LVL9:
 158:Middlewares/ST/filex/common/src/fx_directory_entry_read.c **** 
 159:Middlewares/ST/filex/common/src/fx_directory_entry_read.c ****         /* Read the directory sector into the internal memory buffer.  */
 160:Middlewares/ST/filex/common/src/fx_directory_entry_read.c **** 
 161:Middlewares/ST/filex/common/src/fx_directory_entry_read.c ****         /* Determine if there is a sub-directory.  */
 162:Middlewares/ST/filex/common/src/fx_directory_entry_read.c ****         if (source_dir)
 119              		.loc 1 162 9 is_stmt 1 view .LVU38
 120              		.loc 1 162 12 is_stmt 0 view .LVU39
 121 0042 BBF1000F 		cmp	fp, #0
 122 0046 5BD0     		beq	.L5
 163:Middlewares/ST/filex/common/src/fx_directory_entry_read.c ****         {
ARM GAS  C:\Users\HP\AppData\Local\Temp\ccq996lt.s 			page 6


 164:Middlewares/ST/filex/common/src/fx_directory_entry_read.c **** 
 165:Middlewares/ST/filex/common/src/fx_directory_entry_read.c ****             /* Determine if this source directory has valid information from the previous call.  */
 166:Middlewares/ST/filex/common/src/fx_directory_entry_read.c ****             if ((source_dir -> fx_dir_entry_last_search_cluster) &&
 123              		.loc 1 166 13 is_stmt 1 view .LVU40
 124              		.loc 1 166 29 is_stmt 0 view .LVU41
 125 0048 DBF85040 		ldr	r4, [fp, #80]
 126              		.loc 1 166 16 view .LVU42
 127 004c 7CB1     		cbz	r4, .L6
 167:Middlewares/ST/filex/common/src/fx_directory_entry_read.c ****                 (source_dir -> fx_dir_entry_last_search_relative_cluster <= relative_cluster) &&
 128              		.loc 1 167 29 discriminator 1 view .LVU43
 129 004e DBF85480 		ldr	r8, [fp, #84]
 166:Middlewares/ST/filex/common/src/fx_directory_entry_read.c ****                 (source_dir -> fx_dir_entry_last_search_relative_cluster <= relative_cluster) &&
 130              		.loc 1 166 66 discriminator 1 view .LVU44
 131 0052 C845     		cmp	r8, r9
 132 0054 0BD8     		bhi	.L6
 168:Middlewares/ST/filex/common/src/fx_directory_entry_read.c ****                 (source_dir -> fx_dir_entry_last_search_log_sector == source_dir -> fx_dir_entry_lo
 133              		.loc 1 168 29 view .LVU45
 134 0056 DBF85800 		ldr	r0, [fp, #88]
 135              	.LVL10:
 136              		.loc 1 168 29 view .LVU46
 137 005a DBF85C20 		ldr	r2, [fp, #92]
 138              	.LVL11:
 139              		.loc 1 168 82 view .LVU47
 140 005e DBF84010 		ldr	r1, [fp, #64]
 141              	.LVL12:
 142              		.loc 1 168 82 view .LVU48
 143 0062 DBF84430 		ldr	r3, [fp, #68]
 144              	.LVL13:
 167:Middlewares/ST/filex/common/src/fx_directory_entry_read.c ****                 (source_dir -> fx_dir_entry_last_search_relative_cluster <= relative_cluster) &&
 145              		.loc 1 167 95 view .LVU49
 146 0066 9A42     		cmp	r2, r3
 147 0068 08BF     		it	eq
 148 006a 8842     		cmpeq	r0, r1
 149 006c 3DD0     		beq	.L71
 150              	.L6:
 169:Middlewares/ST/filex/common/src/fx_directory_entry_read.c ****                 (source_dir -> fx_dir_entry_last_search_byte_offset == source_dir -> fx_dir_entry_b
 170:Middlewares/ST/filex/common/src/fx_directory_entry_read.c ****             {
 171:Middlewares/ST/filex/common/src/fx_directory_entry_read.c **** 
 172:Middlewares/ST/filex/common/src/fx_directory_entry_read.c ****                 /* Use the previous information to start the search.  */
 173:Middlewares/ST/filex/common/src/fx_directory_entry_read.c ****                 cluster =  source_dir -> fx_dir_entry_last_search_cluster;
 174:Middlewares/ST/filex/common/src/fx_directory_entry_read.c **** 
 175:Middlewares/ST/filex/common/src/fx_directory_entry_read.c ****                 /* Setup the relative cluster index to the saved relative cluster.  */
 176:Middlewares/ST/filex/common/src/fx_directory_entry_read.c ****                 i =  source_dir -> fx_dir_entry_last_search_relative_cluster;
 177:Middlewares/ST/filex/common/src/fx_directory_entry_read.c **** 
 178:Middlewares/ST/filex/common/src/fx_directory_entry_read.c ****                 /* Clear the search cluster.  It will be updated prior to successful return.  */
 179:Middlewares/ST/filex/common/src/fx_directory_entry_read.c ****                 source_dir -> fx_dir_entry_last_search_cluster =  0;
 180:Middlewares/ST/filex/common/src/fx_directory_entry_read.c ****             }
 181:Middlewares/ST/filex/common/src/fx_directory_entry_read.c ****             else
 182:Middlewares/ST/filex/common/src/fx_directory_entry_read.c ****             {
 183:Middlewares/ST/filex/common/src/fx_directory_entry_read.c **** 
 184:Middlewares/ST/filex/common/src/fx_directory_entry_read.c ****                 /* Nothing from the previous directory read, just setup the starting cluster to the
 185:Middlewares/ST/filex/common/src/fx_directory_entry_read.c ****                    beginning of the sub-directory.  */
 186:Middlewares/ST/filex/common/src/fx_directory_entry_read.c ****                 cluster =  source_dir -> fx_dir_entry_cluster;
 151              		.loc 1 186 17 is_stmt 1 view .LVU50
 152              		.loc 1 186 25 is_stmt 0 view .LVU51
 153 006e DBF83440 		ldr	r4, [fp, #52]
 154              	.LVL14:
ARM GAS  C:\Users\HP\AppData\Local\Temp\ccq996lt.s 			page 7


 187:Middlewares/ST/filex/common/src/fx_directory_entry_read.c **** 
 188:Middlewares/ST/filex/common/src/fx_directory_entry_read.c ****                 /* Setup the relative cluster index to zero.  */
 189:Middlewares/ST/filex/common/src/fx_directory_entry_read.c ****                 i =  0;
 155              		.loc 1 189 17 is_stmt 1 view .LVU52
 156              		.loc 1 189 19 is_stmt 0 view .LVU53
 157 0072 4FF00008 		mov	r8, #0
 158 0076 2146     		mov	r1, r4
 159              	.LVL15:
 160              	.L8:
 190:Middlewares/ST/filex/common/src/fx_directory_entry_read.c ****             }
 191:Middlewares/ST/filex/common/src/fx_directory_entry_read.c ****         }
 192:Middlewares/ST/filex/common/src/fx_directory_entry_read.c ****         else
 193:Middlewares/ST/filex/common/src/fx_directory_entry_read.c ****         {
 194:Middlewares/ST/filex/common/src/fx_directory_entry_read.c **** 
 195:Middlewares/ST/filex/common/src/fx_directory_entry_read.c ****             /* No, setup the starting cluster to the FAT32 root cluster.  */
 196:Middlewares/ST/filex/common/src/fx_directory_entry_read.c ****             cluster =  media_ptr -> fx_media_root_cluster_32;
 197:Middlewares/ST/filex/common/src/fx_directory_entry_read.c **** 
 198:Middlewares/ST/filex/common/src/fx_directory_entry_read.c ****             /* Setup the relative cluster index to zero.  */
 199:Middlewares/ST/filex/common/src/fx_directory_entry_read.c ****             i =  0;
 200:Middlewares/ST/filex/common/src/fx_directory_entry_read.c ****         }
 201:Middlewares/ST/filex/common/src/fx_directory_entry_read.c **** 
 202:Middlewares/ST/filex/common/src/fx_directory_entry_read.c ****         /* Loop to position to the appropriate cluster.  */
 203:Middlewares/ST/filex/common/src/fx_directory_entry_read.c ****         while (i < relative_cluster)
 161              		.loc 1 203 15 is_stmt 1 view .LVU54
 162 0078 C845     		cmp	r8, r9
 163 007a 46D2     		bcs	.L72
 204:Middlewares/ST/filex/common/src/fx_directory_entry_read.c ****         {
 205:Middlewares/ST/filex/common/src/fx_directory_entry_read.c **** 
 206:Middlewares/ST/filex/common/src/fx_directory_entry_read.c ****             /* Check the value of the new cluster - it must be a valid cluster number
 207:Middlewares/ST/filex/common/src/fx_directory_entry_read.c ****                or something is really wrong!  */
 208:Middlewares/ST/filex/common/src/fx_directory_entry_read.c ****             if ((cluster < FX_FAT_ENTRY_START) || (cluster >= media_ptr -> fx_media_fat_reserved))
 164              		.loc 1 208 13 view .LVU55
 165              		.loc 1 208 16 is_stmt 0 view .LVU56
 166 007c 0129     		cmp	r1, #1
 167 007e 40F22A82 		bls	.L50
 168              		.loc 1 208 73 discriminator 1 view .LVU57
 169 0082 05F50053 		add	r3, r5, #8192
 170 0086 D3F8A834 		ldr	r3, [r3, #1192]
 171              		.loc 1 208 48 discriminator 1 view .LVU58
 172 008a 8B42     		cmp	r3, r1
 173 008c 40F22582 		bls	.L51
 209:Middlewares/ST/filex/common/src/fx_directory_entry_read.c ****             {
 210:Middlewares/ST/filex/common/src/fx_directory_entry_read.c **** 
 211:Middlewares/ST/filex/common/src/fx_directory_entry_read.c ****                 /* Send error message back to caller.  */
 212:Middlewares/ST/filex/common/src/fx_directory_entry_read.c ****                 return(FX_FILE_CORRUPT);
 213:Middlewares/ST/filex/common/src/fx_directory_entry_read.c ****             }
 214:Middlewares/ST/filex/common/src/fx_directory_entry_read.c **** 
 215:Middlewares/ST/filex/common/src/fx_directory_entry_read.c ****             /* Read the next cluster.  */
 216:Middlewares/ST/filex/common/src/fx_directory_entry_read.c ****             status =  _fx_utility_FAT_entry_read(media_ptr, cluster, &next_cluster);
 174              		.loc 1 216 13 is_stmt 1 view .LVU59
 175              		.loc 1 216 23 is_stmt 0 view .LVU60
 176 0090 0DAA     		add	r2, sp, #52
 177 0092 2846     		mov	r0, r5
 178 0094 FFF7FEFF 		bl	_fx_utility_FAT_entry_read
 179              	.LVL16:
 217:Middlewares/ST/filex/common/src/fx_directory_entry_read.c **** 
 218:Middlewares/ST/filex/common/src/fx_directory_entry_read.c ****             /* There is a potential for loop, but hardly anything can be done */
ARM GAS  C:\Users\HP\AppData\Local\Temp\ccq996lt.s 			page 8


 219:Middlewares/ST/filex/common/src/fx_directory_entry_read.c **** 
 220:Middlewares/ST/filex/common/src/fx_directory_entry_read.c ****             /* Check for I/O error.  */
 221:Middlewares/ST/filex/common/src/fx_directory_entry_read.c ****             if (status != FX_SUCCESS)
 180              		.loc 1 221 13 is_stmt 1 view .LVU61
 181              		.loc 1 221 16 is_stmt 0 view .LVU62
 182 0098 0346     		mov	r3, r0
 183 009a 0028     		cmp	r0, #0
 184 009c 40F01782 		bne	.L1
 222:Middlewares/ST/filex/common/src/fx_directory_entry_read.c ****             {
 223:Middlewares/ST/filex/common/src/fx_directory_entry_read.c **** 
 224:Middlewares/ST/filex/common/src/fx_directory_entry_read.c ****                 /* Return error code.  */
 225:Middlewares/ST/filex/common/src/fx_directory_entry_read.c ****                 return(status);
 226:Middlewares/ST/filex/common/src/fx_directory_entry_read.c ****             }
 227:Middlewares/ST/filex/common/src/fx_directory_entry_read.c **** 
 228:Middlewares/ST/filex/common/src/fx_directory_entry_read.c ****             /* Setup the actual cluster.  */
 229:Middlewares/ST/filex/common/src/fx_directory_entry_read.c ****             cluster = next_cluster;
 185              		.loc 1 229 13 is_stmt 1 view .LVU63
 186              		.loc 1 229 21 is_stmt 0 view .LVU64
 187 00a0 0D99     		ldr	r1, [sp, #52]
 188              	.LVL17:
 230:Middlewares/ST/filex/common/src/fx_directory_entry_read.c **** 
 231:Middlewares/ST/filex/common/src/fx_directory_entry_read.c ****             /* Increment the relative cluster number.  */
 232:Middlewares/ST/filex/common/src/fx_directory_entry_read.c ****             i++;
 189              		.loc 1 232 13 is_stmt 1 view .LVU65
 190              		.loc 1 232 14 is_stmt 0 view .LVU66
 191 00a2 08F10108 		add	r8, r8, #1
 192              	.LVL18:
 193              		.loc 1 232 14 view .LVU67
 194 00a6 E7E7     		b	.L8
 195              	.LVL19:
 196              	.L70:
 132:Middlewares/ST/filex/common/src/fx_directory_entry_read.c **** #endif
 197              		.loc 1 132 36 discriminator 1 view .LVU68
 198 00a8 436E     		ldr	r3, [r0, #100]
 132:Middlewares/ST/filex/common/src/fx_directory_entry_read.c **** #endif
 199              		.loc 1 132 22 discriminator 1 view .LVU69
 200 00aa 002B     		cmp	r3, #0
 201 00ac BBD1     		bne	.L2
 233:Middlewares/ST/filex/common/src/fx_directory_entry_read.c ****         }
 234:Middlewares/ST/filex/common/src/fx_directory_entry_read.c **** 
 235:Middlewares/ST/filex/common/src/fx_directory_entry_read.c ****         /* At this point, the directory data sector needs to be read.  */
 236:Middlewares/ST/filex/common/src/fx_directory_entry_read.c ****         logical_sector =    ((ULONG)media_ptr -> fx_media_data_sector_start) +
 237:Middlewares/ST/filex/common/src/fx_directory_entry_read.c ****             (((ULONG)cluster - FX_FAT_ENTRY_START) *
 238:Middlewares/ST/filex/common/src/fx_directory_entry_read.c ****              ((ULONG)media_ptr -> fx_media_sectors_per_cluster)) +
 239:Middlewares/ST/filex/common/src/fx_directory_entry_read.c ****             relative_sector;
 240:Middlewares/ST/filex/common/src/fx_directory_entry_read.c **** 
 241:Middlewares/ST/filex/common/src/fx_directory_entry_read.c ****         /* Read the logical directory sector.  */
 242:Middlewares/ST/filex/common/src/fx_directory_entry_read.c ****         status =  _fx_utility_logical_sector_read(media_ptr, (ULONG64) logical_sector,
 243:Middlewares/ST/filex/common/src/fx_directory_entry_read.c ****                                                   media_ptr -> fx_media_memory_buffer, ((ULONG) 1),
 244:Middlewares/ST/filex/common/src/fx_directory_entry_read.c **** 
 245:Middlewares/ST/filex/common/src/fx_directory_entry_read.c ****         /* Determine if an error occurred.  */
 246:Middlewares/ST/filex/common/src/fx_directory_entry_read.c ****         if (status != FX_SUCCESS)
 247:Middlewares/ST/filex/common/src/fx_directory_entry_read.c ****         {
 248:Middlewares/ST/filex/common/src/fx_directory_entry_read.c **** 
 249:Middlewares/ST/filex/common/src/fx_directory_entry_read.c ****             /* Return error code.  */
 250:Middlewares/ST/filex/common/src/fx_directory_entry_read.c ****             return(status);
 251:Middlewares/ST/filex/common/src/fx_directory_entry_read.c ****         }
ARM GAS  C:\Users\HP\AppData\Local\Temp\ccq996lt.s 			page 9


 252:Middlewares/ST/filex/common/src/fx_directory_entry_read.c **** 
 253:Middlewares/ST/filex/common/src/fx_directory_entry_read.c ****         /* Calculate the byte offset within this sector.  */
 254:Middlewares/ST/filex/common/src/fx_directory_entry_read.c ****         byte_offset =  byte_offset % media_ptr -> fx_media_bytes_per_sector;
 255:Middlewares/ST/filex/common/src/fx_directory_entry_read.c ****     }
 256:Middlewares/ST/filex/common/src/fx_directory_entry_read.c ****     else
 257:Middlewares/ST/filex/common/src/fx_directory_entry_read.c ****     {
 258:Middlewares/ST/filex/common/src/fx_directory_entry_read.c **** 
 259:Middlewares/ST/filex/common/src/fx_directory_entry_read.c ****         /* Read the entry from the root directory.  */
 260:Middlewares/ST/filex/common/src/fx_directory_entry_read.c **** 
 261:Middlewares/ST/filex/common/src/fx_directory_entry_read.c ****         /* Determine which sector the requested root directory entry is in.  */
 262:Middlewares/ST/filex/common/src/fx_directory_entry_read.c ****         logical_sector =  (byte_offset / media_ptr -> fx_media_bytes_per_sector) +
 202              		.loc 1 262 9 is_stmt 1 view .LVU70
 203              		.loc 1 262 52 is_stmt 0 view .LVU71
 204 00ae 836A     		ldr	r3, [r0, #40]
 205              		.loc 1 262 40 view .LVU72
 206 00b0 B4FBF3F3 		udiv	r3, r4, r3
 263:Middlewares/ST/filex/common/src/fx_directory_entry_read.c ****             (ULONG)media_ptr -> fx_media_root_sector_start;
 207              		.loc 1 263 30 view .LVU73
 208 00b4 826C     		ldr	r2, [r0, #72]
 209              	.LVL20:
 262:Middlewares/ST/filex/common/src/fx_directory_entry_read.c ****             (ULONG)media_ptr -> fx_media_root_sector_start;
 210              		.loc 1 262 24 view .LVU74
 211 00b6 9918     		adds	r1, r3, r2
 212              	.LVL21:
 262:Middlewares/ST/filex/common/src/fx_directory_entry_read.c ****             (ULONG)media_ptr -> fx_media_root_sector_start;
 213              		.loc 1 262 24 view .LVU75
 214 00b8 0E46     		mov	r6, r1
 215 00ba 0991     		str	r1, [sp, #36]
 216              	.LVL22:
 264:Middlewares/ST/filex/common/src/fx_directory_entry_read.c **** 
 265:Middlewares/ST/filex/common/src/fx_directory_entry_read.c ****         /* Read the logical directory sector.  */
 266:Middlewares/ST/filex/common/src/fx_directory_entry_read.c ****         status =  _fx_utility_logical_sector_read(media_ptr, (ULONG64) logical_sector,
 217              		.loc 1 266 9 is_stmt 1 view .LVU76
 267:Middlewares/ST/filex/common/src/fx_directory_entry_read.c ****                                                   media_ptr -> fx_media_memory_buffer, ((ULONG) 1),
 218              		.loc 1 267 61 is_stmt 0 view .LVU77
 219 00bc 8368     		ldr	r3, [r0, #8]
 266:Middlewares/ST/filex/common/src/fx_directory_entry_read.c ****                                                   media_ptr -> fx_media_memory_buffer, ((ULONG) 1),
 220              		.loc 1 266 19 view .LVU78
 221 00be 0322     		movs	r2, #3
 222 00c0 0292     		str	r2, [sp, #8]
 223 00c2 0122     		movs	r2, #1
 224 00c4 0192     		str	r2, [sp, #4]
 225 00c6 0093     		str	r3, [sp]
 226 00c8 0A46     		mov	r2, r1
 227 00ca 0023     		movs	r3, #0
 228 00cc FFF7FEFF 		bl	_fx_utility_logical_sector_read
 229              	.LVL23:
 268:Middlewares/ST/filex/common/src/fx_directory_entry_read.c **** 
 269:Middlewares/ST/filex/common/src/fx_directory_entry_read.c ****         /* Determine if an error occurred.  */
 270:Middlewares/ST/filex/common/src/fx_directory_entry_read.c ****         if (status != FX_SUCCESS)
 230              		.loc 1 270 9 is_stmt 1 view .LVU79
 231              		.loc 1 270 12 is_stmt 0 view .LVU80
 232 00d0 0346     		mov	r3, r0
 233 00d2 0028     		cmp	r0, #0
 234 00d4 40F0FB81 		bne	.L1
 271:Middlewares/ST/filex/common/src/fx_directory_entry_read.c ****         {
 272:Middlewares/ST/filex/common/src/fx_directory_entry_read.c **** 
ARM GAS  C:\Users\HP\AppData\Local\Temp\ccq996lt.s 			page 10


 273:Middlewares/ST/filex/common/src/fx_directory_entry_read.c ****             /* Return error code.  */
 274:Middlewares/ST/filex/common/src/fx_directory_entry_read.c ****             return(status);
 275:Middlewares/ST/filex/common/src/fx_directory_entry_read.c ****         }
 276:Middlewares/ST/filex/common/src/fx_directory_entry_read.c **** 
 277:Middlewares/ST/filex/common/src/fx_directory_entry_read.c ****         /* Set the cluster and relative variables (not used in this case) to avoid any compiler
 278:Middlewares/ST/filex/common/src/fx_directory_entry_read.c ****            warnings.  */
 279:Middlewares/ST/filex/common/src/fx_directory_entry_read.c ****         relative_cluster =  relative_sector =  cluster =  0;
 235              		.loc 1 279 9 is_stmt 1 view .LVU81
 236              	.LVL24:
 280:Middlewares/ST/filex/common/src/fx_directory_entry_read.c **** 
 281:Middlewares/ST/filex/common/src/fx_directory_entry_read.c ****         /* Now calculate the byte offset into this sector.  */
 282:Middlewares/ST/filex/common/src/fx_directory_entry_read.c ****         byte_offset =  byte_offset -
 237              		.loc 1 282 9 view .LVU82
 283:Middlewares/ST/filex/common/src/fx_directory_entry_read.c ****             ((logical_sector - (ULONG)media_ptr -> fx_media_root_sector_start) *
 238              		.loc 1 283 49 is_stmt 0 view .LVU83
 239 00d8 AA6C     		ldr	r2, [r5, #72]
 240              		.loc 1 283 30 view .LVU84
 241 00da B21A     		subs	r2, r6, r2
 284:Middlewares/ST/filex/common/src/fx_directory_entry_read.c ****              media_ptr -> fx_media_bytes_per_sector);
 242              		.loc 1 284 24 view .LVU85
 243 00dc A96A     		ldr	r1, [r5, #40]
 282:Middlewares/ST/filex/common/src/fx_directory_entry_read.c ****             ((logical_sector - (ULONG)media_ptr -> fx_media_root_sector_start) *
 244              		.loc 1 282 21 view .LVU86
 245 00de 01FB1241 		mls	r1, r1, r2, r4
 246              	.LVL25:
 279:Middlewares/ST/filex/common/src/fx_directory_entry_read.c **** 
 247              		.loc 1 279 45 view .LVU87
 248 00e2 0890     		str	r0, [sp, #32]
 279:Middlewares/ST/filex/common/src/fx_directory_entry_read.c **** 
 249              		.loc 1 279 26 view .LVU88
 250 00e4 8146     		mov	r9, r0
 279:Middlewares/ST/filex/common/src/fx_directory_entry_read.c **** 
 251              		.loc 1 279 56 view .LVU89
 252 00e6 0446     		mov	r4, r0
 253 00e8 2CE0     		b	.L10
 254              	.LVL26:
 255              	.L71:
 169:Middlewares/ST/filex/common/src/fx_directory_entry_read.c ****             {
 256              		.loc 1 169 29 view .LVU90
 257 00ea DBF86020 		ldr	r2, [fp, #96]
 169:Middlewares/ST/filex/common/src/fx_directory_entry_read.c ****             {
 258              		.loc 1 169 83 view .LVU91
 259 00ee DBF84830 		ldr	r3, [fp, #72]
 168:Middlewares/ST/filex/common/src/fx_directory_entry_read.c ****                 (source_dir -> fx_dir_entry_last_search_byte_offset == source_dir -> fx_dir_entry_b
 260              		.loc 1 168 110 view .LVU92
 261 00f2 9A42     		cmp	r2, r3
 262 00f4 BBD1     		bne	.L6
 173:Middlewares/ST/filex/common/src/fx_directory_entry_read.c **** 
 263              		.loc 1 173 17 is_stmt 1 view .LVU93
 264              	.LVL27:
 176:Middlewares/ST/filex/common/src/fx_directory_entry_read.c **** 
 265              		.loc 1 176 17 view .LVU94
 179:Middlewares/ST/filex/common/src/fx_directory_entry_read.c ****             }
 266              		.loc 1 179 17 view .LVU95
 179:Middlewares/ST/filex/common/src/fx_directory_entry_read.c ****             }
 267              		.loc 1 179 64 is_stmt 0 view .LVU96
 268 00f6 0023     		movs	r3, #0
ARM GAS  C:\Users\HP\AppData\Local\Temp\ccq996lt.s 			page 11


 269 00f8 CBF85030 		str	r3, [fp, #80]
 270              	.LVL28:
 179:Middlewares/ST/filex/common/src/fx_directory_entry_read.c ****             }
 271              		.loc 1 179 64 view .LVU97
 272 00fc 2146     		mov	r1, r4
 273 00fe BBE7     		b	.L8
 274              	.LVL29:
 275              	.L5:
 196:Middlewares/ST/filex/common/src/fx_directory_entry_read.c **** 
 276              		.loc 1 196 13 is_stmt 1 view .LVU98
 196:Middlewares/ST/filex/common/src/fx_directory_entry_read.c **** 
 277              		.loc 1 196 21 is_stmt 0 view .LVU99
 278 0100 6C6F     		ldr	r4, [r5, #116]
 279              	.LVL30:
 199:Middlewares/ST/filex/common/src/fx_directory_entry_read.c ****         }
 280              		.loc 1 199 13 is_stmt 1 view .LVU100
 199:Middlewares/ST/filex/common/src/fx_directory_entry_read.c ****         }
 281              		.loc 1 199 15 is_stmt 0 view .LVU101
 282 0102 4FF00008 		mov	r8, #0
 283 0106 2146     		mov	r1, r4
 284              	.LVL31:
 199:Middlewares/ST/filex/common/src/fx_directory_entry_read.c ****         }
 285              		.loc 1 199 15 view .LVU102
 286 0108 B6E7     		b	.L8
 287              	.LVL32:
 288              	.L72:
 236:Middlewares/ST/filex/common/src/fx_directory_entry_read.c ****             (((ULONG)cluster - FX_FAT_ENTRY_START) *
 289              		.loc 1 236 47 view .LVU103
 290 010a 0C46     		mov	r4, r1
 236:Middlewares/ST/filex/common/src/fx_directory_entry_read.c ****             (((ULONG)cluster - FX_FAT_ENTRY_START) *
 291              		.loc 1 236 9 is_stmt 1 view .LVU104
 236:Middlewares/ST/filex/common/src/fx_directory_entry_read.c ****             (((ULONG)cluster - FX_FAT_ENTRY_START) *
 292              		.loc 1 236 47 is_stmt 0 view .LVU105
 293 010c 2B6D     		ldr	r3, [r5, #80]
 237:Middlewares/ST/filex/common/src/fx_directory_entry_read.c ****              ((ULONG)media_ptr -> fx_media_sectors_per_cluster)) +
 294              		.loc 1 237 30 view .LVU106
 295 010e 8A1E     		subs	r2, r1, #2
 238:Middlewares/ST/filex/common/src/fx_directory_entry_read.c ****             relative_sector;
 296              		.loc 1 238 32 view .LVU107
 297 0110 696D     		ldr	r1, [r5, #84]
 298              	.LVL33:
 236:Middlewares/ST/filex/common/src/fx_directory_entry_read.c ****             (((ULONG)cluster - FX_FAT_ENTRY_START) *
 299              		.loc 1 236 78 view .LVU108
 300 0112 01FB0233 		mla	r3, r1, r2, r3
 236:Middlewares/ST/filex/common/src/fx_directory_entry_read.c ****             (((ULONG)cluster - FX_FAT_ENTRY_START) *
 301              		.loc 1 236 24 view .LVU109
 302 0116 089A     		ldr	r2, [sp, #32]
 303 0118 9918     		adds	r1, r3, r2
 304 011a 0991     		str	r1, [sp, #36]
 305              	.LVL34:
 242:Middlewares/ST/filex/common/src/fx_directory_entry_read.c ****                                                   media_ptr -> fx_media_memory_buffer, ((ULONG) 1),
 306              		.loc 1 242 9 is_stmt 1 view .LVU110
 243:Middlewares/ST/filex/common/src/fx_directory_entry_read.c **** 
 307              		.loc 1 243 61 is_stmt 0 view .LVU111
 308 011c AB68     		ldr	r3, [r5, #8]
 242:Middlewares/ST/filex/common/src/fx_directory_entry_read.c ****                                                   media_ptr -> fx_media_memory_buffer, ((ULONG) 1),
 309              		.loc 1 242 19 view .LVU112
ARM GAS  C:\Users\HP\AppData\Local\Temp\ccq996lt.s 			page 12


 310 011e 0322     		movs	r2, #3
 311 0120 0292     		str	r2, [sp, #8]
 312 0122 0122     		movs	r2, #1
 313 0124 0192     		str	r2, [sp, #4]
 314 0126 0093     		str	r3, [sp]
 315 0128 0A46     		mov	r2, r1
 316 012a 0023     		movs	r3, #0
 317 012c 2846     		mov	r0, r5
 318 012e FFF7FEFF 		bl	_fx_utility_logical_sector_read
 319              	.LVL35:
 246:Middlewares/ST/filex/common/src/fx_directory_entry_read.c ****         {
 320              		.loc 1 246 9 is_stmt 1 view .LVU113
 246:Middlewares/ST/filex/common/src/fx_directory_entry_read.c ****         {
 321              		.loc 1 246 12 is_stmt 0 view .LVU114
 322 0132 0346     		mov	r3, r0
 323 0134 0028     		cmp	r0, #0
 324 0136 40F0CA81 		bne	.L1
 254:Middlewares/ST/filex/common/src/fx_directory_entry_read.c ****     }
 325              		.loc 1 254 9 is_stmt 1 view .LVU115
 254:Middlewares/ST/filex/common/src/fx_directory_entry_read.c ****     }
 326              		.loc 1 254 48 is_stmt 0 view .LVU116
 327 013a AB6A     		ldr	r3, [r5, #40]
 254:Middlewares/ST/filex/common/src/fx_directory_entry_read.c ****     }
 328              		.loc 1 254 21 view .LVU117
 329 013c B6FBF3F1 		udiv	r1, r6, r3
 330 0140 03FB1161 		mls	r1, r3, r1, r6
 331              	.LVL36:
 332              	.L10:
 285:Middlewares/ST/filex/common/src/fx_directory_entry_read.c ****     }
 286:Middlewares/ST/filex/common/src/fx_directory_entry_read.c **** 
 287:Middlewares/ST/filex/common/src/fx_directory_entry_read.c ****     /* Setup a pointer into the buffer.  */
 288:Middlewares/ST/filex/common/src/fx_directory_entry_read.c ****     read_ptr =  (UCHAR *)media_ptr -> fx_media_memory_buffer + (UINT)byte_offset;
 333              		.loc 1 288 5 is_stmt 1 view .LVU118
 334              		.loc 1 288 36 is_stmt 0 view .LVU119
 335 0144 AA68     		ldr	r2, [r5, #8]
 336              		.loc 1 288 14 view .LVU120
 337 0146 5618     		adds	r6, r2, r1
 338              	.LVL37:
 289:Middlewares/ST/filex/common/src/fx_directory_entry_read.c **** 
 290:Middlewares/ST/filex/common/src/fx_directory_entry_read.c ****     /* Save the logical sector and byte offset in the returned directory entry.  */
 291:Middlewares/ST/filex/common/src/fx_directory_entry_read.c ****     destination_ptr -> fx_dir_entry_log_sector =       logical_sector;
 339              		.loc 1 291 5 is_stmt 1 view .LVU121
 340              		.loc 1 291 48 is_stmt 0 view .LVU122
 341 0148 0023     		movs	r3, #0
 342 014a 0998     		ldr	r0, [sp, #36]
 343              	.LVL38:
 344              		.loc 1 291 48 view .LVU123
 345 014c 3864     		str	r0, [r7, #64]
 346 014e 7B64     		str	r3, [r7, #68]
 292:Middlewares/ST/filex/common/src/fx_directory_entry_read.c ****     destination_ptr -> fx_dir_entry_byte_offset =      byte_offset;
 347              		.loc 1 292 5 is_stmt 1 view .LVU124
 348              		.loc 1 292 49 is_stmt 0 view .LVU125
 349 0150 B964     		str	r1, [r7, #72]
 293:Middlewares/ST/filex/common/src/fx_directory_entry_read.c **** 
 294:Middlewares/ST/filex/common/src/fx_directory_entry_read.c ****     /* Clear the short file name information.  */
 295:Middlewares/ST/filex/common/src/fx_directory_entry_read.c ****     destination_ptr -> fx_dir_entry_long_name_shorted =  0;
 350              		.loc 1 295 5 is_stmt 1 view .LVU126
ARM GAS  C:\Users\HP\AppData\Local\Temp\ccq996lt.s 			page 13


 351              		.loc 1 295 55 is_stmt 0 view .LVU127
 352 0152 BB61     		str	r3, [r7, #24]
 296:Middlewares/ST/filex/common/src/fx_directory_entry_read.c ****     destination_ptr -> fx_dir_entry_short_name[0]     =  0;
 353              		.loc 1 296 5 is_stmt 1 view .LVU128
 354              		.loc 1 296 55 is_stmt 0 view .LVU129
 355 0154 3B71     		strb	r3, [r7, #4]
 297:Middlewares/ST/filex/common/src/fx_directory_entry_read.c **** 
 298:Middlewares/ST/filex/common/src/fx_directory_entry_read.c ****     /* Setup short name pointer.  */
 299:Middlewares/ST/filex/common/src/fx_directory_entry_read.c ****     short_name_ptr =  destination_ptr -> fx_dir_entry_name;
 356              		.loc 1 299 5 is_stmt 1 view .LVU130
 357              		.loc 1 299 20 is_stmt 0 view .LVU131
 358 0156 3B68     		ldr	r3, [r7]
 359 0158 0593     		str	r3, [sp, #20]
 360              	.LVL39:
 300:Middlewares/ST/filex/common/src/fx_directory_entry_read.c **** 
 301:Middlewares/ST/filex/common/src/fx_directory_entry_read.c ****     /* Check if long file name exists.  */
 302:Middlewares/ST/filex/common/src/fx_directory_entry_read.c ****     get_short_name =  0;
 361              		.loc 1 302 5 is_stmt 1 view .LVU132
 303:Middlewares/ST/filex/common/src/fx_directory_entry_read.c ****     if ((*(read_ptr + 11) == (UCHAR)FX_LONG_NAME) && (*read_ptr != (UCHAR)FX_DIR_ENTRY_FREE))
 362              		.loc 1 303 5 view .LVU133
 363              		.loc 1 303 10 is_stmt 0 view .LVU134
 364 015a F37A     		ldrb	r3, [r6, #11]	@ zero_extendqisi2
 365              	.LVL40:
 366              		.loc 1 303 8 view .LVU135
 367 015c 0F2B     		cmp	r3, #15
 368 015e 0CD0     		beq	.L73
 304:Middlewares/ST/filex/common/src/fx_directory_entry_read.c ****     {
 305:Middlewares/ST/filex/common/src/fx_directory_entry_read.c **** 
 306:Middlewares/ST/filex/common/src/fx_directory_entry_read.c ****         /* Collate the long name. */
 307:Middlewares/ST/filex/common/src/fx_directory_entry_read.c **** 
 308:Middlewares/ST/filex/common/src/fx_directory_entry_read.c ****         /* Pickup the file name length.  */
 309:Middlewares/ST/filex/common/src/fx_directory_entry_read.c ****         i = (((UINT)(*read_ptr & (UCHAR)0x1f) - 1) * FX_LONG_NAME_ENTRY_LEN) & 0xFFFFFFFF;
 310:Middlewares/ST/filex/common/src/fx_directory_entry_read.c **** 
 311:Middlewares/ST/filex/common/src/fx_directory_entry_read.c ****         /* Save the number of LFN entries.  */
 312:Middlewares/ST/filex/common/src/fx_directory_entry_read.c ****         number_of_lfns =  (UINT)(*read_ptr & (UCHAR)0x1f);
 313:Middlewares/ST/filex/common/src/fx_directory_entry_read.c **** 
 314:Middlewares/ST/filex/common/src/fx_directory_entry_read.c ****         /* Check the file name size.  */
 315:Middlewares/ST/filex/common/src/fx_directory_entry_read.c ****         if (i >= (FX_MAX_LONG_NAME_LEN - 1))
 316:Middlewares/ST/filex/common/src/fx_directory_entry_read.c ****         {
 317:Middlewares/ST/filex/common/src/fx_directory_entry_read.c **** 
 318:Middlewares/ST/filex/common/src/fx_directory_entry_read.c ****             /* Name is too big, shorten it.  */
 319:Middlewares/ST/filex/common/src/fx_directory_entry_read.c ****             get_short_name = 1;
 320:Middlewares/ST/filex/common/src/fx_directory_entry_read.c ****             destination_ptr -> fx_dir_entry_long_name_shorted =  (UINT)(*read_ptr & (UCHAR)0x1f);
 321:Middlewares/ST/filex/common/src/fx_directory_entry_read.c ****         }
 322:Middlewares/ST/filex/common/src/fx_directory_entry_read.c ****         else
 323:Middlewares/ST/filex/common/src/fx_directory_entry_read.c ****         {
 324:Middlewares/ST/filex/common/src/fx_directory_entry_read.c **** 
 325:Middlewares/ST/filex/common/src/fx_directory_entry_read.c ****             /* Size of name is fine, save pointer to short file name.  */
 326:Middlewares/ST/filex/common/src/fx_directory_entry_read.c ****             short_name_ptr = destination_ptr -> fx_dir_entry_short_name;
 327:Middlewares/ST/filex/common/src/fx_directory_entry_read.c **** 
 328:Middlewares/ST/filex/common/src/fx_directory_entry_read.c ****             /* Loop to make sure the long file name is NULL terminated.  */
 329:Middlewares/ST/filex/common/src/fx_directory_entry_read.c ****             j = i + FX_LONG_NAME_ENTRY_LEN + 1;
 330:Middlewares/ST/filex/common/src/fx_directory_entry_read.c ****             do
 331:Middlewares/ST/filex/common/src/fx_directory_entry_read.c ****             {
 332:Middlewares/ST/filex/common/src/fx_directory_entry_read.c ****                 /* Place a NULL in the long name.  */
 333:Middlewares/ST/filex/common/src/fx_directory_entry_read.c ****                 destination_ptr -> fx_dir_entry_name[i] =  0;
 334:Middlewares/ST/filex/common/src/fx_directory_entry_read.c **** 
ARM GAS  C:\Users\HP\AppData\Local\Temp\ccq996lt.s 			page 14


 335:Middlewares/ST/filex/common/src/fx_directory_entry_read.c ****                 /* Position to the next entry.  */
 336:Middlewares/ST/filex/common/src/fx_directory_entry_read.c ****                 i++;
 337:Middlewares/ST/filex/common/src/fx_directory_entry_read.c ****             } while ((i < j) && (i < FX_MAX_LONG_NAME_LEN));
 338:Middlewares/ST/filex/common/src/fx_directory_entry_read.c ****         }
 339:Middlewares/ST/filex/common/src/fx_directory_entry_read.c **** 
 340:Middlewares/ST/filex/common/src/fx_directory_entry_read.c ****         /* Loop to pickup the rest of the name.  */
 341:Middlewares/ST/filex/common/src/fx_directory_entry_read.c ****         do
 342:Middlewares/ST/filex/common/src/fx_directory_entry_read.c ****         {
 343:Middlewares/ST/filex/common/src/fx_directory_entry_read.c **** 
 344:Middlewares/ST/filex/common/src/fx_directory_entry_read.c ****             /* Get the lower 5 bit containing the cardinality.  */
 345:Middlewares/ST/filex/common/src/fx_directory_entry_read.c ****             card = (UINT)(*read_ptr & (UCHAR)0x1f) - 1;
 346:Middlewares/ST/filex/common/src/fx_directory_entry_read.c **** 
 347:Middlewares/ST/filex/common/src/fx_directory_entry_read.c ****             /* For simplicity no checksum or cardinality checking is done */
 348:Middlewares/ST/filex/common/src/fx_directory_entry_read.c ****             if (get_short_name == 0)
 349:Middlewares/ST/filex/common/src/fx_directory_entry_read.c ****             {
 350:Middlewares/ST/filex/common/src/fx_directory_entry_read.c **** 
 351:Middlewares/ST/filex/common/src/fx_directory_entry_read.c ****                 /* Loop to pickup name.  */
 352:Middlewares/ST/filex/common/src/fx_directory_entry_read.c ****                 for (i = 1, j = 0; i < FX_DIR_ENTRY_SIZE; i += 2)
 353:Middlewares/ST/filex/common/src/fx_directory_entry_read.c ****                 {
 354:Middlewares/ST/filex/common/src/fx_directory_entry_read.c **** 
 355:Middlewares/ST/filex/common/src/fx_directory_entry_read.c ****                     if ((i == 11) || (i == 26))
 356:Middlewares/ST/filex/common/src/fx_directory_entry_read.c ****                     {
 357:Middlewares/ST/filex/common/src/fx_directory_entry_read.c ****                         continue;
 358:Middlewares/ST/filex/common/src/fx_directory_entry_read.c ****                     }
 359:Middlewares/ST/filex/common/src/fx_directory_entry_read.c **** 
 360:Middlewares/ST/filex/common/src/fx_directory_entry_read.c ****                     /* i = 12, 27 is not generated due to +=2 */
 361:Middlewares/ST/filex/common/src/fx_directory_entry_read.c ****                     if (i == 13)
 362:Middlewares/ST/filex/common/src/fx_directory_entry_read.c ****                     {
 363:Middlewares/ST/filex/common/src/fx_directory_entry_read.c ****                         i = 12;
 364:Middlewares/ST/filex/common/src/fx_directory_entry_read.c ****                         continue; /* this time next unicode is byte offset 14*/
 365:Middlewares/ST/filex/common/src/fx_directory_entry_read.c ****                     }
 366:Middlewares/ST/filex/common/src/fx_directory_entry_read.c **** 
 367:Middlewares/ST/filex/common/src/fx_directory_entry_read.c ****                     /* Determine if there is an actual unicode character present.  */
 368:Middlewares/ST/filex/common/src/fx_directory_entry_read.c ****                     if (read_ptr[i + 1])
 369:Middlewares/ST/filex/common/src/fx_directory_entry_read.c ****                     {
 370:Middlewares/ST/filex/common/src/fx_directory_entry_read.c **** 
 371:Middlewares/ST/filex/common/src/fx_directory_entry_read.c ****                         /* Extended byte is non-zero, make sure both bytes of the unicode entry are
 372:Middlewares/ST/filex/common/src/fx_directory_entry_read.c ****                            all ones, since this is a normal case.  */
 373:Middlewares/ST/filex/common/src/fx_directory_entry_read.c ****                         if ((read_ptr[i + 1] != (UCHAR)0xFF) || (read_ptr[i] != (UCHAR)0xFF))
 374:Middlewares/ST/filex/common/src/fx_directory_entry_read.c ****                         {
 375:Middlewares/ST/filex/common/src/fx_directory_entry_read.c **** 
 376:Middlewares/ST/filex/common/src/fx_directory_entry_read.c ****                             /* Name is an actual unicode name, shorten it.  */
 377:Middlewares/ST/filex/common/src/fx_directory_entry_read.c ****                             get_short_name = 1;
 378:Middlewares/ST/filex/common/src/fx_directory_entry_read.c **** 
 379:Middlewares/ST/filex/common/src/fx_directory_entry_read.c ****                             /* Save the number of directory entries the LFN has.  This will be
 380:Middlewares/ST/filex/common/src/fx_directory_entry_read.c ****                                used later when updating the 8.3 portion of the LFN.  */
 381:Middlewares/ST/filex/common/src/fx_directory_entry_read.c ****                             destination_ptr -> fx_dir_entry_long_name_shorted =  number_of_lfns;
 382:Middlewares/ST/filex/common/src/fx_directory_entry_read.c **** 
 383:Middlewares/ST/filex/common/src/fx_directory_entry_read.c ****                             /* Setup short name pointer.  */
 384:Middlewares/ST/filex/common/src/fx_directory_entry_read.c ****                             short_name_ptr =  destination_ptr -> fx_dir_entry_name;
 385:Middlewares/ST/filex/common/src/fx_directory_entry_read.c ****                         }
 386:Middlewares/ST/filex/common/src/fx_directory_entry_read.c ****                     }
 387:Middlewares/ST/filex/common/src/fx_directory_entry_read.c **** 
 388:Middlewares/ST/filex/common/src/fx_directory_entry_read.c ****                     /* Determine if the character is NULL.  */
 389:Middlewares/ST/filex/common/src/fx_directory_entry_read.c ****                     if ((read_ptr[i] == FX_NULL) || (read_ptr[i] == (UCHAR)0xFF))
 390:Middlewares/ST/filex/common/src/fx_directory_entry_read.c ****                     {
 391:Middlewares/ST/filex/common/src/fx_directory_entry_read.c ****                         continue;
ARM GAS  C:\Users\HP\AppData\Local\Temp\ccq996lt.s 			page 15


 392:Middlewares/ST/filex/common/src/fx_directory_entry_read.c ****                     }
 393:Middlewares/ST/filex/common/src/fx_directory_entry_read.c **** 
 394:Middlewares/ST/filex/common/src/fx_directory_entry_read.c ****                     /* Determine if the name is too big.  */
 395:Middlewares/ST/filex/common/src/fx_directory_entry_read.c ****                     if ((card * 13 + j) >= (FX_MAX_LONG_NAME_LEN - 1))
 396:Middlewares/ST/filex/common/src/fx_directory_entry_read.c ****                     {
 397:Middlewares/ST/filex/common/src/fx_directory_entry_read.c **** 
 398:Middlewares/ST/filex/common/src/fx_directory_entry_read.c ****                         /* Name is actually too big, shorten it.  */
 399:Middlewares/ST/filex/common/src/fx_directory_entry_read.c ****                         get_short_name =  1;
 400:Middlewares/ST/filex/common/src/fx_directory_entry_read.c **** 
 401:Middlewares/ST/filex/common/src/fx_directory_entry_read.c ****                         /* Save the number of directory entries the LFN has.  This will be
 402:Middlewares/ST/filex/common/src/fx_directory_entry_read.c ****                            used later when updating the 8.3 portion of the LFN.  */
 403:Middlewares/ST/filex/common/src/fx_directory_entry_read.c ****                         destination_ptr -> fx_dir_entry_long_name_shorted =  number_of_lfns;
 404:Middlewares/ST/filex/common/src/fx_directory_entry_read.c **** 
 405:Middlewares/ST/filex/common/src/fx_directory_entry_read.c ****                         /* Also reposition the short name pointer.  */
 406:Middlewares/ST/filex/common/src/fx_directory_entry_read.c ****                         short_name_ptr =  destination_ptr -> fx_dir_entry_name;
 407:Middlewares/ST/filex/common/src/fx_directory_entry_read.c **** 
 408:Middlewares/ST/filex/common/src/fx_directory_entry_read.c ****                         break;
 409:Middlewares/ST/filex/common/src/fx_directory_entry_read.c ****                     }
 410:Middlewares/ST/filex/common/src/fx_directory_entry_read.c **** 
 411:Middlewares/ST/filex/common/src/fx_directory_entry_read.c ****                     /* Each entry contains 13 unicode and first byte ASCII, second byte is extended
 412:Middlewares/ST/filex/common/src/fx_directory_entry_read.c ****                     destination_ptr -> fx_dir_entry_name[13 * card + j] = (CHAR)read_ptr[i];
 413:Middlewares/ST/filex/common/src/fx_directory_entry_read.c **** 
 414:Middlewares/ST/filex/common/src/fx_directory_entry_read.c ****                     j++;
 415:Middlewares/ST/filex/common/src/fx_directory_entry_read.c ****                 }
 416:Middlewares/ST/filex/common/src/fx_directory_entry_read.c ****             }
 417:Middlewares/ST/filex/common/src/fx_directory_entry_read.c **** 
 418:Middlewares/ST/filex/common/src/fx_directory_entry_read.c ****             /* Determine if a new sector needs to be read.  */
 419:Middlewares/ST/filex/common/src/fx_directory_entry_read.c ****             if (byte_offset + FX_DIR_ENTRY_SIZE >= media_ptr -> fx_media_bytes_per_sector)
 420:Middlewares/ST/filex/common/src/fx_directory_entry_read.c ****             {
 421:Middlewares/ST/filex/common/src/fx_directory_entry_read.c **** 
 422:Middlewares/ST/filex/common/src/fx_directory_entry_read.c ****                 /* Determine if a sub-directory or FAT32 root directory is specified.  */
 423:Middlewares/ST/filex/common/src/fx_directory_entry_read.c ****                 if ((source_dir) || (media_ptr -> fx_media_32_bit_FAT))
 424:Middlewares/ST/filex/common/src/fx_directory_entry_read.c ****                 {
 425:Middlewares/ST/filex/common/src/fx_directory_entry_read.c **** 
 426:Middlewares/ST/filex/common/src/fx_directory_entry_read.c ****                     /* Determine the next sector of the directory entry.  */
 427:Middlewares/ST/filex/common/src/fx_directory_entry_read.c ****                     if (relative_sector < (media_ptr -> fx_media_sectors_per_cluster - 1))
 428:Middlewares/ST/filex/common/src/fx_directory_entry_read.c ****                     {
 429:Middlewares/ST/filex/common/src/fx_directory_entry_read.c **** 
 430:Middlewares/ST/filex/common/src/fx_directory_entry_read.c ****                         /* More sectors in this cluster.  */
 431:Middlewares/ST/filex/common/src/fx_directory_entry_read.c **** 
 432:Middlewares/ST/filex/common/src/fx_directory_entry_read.c ****                         /* Simply increment the logical sector.  */
 433:Middlewares/ST/filex/common/src/fx_directory_entry_read.c ****                         logical_sector++;
 434:Middlewares/ST/filex/common/src/fx_directory_entry_read.c **** 
 435:Middlewares/ST/filex/common/src/fx_directory_entry_read.c ****                         /* Increment the relative sector.  */
 436:Middlewares/ST/filex/common/src/fx_directory_entry_read.c ****                         relative_sector++;
 437:Middlewares/ST/filex/common/src/fx_directory_entry_read.c ****                     }
 438:Middlewares/ST/filex/common/src/fx_directory_entry_read.c ****                     else
 439:Middlewares/ST/filex/common/src/fx_directory_entry_read.c ****                     {
 440:Middlewares/ST/filex/common/src/fx_directory_entry_read.c **** 
 441:Middlewares/ST/filex/common/src/fx_directory_entry_read.c ****                         /* We need to move to the next cluster.  */
 442:Middlewares/ST/filex/common/src/fx_directory_entry_read.c **** 
 443:Middlewares/ST/filex/common/src/fx_directory_entry_read.c ****                         /* Pickup the next cluster.  */
 444:Middlewares/ST/filex/common/src/fx_directory_entry_read.c ****                         status =  _fx_utility_FAT_entry_read(media_ptr, cluster, &next_cluster);
 445:Middlewares/ST/filex/common/src/fx_directory_entry_read.c **** 
 446:Middlewares/ST/filex/common/src/fx_directory_entry_read.c ****                         /* Check for I/O error.  */
 447:Middlewares/ST/filex/common/src/fx_directory_entry_read.c ****                         if (status != FX_SUCCESS)
 448:Middlewares/ST/filex/common/src/fx_directory_entry_read.c ****                         {
ARM GAS  C:\Users\HP\AppData\Local\Temp\ccq996lt.s 			page 16


 449:Middlewares/ST/filex/common/src/fx_directory_entry_read.c **** 
 450:Middlewares/ST/filex/common/src/fx_directory_entry_read.c ****                             /* Return error code.  */
 451:Middlewares/ST/filex/common/src/fx_directory_entry_read.c ****                             return(status);
 452:Middlewares/ST/filex/common/src/fx_directory_entry_read.c ****                         }
 453:Middlewares/ST/filex/common/src/fx_directory_entry_read.c **** 
 454:Middlewares/ST/filex/common/src/fx_directory_entry_read.c ****                         /* Copy next cluster to the current cluster.  */
 455:Middlewares/ST/filex/common/src/fx_directory_entry_read.c ****                         cluster =  next_cluster;
 456:Middlewares/ST/filex/common/src/fx_directory_entry_read.c **** 
 457:Middlewares/ST/filex/common/src/fx_directory_entry_read.c ****                         /* Check the value of the new cluster - it must be a valid cluster number
 458:Middlewares/ST/filex/common/src/fx_directory_entry_read.c ****                            or something is really wrong!  */
 459:Middlewares/ST/filex/common/src/fx_directory_entry_read.c ****                         if ((cluster < FX_FAT_ENTRY_START) || (cluster >= media_ptr -> fx_media_fat
 460:Middlewares/ST/filex/common/src/fx_directory_entry_read.c ****                         {
 461:Middlewares/ST/filex/common/src/fx_directory_entry_read.c **** 
 462:Middlewares/ST/filex/common/src/fx_directory_entry_read.c ****                             /* Send error message back to caller.  */
 463:Middlewares/ST/filex/common/src/fx_directory_entry_read.c ****                             return(FX_FILE_CORRUPT);
 464:Middlewares/ST/filex/common/src/fx_directory_entry_read.c ****                         }
 465:Middlewares/ST/filex/common/src/fx_directory_entry_read.c **** 
 466:Middlewares/ST/filex/common/src/fx_directory_entry_read.c ****                         /* Now increment the relative cluster.  */
 467:Middlewares/ST/filex/common/src/fx_directory_entry_read.c ****                         relative_cluster++;
 468:Middlewares/ST/filex/common/src/fx_directory_entry_read.c **** 
 469:Middlewares/ST/filex/common/src/fx_directory_entry_read.c ****                         /* Setup the relative sector (this is zero for subsequent cluster.  */
 470:Middlewares/ST/filex/common/src/fx_directory_entry_read.c ****                         relative_sector =  0;
 471:Middlewares/ST/filex/common/src/fx_directory_entry_read.c **** 
 472:Middlewares/ST/filex/common/src/fx_directory_entry_read.c ****                         /* Calculate the next logical sector.  */
 473:Middlewares/ST/filex/common/src/fx_directory_entry_read.c ****                         logical_sector =   ((ULONG)media_ptr -> fx_media_data_sector_start) +
 474:Middlewares/ST/filex/common/src/fx_directory_entry_read.c ****                             (((ULONG)cluster - FX_FAT_ENTRY_START) *
 475:Middlewares/ST/filex/common/src/fx_directory_entry_read.c ****                              ((ULONG)media_ptr -> fx_media_sectors_per_cluster));
 476:Middlewares/ST/filex/common/src/fx_directory_entry_read.c ****                     }
 477:Middlewares/ST/filex/common/src/fx_directory_entry_read.c ****                 }
 478:Middlewares/ST/filex/common/src/fx_directory_entry_read.c ****                 else
 479:Middlewares/ST/filex/common/src/fx_directory_entry_read.c ****                 {
 480:Middlewares/ST/filex/common/src/fx_directory_entry_read.c **** 
 481:Middlewares/ST/filex/common/src/fx_directory_entry_read.c ****                     /* Non-FAT 32 root directory.  */
 482:Middlewares/ST/filex/common/src/fx_directory_entry_read.c **** 
 483:Middlewares/ST/filex/common/src/fx_directory_entry_read.c ****                     /* Advance to the next sector.  */
 484:Middlewares/ST/filex/common/src/fx_directory_entry_read.c ****                     logical_sector++;
 485:Middlewares/ST/filex/common/src/fx_directory_entry_read.c **** 
 486:Middlewares/ST/filex/common/src/fx_directory_entry_read.c ****                     /* Determine if the logical sector is valid.  */
 487:Middlewares/ST/filex/common/src/fx_directory_entry_read.c ****                     if (logical_sector >= (ULONG)(media_ptr -> fx_media_root_sector_start + media_p
 488:Middlewares/ST/filex/common/src/fx_directory_entry_read.c ****                     {
 489:Middlewares/ST/filex/common/src/fx_directory_entry_read.c **** 
 490:Middlewares/ST/filex/common/src/fx_directory_entry_read.c ****                         /* Trying to read past root directory - send error message back to caller. 
 491:Middlewares/ST/filex/common/src/fx_directory_entry_read.c ****                         return(FX_FILE_CORRUPT);
 492:Middlewares/ST/filex/common/src/fx_directory_entry_read.c ****                     }
 493:Middlewares/ST/filex/common/src/fx_directory_entry_read.c ****                 }
 494:Middlewares/ST/filex/common/src/fx_directory_entry_read.c **** 
 495:Middlewares/ST/filex/common/src/fx_directory_entry_read.c ****                 /* Read the new sector.  */
 496:Middlewares/ST/filex/common/src/fx_directory_entry_read.c ****                 status =  _fx_utility_logical_sector_read(media_ptr, (ULONG64) logical_sector,
 497:Middlewares/ST/filex/common/src/fx_directory_entry_read.c ****                                                           media_ptr -> fx_media_memory_buffer, ((UL
 498:Middlewares/ST/filex/common/src/fx_directory_entry_read.c **** 
 499:Middlewares/ST/filex/common/src/fx_directory_entry_read.c ****                 /* Check I/O status.  */
 500:Middlewares/ST/filex/common/src/fx_directory_entry_read.c ****                 if (status != FX_SUCCESS)
 501:Middlewares/ST/filex/common/src/fx_directory_entry_read.c ****                 {
 502:Middlewares/ST/filex/common/src/fx_directory_entry_read.c ****                     return(status);
 503:Middlewares/ST/filex/common/src/fx_directory_entry_read.c ****                 }
 504:Middlewares/ST/filex/common/src/fx_directory_entry_read.c **** 
 505:Middlewares/ST/filex/common/src/fx_directory_entry_read.c ****                 /* Set the byte offset to 0 for new sector.  */
ARM GAS  C:\Users\HP\AppData\Local\Temp\ccq996lt.s 			page 17


 506:Middlewares/ST/filex/common/src/fx_directory_entry_read.c ****                 byte_offset = 0;
 507:Middlewares/ST/filex/common/src/fx_directory_entry_read.c ****             }
 508:Middlewares/ST/filex/common/src/fx_directory_entry_read.c ****             else
 509:Middlewares/ST/filex/common/src/fx_directory_entry_read.c ****             {
 510:Middlewares/ST/filex/common/src/fx_directory_entry_read.c **** 
 511:Middlewares/ST/filex/common/src/fx_directory_entry_read.c ****                 /* Calculate the new byte offset.  */
 512:Middlewares/ST/filex/common/src/fx_directory_entry_read.c ****                 byte_offset += FX_DIR_ENTRY_SIZE;
 513:Middlewares/ST/filex/common/src/fx_directory_entry_read.c ****             }
 514:Middlewares/ST/filex/common/src/fx_directory_entry_read.c **** 
 515:Middlewares/ST/filex/common/src/fx_directory_entry_read.c ****             /* Calculate the next read pointer.  */
 516:Middlewares/ST/filex/common/src/fx_directory_entry_read.c ****             read_ptr =  (UCHAR *)media_ptr -> fx_media_memory_buffer + (UINT) byte_offset;
 517:Middlewares/ST/filex/common/src/fx_directory_entry_read.c **** 
 518:Middlewares/ST/filex/common/src/fx_directory_entry_read.c ****             /* Move to the next entry.  */
 519:Middlewares/ST/filex/common/src/fx_directory_entry_read.c ****             entry++;
 520:Middlewares/ST/filex/common/src/fx_directory_entry_read.c ****         } while (card > 0);
 521:Middlewares/ST/filex/common/src/fx_directory_entry_read.c **** 
 522:Middlewares/ST/filex/common/src/fx_directory_entry_read.c ****         /* Set flag indicating long file name is present.  */
 523:Middlewares/ST/filex/common/src/fx_directory_entry_read.c ****         destination_ptr -> fx_dir_entry_long_name_present = 1;
 524:Middlewares/ST/filex/common/src/fx_directory_entry_read.c ****     }
 525:Middlewares/ST/filex/common/src/fx_directory_entry_read.c ****     else
 526:Middlewares/ST/filex/common/src/fx_directory_entry_read.c ****     {
 527:Middlewares/ST/filex/common/src/fx_directory_entry_read.c ****         /* No long file name is present.  */
 528:Middlewares/ST/filex/common/src/fx_directory_entry_read.c ****         get_short_name = 1;
 369              		.loc 1 528 24 view .LVU136
 370 0160 4FF0010A 		mov	r10, #1
 371              	.LVL41:
 372              	.L11:
 529:Middlewares/ST/filex/common/src/fx_directory_entry_read.c ****     }
 530:Middlewares/ST/filex/common/src/fx_directory_entry_read.c **** 
 531:Middlewares/ST/filex/common/src/fx_directory_entry_read.c ****     /* Determine if we need to clear the long name flag.  */
 532:Middlewares/ST/filex/common/src/fx_directory_entry_read.c ****     if (get_short_name == 1)
 373              		.loc 1 532 5 is_stmt 1 view .LVU137
 374              		.loc 1 532 8 is_stmt 0 view .LVU138
 375 0164 BAF1010F 		cmp	r10, #1
 376 0168 00F0FE80 		beq	.L74
 377              	.L28:
 533:Middlewares/ST/filex/common/src/fx_directory_entry_read.c ****     {
 534:Middlewares/ST/filex/common/src/fx_directory_entry_read.c **** 
 535:Middlewares/ST/filex/common/src/fx_directory_entry_read.c ****         /* Clear the long name flag.  */
 536:Middlewares/ST/filex/common/src/fx_directory_entry_read.c ****         destination_ptr -> fx_dir_entry_long_name_present =  0;
 537:Middlewares/ST/filex/common/src/fx_directory_entry_read.c ****     }
 538:Middlewares/ST/filex/common/src/fx_directory_entry_read.c **** 
 539:Middlewares/ST/filex/common/src/fx_directory_entry_read.c ****     /* Pickup the short file name.  */
 540:Middlewares/ST/filex/common/src/fx_directory_entry_read.c ****     short_name_ptr[0] =  0;
 378              		.loc 1 540 5 is_stmt 1 view .LVU139
 379              		.loc 1 540 23 is_stmt 0 view .LVU140
 380 016c 0023     		movs	r3, #0
 381 016e 0599     		ldr	r1, [sp, #20]
 382              	.LVL42:
 383              		.loc 1 540 23 view .LVU141
 384 0170 0B70     		strb	r3, [r1]
 541:Middlewares/ST/filex/common/src/fx_directory_entry_read.c ****     dotflag =  0;
 385              		.loc 1 541 5 is_stmt 1 view .LVU142
 386              	.LVL43:
 542:Middlewares/ST/filex/common/src/fx_directory_entry_read.c ****     for (i = 0, j = 0; i < (FX_DIR_NAME_SIZE + FX_DIR_EXT_SIZE); i++)
 387              		.loc 1 542 5 view .LVU143
 541:Middlewares/ST/filex/common/src/fx_directory_entry_read.c ****     dotflag =  0;
ARM GAS  C:\Users\HP\AppData\Local\Temp\ccq996lt.s 			page 18


 388              		.loc 1 541 13 is_stmt 0 view .LVU144
 389 0172 1846     		mov	r0, r3
 390              		.loc 1 542 19 view .LVU145
 391 0174 1A46     		mov	r2, r3
 392 0176 8E46     		mov	lr, r1
 393              		.loc 1 542 5 view .LVU146
 394 0178 0AE1     		b	.L29
 395              	.LVL44:
 396              	.L73:
 303:Middlewares/ST/filex/common/src/fx_directory_entry_read.c ****     {
 397              		.loc 1 303 55 discriminator 1 view .LVU147
 398 017a 535C     		ldrb	r3, [r2, r1]	@ zero_extendqisi2
 303:Middlewares/ST/filex/common/src/fx_directory_entry_read.c ****     {
 399              		.loc 1 303 51 discriminator 1 view .LVU148
 400 017c E52B     		cmp	r3, #229
 401 017e 00F0F080 		beq	.L53
 309:Middlewares/ST/filex/common/src/fx_directory_entry_read.c **** 
 402              		.loc 1 309 9 is_stmt 1 view .LVU149
 309:Middlewares/ST/filex/common/src/fx_directory_entry_read.c **** 
 403              		.loc 1 309 15 is_stmt 0 view .LVU150
 404 0182 03F01F00 		and	r0, r3, #31
 405              	.LVL45:
 309:Middlewares/ST/filex/common/src/fx_directory_entry_read.c **** 
 406              		.loc 1 309 15 view .LVU151
 407 0186 8646     		mov	lr, r0
 309:Middlewares/ST/filex/common/src/fx_directory_entry_read.c **** 
 408              		.loc 1 309 78 view .LVU152
 409 0188 00EB4002 		add	r2, r0, r0, lsl #1
 410 018c 00EB8202 		add	r2, r0, r2, lsl #2
 309:Middlewares/ST/filex/common/src/fx_directory_entry_read.c **** 
 411              		.loc 1 309 11 view .LVU153
 412 0190 A2F10D03 		sub	r3, r2, #13
 413              	.LVL46:
 312:Middlewares/ST/filex/common/src/fx_directory_entry_read.c **** 
 414              		.loc 1 312 9 is_stmt 1 view .LVU154
 315:Middlewares/ST/filex/common/src/fx_directory_entry_read.c ****         {
 415              		.loc 1 315 9 view .LVU155
 315:Middlewares/ST/filex/common/src/fx_directory_entry_read.c ****         {
 416              		.loc 1 315 12 is_stmt 0 view .LVU156
 417 0194 FE2B     		cmp	r3, #254
 418 0196 12D9     		bls	.L12
 319:Middlewares/ST/filex/common/src/fx_directory_entry_read.c ****             destination_ptr -> fx_dir_entry_long_name_shorted =  (UINT)(*read_ptr & (UCHAR)0x1f);
 419              		.loc 1 319 13 is_stmt 1 view .LVU157
 420              	.LVL47:
 320:Middlewares/ST/filex/common/src/fx_directory_entry_read.c ****         }
 421              		.loc 1 320 13 view .LVU158
 320:Middlewares/ST/filex/common/src/fx_directory_entry_read.c ****         }
 422              		.loc 1 320 63 is_stmt 0 view .LVU159
 423 0198 B861     		str	r0, [r7, #24]
 319:Middlewares/ST/filex/common/src/fx_directory_entry_read.c ****             destination_ptr -> fx_dir_entry_long_name_shorted =  (UINT)(*read_ptr & (UCHAR)0x1f);
 424              		.loc 1 319 28 view .LVU160
 425 019a 4FF0010A 		mov	r10, #1
 426 019e 0A94     		str	r4, [sp, #40]
 427 01a0 CDF82C90 		str	r9, [sp, #44]
 428 01a4 3046     		mov	r0, r6
 429              	.LVL48:
 319:Middlewares/ST/filex/common/src/fx_directory_entry_read.c ****             destination_ptr -> fx_dir_entry_long_name_shorted =  (UINT)(*read_ptr & (UCHAR)0x1f);
ARM GAS  C:\Users\HP\AppData\Local\Temp\ccq996lt.s 			page 19


 430              		.loc 1 319 28 view .LVU161
 431 01a6 7646     		mov	r6, lr
 432              	.LVL49:
 319:Middlewares/ST/filex/common/src/fx_directory_entry_read.c ****             destination_ptr -> fx_dir_entry_long_name_shorted =  (UINT)(*read_ptr & (UCHAR)0x1f);
 433              		.loc 1 319 28 view .LVU162
 434 01a8 DDF81890 		ldr	r9, [sp, #24]
 435              	.LVL50:
 319:Middlewares/ST/filex/common/src/fx_directory_entry_read.c ****             destination_ptr -> fx_dir_entry_long_name_shorted =  (UINT)(*read_ptr & (UCHAR)0x1f);
 436              		.loc 1 319 28 view .LVU163
 437 01ac A846     		mov	r8, r5
 438 01ae 5546     		mov	r5, r10
 439              	.LVL51:
 319:Middlewares/ST/filex/common/src/fx_directory_entry_read.c ****             destination_ptr -> fx_dir_entry_long_name_shorted =  (UINT)(*read_ptr & (UCHAR)0x1f);
 440              		.loc 1 319 28 view .LVU164
 441 01b0 DDF824A0 		ldr	r10, [sp, #36]
 442 01b4 CDF824B0 		str	fp, [sp, #36]
 443              	.LVL52:
 319:Middlewares/ST/filex/common/src/fx_directory_entry_read.c ****             destination_ptr -> fx_dir_entry_long_name_shorted =  (UINT)(*read_ptr & (UCHAR)0x1f);
 444              		.loc 1 319 28 view .LVU165
 445 01b8 DDF820B0 		ldr	fp, [sp, #32]
 446              	.LVL53:
 319:Middlewares/ST/filex/common/src/fx_directory_entry_read.c ****             destination_ptr -> fx_dir_entry_long_name_shorted =  (UINT)(*read_ptr & (UCHAR)0x1f);
 447              		.loc 1 319 28 view .LVU166
 448 01bc ACE0     		b	.L27
 449              	.LVL54:
 450              	.L12:
 326:Middlewares/ST/filex/common/src/fx_directory_entry_read.c **** 
 451              		.loc 1 326 13 is_stmt 1 view .LVU167
 326:Middlewares/ST/filex/common/src/fx_directory_entry_read.c **** 
 452              		.loc 1 326 28 is_stmt 0 view .LVU168
 453 01be 381D     		adds	r0, r7, #4
 454              	.LVL55:
 326:Middlewares/ST/filex/common/src/fx_directory_entry_read.c **** 
 455              		.loc 1 326 28 view .LVU169
 456 01c0 0590     		str	r0, [sp, #20]
 457              	.LVL56:
 329:Middlewares/ST/filex/common/src/fx_directory_entry_read.c ****             do
 458              		.loc 1 329 13 is_stmt 1 view .LVU170
 329:Middlewares/ST/filex/common/src/fx_directory_entry_read.c ****             do
 459              		.loc 1 329 15 is_stmt 0 view .LVU171
 460 01c2 0132     		adds	r2, r2, #1
 461              	.LVL57:
 462              	.L14:
 330:Middlewares/ST/filex/common/src/fx_directory_entry_read.c ****             {
 463              		.loc 1 330 13 is_stmt 1 discriminator 2 view .LVU172
 333:Middlewares/ST/filex/common/src/fx_directory_entry_read.c **** 
 464              		.loc 1 333 17 discriminator 2 view .LVU173
 333:Middlewares/ST/filex/common/src/fx_directory_entry_read.c **** 
 465              		.loc 1 333 33 is_stmt 0 discriminator 2 view .LVU174
 466 01c4 3868     		ldr	r0, [r7]
 333:Middlewares/ST/filex/common/src/fx_directory_entry_read.c **** 
 467              		.loc 1 333 57 discriminator 2 view .LVU175
 468 01c6 4FF0000C 		mov	ip, #0
 469 01ca 00F803C0 		strb	ip, [r0, r3]
 336:Middlewares/ST/filex/common/src/fx_directory_entry_read.c ****             } while ((i < j) && (i < FX_MAX_LONG_NAME_LEN));
 470              		.loc 1 336 17 is_stmt 1 discriminator 2 view .LVU176
 336:Middlewares/ST/filex/common/src/fx_directory_entry_read.c ****             } while ((i < j) && (i < FX_MAX_LONG_NAME_LEN));
ARM GAS  C:\Users\HP\AppData\Local\Temp\ccq996lt.s 			page 20


 471              		.loc 1 336 18 is_stmt 0 discriminator 2 view .LVU177
 472 01ce 0133     		adds	r3, r3, #1
 473              	.LVL58:
 337:Middlewares/ST/filex/common/src/fx_directory_entry_read.c ****         }
 474              		.loc 1 337 21 is_stmt 1 discriminator 2 view .LVU178
 337:Middlewares/ST/filex/common/src/fx_directory_entry_read.c ****         }
 475              		.loc 1 337 13 is_stmt 0 discriminator 2 view .LVU179
 476 01d0 9A42     		cmp	r2, r3
 477 01d2 11D9     		bls	.L54
 337:Middlewares/ST/filex/common/src/fx_directory_entry_read.c ****         }
 478              		.loc 1 337 30 discriminator 1 view .LVU180
 479 01d4 FF2B     		cmp	r3, #255
 480 01d6 F5D9     		bls	.L14
 481 01d8 0A94     		str	r4, [sp, #40]
 482 01da CDF82C90 		str	r9, [sp, #44]
 483 01de 3046     		mov	r0, r6
 484 01e0 7646     		mov	r6, lr
 485              	.LVL59:
 337:Middlewares/ST/filex/common/src/fx_directory_entry_read.c ****         }
 486              		.loc 1 337 30 discriminator 1 view .LVU181
 487 01e2 DDF81890 		ldr	r9, [sp, #24]
 488              	.LVL60:
 337:Middlewares/ST/filex/common/src/fx_directory_entry_read.c ****         }
 489              		.loc 1 337 30 discriminator 1 view .LVU182
 490 01e6 A846     		mov	r8, r5
 491 01e8 6546     		mov	r5, ip
 492              	.LVL61:
 337:Middlewares/ST/filex/common/src/fx_directory_entry_read.c ****         }
 493              		.loc 1 337 30 discriminator 1 view .LVU183
 494 01ea DDF824A0 		ldr	r10, [sp, #36]
 495 01ee CDF824B0 		str	fp, [sp, #36]
 496              	.LVL62:
 337:Middlewares/ST/filex/common/src/fx_directory_entry_read.c ****         }
 497              		.loc 1 337 30 discriminator 1 view .LVU184
 498 01f2 DDF820B0 		ldr	fp, [sp, #32]
 499              	.LVL63:
 337:Middlewares/ST/filex/common/src/fx_directory_entry_read.c ****         }
 500              		.loc 1 337 30 discriminator 1 view .LVU185
 501 01f6 8FE0     		b	.L27
 502              	.LVL64:
 503              	.L54:
 302:Middlewares/ST/filex/common/src/fx_directory_entry_read.c ****     if ((*(read_ptr + 11) == (UCHAR)FX_LONG_NAME) && (*read_ptr != (UCHAR)FX_DIR_ENTRY_FREE))
 504              		.loc 1 302 20 view .LVU186
 505 01f8 4FF0000A 		mov	r10, #0
 506 01fc 0A94     		str	r4, [sp, #40]
 507 01fe CDF82C90 		str	r9, [sp, #44]
 508 0202 3046     		mov	r0, r6
 509 0204 7646     		mov	r6, lr
 510              	.LVL65:
 302:Middlewares/ST/filex/common/src/fx_directory_entry_read.c ****     if ((*(read_ptr + 11) == (UCHAR)FX_LONG_NAME) && (*read_ptr != (UCHAR)FX_DIR_ENTRY_FREE))
 511              		.loc 1 302 20 view .LVU187
 512 0206 DDF81890 		ldr	r9, [sp, #24]
 513              	.LVL66:
 302:Middlewares/ST/filex/common/src/fx_directory_entry_read.c ****     if ((*(read_ptr + 11) == (UCHAR)FX_LONG_NAME) && (*read_ptr != (UCHAR)FX_DIR_ENTRY_FREE))
 514              		.loc 1 302 20 view .LVU188
 515 020a A846     		mov	r8, r5
 516 020c 5546     		mov	r5, r10
ARM GAS  C:\Users\HP\AppData\Local\Temp\ccq996lt.s 			page 21


 517              	.LVL67:
 302:Middlewares/ST/filex/common/src/fx_directory_entry_read.c ****     if ((*(read_ptr + 11) == (UCHAR)FX_LONG_NAME) && (*read_ptr != (UCHAR)FX_DIR_ENTRY_FREE))
 518              		.loc 1 302 20 view .LVU189
 519 020e DDF824A0 		ldr	r10, [sp, #36]
 520 0212 CDF824B0 		str	fp, [sp, #36]
 521              	.LVL68:
 302:Middlewares/ST/filex/common/src/fx_directory_entry_read.c ****     if ((*(read_ptr + 11) == (UCHAR)FX_LONG_NAME) && (*read_ptr != (UCHAR)FX_DIR_ENTRY_FREE))
 522              		.loc 1 302 20 view .LVU190
 523 0216 DDF820B0 		ldr	fp, [sp, #32]
 524              	.LVL69:
 302:Middlewares/ST/filex/common/src/fx_directory_entry_read.c ****     if ((*(read_ptr + 11) == (UCHAR)FX_LONG_NAME) && (*read_ptr != (UCHAR)FX_DIR_ENTRY_FREE))
 525              		.loc 1 302 20 view .LVU191
 526 021a 7DE0     		b	.L27
 527              	.LVL70:
 528              	.L19:
 377:Middlewares/ST/filex/common/src/fx_directory_entry_read.c **** 
 529              		.loc 1 377 29 is_stmt 1 view .LVU192
 381:Middlewares/ST/filex/common/src/fx_directory_entry_read.c **** 
 530              		.loc 1 381 29 view .LVU193
 381:Middlewares/ST/filex/common/src/fx_directory_entry_read.c **** 
 531              		.loc 1 381 79 is_stmt 0 view .LVU194
 532 021c BE61     		str	r6, [r7, #24]
 384:Middlewares/ST/filex/common/src/fx_directory_entry_read.c ****                         }
 533              		.loc 1 384 29 is_stmt 1 view .LVU195
 384:Middlewares/ST/filex/common/src/fx_directory_entry_read.c ****                         }
 534              		.loc 1 384 44 is_stmt 0 view .LVU196
 535 021e 3A68     		ldr	r2, [r7]
 536 0220 0592     		str	r2, [sp, #20]
 537              	.LVL71:
 377:Middlewares/ST/filex/common/src/fx_directory_entry_read.c **** 
 538              		.loc 1 377 44 view .LVU197
 539 0222 4FF0010E 		mov	lr, #1
 540              	.LVL72:
 541              	.L18:
 389:Middlewares/ST/filex/common/src/fx_directory_entry_read.c ****                     {
 542              		.loc 1 389 21 is_stmt 1 view .LVU198
 389:Middlewares/ST/filex/common/src/fx_directory_entry_read.c ****                     {
 543              		.loc 1 389 34 is_stmt 0 view .LVU199
 544 0226 10F803C0 		ldrb	ip, [r0, r3]	@ zero_extendqisi2
 389:Middlewares/ST/filex/common/src/fx_directory_entry_read.c ****                     {
 545              		.loc 1 389 50 view .LVU200
 546 022a 0CF1FF32 		add	r2, ip, #-1
 547 022e D2B2     		uxtb	r2, r2
 389:Middlewares/ST/filex/common/src/fx_directory_entry_read.c ****                     {
 548              		.loc 1 389 24 view .LVU201
 549 0230 FD2A     		cmp	r2, #253
 550 0232 0AD8     		bhi	.L17
 395:Middlewares/ST/filex/common/src/fx_directory_entry_read.c ****                     {
 551              		.loc 1 395 21 is_stmt 1 view .LVU202
 395:Middlewares/ST/filex/common/src/fx_directory_entry_read.c ****                     {
 552              		.loc 1 395 31 is_stmt 0 view .LVU203
 553 0234 04EB4402 		add	r2, r4, r4, lsl #1
 554 0238 04EB8202 		add	r2, r4, r2, lsl #2
 395:Middlewares/ST/filex/common/src/fx_directory_entry_read.c ****                     {
 555              		.loc 1 395 36 view .LVU204
 556 023c 2A44     		add	r2, r2, r5
 395:Middlewares/ST/filex/common/src/fx_directory_entry_read.c ****                     {
ARM GAS  C:\Users\HP\AppData\Local\Temp\ccq996lt.s 			page 22


 557              		.loc 1 395 24 view .LVU205
 558 023e FE2A     		cmp	r2, #254
 559 0240 16D8     		bhi	.L75
 412:Middlewares/ST/filex/common/src/fx_directory_entry_read.c **** 
 560              		.loc 1 412 21 is_stmt 1 view .LVU206
 412:Middlewares/ST/filex/common/src/fx_directory_entry_read.c **** 
 561              		.loc 1 412 73 is_stmt 0 view .LVU207
 562 0242 3968     		ldr	r1, [r7]
 563 0244 01F802C0 		strb	ip, [r1, r2]
 414:Middlewares/ST/filex/common/src/fx_directory_entry_read.c ****                 }
 564              		.loc 1 414 21 is_stmt 1 view .LVU208
 414:Middlewares/ST/filex/common/src/fx_directory_entry_read.c ****                 }
 565              		.loc 1 414 22 is_stmt 0 view .LVU209
 566 0248 0135     		adds	r5, r5, #1
 567              	.LVL73:
 568              	.L17:
 352:Middlewares/ST/filex/common/src/fx_directory_entry_read.c ****                 {
 569              		.loc 1 352 59 is_stmt 1 discriminator 2 view .LVU210
 352:Middlewares/ST/filex/common/src/fx_directory_entry_read.c ****                 {
 570              		.loc 1 352 61 is_stmt 0 discriminator 2 view .LVU211
 571 024a 0233     		adds	r3, r3, #2
 572              	.LVL74:
 573              	.L15:
 352:Middlewares/ST/filex/common/src/fx_directory_entry_read.c ****                 {
 574              		.loc 1 352 36 is_stmt 1 discriminator 1 view .LVU212
 352:Middlewares/ST/filex/common/src/fx_directory_entry_read.c ****                 {
 575              		.loc 1 352 17 is_stmt 0 discriminator 1 view .LVU213
 576 024c 1F2B     		cmp	r3, #31
 577 024e 1BD8     		bhi	.L76
 355:Middlewares/ST/filex/common/src/fx_directory_entry_read.c ****                     {
 578              		.loc 1 355 21 is_stmt 1 view .LVU214
 355:Middlewares/ST/filex/common/src/fx_directory_entry_read.c ****                     {
 579              		.loc 1 355 24 is_stmt 0 view .LVU215
 580 0250 0B2B     		cmp	r3, #11
 581 0252 FAD0     		beq	.L17
 355:Middlewares/ST/filex/common/src/fx_directory_entry_read.c ****                     {
 582              		.loc 1 355 35 discriminator 1 view .LVU216
 583 0254 1A2B     		cmp	r3, #26
 584 0256 F8D0     		beq	.L17
 361:Middlewares/ST/filex/common/src/fx_directory_entry_read.c ****                     {
 585              		.loc 1 361 21 is_stmt 1 view .LVU217
 361:Middlewares/ST/filex/common/src/fx_directory_entry_read.c ****                     {
 586              		.loc 1 361 24 is_stmt 0 view .LVU218
 587 0258 0D2B     		cmp	r3, #13
 588 025a 0FD0     		beq	.L56
 368:Middlewares/ST/filex/common/src/fx_directory_entry_read.c ****                     {
 589              		.loc 1 368 21 is_stmt 1 view .LVU219
 368:Middlewares/ST/filex/common/src/fx_directory_entry_read.c ****                     {
 590              		.loc 1 368 33 is_stmt 0 view .LVU220
 591 025c C218     		adds	r2, r0, r3
 592 025e 5278     		ldrb	r2, [r2, #1]	@ zero_extendqisi2
 368:Middlewares/ST/filex/common/src/fx_directory_entry_read.c ****                     {
 593              		.loc 1 368 24 view .LVU221
 594 0260 002A     		cmp	r2, #0
 595 0262 E0D0     		beq	.L18
 373:Middlewares/ST/filex/common/src/fx_directory_entry_read.c ****                         {
 596              		.loc 1 373 25 is_stmt 1 view .LVU222
ARM GAS  C:\Users\HP\AppData\Local\Temp\ccq996lt.s 			page 23


 373:Middlewares/ST/filex/common/src/fx_directory_entry_read.c ****                         {
 597              		.loc 1 373 28 is_stmt 0 view .LVU223
 598 0264 FF2A     		cmp	r2, #255
 599 0266 D9D1     		bne	.L19
 373:Middlewares/ST/filex/common/src/fx_directory_entry_read.c ****                         {
 600              		.loc 1 373 74 discriminator 1 view .LVU224
 601 0268 C25C     		ldrb	r2, [r0, r3]	@ zero_extendqisi2
 373:Middlewares/ST/filex/common/src/fx_directory_entry_read.c ****                         {
 602              		.loc 1 373 62 discriminator 1 view .LVU225
 603 026a FF2A     		cmp	r2, #255
 604 026c D6D1     		bne	.L19
 605 026e DAE7     		b	.L18
 606              	.L75:
 403:Middlewares/ST/filex/common/src/fx_directory_entry_read.c **** 
 607              		.loc 1 403 75 view .LVU226
 608 0270 0699     		ldr	r1, [sp, #24]
 399:Middlewares/ST/filex/common/src/fx_directory_entry_read.c **** 
 609              		.loc 1 399 25 is_stmt 1 view .LVU227
 610              	.LVL75:
 403:Middlewares/ST/filex/common/src/fx_directory_entry_read.c **** 
 611              		.loc 1 403 25 view .LVU228
 403:Middlewares/ST/filex/common/src/fx_directory_entry_read.c **** 
 612              		.loc 1 403 75 is_stmt 0 view .LVU229
 613 0272 BE61     		str	r6, [r7, #24]
 406:Middlewares/ST/filex/common/src/fx_directory_entry_read.c **** 
 614              		.loc 1 406 25 is_stmt 1 view .LVU230
 406:Middlewares/ST/filex/common/src/fx_directory_entry_read.c **** 
 615              		.loc 1 406 40 is_stmt 0 view .LVU231
 616 0274 3B68     		ldr	r3, [r7]
 617              	.LVL76:
 406:Middlewares/ST/filex/common/src/fx_directory_entry_read.c **** 
 618              		.loc 1 406 40 view .LVU232
 619 0276 0593     		str	r3, [sp, #20]
 620              	.LVL77:
 408:Middlewares/ST/filex/common/src/fx_directory_entry_read.c ****                     }
 621              		.loc 1 408 25 is_stmt 1 view .LVU233
 399:Middlewares/ST/filex/common/src/fx_directory_entry_read.c **** 
 622              		.loc 1 399 40 is_stmt 0 view .LVU234
 623 0278 0125     		movs	r5, #1
 624              	.LVL78:
 408:Middlewares/ST/filex/common/src/fx_directory_entry_read.c ****                     }
 625              		.loc 1 408 25 view .LVU235
 626 027a 53E0     		b	.L16
 627              	.LVL79:
 628              	.L56:
 363:Middlewares/ST/filex/common/src/fx_directory_entry_read.c ****                         continue; /* this time next unicode is byte offset 14*/
 629              		.loc 1 363 27 view .LVU236
 630 027c 0C23     		movs	r3, #12
 631              	.LVL80:
 363:Middlewares/ST/filex/common/src/fx_directory_entry_read.c ****                         continue; /* this time next unicode is byte offset 14*/
 632              		.loc 1 363 27 view .LVU237
 633 027e E4E7     		b	.L17
 634              	.LVL81:
 635              	.L78:
 363:Middlewares/ST/filex/common/src/fx_directory_entry_read.c ****                         continue; /* this time next unicode is byte offset 14*/
 636              		.loc 1 363 27 view .LVU238
 637 0280 AE46     		mov	lr, r5
ARM GAS  C:\Users\HP\AppData\Local\Temp\ccq996lt.s 			page 24


 352:Middlewares/ST/filex/common/src/fx_directory_entry_read.c ****                 {
 638              		.loc 1 352 24 view .LVU239
 639 0282 0123     		movs	r3, #1
 640 0284 0691     		str	r1, [sp, #24]
 641 0286 E1E7     		b	.L15
 642              	.LVL82:
 643              	.L76:
 352:Middlewares/ST/filex/common/src/fx_directory_entry_read.c ****                 {
 644              		.loc 1 352 24 view .LVU240
 645 0288 0699     		ldr	r1, [sp, #24]
 646 028a 7546     		mov	r5, lr
 647              	.LVL83:
 352:Middlewares/ST/filex/common/src/fx_directory_entry_read.c ****                 {
 648              		.loc 1 352 24 view .LVU241
 649 028c 4AE0     		b	.L16
 650              	.LVL84:
 651              	.L79:
 423:Middlewares/ST/filex/common/src/fx_directory_entry_read.c ****                 {
 652              		.loc 1 423 48 discriminator 1 view .LVU242
 653 028e D8F86430 		ldr	r3, [r8, #100]
 423:Middlewares/ST/filex/common/src/fx_directory_entry_read.c ****                 {
 654              		.loc 1 423 34 discriminator 1 view .LVU243
 655 0292 002B     		cmp	r3, #0
 656 0294 4ED1     		bne	.L23
 484:Middlewares/ST/filex/common/src/fx_directory_entry_read.c **** 
 657              		.loc 1 484 21 is_stmt 1 view .LVU244
 484:Middlewares/ST/filex/common/src/fx_directory_entry_read.c **** 
 658              		.loc 1 484 35 is_stmt 0 view .LVU245
 659 0296 0AF1010A 		add	r10, r10, #1
 660              	.LVL85:
 487:Middlewares/ST/filex/common/src/fx_directory_entry_read.c ****                     {
 661              		.loc 1 487 21 is_stmt 1 view .LVU246
 487:Middlewares/ST/filex/common/src/fx_directory_entry_read.c ****                     {
 662              		.loc 1 487 61 is_stmt 0 view .LVU247
 663 029a D8F84830 		ldr	r3, [r8, #72]
 487:Middlewares/ST/filex/common/src/fx_directory_entry_read.c ****                     {
 664              		.loc 1 487 103 view .LVU248
 665 029e D8F84C20 		ldr	r2, [r8, #76]
 487:Middlewares/ST/filex/common/src/fx_directory_entry_read.c ****                     {
 666              		.loc 1 487 91 view .LVU249
 667 02a2 1344     		add	r3, r3, r2
 487:Middlewares/ST/filex/common/src/fx_directory_entry_read.c ****                     {
 668              		.loc 1 487 24 view .LVU250
 669 02a4 5345     		cmp	r3, r10
 670 02a6 21D8     		bhi	.L26
 491:Middlewares/ST/filex/common/src/fx_directory_entry_read.c ****                     }
 671              		.loc 1 491 31 view .LVU251
 672 02a8 0823     		movs	r3, #8
 673 02aa 10E1     		b	.L1
 674              	.L25:
 444:Middlewares/ST/filex/common/src/fx_directory_entry_read.c **** 
 675              		.loc 1 444 25 is_stmt 1 view .LVU252
 444:Middlewares/ST/filex/common/src/fx_directory_entry_read.c **** 
 676              		.loc 1 444 35 is_stmt 0 view .LVU253
 677 02ac 0DAA     		add	r2, sp, #52
 678 02ae 0A99     		ldr	r1, [sp, #40]
 679 02b0 4046     		mov	r0, r8
ARM GAS  C:\Users\HP\AppData\Local\Temp\ccq996lt.s 			page 25


 680              	.LVL86:
 444:Middlewares/ST/filex/common/src/fx_directory_entry_read.c **** 
 681              		.loc 1 444 35 view .LVU254
 682 02b2 FFF7FEFF 		bl	_fx_utility_FAT_entry_read
 683              	.LVL87:
 447:Middlewares/ST/filex/common/src/fx_directory_entry_read.c ****                         {
 684              		.loc 1 447 25 is_stmt 1 view .LVU255
 447:Middlewares/ST/filex/common/src/fx_directory_entry_read.c ****                         {
 685              		.loc 1 447 28 is_stmt 0 view .LVU256
 686 02b6 8346     		mov	fp, r0
 687              	.LVL88:
 447:Middlewares/ST/filex/common/src/fx_directory_entry_read.c ****                         {
 688              		.loc 1 447 28 view .LVU257
 689 02b8 0028     		cmp	r0, #0
 690 02ba 40F01081 		bne	.L57
 455:Middlewares/ST/filex/common/src/fx_directory_entry_read.c **** 
 691              		.loc 1 455 25 is_stmt 1 view .LVU258
 455:Middlewares/ST/filex/common/src/fx_directory_entry_read.c **** 
 692              		.loc 1 455 33 is_stmt 0 view .LVU259
 693 02be 0D9A     		ldr	r2, [sp, #52]
 694 02c0 0A92     		str	r2, [sp, #40]
 695              	.LVL89:
 459:Middlewares/ST/filex/common/src/fx_directory_entry_read.c ****                         {
 696              		.loc 1 459 25 is_stmt 1 view .LVU260
 459:Middlewares/ST/filex/common/src/fx_directory_entry_read.c ****                         {
 697              		.loc 1 459 28 is_stmt 0 view .LVU261
 698 02c2 012A     		cmp	r2, #1
 699 02c4 40F20D81 		bls	.L58
 459:Middlewares/ST/filex/common/src/fx_directory_entry_read.c ****                         {
 700              		.loc 1 459 85 discriminator 1 view .LVU262
 701 02c8 08F50053 		add	r3, r8, #8192
 702 02cc D3F8A834 		ldr	r3, [r3, #1192]
 459:Middlewares/ST/filex/common/src/fx_directory_entry_read.c ****                         {
 703              		.loc 1 459 60 discriminator 1 view .LVU263
 704 02d0 9342     		cmp	r3, r2
 705 02d2 40F20881 		bls	.L59
 467:Middlewares/ST/filex/common/src/fx_directory_entry_read.c **** 
 706              		.loc 1 467 25 is_stmt 1 view .LVU264
 467:Middlewares/ST/filex/common/src/fx_directory_entry_read.c **** 
 707              		.loc 1 467 41 is_stmt 0 view .LVU265
 708 02d6 0B9B     		ldr	r3, [sp, #44]
 709 02d8 0133     		adds	r3, r3, #1
 710 02da 0B93     		str	r3, [sp, #44]
 711              	.LVL90:
 470:Middlewares/ST/filex/common/src/fx_directory_entry_read.c **** 
 712              		.loc 1 470 25 is_stmt 1 view .LVU266
 473:Middlewares/ST/filex/common/src/fx_directory_entry_read.c ****                             (((ULONG)cluster - FX_FAT_ENTRY_START) *
 713              		.loc 1 473 25 view .LVU267
 473:Middlewares/ST/filex/common/src/fx_directory_entry_read.c ****                             (((ULONG)cluster - FX_FAT_ENTRY_START) *
 714              		.loc 1 473 62 is_stmt 0 view .LVU268
 715 02dc D8F85030 		ldr	r3, [r8, #80]
 716              	.LVL91:
 474:Middlewares/ST/filex/common/src/fx_directory_entry_read.c ****                              ((ULONG)media_ptr -> fx_media_sectors_per_cluster));
 717              		.loc 1 474 46 view .LVU269
 718 02e0 A2F1020A 		sub	r10, r2, #2
 719              	.LVL92:
 475:Middlewares/ST/filex/common/src/fx_directory_entry_read.c ****                     }
ARM GAS  C:\Users\HP\AppData\Local\Temp\ccq996lt.s 			page 26


 720              		.loc 1 475 48 view .LVU270
 721 02e4 D8F85420 		ldr	r2, [r8, #84]
 722              	.LVL93:
 473:Middlewares/ST/filex/common/src/fx_directory_entry_read.c ****                             (((ULONG)cluster - FX_FAT_ENTRY_START) *
 723              		.loc 1 473 40 view .LVU271
 724 02e8 02FB0A3A 		mla	r10, r2, r10, r3
 725              	.LVL94:
 726              	.L26:
 496:Middlewares/ST/filex/common/src/fx_directory_entry_read.c ****                                                           media_ptr -> fx_media_memory_buffer, ((UL
 727              		.loc 1 496 17 is_stmt 1 view .LVU272
 497:Middlewares/ST/filex/common/src/fx_directory_entry_read.c **** 
 728              		.loc 1 497 69 is_stmt 0 view .LVU273
 729 02ec D8F80830 		ldr	r3, [r8, #8]
 496:Middlewares/ST/filex/common/src/fx_directory_entry_read.c ****                                                           media_ptr -> fx_media_memory_buffer, ((UL
 730              		.loc 1 496 27 view .LVU274
 731 02f0 0322     		movs	r2, #3
 732 02f2 0292     		str	r2, [sp, #8]
 733 02f4 0122     		movs	r2, #1
 734 02f6 0192     		str	r2, [sp, #4]
 735 02f8 0093     		str	r3, [sp]
 736 02fa 5246     		mov	r2, r10
 737 02fc 0023     		movs	r3, #0
 738 02fe 4046     		mov	r0, r8
 739 0300 FFF7FEFF 		bl	_fx_utility_logical_sector_read
 740              	.LVL95:
 500:Middlewares/ST/filex/common/src/fx_directory_entry_read.c ****                 {
 741              		.loc 1 500 17 is_stmt 1 view .LVU275
 500:Middlewares/ST/filex/common/src/fx_directory_entry_read.c ****                 {
 742              		.loc 1 500 20 is_stmt 0 view .LVU276
 743 0304 0146     		mov	r1, r0
 744 0306 0028     		cmp	r0, #0
 745 0308 40F0EF80 		bne	.L61
 746              	.LVL96:
 747              	.L22:
 516:Middlewares/ST/filex/common/src/fx_directory_entry_read.c **** 
 748              		.loc 1 516 13 is_stmt 1 view .LVU277
 516:Middlewares/ST/filex/common/src/fx_directory_entry_read.c **** 
 749              		.loc 1 516 44 is_stmt 0 view .LVU278
 750 030c D8F80800 		ldr	r0, [r8, #8]
 516:Middlewares/ST/filex/common/src/fx_directory_entry_read.c **** 
 751              		.loc 1 516 22 view .LVU279
 752 0310 0844     		add	r0, r0, r1
 753              	.LVL97:
 519:Middlewares/ST/filex/common/src/fx_directory_entry_read.c ****         } while (card > 0);
 754              		.loc 1 519 13 is_stmt 1 view .LVU280
 519:Middlewares/ST/filex/common/src/fx_directory_entry_read.c ****         } while (card > 0);
 755              		.loc 1 519 18 is_stmt 0 view .LVU281
 756 0312 09F10109 		add	r9, r9, #1
 757              	.LVL98:
 520:Middlewares/ST/filex/common/src/fx_directory_entry_read.c **** 
 758              		.loc 1 520 17 is_stmt 1 view .LVU282
 520:Middlewares/ST/filex/common/src/fx_directory_entry_read.c **** 
 759              		.loc 1 520 9 is_stmt 0 view .LVU283
 760 0316 BCB1     		cbz	r4, .L77
 761              	.LVL99:
 762              	.L27:
 341:Middlewares/ST/filex/common/src/fx_directory_entry_read.c ****         {
ARM GAS  C:\Users\HP\AppData\Local\Temp\ccq996lt.s 			page 27


 763              		.loc 1 341 9 is_stmt 1 view .LVU284
 345:Middlewares/ST/filex/common/src/fx_directory_entry_read.c **** 
 764              		.loc 1 345 13 view .LVU285
 345:Middlewares/ST/filex/common/src/fx_directory_entry_read.c **** 
 765              		.loc 1 345 27 is_stmt 0 view .LVU286
 766 0318 0478     		ldrb	r4, [r0]	@ zero_extendqisi2
 345:Middlewares/ST/filex/common/src/fx_directory_entry_read.c **** 
 767              		.loc 1 345 20 view .LVU287
 768 031a 04F01F04 		and	r4, r4, #31
 345:Middlewares/ST/filex/common/src/fx_directory_entry_read.c **** 
 769              		.loc 1 345 18 view .LVU288
 770 031e 013C     		subs	r4, r4, #1
 771              	.LVL100:
 348:Middlewares/ST/filex/common/src/fx_directory_entry_read.c ****             {
 772              		.loc 1 348 13 is_stmt 1 view .LVU289
 348:Middlewares/ST/filex/common/src/fx_directory_entry_read.c ****             {
 773              		.loc 1 348 16 is_stmt 0 view .LVU290
 774 0320 002D     		cmp	r5, #0
 775 0322 ADD0     		beq	.L78
 776              	.LVL101:
 777              	.L16:
 419:Middlewares/ST/filex/common/src/fx_directory_entry_read.c ****             {
 778              		.loc 1 419 13 is_stmt 1 view .LVU291
 419:Middlewares/ST/filex/common/src/fx_directory_entry_read.c ****             {
 779              		.loc 1 419 29 is_stmt 0 view .LVU292
 780 0324 2031     		adds	r1, r1, #32
 419:Middlewares/ST/filex/common/src/fx_directory_entry_read.c ****             {
 781              		.loc 1 419 62 view .LVU293
 782 0326 D8F82830 		ldr	r3, [r8, #40]
 419:Middlewares/ST/filex/common/src/fx_directory_entry_read.c ****             {
 783              		.loc 1 419 16 view .LVU294
 784 032a 9942     		cmp	r1, r3
 785 032c EED3     		bcc	.L22
 423:Middlewares/ST/filex/common/src/fx_directory_entry_read.c ****                 {
 786              		.loc 1 423 17 is_stmt 1 view .LVU295
 423:Middlewares/ST/filex/common/src/fx_directory_entry_read.c ****                 {
 787              		.loc 1 423 20 is_stmt 0 view .LVU296
 788 032e 099B     		ldr	r3, [sp, #36]
 789 0330 002B     		cmp	r3, #0
 790 0332 ACD0     		beq	.L79
 791              	.L23:
 427:Middlewares/ST/filex/common/src/fx_directory_entry_read.c ****                     {
 792              		.loc 1 427 21 is_stmt 1 view .LVU297
 427:Middlewares/ST/filex/common/src/fx_directory_entry_read.c ****                     {
 793              		.loc 1 427 54 is_stmt 0 view .LVU298
 794 0334 D8F85430 		ldr	r3, [r8, #84]
 427:Middlewares/ST/filex/common/src/fx_directory_entry_read.c ****                     {
 795              		.loc 1 427 86 view .LVU299
 796 0338 013B     		subs	r3, r3, #1
 427:Middlewares/ST/filex/common/src/fx_directory_entry_read.c ****                     {
 797              		.loc 1 427 24 view .LVU300
 798 033a 5B45     		cmp	r3, fp
 799 033c B6D9     		bls	.L25
 433:Middlewares/ST/filex/common/src/fx_directory_entry_read.c **** 
 800              		.loc 1 433 25 is_stmt 1 view .LVU301
 433:Middlewares/ST/filex/common/src/fx_directory_entry_read.c **** 
 801              		.loc 1 433 39 is_stmt 0 view .LVU302
ARM GAS  C:\Users\HP\AppData\Local\Temp\ccq996lt.s 			page 28


 802 033e 0AF1010A 		add	r10, r10, #1
 803              	.LVL102:
 436:Middlewares/ST/filex/common/src/fx_directory_entry_read.c ****                     }
 804              		.loc 1 436 25 is_stmt 1 view .LVU303
 436:Middlewares/ST/filex/common/src/fx_directory_entry_read.c ****                     }
 805              		.loc 1 436 40 is_stmt 0 view .LVU304
 806 0342 0BF1010B 		add	fp, fp, #1
 807              	.LVL103:
 436:Middlewares/ST/filex/common/src/fx_directory_entry_read.c ****                     }
 808              		.loc 1 436 40 view .LVU305
 809 0346 D1E7     		b	.L26
 810              	.LVL104:
 811              	.L77:
 523:Middlewares/ST/filex/common/src/fx_directory_entry_read.c ****     }
 812              		.loc 1 523 59 view .LVU306
 813 0348 AA46     		mov	r10, r5
 814              	.LVL105:
 523:Middlewares/ST/filex/common/src/fx_directory_entry_read.c ****     }
 815              		.loc 1 523 59 view .LVU307
 816 034a 0A9C     		ldr	r4, [sp, #40]
 817              	.LVL106:
 523:Middlewares/ST/filex/common/src/fx_directory_entry_read.c ****     }
 818              		.loc 1 523 59 view .LVU308
 819 034c 0646     		mov	r6, r0
 820              	.LVL107:
 523:Middlewares/ST/filex/common/src/fx_directory_entry_read.c ****     }
 821              		.loc 1 523 59 view .LVU309
 822 034e CDF81890 		str	r9, [sp, #24]
 823 0352 DDF82C90 		ldr	r9, [sp, #44]
 824              	.LVL108:
 523:Middlewares/ST/filex/common/src/fx_directory_entry_read.c ****     }
 825              		.loc 1 523 59 view .LVU310
 826 0356 4546     		mov	r5, r8
 827              	.LVL109:
 523:Middlewares/ST/filex/common/src/fx_directory_entry_read.c ****     }
 828              		.loc 1 523 59 view .LVU311
 829 0358 DDF824B0 		ldr	fp, [sp, #36]
 830              	.LVL110:
 523:Middlewares/ST/filex/common/src/fx_directory_entry_read.c ****     }
 831              		.loc 1 523 9 is_stmt 1 view .LVU312
 523:Middlewares/ST/filex/common/src/fx_directory_entry_read.c ****     }
 832              		.loc 1 523 59 is_stmt 0 view .LVU313
 833 035c 0123     		movs	r3, #1
 834 035e 7B61     		str	r3, [r7, #20]
 835 0360 00E7     		b	.L11
 836              	.LVL111:
 837              	.L53:
 528:Middlewares/ST/filex/common/src/fx_directory_entry_read.c ****     }
 838              		.loc 1 528 24 view .LVU314
 839 0362 4FF0010A 		mov	r10, #1
 840 0366 FDE6     		b	.L11
 841              	.LVL112:
 842              	.L74:
 536:Middlewares/ST/filex/common/src/fx_directory_entry_read.c ****     }
 843              		.loc 1 536 9 is_stmt 1 view .LVU315
 536:Middlewares/ST/filex/common/src/fx_directory_entry_read.c ****     }
 844              		.loc 1 536 59 is_stmt 0 view .LVU316
ARM GAS  C:\Users\HP\AppData\Local\Temp\ccq996lt.s 			page 29


 845 0368 0023     		movs	r3, #0
 846 036a 7B61     		str	r3, [r7, #20]
 847 036c FEE6     		b	.L28
 848              	.LVL113:
 849              	.L80:
 543:Middlewares/ST/filex/common/src/fx_directory_entry_read.c ****     {
 544:Middlewares/ST/filex/common/src/fx_directory_entry_read.c **** 
 545:Middlewares/ST/filex/common/src/fx_directory_entry_read.c ****         /* Check for a NULL.  */
 546:Middlewares/ST/filex/common/src/fx_directory_entry_read.c ****         if ((CHAR)read_ptr[i] == 0)
 547:Middlewares/ST/filex/common/src/fx_directory_entry_read.c ****         {
 548:Middlewares/ST/filex/common/src/fx_directory_entry_read.c ****             break;
 549:Middlewares/ST/filex/common/src/fx_directory_entry_read.c ****         }
 550:Middlewares/ST/filex/common/src/fx_directory_entry_read.c **** 
 551:Middlewares/ST/filex/common/src/fx_directory_entry_read.c ****         /* Check for a dot.  This happens for the first two directory entries, no
 552:Middlewares/ST/filex/common/src/fx_directory_entry_read.c ****            extra dot is needed.  */
 553:Middlewares/ST/filex/common/src/fx_directory_entry_read.c ****         if ((CHAR)read_ptr[i] == '.')
 554:Middlewares/ST/filex/common/src/fx_directory_entry_read.c ****         {
 555:Middlewares/ST/filex/common/src/fx_directory_entry_read.c ****             dotflag =  2;
 850              		.loc 1 555 21 view .LVU317
 851 036e 0220     		movs	r0, #2
 852              	.LVL114:
 853              		.loc 1 555 21 view .LVU318
 854 0370 16E0     		b	.L31
 855              	.LVL115:
 856              	.L81:
 556:Middlewares/ST/filex/common/src/fx_directory_entry_read.c ****         }
 557:Middlewares/ST/filex/common/src/fx_directory_entry_read.c **** 
 558:Middlewares/ST/filex/common/src/fx_directory_entry_read.c ****         /* Check for a space.  */
 559:Middlewares/ST/filex/common/src/fx_directory_entry_read.c ****         if ((CHAR)read_ptr[i] == ' ')
 560:Middlewares/ST/filex/common/src/fx_directory_entry_read.c ****         {
 561:Middlewares/ST/filex/common/src/fx_directory_entry_read.c ****             /* Put a dot if a character comes after space.  */
 562:Middlewares/ST/filex/common/src/fx_directory_entry_read.c ****             if (dotflag == 0)
 857              		.loc 1 562 13 is_stmt 1 view .LVU319
 858              		.loc 1 562 16 is_stmt 0 view .LVU320
 859 0372 60B9     		cbnz	r0, .L34
 563:Middlewares/ST/filex/common/src/fx_directory_entry_read.c ****             {
 564:Middlewares/ST/filex/common/src/fx_directory_entry_read.c ****                 dotflag =  1;
 860              		.loc 1 564 25 view .LVU321
 861 0374 0120     		movs	r0, #1
 862              	.LVL116:
 565:Middlewares/ST/filex/common/src/fx_directory_entry_read.c ****             }
 566:Middlewares/ST/filex/common/src/fx_directory_entry_read.c ****             continue;
 863              		.loc 1 566 13 is_stmt 1 view .LVU322
 864 0376 0AE0     		b	.L34
 865              	.LVL117:
 866              	.L82:
 567:Middlewares/ST/filex/common/src/fx_directory_entry_read.c ****         }
 568:Middlewares/ST/filex/common/src/fx_directory_entry_read.c **** 
 569:Middlewares/ST/filex/common/src/fx_directory_entry_read.c ****         /* Check for the main short file name size.  */
 570:Middlewares/ST/filex/common/src/fx_directory_entry_read.c ****         if (i == FX_DIR_NAME_SIZE)
 571:Middlewares/ST/filex/common/src/fx_directory_entry_read.c ****         {
 572:Middlewares/ST/filex/common/src/fx_directory_entry_read.c ****             /* Check to see if we need to insert a dot.  */
 573:Middlewares/ST/filex/common/src/fx_directory_entry_read.c ****             if (dotflag == 0)
 867              		.loc 1 573 13 view .LVU323
 868              		.loc 1 573 16 is_stmt 0 view .LVU324
 869 0378 B0B9     		cbnz	r0, .L35
 870              	.L36:
ARM GAS  C:\Users\HP\AppData\Local\Temp\ccq996lt.s 			page 30


 871              	.LVL118:
 574:Middlewares/ST/filex/common/src/fx_directory_entry_read.c ****             {
 575:Middlewares/ST/filex/common/src/fx_directory_entry_read.c ****                 dotflag =  1;
 576:Middlewares/ST/filex/common/src/fx_directory_entry_read.c ****             }
 577:Middlewares/ST/filex/common/src/fx_directory_entry_read.c ****         }
 578:Middlewares/ST/filex/common/src/fx_directory_entry_read.c **** 
 579:Middlewares/ST/filex/common/src/fx_directory_entry_read.c ****         /* Check to see if we need to add a dot.  */
 580:Middlewares/ST/filex/common/src/fx_directory_entry_read.c ****         if (dotflag == 1)
 581:Middlewares/ST/filex/common/src/fx_directory_entry_read.c ****         {
 582:Middlewares/ST/filex/common/src/fx_directory_entry_read.c ****             /* Add dot to short file name.  */
 583:Middlewares/ST/filex/common/src/fx_directory_entry_read.c ****             short_name_ptr[j++] =  '.';
 872              		.loc 1 583 13 is_stmt 1 view .LVU325
 873              		.loc 1 583 33 is_stmt 0 view .LVU326
 874 037a 2E21     		movs	r1, #46
 875 037c 0EF80210 		strb	r1, [lr, r2]
 584:Middlewares/ST/filex/common/src/fx_directory_entry_read.c ****             dotflag =  2;    /* no more dot for spaces */
 876              		.loc 1 584 13 is_stmt 1 view .LVU327
 877              	.LVL119:
 583:Middlewares/ST/filex/common/src/fx_directory_entry_read.c ****             dotflag =  2;    /* no more dot for spaces */
 878              		.loc 1 583 29 is_stmt 0 view .LVU328
 879 0380 0132     		adds	r2, r2, #1
 880              	.LVL120:
 881              		.loc 1 584 21 view .LVU329
 882 0382 0220     		movs	r0, #2
 883              	.LVL121:
 884              	.L37:
 585:Middlewares/ST/filex/common/src/fx_directory_entry_read.c ****         }
 586:Middlewares/ST/filex/common/src/fx_directory_entry_read.c **** 
 587:Middlewares/ST/filex/common/src/fx_directory_entry_read.c ****         /* Copy a character.  */
 588:Middlewares/ST/filex/common/src/fx_directory_entry_read.c ****         short_name_ptr[j] =  (CHAR)read_ptr[i];
 885              		.loc 1 588 9 is_stmt 1 view .LVU330
 886              		.loc 1 588 30 is_stmt 0 view .LVU331
 887 0384 9CF80010 		ldrb	r1, [ip]	@ zero_extendqisi2
 888              		.loc 1 588 27 view .LVU332
 889 0388 0EF80210 		strb	r1, [lr, r2]
 589:Middlewares/ST/filex/common/src/fx_directory_entry_read.c **** 
 590:Middlewares/ST/filex/common/src/fx_directory_entry_read.c ****         /* Increment size.  */
 591:Middlewares/ST/filex/common/src/fx_directory_entry_read.c ****         j++;
 890              		.loc 1 591 9 is_stmt 1 view .LVU333
 891              		.loc 1 591 10 is_stmt 0 view .LVU334
 892 038c 0132     		adds	r2, r2, #1
 893              	.LVL122:
 894              	.L34:
 542:Middlewares/ST/filex/common/src/fx_directory_entry_read.c ****     {
 895              		.loc 1 542 66 is_stmt 1 discriminator 2 view .LVU335
 542:Middlewares/ST/filex/common/src/fx_directory_entry_read.c ****     {
 896              		.loc 1 542 67 is_stmt 0 discriminator 2 view .LVU336
 897 038e 0133     		adds	r3, r3, #1
 898              	.LVL123:
 899              	.L29:
 542:Middlewares/ST/filex/common/src/fx_directory_entry_read.c ****     {
 900              		.loc 1 542 24 is_stmt 1 discriminator 1 view .LVU337
 542:Middlewares/ST/filex/common/src/fx_directory_entry_read.c ****     {
 901              		.loc 1 542 5 is_stmt 0 discriminator 1 view .LVU338
 902 0390 0A2B     		cmp	r3, #10
 903 0392 0CD8     		bhi	.L30
 546:Middlewares/ST/filex/common/src/fx_directory_entry_read.c ****         {
ARM GAS  C:\Users\HP\AppData\Local\Temp\ccq996lt.s 			page 31


 904              		.loc 1 546 9 is_stmt 1 view .LVU339
 546:Middlewares/ST/filex/common/src/fx_directory_entry_read.c ****         {
 905              		.loc 1 546 27 is_stmt 0 view .LVU340
 906 0394 06EB030C 		add	ip, r6, r3
 907 0398 F15C     		ldrb	r1, [r6, r3]	@ zero_extendqisi2
 546:Middlewares/ST/filex/common/src/fx_directory_entry_read.c ****         {
 908              		.loc 1 546 12 view .LVU341
 909 039a 41B1     		cbz	r1, .L30
 553:Middlewares/ST/filex/common/src/fx_directory_entry_read.c ****         {
 910              		.loc 1 553 9 is_stmt 1 view .LVU342
 553:Middlewares/ST/filex/common/src/fx_directory_entry_read.c ****         {
 911              		.loc 1 553 12 is_stmt 0 view .LVU343
 912 039c 2E29     		cmp	r1, #46
 913 039e E6D0     		beq	.L80
 914              	.LVL124:
 915              	.L31:
 559:Middlewares/ST/filex/common/src/fx_directory_entry_read.c ****         {
 916              		.loc 1 559 9 is_stmt 1 view .LVU344
 559:Middlewares/ST/filex/common/src/fx_directory_entry_read.c ****         {
 917              		.loc 1 559 12 is_stmt 0 view .LVU345
 918 03a0 2029     		cmp	r1, #32
 919 03a2 E6D0     		beq	.L81
 570:Middlewares/ST/filex/common/src/fx_directory_entry_read.c ****         {
 920              		.loc 1 570 9 is_stmt 1 view .LVU346
 570:Middlewares/ST/filex/common/src/fx_directory_entry_read.c ****         {
 921              		.loc 1 570 12 is_stmt 0 view .LVU347
 922 03a4 082B     		cmp	r3, #8
 923 03a6 E7D0     		beq	.L82
 924              	.L35:
 580:Middlewares/ST/filex/common/src/fx_directory_entry_read.c ****         {
 925              		.loc 1 580 9 is_stmt 1 view .LVU348
 580:Middlewares/ST/filex/common/src/fx_directory_entry_read.c ****         {
 926              		.loc 1 580 12 is_stmt 0 view .LVU349
 927 03a8 0128     		cmp	r0, #1
 928 03aa EBD1     		bne	.L37
 929 03ac E5E7     		b	.L36
 930              	.L30:
 592:Middlewares/ST/filex/common/src/fx_directory_entry_read.c ****     }
 593:Middlewares/ST/filex/common/src/fx_directory_entry_read.c **** 
 594:Middlewares/ST/filex/common/src/fx_directory_entry_read.c ****     /* Determine if a long file name is present and its associated short file
 595:Middlewares/ST/filex/common/src/fx_directory_entry_read.c ****        name is actually free.  */
 596:Middlewares/ST/filex/common/src/fx_directory_entry_read.c ****     if ((destination_ptr -> fx_dir_entry_long_name_present) && (((UCHAR)short_name_ptr[0]) == (UCHA
 931              		.loc 1 596 5 is_stmt 1 view .LVU350
 932              		.loc 1 596 26 is_stmt 0 view .LVU351
 933 03ae 7B69     		ldr	r3, [r7, #20]
 934              	.LVL125:
 935              		.loc 1 596 8 view .LVU352
 936 03b0 1BB1     		cbz	r3, .L39
 937              		.loc 1 596 87 discriminator 1 view .LVU353
 938 03b2 059B     		ldr	r3, [sp, #20]
 939 03b4 1B78     		ldrb	r3, [r3]	@ zero_extendqisi2
 940              		.loc 1 596 61 discriminator 1 view .LVU354
 941 03b6 E52B     		cmp	r3, #229
 942 03b8 5ED0     		beq	.L83
 943              	.L39:
 597:Middlewares/ST/filex/common/src/fx_directory_entry_read.c ****     {
 598:Middlewares/ST/filex/common/src/fx_directory_entry_read.c **** 
ARM GAS  C:\Users\HP\AppData\Local\Temp\ccq996lt.s 			page 32


 599:Middlewares/ST/filex/common/src/fx_directory_entry_read.c ****         /* Yes, the short file name is really free even though long file name entries directly prec
 600:Middlewares/ST/filex/common/src/fx_directory_entry_read.c ****            In this case, simply place the free directory marker at the front of the long file name.
 601:Middlewares/ST/filex/common/src/fx_directory_entry_read.c ****         destination_ptr -> fx_dir_entry_name[0] =  (CHAR)FX_DIR_ENTRY_FREE;
 602:Middlewares/ST/filex/common/src/fx_directory_entry_read.c ****         short_name_ptr[0] =  (CHAR)0;
 603:Middlewares/ST/filex/common/src/fx_directory_entry_read.c ****     }
 604:Middlewares/ST/filex/common/src/fx_directory_entry_read.c **** 
 605:Middlewares/ST/filex/common/src/fx_directory_entry_read.c ****     /* Determine if the short name pointer is NULL while the read pointer is
 606:Middlewares/ST/filex/common/src/fx_directory_entry_read.c ****        non-NULL.  */
 607:Middlewares/ST/filex/common/src/fx_directory_entry_read.c ****     if ((short_name_ptr[0] == 0) && (read_ptr[0] == ' '))
 944              		.loc 1 607 5 is_stmt 1 view .LVU355
 945              		.loc 1 607 24 is_stmt 0 view .LVU356
 946 03ba 059B     		ldr	r3, [sp, #20]
 947 03bc 1B78     		ldrb	r3, [r3]	@ zero_extendqisi2
 948              		.loc 1 607 8 view .LVU357
 949 03be 13B9     		cbnz	r3, .L40
 950              		.loc 1 607 46 discriminator 1 view .LVU358
 951 03c0 3378     		ldrb	r3, [r6]	@ zero_extendqisi2
 952              		.loc 1 607 34 discriminator 1 view .LVU359
 953 03c2 202B     		cmp	r3, #32
 954 03c4 65D0     		beq	.L84
 955              	.L40:
 608:Middlewares/ST/filex/common/src/fx_directory_entry_read.c ****     {
 609:Middlewares/ST/filex/common/src/fx_directory_entry_read.c **** 
 610:Middlewares/ST/filex/common/src/fx_directory_entry_read.c ****         /* This condition can occur with an all blank volume name.  Simply
 611:Middlewares/ST/filex/common/src/fx_directory_entry_read.c ****            copy the volume name to the short name in this case.  */
 612:Middlewares/ST/filex/common/src/fx_directory_entry_read.c ****         for (j = 0; j < (FX_DIR_NAME_SIZE + FX_DIR_EXT_SIZE); j++)
 613:Middlewares/ST/filex/common/src/fx_directory_entry_read.c ****         {
 614:Middlewares/ST/filex/common/src/fx_directory_entry_read.c **** 
 615:Middlewares/ST/filex/common/src/fx_directory_entry_read.c ****             /* Copy a byte of the volume name.  */
 616:Middlewares/ST/filex/common/src/fx_directory_entry_read.c ****             short_name_ptr[j] =  (CHAR)read_ptr[j];
 617:Middlewares/ST/filex/common/src/fx_directory_entry_read.c ****         }
 618:Middlewares/ST/filex/common/src/fx_directory_entry_read.c ****     }
 619:Middlewares/ST/filex/common/src/fx_directory_entry_read.c **** 
 620:Middlewares/ST/filex/common/src/fx_directory_entry_read.c ****     /* Set end of string to null.  */
 621:Middlewares/ST/filex/common/src/fx_directory_entry_read.c ****     short_name_ptr[j] = 0;
 956              		.loc 1 621 5 is_stmt 1 view .LVU360
 957              		.loc 1 621 23 is_stmt 0 view .LVU361
 958 03c6 0023     		movs	r3, #0
 959 03c8 0599     		ldr	r1, [sp, #20]
 960 03ca 8B54     		strb	r3, [r1, r2]
 622:Middlewares/ST/filex/common/src/fx_directory_entry_read.c **** 
 623:Middlewares/ST/filex/common/src/fx_directory_entry_read.c ****     /* Load up the destination directory entry.  */
 624:Middlewares/ST/filex/common/src/fx_directory_entry_read.c ****     read_ptr += (FX_DIR_NAME_SIZE + FX_DIR_EXT_SIZE);
 961              		.loc 1 624 5 is_stmt 1 view .LVU362
 962              	.LVL126:
 625:Middlewares/ST/filex/common/src/fx_directory_entry_read.c **** 
 626:Middlewares/ST/filex/common/src/fx_directory_entry_read.c ****     /* Copy the attribute into the destination.  */
 627:Middlewares/ST/filex/common/src/fx_directory_entry_read.c ****     destination_ptr -> fx_dir_entry_attributes =  *read_ptr++;
 963              		.loc 1 627 5 view .LVU363
 964              		.loc 1 627 51 is_stmt 0 view .LVU364
 965 03cc F37A     		ldrb	r3, [r6, #11]	@ zero_extendqisi2
 966              		.loc 1 627 48 view .LVU365
 967 03ce 3B77     		strb	r3, [r7, #28]
 628:Middlewares/ST/filex/common/src/fx_directory_entry_read.c **** 
 629:Middlewares/ST/filex/common/src/fx_directory_entry_read.c ****     /* Pickup the reserved byte.  */
 630:Middlewares/ST/filex/common/src/fx_directory_entry_read.c ****     destination_ptr -> fx_dir_entry_reserved =  *read_ptr++;
 968              		.loc 1 630 5 is_stmt 1 view .LVU366
ARM GAS  C:\Users\HP\AppData\Local\Temp\ccq996lt.s 			page 33


 969              	.LVL127:
 970              		.loc 1 630 49 is_stmt 0 view .LVU367
 971 03d0 337B     		ldrb	r3, [r6, #12]	@ zero_extendqisi2
 972              		.loc 1 630 46 view .LVU368
 973 03d2 7B77     		strb	r3, [r7, #29]
 631:Middlewares/ST/filex/common/src/fx_directory_entry_read.c **** 
 632:Middlewares/ST/filex/common/src/fx_directory_entry_read.c ****     /* Check for an undocumented NT file name feature for optimizing the storage
 633:Middlewares/ST/filex/common/src/fx_directory_entry_read.c ****        of all lower case file names that otherwise are valid 8.3 file names. The
 634:Middlewares/ST/filex/common/src/fx_directory_entry_read.c ****        following reserved bit definitions are present:
 635:Middlewares/ST/filex/common/src/fx_directory_entry_read.c **** 
 636:Middlewares/ST/filex/common/src/fx_directory_entry_read.c ****          BIT3 - set if 8.3 is all in lower case and no extended filename.
 637:Middlewares/ST/filex/common/src/fx_directory_entry_read.c ****          BIT4 - set for file, clear for directory entry if no extended filename.
 638:Middlewares/ST/filex/common/src/fx_directory_entry_read.c **** 
 639:Middlewares/ST/filex/common/src/fx_directory_entry_read.c ****        This is true for all NT systems. Prior to NT follows MSDOS FAT documentation and
 640:Middlewares/ST/filex/common/src/fx_directory_entry_read.c ****        is set to 0x00, all bits cleared. Therefore if BIT3 is set force lowercase.  */
 641:Middlewares/ST/filex/common/src/fx_directory_entry_read.c ****     if ((get_short_name) && (destination_ptr -> fx_dir_entry_reserved & 0x08))
 974              		.loc 1 641 5 is_stmt 1 view .LVU369
 975              		.loc 1 641 8 is_stmt 0 view .LVU370
 976 03d4 BAF1000F 		cmp	r10, #0
 977 03d8 02D0     		beq	.L43
 978              		.loc 1 641 26 discriminator 1 view .LVU371
 979 03da 13F0080F 		tst	r3, #8
 980 03de 6CD1     		bne	.L65
 981              	.LVL128:
 982              	.L43:
 642:Middlewares/ST/filex/common/src/fx_directory_entry_read.c ****     {
 643:Middlewares/ST/filex/common/src/fx_directory_entry_read.c **** 
 644:Middlewares/ST/filex/common/src/fx_directory_entry_read.c ****         /* Microsoft undocumented NT file name feature... convert short name to lower
 645:Middlewares/ST/filex/common/src/fx_directory_entry_read.c ****            case.  */
 646:Middlewares/ST/filex/common/src/fx_directory_entry_read.c ****         for (j = 0; j <= (FX_DIR_NAME_SIZE + FX_DIR_EXT_SIZE) && (short_name_ptr[j] != 0x00); j++)
 647:Middlewares/ST/filex/common/src/fx_directory_entry_read.c ****         {
 648:Middlewares/ST/filex/common/src/fx_directory_entry_read.c **** 
 649:Middlewares/ST/filex/common/src/fx_directory_entry_read.c ****             /* Determine if an upper case character is present.  */
 650:Middlewares/ST/filex/common/src/fx_directory_entry_read.c ****             if ((short_name_ptr[j] >= 'A') && (short_name_ptr[j] <= 'Z'))
 651:Middlewares/ST/filex/common/src/fx_directory_entry_read.c ****             {
 652:Middlewares/ST/filex/common/src/fx_directory_entry_read.c **** 
 653:Middlewares/ST/filex/common/src/fx_directory_entry_read.c ****                 /* Yes, an upper case character is present. Force it to lower case.  */
 654:Middlewares/ST/filex/common/src/fx_directory_entry_read.c ****                 short_name_ptr[j] =  (CHAR)(short_name_ptr[j] + 32);
 655:Middlewares/ST/filex/common/src/fx_directory_entry_read.c ****             }
 656:Middlewares/ST/filex/common/src/fx_directory_entry_read.c ****         }
 657:Middlewares/ST/filex/common/src/fx_directory_entry_read.c ****     }
 658:Middlewares/ST/filex/common/src/fx_directory_entry_read.c **** 
 659:Middlewares/ST/filex/common/src/fx_directory_entry_read.c ****     /* Pickup the created time in milliseconds.  */
 660:Middlewares/ST/filex/common/src/fx_directory_entry_read.c ****     destination_ptr -> fx_dir_entry_created_time_ms =  *read_ptr++;
 983              		.loc 1 660 5 is_stmt 1 view .LVU372
 984              		.loc 1 660 56 is_stmt 0 view .LVU373
 985 03e0 737B     		ldrb	r3, [r6, #13]	@ zero_extendqisi2
 986              		.loc 1 660 53 view .LVU374
 987 03e2 BB77     		strb	r3, [r7, #30]
 661:Middlewares/ST/filex/common/src/fx_directory_entry_read.c **** 
 662:Middlewares/ST/filex/common/src/fx_directory_entry_read.c ****     /* Pickup the created time.  */
 663:Middlewares/ST/filex/common/src/fx_directory_entry_read.c ****     destination_ptr -> fx_dir_entry_created_time =  _fx_utility_16_unsigned_read(read_ptr);
 988              		.loc 1 663 5 is_stmt 1 view .LVU375
 989              		.loc 1 663 53 is_stmt 0 view .LVU376
 990 03e4 06F10E00 		add	r0, r6, #14
 991              	.LVL129:
 992              		.loc 1 663 53 view .LVU377
ARM GAS  C:\Users\HP\AppData\Local\Temp\ccq996lt.s 			page 34


 993 03e8 FFF7FEFF 		bl	_fx_utility_16_unsigned_read
 994              	.LVL130:
 995              		.loc 1 663 50 view .LVU378
 996 03ec 3862     		str	r0, [r7, #32]
 664:Middlewares/ST/filex/common/src/fx_directory_entry_read.c ****     read_ptr =  read_ptr + 2;  /* Always 2 bytes */
 997              		.loc 1 664 5 is_stmt 1 view .LVU379
 998              	.LVL131:
 665:Middlewares/ST/filex/common/src/fx_directory_entry_read.c **** 
 666:Middlewares/ST/filex/common/src/fx_directory_entry_read.c ****     /* Pickup the created date.  */
 667:Middlewares/ST/filex/common/src/fx_directory_entry_read.c ****     destination_ptr -> fx_dir_entry_created_date =  _fx_utility_16_unsigned_read(read_ptr);
 999              		.loc 1 667 5 view .LVU380
 1000              		.loc 1 667 53 is_stmt 0 view .LVU381
 1001 03ee 06F11000 		add	r0, r6, #16
 1002              	.LVL132:
 1003              		.loc 1 667 53 view .LVU382
 1004 03f2 FFF7FEFF 		bl	_fx_utility_16_unsigned_read
 1005              	.LVL133:
 1006              		.loc 1 667 50 view .LVU383
 1007 03f6 7862     		str	r0, [r7, #36]
 668:Middlewares/ST/filex/common/src/fx_directory_entry_read.c ****     read_ptr =  read_ptr + 2;  /* Always 2 bytes */
 1008              		.loc 1 668 5 is_stmt 1 view .LVU384
 1009              	.LVL134:
 669:Middlewares/ST/filex/common/src/fx_directory_entry_read.c **** 
 670:Middlewares/ST/filex/common/src/fx_directory_entry_read.c ****     /* Pickup the last accessed date.  */
 671:Middlewares/ST/filex/common/src/fx_directory_entry_read.c ****     destination_ptr -> fx_dir_entry_last_accessed_date =  _fx_utility_16_unsigned_read(read_ptr);
 1010              		.loc 1 671 5 view .LVU385
 1011              		.loc 1 671 59 is_stmt 0 view .LVU386
 1012 03f8 06F11200 		add	r0, r6, #18
 1013              	.LVL135:
 1014              		.loc 1 671 59 view .LVU387
 1015 03fc FFF7FEFF 		bl	_fx_utility_16_unsigned_read
 1016              	.LVL136:
 1017              		.loc 1 671 56 view .LVU388
 1018 0400 B862     		str	r0, [r7, #40]
 672:Middlewares/ST/filex/common/src/fx_directory_entry_read.c ****     read_ptr =  read_ptr + 2;  /* Always 2 bytes */
 1019              		.loc 1 672 5 is_stmt 1 view .LVU389
 1020              		.loc 1 672 14 is_stmt 0 view .LVU390
 1021 0402 06F11400 		add	r0, r6, #20
 1022              	.LVL137:
 673:Middlewares/ST/filex/common/src/fx_directory_entry_read.c **** 
 674:Middlewares/ST/filex/common/src/fx_directory_entry_read.c ****     /* read the upper 2 bytes of starting cluster - required only for 32 bit FAT */
 675:Middlewares/ST/filex/common/src/fx_directory_entry_read.c ****     if (media_ptr -> fx_media_32_bit_FAT)
 1023              		.loc 1 675 5 is_stmt 1 view .LVU391
 1024              		.loc 1 675 19 is_stmt 0 view .LVU392
 1025 0406 6B6E     		ldr	r3, [r5, #100]
 1026              		.loc 1 675 8 view .LVU393
 1027 0408 002B     		cmp	r3, #0
 1028 040a 59D1     		bne	.L85
 676:Middlewares/ST/filex/common/src/fx_directory_entry_read.c ****     {
 677:Middlewares/ST/filex/common/src/fx_directory_entry_read.c **** 
 678:Middlewares/ST/filex/common/src/fx_directory_entry_read.c ****         /* FAT32 only.  */
 679:Middlewares/ST/filex/common/src/fx_directory_entry_read.c ****         destination_ptr -> fx_dir_entry_cluster =  _fx_utility_16_unsigned_read(read_ptr);
 680:Middlewares/ST/filex/common/src/fx_directory_entry_read.c ****         destination_ptr -> fx_dir_entry_cluster <<= 16;
 681:Middlewares/ST/filex/common/src/fx_directory_entry_read.c ****     }
 682:Middlewares/ST/filex/common/src/fx_directory_entry_read.c ****     else
 683:Middlewares/ST/filex/common/src/fx_directory_entry_read.c ****     {
 684:Middlewares/ST/filex/common/src/fx_directory_entry_read.c ****         /* Not required for non FAT32.  */
ARM GAS  C:\Users\HP\AppData\Local\Temp\ccq996lt.s 			page 35


 685:Middlewares/ST/filex/common/src/fx_directory_entry_read.c ****         destination_ptr -> fx_dir_entry_cluster =  0;
 1029              		.loc 1 685 9 is_stmt 1 view .LVU394
 1030              		.loc 1 685 49 is_stmt 0 view .LVU395
 1031 040c 0023     		movs	r3, #0
 1032 040e 7B63     		str	r3, [r7, #52]
 1033              	.LVL138:
 1034              	.L48:
 686:Middlewares/ST/filex/common/src/fx_directory_entry_read.c ****     }
 687:Middlewares/ST/filex/common/src/fx_directory_entry_read.c **** 
 688:Middlewares/ST/filex/common/src/fx_directory_entry_read.c ****     /* Advance the read pointer.  */
 689:Middlewares/ST/filex/common/src/fx_directory_entry_read.c ****     read_ptr =  read_ptr + 2;  /* Always 2 bytes */
 1035              		.loc 1 689 5 is_stmt 1 view .LVU396
 690:Middlewares/ST/filex/common/src/fx_directory_entry_read.c **** 
 691:Middlewares/ST/filex/common/src/fx_directory_entry_read.c ****     /* Copy the time into the destination.  */
 692:Middlewares/ST/filex/common/src/fx_directory_entry_read.c ****     destination_ptr -> fx_dir_entry_time =  _fx_utility_16_unsigned_read(read_ptr);
 1036              		.loc 1 692 5 view .LVU397
 1037              		.loc 1 692 45 is_stmt 0 view .LVU398
 1038 0410 06F11600 		add	r0, r6, #22
 1039              	.LVL139:
 1040              		.loc 1 692 45 view .LVU399
 1041 0414 FFF7FEFF 		bl	_fx_utility_16_unsigned_read
 1042              	.LVL140:
 1043              		.loc 1 692 42 view .LVU400
 1044 0418 F862     		str	r0, [r7, #44]
 693:Middlewares/ST/filex/common/src/fx_directory_entry_read.c ****     read_ptr =  read_ptr + 2;  /* Always 2 bytes */
 1045              		.loc 1 693 5 is_stmt 1 view .LVU401
 1046              	.LVL141:
 694:Middlewares/ST/filex/common/src/fx_directory_entry_read.c **** 
 695:Middlewares/ST/filex/common/src/fx_directory_entry_read.c ****     /* Copy the date into the destination.  */
 696:Middlewares/ST/filex/common/src/fx_directory_entry_read.c ****     destination_ptr -> fx_dir_entry_date =  _fx_utility_16_unsigned_read(read_ptr);
 1047              		.loc 1 696 5 view .LVU402
 1048              		.loc 1 696 45 is_stmt 0 view .LVU403
 1049 041a 06F11800 		add	r0, r6, #24
 1050              	.LVL142:
 1051              		.loc 1 696 45 view .LVU404
 1052 041e FFF7FEFF 		bl	_fx_utility_16_unsigned_read
 1053              	.LVL143:
 1054              		.loc 1 696 42 view .LVU405
 1055 0422 3863     		str	r0, [r7, #48]
 697:Middlewares/ST/filex/common/src/fx_directory_entry_read.c ****     read_ptr =  read_ptr + 2;  /* Always 2 bytes */
 1056              		.loc 1 697 5 is_stmt 1 view .LVU406
 1057              	.LVL144:
 698:Middlewares/ST/filex/common/src/fx_directory_entry_read.c **** 
 699:Middlewares/ST/filex/common/src/fx_directory_entry_read.c ****     /* Copy the starting cluster into the destination.  */
 700:Middlewares/ST/filex/common/src/fx_directory_entry_read.c ****     destination_ptr -> fx_dir_entry_cluster +=  _fx_utility_16_unsigned_read(read_ptr);
 1058              		.loc 1 700 5 view .LVU407
 1059              		.loc 1 700 49 is_stmt 0 view .LVU408
 1060 0424 06F11A00 		add	r0, r6, #26
 1061              	.LVL145:
 1062              		.loc 1 700 49 view .LVU409
 1063 0428 FFF7FEFF 		bl	_fx_utility_16_unsigned_read
 1064              	.LVL146:
 1065              		.loc 1 700 45 view .LVU410
 1066 042c 7B6B     		ldr	r3, [r7, #52]
 1067 042e 0344     		add	r3, r3, r0
 1068 0430 7B63     		str	r3, [r7, #52]
 701:Middlewares/ST/filex/common/src/fx_directory_entry_read.c ****     read_ptr =  read_ptr + 2;  /* Always 2 bytes */
ARM GAS  C:\Users\HP\AppData\Local\Temp\ccq996lt.s 			page 36


 1069              		.loc 1 701 5 is_stmt 1 view .LVU411
 1070              	.LVL147:
 702:Middlewares/ST/filex/common/src/fx_directory_entry_read.c **** 
 703:Middlewares/ST/filex/common/src/fx_directory_entry_read.c ****     /* Copy the file size into the destination.  */
 704:Middlewares/ST/filex/common/src/fx_directory_entry_read.c ****     destination_ptr -> fx_dir_entry_file_size =  _fx_utility_32_unsigned_read(read_ptr);
 1071              		.loc 1 704 5 view .LVU412
 1072              		.loc 1 704 50 is_stmt 0 view .LVU413
 1073 0432 06F11C00 		add	r0, r6, #28
 1074              	.LVL148:
 1075              		.loc 1 704 50 view .LVU414
 1076 0436 FFF7FEFF 		bl	_fx_utility_32_unsigned_read
 1077              	.LVL149:
 1078              		.loc 1 704 50 view .LVU415
 1079 043a 0023     		movs	r3, #0
 1080              		.loc 1 704 47 view .LVU416
 1081 043c B863     		str	r0, [r7, #56]
 1082 043e FB63     		str	r3, [r7, #60]
 705:Middlewares/ST/filex/common/src/fx_directory_entry_read.c **** 
 706:Middlewares/ST/filex/common/src/fx_directory_entry_read.c ****     /* Clear the destination search specific fields.  */
 707:Middlewares/ST/filex/common/src/fx_directory_entry_read.c ****     destination_ptr -> fx_dir_entry_last_search_cluster =           0;
 1083              		.loc 1 707 5 is_stmt 1 view .LVU417
 1084              		.loc 1 707 57 is_stmt 0 view .LVU418
 1085 0440 3B65     		str	r3, [r7, #80]
 708:Middlewares/ST/filex/common/src/fx_directory_entry_read.c ****     destination_ptr -> fx_dir_entry_last_search_relative_cluster =  0;
 1086              		.loc 1 708 5 is_stmt 1 view .LVU419
 1087              		.loc 1 708 66 is_stmt 0 view .LVU420
 1088 0442 7B65     		str	r3, [r7, #84]
 709:Middlewares/ST/filex/common/src/fx_directory_entry_read.c ****     destination_ptr -> fx_dir_entry_last_search_log_sector =        0;
 1089              		.loc 1 709 5 is_stmt 1 view .LVU421
 1090              		.loc 1 709 60 is_stmt 0 view .LVU422
 1091 0444 0020     		movs	r0, #0
 1092 0446 0021     		movs	r1, #0
 1093 0448 C7E91601 		strd	r0, [r7, #88]
 710:Middlewares/ST/filex/common/src/fx_directory_entry_read.c ****     destination_ptr -> fx_dir_entry_last_search_byte_offset =       0;
 1094              		.loc 1 710 5 is_stmt 1 view .LVU423
 1095              		.loc 1 710 61 is_stmt 0 view .LVU424
 1096 044c 3B66     		str	r3, [r7, #96]
 711:Middlewares/ST/filex/common/src/fx_directory_entry_read.c **** 
 712:Middlewares/ST/filex/common/src/fx_directory_entry_read.c ****     /* Remember the entry number.  */
 713:Middlewares/ST/filex/common/src/fx_directory_entry_read.c ****     destination_ptr -> fx_dir_entry_number =  entry;
 1097              		.loc 1 713 5 is_stmt 1 view .LVU425
 1098              		.loc 1 713 44 is_stmt 0 view .LVU426
 1099 044e 069B     		ldr	r3, [sp, #24]
 1100 0450 FB64     		str	r3, [r7, #76]
 714:Middlewares/ST/filex/common/src/fx_directory_entry_read.c **** 
 715:Middlewares/ST/filex/common/src/fx_directory_entry_read.c ****     /* Return entry number.  */
 716:Middlewares/ST/filex/common/src/fx_directory_entry_read.c ****     *entry_ptr =  entry;
 1101              		.loc 1 716 5 is_stmt 1 view .LVU427
 1102              		.loc 1 716 16 is_stmt 0 view .LVU428
 1103 0452 079A     		ldr	r2, [sp, #28]
 1104 0454 1360     		str	r3, [r2]
 717:Middlewares/ST/filex/common/src/fx_directory_entry_read.c **** 
 718:Middlewares/ST/filex/common/src/fx_directory_entry_read.c ****     /* Determine if we should remember the last cluster and relative cluster.  */
 719:Middlewares/ST/filex/common/src/fx_directory_entry_read.c ****     if (source_dir)
 1105              		.loc 1 719 5 is_stmt 1 view .LVU429
 1106              		.loc 1 719 8 is_stmt 0 view .LVU430
 1107 0456 BBF1000F 		cmp	fp, #0
ARM GAS  C:\Users\HP\AppData\Local\Temp\ccq996lt.s 			page 37


 1108 045a 48D0     		beq	.L66
 720:Middlewares/ST/filex/common/src/fx_directory_entry_read.c ****     {
 721:Middlewares/ST/filex/common/src/fx_directory_entry_read.c **** 
 722:Middlewares/ST/filex/common/src/fx_directory_entry_read.c ****         /* Yes, remember the last cluster and relative cluster for a subsequent call
 723:Middlewares/ST/filex/common/src/fx_directory_entry_read.c ****            to read a directory entry.  */
 724:Middlewares/ST/filex/common/src/fx_directory_entry_read.c ****         source_dir -> fx_dir_entry_last_search_cluster =           cluster;
 1109              		.loc 1 724 9 is_stmt 1 view .LVU431
 1110              		.loc 1 724 56 is_stmt 0 view .LVU432
 1111 045c CBF85040 		str	r4, [fp, #80]
 725:Middlewares/ST/filex/common/src/fx_directory_entry_read.c ****         source_dir -> fx_dir_entry_last_search_relative_cluster =  relative_cluster;
 1112              		.loc 1 725 9 is_stmt 1 view .LVU433
 1113              		.loc 1 725 65 is_stmt 0 view .LVU434
 1114 0460 CBF85490 		str	r9, [fp, #84]
 726:Middlewares/ST/filex/common/src/fx_directory_entry_read.c **** 
 727:Middlewares/ST/filex/common/src/fx_directory_entry_read.c ****         /* Also remember several other items that are unique to the directory... just to verify tha
 728:Middlewares/ST/filex/common/src/fx_directory_entry_read.c ****            search information can be used.  */
 729:Middlewares/ST/filex/common/src/fx_directory_entry_read.c ****         source_dir -> fx_dir_entry_last_search_log_sector =        source_dir -> fx_dir_entry_log_s
 1115              		.loc 1 729 9 is_stmt 1 view .LVU435
 1116              		.loc 1 729 79 is_stmt 0 view .LVU436
 1117 0464 DBE91023 		ldrd	r2, [fp, #64]
 1118              		.loc 1 729 59 view .LVU437
 1119 0468 CBE91623 		strd	r2, [fp, #88]
 730:Middlewares/ST/filex/common/src/fx_directory_entry_read.c ****         source_dir -> fx_dir_entry_last_search_byte_offset =       source_dir -> fx_dir_entry_byte_
 1120              		.loc 1 730 9 is_stmt 1 view .LVU438
 1121              		.loc 1 730 79 is_stmt 0 view .LVU439
 1122 046c DBF84830 		ldr	r3, [fp, #72]
 1123              		.loc 1 730 60 view .LVU440
 1124 0470 CBF86030 		str	r3, [fp, #96]
 731:Middlewares/ST/filex/common/src/fx_directory_entry_read.c ****     }
 732:Middlewares/ST/filex/common/src/fx_directory_entry_read.c **** #ifdef FX_ENABLE_EXFAT
 733:Middlewares/ST/filex/common/src/fx_directory_entry_read.c ****     destination_ptr -> fx_dir_entry_dont_use_fat = 0;
 734:Middlewares/ST/filex/common/src/fx_directory_entry_read.c **** 
 735:Middlewares/ST/filex/common/src/fx_directory_entry_read.c ****     /* If a file whose first byte of long name is read, fx_dir_entry_short_name will not be empty. 
 736:Middlewares/ST/filex/common/src/fx_directory_entry_read.c ****     /* If a free dir_entry is obtained, fx_dir_entry_short_name[0] will not be assigned as 0 around
 737:Middlewares/ST/filex/common/src/fx_directory_entry_read.c ****     /* If there is only a free dir_entry without front long name dir_entries, fx_dir_entry_name[0] 
 738:Middlewares/ST/filex/common/src/fx_directory_entry_read.c ****     if (((UCHAR)destination_ptr -> fx_dir_entry_name[0] == FX_DIR_ENTRY_FREE) && ((UCHAR)destinatio
 739:Middlewares/ST/filex/common/src/fx_directory_entry_read.c ****     {
 740:Middlewares/ST/filex/common/src/fx_directory_entry_read.c ****         destination_ptr -> fx_dir_entry_type = FX_EXFAT_DIR_ENTRY_TYPE_FREE;
 741:Middlewares/ST/filex/common/src/fx_directory_entry_read.c ****     }
 742:Middlewares/ST/filex/common/src/fx_directory_entry_read.c ****     else if ((UCHAR)destination_ptr -> fx_dir_entry_name[0] == FX_DIR_ENTRY_DONE)
 743:Middlewares/ST/filex/common/src/fx_directory_entry_read.c ****     {
 744:Middlewares/ST/filex/common/src/fx_directory_entry_read.c ****         destination_ptr -> fx_dir_entry_type = FX_EXFAT_DIR_ENTRY_TYPE_END_MARKER;
 745:Middlewares/ST/filex/common/src/fx_directory_entry_read.c ****     }
 746:Middlewares/ST/filex/common/src/fx_directory_entry_read.c ****     else
 747:Middlewares/ST/filex/common/src/fx_directory_entry_read.c ****     {
 748:Middlewares/ST/filex/common/src/fx_directory_entry_read.c ****         destination_ptr -> fx_dir_entry_type = FX_EXFAT_DIR_ENTRY_TYPE_FILE_DIRECTORY;
 749:Middlewares/ST/filex/common/src/fx_directory_entry_read.c ****     }
 750:Middlewares/ST/filex/common/src/fx_directory_entry_read.c **** #endif /* FX_ENABLE_EXFAT */
 751:Middlewares/ST/filex/common/src/fx_directory_entry_read.c **** 
 752:Middlewares/ST/filex/common/src/fx_directory_entry_read.c ****     /* Return success to the caller.  */
 753:Middlewares/ST/filex/common/src/fx_directory_entry_read.c ****     return(FX_SUCCESS);
 1125              		.loc 1 753 11 view .LVU441
 1126 0474 0023     		movs	r3, #0
 1127 0476 2AE0     		b	.L1
 1128              	.LVL150:
 1129              	.L83:
 601:Middlewares/ST/filex/common/src/fx_directory_entry_read.c ****         short_name_ptr[0] =  (CHAR)0;
ARM GAS  C:\Users\HP\AppData\Local\Temp\ccq996lt.s 			page 38


 1130              		.loc 1 601 9 is_stmt 1 view .LVU442
 601:Middlewares/ST/filex/common/src/fx_directory_entry_read.c ****         short_name_ptr[0] =  (CHAR)0;
 1131              		.loc 1 601 25 is_stmt 0 view .LVU443
 1132 0478 3B68     		ldr	r3, [r7]
 601:Middlewares/ST/filex/common/src/fx_directory_entry_read.c ****         short_name_ptr[0] =  (CHAR)0;
 1133              		.loc 1 601 49 view .LVU444
 1134 047a E521     		movs	r1, #229
 1135 047c 1970     		strb	r1, [r3]
 602:Middlewares/ST/filex/common/src/fx_directory_entry_read.c ****     }
 1136              		.loc 1 602 9 is_stmt 1 view .LVU445
 602:Middlewares/ST/filex/common/src/fx_directory_entry_read.c ****     }
 1137              		.loc 1 602 27 is_stmt 0 view .LVU446
 1138 047e 0023     		movs	r3, #0
 1139 0480 0599     		ldr	r1, [sp, #20]
 1140 0482 0B70     		strb	r3, [r1]
 1141 0484 99E7     		b	.L39
 1142              	.L42:
 616:Middlewares/ST/filex/common/src/fx_directory_entry_read.c ****         }
 1143              		.loc 1 616 13 is_stmt 1 discriminator 3 view .LVU447
 616:Middlewares/ST/filex/common/src/fx_directory_entry_read.c ****         }
 1144              		.loc 1 616 34 is_stmt 0 discriminator 3 view .LVU448
 1145 0486 B35C     		ldrb	r3, [r6, r2]	@ zero_extendqisi2
 616:Middlewares/ST/filex/common/src/fx_directory_entry_read.c ****         }
 1146              		.loc 1 616 31 discriminator 3 view .LVU449
 1147 0488 8B54     		strb	r3, [r1, r2]
 612:Middlewares/ST/filex/common/src/fx_directory_entry_read.c ****         {
 1148              		.loc 1 612 63 is_stmt 1 discriminator 3 view .LVU450
 612:Middlewares/ST/filex/common/src/fx_directory_entry_read.c ****         {
 1149              		.loc 1 612 64 is_stmt 0 discriminator 3 view .LVU451
 1150 048a 0132     		adds	r2, r2, #1
 1151              	.LVL151:
 1152              	.L41:
 612:Middlewares/ST/filex/common/src/fx_directory_entry_read.c ****         {
 1153              		.loc 1 612 21 is_stmt 1 discriminator 1 view .LVU452
 612:Middlewares/ST/filex/common/src/fx_directory_entry_read.c ****         {
 1154              		.loc 1 612 9 is_stmt 0 discriminator 1 view .LVU453
 1155 048c 0A2A     		cmp	r2, #10
 1156 048e FAD9     		bls	.L42
 1157 0490 99E7     		b	.L40
 1158              	.L84:
 612:Middlewares/ST/filex/common/src/fx_directory_entry_read.c ****         {
 1159              		.loc 1 612 16 view .LVU454
 1160 0492 0022     		movs	r2, #0
 1161              	.LVL152:
 612:Middlewares/ST/filex/common/src/fx_directory_entry_read.c ****         {
 1162              		.loc 1 612 16 view .LVU455
 1163 0494 0599     		ldr	r1, [sp, #20]
 1164 0496 F9E7     		b	.L41
 1165              	.LVL153:
 1166              	.L45:
 646:Middlewares/ST/filex/common/src/fx_directory_entry_read.c ****         {
 1167              		.loc 1 646 95 is_stmt 1 discriminator 2 view .LVU456
 646:Middlewares/ST/filex/common/src/fx_directory_entry_read.c ****         {
 1168              		.loc 1 646 96 is_stmt 0 discriminator 2 view .LVU457
 1169 0498 0133     		adds	r3, r3, #1
 1170              	.LVL154:
 1171              	.L44:
ARM GAS  C:\Users\HP\AppData\Local\Temp\ccq996lt.s 			page 39


 646:Middlewares/ST/filex/common/src/fx_directory_entry_read.c ****         {
 1172              		.loc 1 646 21 is_stmt 1 discriminator 1 view .LVU458
 646:Middlewares/ST/filex/common/src/fx_directory_entry_read.c ****         {
 1173              		.loc 1 646 9 is_stmt 0 discriminator 1 view .LVU459
 1174 049a 0B2B     		cmp	r3, #11
 1175 049c A0D8     		bhi	.L43
 646:Middlewares/ST/filex/common/src/fx_directory_entry_read.c ****         {
 1176              		.loc 1 646 81 discriminator 3 view .LVU460
 1177 049e 00EB030C 		add	ip, r0, r3
 1178 04a2 C25C     		ldrb	r2, [r0, r3]	@ zero_extendqisi2
 646:Middlewares/ST/filex/common/src/fx_directory_entry_read.c ****         {
 1179              		.loc 1 646 63 discriminator 3 view .LVU461
 1180 04a4 002A     		cmp	r2, #0
 1181 04a6 9BD0     		beq	.L43
 650:Middlewares/ST/filex/common/src/fx_directory_entry_read.c ****             {
 1182              		.loc 1 650 13 is_stmt 1 view .LVU462
 650:Middlewares/ST/filex/common/src/fx_directory_entry_read.c ****             {
 1183              		.loc 1 650 44 is_stmt 0 view .LVU463
 1184 04a8 A2F14101 		sub	r1, r2, #65
 1185 04ac C9B2     		uxtb	r1, r1
 650:Middlewares/ST/filex/common/src/fx_directory_entry_read.c ****             {
 1186              		.loc 1 650 16 view .LVU464
 1187 04ae 1929     		cmp	r1, #25
 1188 04b0 F2D8     		bhi	.L45
 654:Middlewares/ST/filex/common/src/fx_directory_entry_read.c ****             }
 1189              		.loc 1 654 17 is_stmt 1 view .LVU465
 654:Middlewares/ST/filex/common/src/fx_directory_entry_read.c ****             }
 1190              		.loc 1 654 38 is_stmt 0 view .LVU466
 1191 04b2 2032     		adds	r2, r2, #32
 654:Middlewares/ST/filex/common/src/fx_directory_entry_read.c ****             }
 1192              		.loc 1 654 35 view .LVU467
 1193 04b4 8CF80020 		strb	r2, [ip]
 1194 04b8 EEE7     		b	.L45
 1195              	.LVL155:
 1196              	.L65:
 646:Middlewares/ST/filex/common/src/fx_directory_entry_read.c ****         {
 1197              		.loc 1 646 16 view .LVU468
 1198 04ba 0023     		movs	r3, #0
 1199 04bc 0598     		ldr	r0, [sp, #20]
 1200              	.LVL156:
 646:Middlewares/ST/filex/common/src/fx_directory_entry_read.c ****         {
 1201              		.loc 1 646 16 view .LVU469
 1202 04be ECE7     		b	.L44
 1203              	.LVL157:
 1204              	.L85:
 679:Middlewares/ST/filex/common/src/fx_directory_entry_read.c ****         destination_ptr -> fx_dir_entry_cluster <<= 16;
 1205              		.loc 1 679 9 is_stmt 1 view .LVU470
 679:Middlewares/ST/filex/common/src/fx_directory_entry_read.c ****         destination_ptr -> fx_dir_entry_cluster <<= 16;
 1206              		.loc 1 679 52 is_stmt 0 view .LVU471
 1207 04c0 FFF7FEFF 		bl	_fx_utility_16_unsigned_read
 1208              	.LVL158:
 679:Middlewares/ST/filex/common/src/fx_directory_entry_read.c ****         destination_ptr -> fx_dir_entry_cluster <<= 16;
 1209              		.loc 1 679 49 view .LVU472
 1210 04c4 7863     		str	r0, [r7, #52]
 680:Middlewares/ST/filex/common/src/fx_directory_entry_read.c ****     }
 1211              		.loc 1 680 9 is_stmt 1 view .LVU473
 680:Middlewares/ST/filex/common/src/fx_directory_entry_read.c ****     }
ARM GAS  C:\Users\HP\AppData\Local\Temp\ccq996lt.s 			page 40


 1212              		.loc 1 680 49 is_stmt 0 view .LVU474
 1213 04c6 0004     		lsls	r0, r0, #16
 1214 04c8 7863     		str	r0, [r7, #52]
 1215 04ca A1E7     		b	.L48
 1216              	.LVL159:
 1217              	.L49:
 147:Middlewares/ST/filex/common/src/fx_directory_entry_read.c ****         }
 1218              		.loc 1 147 19 view .LVU475
 1219 04cc 0223     		movs	r3, #2
 1220              	.LVL160:
 1221              	.L1:
 754:Middlewares/ST/filex/common/src/fx_directory_entry_read.c **** }
 1222              		.loc 1 754 1 view .LVU476
 1223 04ce 1846     		mov	r0, r3
 1224 04d0 0FB0     		add	sp, sp, #60
 1225              	.LCFI2:
 1226              		.cfi_remember_state
 1227              		.cfi_def_cfa_offset 36
 1228              		@ sp needed
 1229 04d2 BDE8F08F 		pop	{r4, r5, r6, r7, r8, r9, r10, fp, pc}
 1230              	.LVL161:
 1231              	.L50:
 1232              	.LCFI3:
 1233              		.cfi_restore_state
 212:Middlewares/ST/filex/common/src/fx_directory_entry_read.c ****             }
 1234              		.loc 1 212 23 view .LVU477
 1235 04d6 0823     		movs	r3, #8
 1236 04d8 F9E7     		b	.L1
 1237              	.L51:
 212:Middlewares/ST/filex/common/src/fx_directory_entry_read.c ****             }
 1238              		.loc 1 212 23 view .LVU478
 1239 04da 0823     		movs	r3, #8
 1240 04dc F7E7     		b	.L1
 1241              	.LVL162:
 1242              	.L57:
 451:Middlewares/ST/filex/common/src/fx_directory_entry_read.c ****                         }
 1243              		.loc 1 451 35 view .LVU479
 1244 04de 0346     		mov	r3, r0
 1245 04e0 F5E7     		b	.L1
 1246              	.LVL163:
 1247              	.L58:
 463:Middlewares/ST/filex/common/src/fx_directory_entry_read.c ****                         }
 1248              		.loc 1 463 35 view .LVU480
 1249 04e2 0823     		movs	r3, #8
 1250 04e4 F3E7     		b	.L1
 1251              	.L59:
 1252 04e6 0823     		movs	r3, #8
 1253 04e8 F1E7     		b	.L1
 1254              	.LVL164:
 1255              	.L61:
 502:Middlewares/ST/filex/common/src/fx_directory_entry_read.c ****                 }
 1256              		.loc 1 502 27 view .LVU481
 1257 04ea 0346     		mov	r3, r0
 1258 04ec EFE7     		b	.L1
 1259              	.LVL165:
 1260              	.L66:
 753:Middlewares/ST/filex/common/src/fx_directory_entry_read.c **** }
ARM GAS  C:\Users\HP\AppData\Local\Temp\ccq996lt.s 			page 41


 1261              		.loc 1 753 11 view .LVU482
 1262 04ee 0023     		movs	r3, #0
 1263 04f0 EDE7     		b	.L1
 1264              		.cfi_endproc
 1265              	.LFE8:
 1267              		.text
 1268              	.Letext0:
 1269              		.file 2 "Middlewares/ST/threadx/ports/cortex_m4/gnu/inc/tx_port.h"
 1270              		.file 3 "Middlewares/ST/threadx/common/inc/tx_api.h"
 1271              		.file 4 "Middlewares/ST/filex/common/inc/fx_api.h"
 1272              		.file 5 "Middlewares/ST/filex/common/inc/fx_utility.h"
ARM GAS  C:\Users\HP\AppData\Local\Temp\ccq996lt.s 			page 42

