ARM GAS  C:\Users\HP\AppData\Local\Temp\cclP95hp.s 			page 1


   1              		.cpu cortex-m4
   2              		.arch armv7e-m
   3              		.fpu fpv4-sp-d16
   4              		.eabi_attribute 27, 1
   5              		.eabi_attribute 28, 1
   6              		.eabi_attribute 20, 1
   7              		.eabi_attribute 21, 1
   8              		.eabi_attribute 23, 3
   9              		.eabi_attribute 24, 1
  10              		.eabi_attribute 25, 1
  11              		.eabi_attribute 26, 1
  12              		.eabi_attribute 30, 1
  13              		.eabi_attribute 34, 1
  14              		.eabi_attribute 18, 4
  15              		.file	"fx_directory_short_name_get_extended.c"
  16              		.text
  17              	.Ltext0:
  18              		.cfi_sections	.debug_frame
  19              		.section	.text._fx_directory_short_name_get_extended,"ax",%progbits
  20              		.align	1
  21              		.global	_fx_directory_short_name_get_extended
  22              		.syntax unified
  23              		.thumb
  24              		.thumb_func
  26              	_fx_directory_short_name_get_extended:
  27              	.LVL0:
  28              	.LFB8:
  29              		.file 1 "Middlewares/ST/filex/common/src/fx_directory_short_name_get_extended.c"
   1:Middlewares/ST/filex/common/src/fx_directory_short_name_get_extended.c **** /**************************************************************************/
   2:Middlewares/ST/filex/common/src/fx_directory_short_name_get_extended.c **** /*                                                                        */
   3:Middlewares/ST/filex/common/src/fx_directory_short_name_get_extended.c **** /*       Copyright (c) Microsoft Corporation. All rights reserved.        */
   4:Middlewares/ST/filex/common/src/fx_directory_short_name_get_extended.c **** /*                                                                        */
   5:Middlewares/ST/filex/common/src/fx_directory_short_name_get_extended.c **** /*       This software is licensed under the Microsoft Software License   */
   6:Middlewares/ST/filex/common/src/fx_directory_short_name_get_extended.c **** /*       Terms for Microsoft Azure RTOS. Full text of the license can be  */
   7:Middlewares/ST/filex/common/src/fx_directory_short_name_get_extended.c **** /*       found in the LICENSE file at https://aka.ms/AzureRTOS_EULA       */
   8:Middlewares/ST/filex/common/src/fx_directory_short_name_get_extended.c **** /*       and in the root directory of this software.                      */
   9:Middlewares/ST/filex/common/src/fx_directory_short_name_get_extended.c **** /*                                                                        */
  10:Middlewares/ST/filex/common/src/fx_directory_short_name_get_extended.c **** /**************************************************************************/
  11:Middlewares/ST/filex/common/src/fx_directory_short_name_get_extended.c **** 
  12:Middlewares/ST/filex/common/src/fx_directory_short_name_get_extended.c **** 
  13:Middlewares/ST/filex/common/src/fx_directory_short_name_get_extended.c **** /**************************************************************************/
  14:Middlewares/ST/filex/common/src/fx_directory_short_name_get_extended.c **** /**************************************************************************/
  15:Middlewares/ST/filex/common/src/fx_directory_short_name_get_extended.c **** /**                                                                       */
  16:Middlewares/ST/filex/common/src/fx_directory_short_name_get_extended.c **** /** FileX Component                                                       */
  17:Middlewares/ST/filex/common/src/fx_directory_short_name_get_extended.c **** /**                                                                       */
  18:Middlewares/ST/filex/common/src/fx_directory_short_name_get_extended.c **** /**   Directory                                                           */
  19:Middlewares/ST/filex/common/src/fx_directory_short_name_get_extended.c **** /**                                                                       */
  20:Middlewares/ST/filex/common/src/fx_directory_short_name_get_extended.c **** /**************************************************************************/
  21:Middlewares/ST/filex/common/src/fx_directory_short_name_get_extended.c **** /**************************************************************************/
  22:Middlewares/ST/filex/common/src/fx_directory_short_name_get_extended.c **** 
  23:Middlewares/ST/filex/common/src/fx_directory_short_name_get_extended.c **** #define FX_SOURCE_CODE
  24:Middlewares/ST/filex/common/src/fx_directory_short_name_get_extended.c **** 
  25:Middlewares/ST/filex/common/src/fx_directory_short_name_get_extended.c **** 
  26:Middlewares/ST/filex/common/src/fx_directory_short_name_get_extended.c **** /* Include necessary system files.  */
  27:Middlewares/ST/filex/common/src/fx_directory_short_name_get_extended.c **** 
  28:Middlewares/ST/filex/common/src/fx_directory_short_name_get_extended.c **** #include "fx_api.h"
  29:Middlewares/ST/filex/common/src/fx_directory_short_name_get_extended.c **** #include "fx_directory.h"
ARM GAS  C:\Users\HP\AppData\Local\Temp\cclP95hp.s 			page 2


  30:Middlewares/ST/filex/common/src/fx_directory_short_name_get_extended.c **** 
  31:Middlewares/ST/filex/common/src/fx_directory_short_name_get_extended.c **** 
  32:Middlewares/ST/filex/common/src/fx_directory_short_name_get_extended.c **** /**************************************************************************/
  33:Middlewares/ST/filex/common/src/fx_directory_short_name_get_extended.c **** /*                                                                        */
  34:Middlewares/ST/filex/common/src/fx_directory_short_name_get_extended.c **** /*  FUNCTION                                               RELEASE        */
  35:Middlewares/ST/filex/common/src/fx_directory_short_name_get_extended.c **** /*                                                                        */
  36:Middlewares/ST/filex/common/src/fx_directory_short_name_get_extended.c **** /*    _fx_directory_short_name_get_extended               PORTABLE C      */
  37:Middlewares/ST/filex/common/src/fx_directory_short_name_get_extended.c **** /*                                                           6.1          */
  38:Middlewares/ST/filex/common/src/fx_directory_short_name_get_extended.c **** /*  AUTHOR                                                                */
  39:Middlewares/ST/filex/common/src/fx_directory_short_name_get_extended.c **** /*                                                                        */
  40:Middlewares/ST/filex/common/src/fx_directory_short_name_get_extended.c **** /*    William E. Lamie, Microsoft Corporation                             */
  41:Middlewares/ST/filex/common/src/fx_directory_short_name_get_extended.c **** /*                                                                        */
  42:Middlewares/ST/filex/common/src/fx_directory_short_name_get_extended.c **** /*  DESCRIPTION                                                           */
  43:Middlewares/ST/filex/common/src/fx_directory_short_name_get_extended.c **** /*                                                                        */
  44:Middlewares/ST/filex/common/src/fx_directory_short_name_get_extended.c **** /*    This function gets the short file name via the supplied long file   */
  45:Middlewares/ST/filex/common/src/fx_directory_short_name_get_extended.c **** /*    name. If the long file name is really a short file name, the short  */
  46:Middlewares/ST/filex/common/src/fx_directory_short_name_get_extended.c **** /*    file name will be returned.                                         */
  47:Middlewares/ST/filex/common/src/fx_directory_short_name_get_extended.c **** /*                                                                        */
  48:Middlewares/ST/filex/common/src/fx_directory_short_name_get_extended.c **** /*  INPUT                                                                 */
  49:Middlewares/ST/filex/common/src/fx_directory_short_name_get_extended.c **** /*                                                                        */
  50:Middlewares/ST/filex/common/src/fx_directory_short_name_get_extended.c **** /*    media_ptr                             Media control block pointer   */
  51:Middlewares/ST/filex/common/src/fx_directory_short_name_get_extended.c **** /*    long_file_name                        Pointer to long (max 255) name*/
  52:Middlewares/ST/filex/common/src/fx_directory_short_name_get_extended.c **** /*    short_file_name                       Pointer to short (8.3) name   */
  53:Middlewares/ST/filex/common/src/fx_directory_short_name_get_extended.c **** /*    short_file_name_length                Buffer length for short name  */
  54:Middlewares/ST/filex/common/src/fx_directory_short_name_get_extended.c **** /*                                                                        */
  55:Middlewares/ST/filex/common/src/fx_directory_short_name_get_extended.c **** /*  OUTPUT                                                                */
  56:Middlewares/ST/filex/common/src/fx_directory_short_name_get_extended.c **** /*                                                                        */
  57:Middlewares/ST/filex/common/src/fx_directory_short_name_get_extended.c **** /*    return status                                                       */
  58:Middlewares/ST/filex/common/src/fx_directory_short_name_get_extended.c **** /*                                                                        */
  59:Middlewares/ST/filex/common/src/fx_directory_short_name_get_extended.c **** /*  CALLS                                                                 */
  60:Middlewares/ST/filex/common/src/fx_directory_short_name_get_extended.c **** /*                                                                        */
  61:Middlewares/ST/filex/common/src/fx_directory_short_name_get_extended.c **** /*    _fx_directory_search                  Search for the file name in   */
  62:Middlewares/ST/filex/common/src/fx_directory_short_name_get_extended.c **** /*                                                                        */
  63:Middlewares/ST/filex/common/src/fx_directory_short_name_get_extended.c **** /*  CALLED BY                                                             */
  64:Middlewares/ST/filex/common/src/fx_directory_short_name_get_extended.c **** /*                                                                        */
  65:Middlewares/ST/filex/common/src/fx_directory_short_name_get_extended.c **** /*    Application Code                                                    */
  66:Middlewares/ST/filex/common/src/fx_directory_short_name_get_extended.c **** /*                                                                        */
  67:Middlewares/ST/filex/common/src/fx_directory_short_name_get_extended.c **** /*  RELEASE HISTORY                                                       */
  68:Middlewares/ST/filex/common/src/fx_directory_short_name_get_extended.c **** /*                                                                        */
  69:Middlewares/ST/filex/common/src/fx_directory_short_name_get_extended.c **** /*    DATE              NAME                      DESCRIPTION             */
  70:Middlewares/ST/filex/common/src/fx_directory_short_name_get_extended.c **** /*                                                                        */
  71:Middlewares/ST/filex/common/src/fx_directory_short_name_get_extended.c **** /*  05-19-2020     William E. Lamie         Initial Version 6.0           */
  72:Middlewares/ST/filex/common/src/fx_directory_short_name_get_extended.c **** /*  09-30-2020     William E. Lamie         Modified comment(s),          */
  73:Middlewares/ST/filex/common/src/fx_directory_short_name_get_extended.c **** /*                                            resulting in version 6.1    */
  74:Middlewares/ST/filex/common/src/fx_directory_short_name_get_extended.c **** /*                                                                        */
  75:Middlewares/ST/filex/common/src/fx_directory_short_name_get_extended.c **** /**************************************************************************/
  76:Middlewares/ST/filex/common/src/fx_directory_short_name_get_extended.c **** UINT  _fx_directory_short_name_get_extended(FX_MEDIA *media_ptr, CHAR *long_file_name, CHAR *short_
  77:Middlewares/ST/filex/common/src/fx_directory_short_name_get_extended.c **** {
  30              		.loc 1 77 1 view -0
  31              		.cfi_startproc
  32              		@ args = 0, pretend = 0, frame = 112
  33              		@ frame_needed = 0, uses_anonymous_args = 0
  34              		.loc 1 77 1 is_stmt 0 view .LVU1
  35 0000 2DE9F041 		push	{r4, r5, r6, r7, r8, lr}
  36              	.LCFI0:
  37              		.cfi_def_cfa_offset 24
  38              		.cfi_offset 4, -24
ARM GAS  C:\Users\HP\AppData\Local\Temp\cclP95hp.s 			page 3


  39              		.cfi_offset 5, -20
  40              		.cfi_offset 6, -16
  41              		.cfi_offset 7, -12
  42              		.cfi_offset 8, -8
  43              		.cfi_offset 14, -4
  44 0004 9EB0     		sub	sp, sp, #120
  45              	.LCFI1:
  46              		.cfi_def_cfa_offset 144
  47 0006 9046     		mov	r8, r2
  48 0008 1D46     		mov	r5, r3
  78:Middlewares/ST/filex/common/src/fx_directory_short_name_get_extended.c **** 
  79:Middlewares/ST/filex/common/src/fx_directory_short_name_get_extended.c **** UINT         status;
  49              		.loc 1 79 1 is_stmt 1 view .LVU2
  80:Middlewares/ST/filex/common/src/fx_directory_short_name_get_extended.c **** UINT         i;
  50              		.loc 1 80 1 view .LVU3
  81:Middlewares/ST/filex/common/src/fx_directory_short_name_get_extended.c **** FX_DIR_ENTRY dir_entry;
  51              		.loc 1 81 1 view .LVU4
  82:Middlewares/ST/filex/common/src/fx_directory_short_name_get_extended.c **** 
  83:Middlewares/ST/filex/common/src/fx_directory_short_name_get_extended.c **** 
  84:Middlewares/ST/filex/common/src/fx_directory_short_name_get_extended.c ****     /* Setup pointer to media name buffer.  */
  85:Middlewares/ST/filex/common/src/fx_directory_short_name_get_extended.c ****     dir_entry.fx_dir_entry_name =  media_ptr -> fx_media_name_buffer + FX_MAX_LONG_NAME_LEN;
  52              		.loc 1 85 5 view .LVU5
  53              		.loc 1 85 70 is_stmt 0 view .LVU6
  54 000a 00F69C13 		addw	r3, r0, #2460
  55              	.LVL1:
  56              		.loc 1 85 33 view .LVU7
  57 000e 0293     		str	r3, [sp, #8]
  86:Middlewares/ST/filex/common/src/fx_directory_short_name_get_extended.c **** 
  87:Middlewares/ST/filex/common/src/fx_directory_short_name_get_extended.c ****     /* Clear the short name string.  */
  88:Middlewares/ST/filex/common/src/fx_directory_short_name_get_extended.c ****     dir_entry.fx_dir_entry_short_name[0] =  0;
  58              		.loc 1 88 5 is_stmt 1 view .LVU8
  59              		.loc 1 88 42 is_stmt 0 view .LVU9
  60 0010 0023     		movs	r3, #0
  61 0012 8DF80C30 		strb	r3, [sp, #12]
  89:Middlewares/ST/filex/common/src/fx_directory_short_name_get_extended.c **** 
  90:Middlewares/ST/filex/common/src/fx_directory_short_name_get_extended.c ****     /* If trace is enabled, insert this event into the trace buffer.  */
  91:Middlewares/ST/filex/common/src/fx_directory_short_name_get_extended.c ****     FX_TRACE_IN_LINE_INSERT(FX_TRACE_DIRECTORY_SHORT_NAME_GET, media_ptr, long_file_name, short_fil
  92:Middlewares/ST/filex/common/src/fx_directory_short_name_get_extended.c **** 
  93:Middlewares/ST/filex/common/src/fx_directory_short_name_get_extended.c ****     /* Protect against other threads accessing the media.  */
  94:Middlewares/ST/filex/common/src/fx_directory_short_name_get_extended.c ****     FX_PROTECT
  62              		.loc 1 94 5 is_stmt 1 view .LVU10
  63 0016 0268     		ldr	r2, [r0]
  64              	.LVL2:
  65              		.loc 1 94 5 is_stmt 0 view .LVU11
  66 0018 304B     		ldr	r3, .L20
  67 001a 9A42     		cmp	r2, r3
  68 001c 04D0     		beq	.L17
  69 001e 1124     		movs	r4, #17
  70              	.LVL3:
  71              	.L1:
  95:Middlewares/ST/filex/common/src/fx_directory_short_name_get_extended.c **** 
  96:Middlewares/ST/filex/common/src/fx_directory_short_name_get_extended.c ****     /* Search the system for the supplied short directory name.  */
  97:Middlewares/ST/filex/common/src/fx_directory_short_name_get_extended.c ****     status =  _fx_directory_search(media_ptr, long_file_name, &dir_entry, FX_NULL, FX_NULL);
  98:Middlewares/ST/filex/common/src/fx_directory_short_name_get_extended.c **** 
  99:Middlewares/ST/filex/common/src/fx_directory_short_name_get_extended.c ****     /* Determine if the search was successful.  */
 100:Middlewares/ST/filex/common/src/fx_directory_short_name_get_extended.c ****     if (status != FX_SUCCESS)
 101:Middlewares/ST/filex/common/src/fx_directory_short_name_get_extended.c ****     {
ARM GAS  C:\Users\HP\AppData\Local\Temp\cclP95hp.s 			page 4


 102:Middlewares/ST/filex/common/src/fx_directory_short_name_get_extended.c **** 
 103:Middlewares/ST/filex/common/src/fx_directory_short_name_get_extended.c ****         /* Release media protection.  */
 104:Middlewares/ST/filex/common/src/fx_directory_short_name_get_extended.c ****         FX_UNPROTECT
 105:Middlewares/ST/filex/common/src/fx_directory_short_name_get_extended.c **** 
 106:Middlewares/ST/filex/common/src/fx_directory_short_name_get_extended.c ****         /* Return the error code.  */
 107:Middlewares/ST/filex/common/src/fx_directory_short_name_get_extended.c ****         return(status);
 108:Middlewares/ST/filex/common/src/fx_directory_short_name_get_extended.c ****     }
 109:Middlewares/ST/filex/common/src/fx_directory_short_name_get_extended.c **** 
 110:Middlewares/ST/filex/common/src/fx_directory_short_name_get_extended.c ****     /* Determine if there is a short name.  */
 111:Middlewares/ST/filex/common/src/fx_directory_short_name_get_extended.c ****     if (dir_entry.fx_dir_entry_short_name[0])
 112:Middlewares/ST/filex/common/src/fx_directory_short_name_get_extended.c ****     {
 113:Middlewares/ST/filex/common/src/fx_directory_short_name_get_extended.c **** 
 114:Middlewares/ST/filex/common/src/fx_directory_short_name_get_extended.c ****         /* Yes, there is a short name. Copy the short file name portion into the destination string
 115:Middlewares/ST/filex/common/src/fx_directory_short_name_get_extended.c ****         i =  0;
 116:Middlewares/ST/filex/common/src/fx_directory_short_name_get_extended.c ****         while ((i < (FX_MAX_SHORT_NAME_LEN - 1)) && (dir_entry.fx_dir_entry_short_name[i]) && (i < 
 117:Middlewares/ST/filex/common/src/fx_directory_short_name_get_extended.c ****         {
 118:Middlewares/ST/filex/common/src/fx_directory_short_name_get_extended.c **** 
 119:Middlewares/ST/filex/common/src/fx_directory_short_name_get_extended.c ****             /* Copy a character of the long file name into the destination name.  */
 120:Middlewares/ST/filex/common/src/fx_directory_short_name_get_extended.c ****             short_file_name[i] =   dir_entry.fx_dir_entry_short_name[i];
 121:Middlewares/ST/filex/common/src/fx_directory_short_name_get_extended.c **** 
 122:Middlewares/ST/filex/common/src/fx_directory_short_name_get_extended.c ****             /* Move to next character.  */
 123:Middlewares/ST/filex/common/src/fx_directory_short_name_get_extended.c ****             i++;
 124:Middlewares/ST/filex/common/src/fx_directory_short_name_get_extended.c ****         }
 125:Middlewares/ST/filex/common/src/fx_directory_short_name_get_extended.c **** 
 126:Middlewares/ST/filex/common/src/fx_directory_short_name_get_extended.c ****         /* Ensure the short file name is NULL terminated.  */
 127:Middlewares/ST/filex/common/src/fx_directory_short_name_get_extended.c ****         short_file_name[i] =  FX_NULL;
 128:Middlewares/ST/filex/common/src/fx_directory_short_name_get_extended.c ****         
 129:Middlewares/ST/filex/common/src/fx_directory_short_name_get_extended.c ****         /* Check if the buffer is too short for the name.  */
 130:Middlewares/ST/filex/common/src/fx_directory_short_name_get_extended.c ****         if ((i == (short_file_name_length - 1)) && (dir_entry.fx_dir_entry_short_name[i]))
 131:Middlewares/ST/filex/common/src/fx_directory_short_name_get_extended.c ****         {
 132:Middlewares/ST/filex/common/src/fx_directory_short_name_get_extended.c **** 
 133:Middlewares/ST/filex/common/src/fx_directory_short_name_get_extended.c ****             /* Buffer too short, return error.  */
 134:Middlewares/ST/filex/common/src/fx_directory_short_name_get_extended.c ****             status =  FX_BUFFER_ERROR;
 135:Middlewares/ST/filex/common/src/fx_directory_short_name_get_extended.c ****         }
 136:Middlewares/ST/filex/common/src/fx_directory_short_name_get_extended.c ****     }
 137:Middlewares/ST/filex/common/src/fx_directory_short_name_get_extended.c ****     else
 138:Middlewares/ST/filex/common/src/fx_directory_short_name_get_extended.c ****     {
 139:Middlewares/ST/filex/common/src/fx_directory_short_name_get_extended.c **** 
 140:Middlewares/ST/filex/common/src/fx_directory_short_name_get_extended.c ****         /* There is no long file name, simply copy the long file name into the short file name dest
 141:Middlewares/ST/filex/common/src/fx_directory_short_name_get_extended.c ****         i =  0;
 142:Middlewares/ST/filex/common/src/fx_directory_short_name_get_extended.c ****         while ((i < (FX_MAX_SHORT_NAME_LEN - 1)) && (dir_entry.fx_dir_entry_name[i]) && (i < (short
 143:Middlewares/ST/filex/common/src/fx_directory_short_name_get_extended.c ****         {
 144:Middlewares/ST/filex/common/src/fx_directory_short_name_get_extended.c **** 
 145:Middlewares/ST/filex/common/src/fx_directory_short_name_get_extended.c ****             /* Copy a character of the file name into the destination name.  */
 146:Middlewares/ST/filex/common/src/fx_directory_short_name_get_extended.c ****             short_file_name[i] =   dir_entry.fx_dir_entry_name[i];
 147:Middlewares/ST/filex/common/src/fx_directory_short_name_get_extended.c **** 
 148:Middlewares/ST/filex/common/src/fx_directory_short_name_get_extended.c ****             /* Move to next character.  */
 149:Middlewares/ST/filex/common/src/fx_directory_short_name_get_extended.c ****             i++;
 150:Middlewares/ST/filex/common/src/fx_directory_short_name_get_extended.c ****         }
 151:Middlewares/ST/filex/common/src/fx_directory_short_name_get_extended.c **** 
 152:Middlewares/ST/filex/common/src/fx_directory_short_name_get_extended.c ****         /* Ensure the short file name is NULL terminated.  */
 153:Middlewares/ST/filex/common/src/fx_directory_short_name_get_extended.c ****         short_file_name[i] =  FX_NULL;
 154:Middlewares/ST/filex/common/src/fx_directory_short_name_get_extended.c **** 
 155:Middlewares/ST/filex/common/src/fx_directory_short_name_get_extended.c ****         /* Check if the buffer is too short for the name.  */
 156:Middlewares/ST/filex/common/src/fx_directory_short_name_get_extended.c ****         if ((i == (short_file_name_length - 1)) && (dir_entry.fx_dir_entry_name[i]))
 157:Middlewares/ST/filex/common/src/fx_directory_short_name_get_extended.c ****         {
 158:Middlewares/ST/filex/common/src/fx_directory_short_name_get_extended.c **** 
ARM GAS  C:\Users\HP\AppData\Local\Temp\cclP95hp.s 			page 5


 159:Middlewares/ST/filex/common/src/fx_directory_short_name_get_extended.c ****             /* Buffer too short, return error.  */
 160:Middlewares/ST/filex/common/src/fx_directory_short_name_get_extended.c ****             status =  FX_BUFFER_ERROR;
 161:Middlewares/ST/filex/common/src/fx_directory_short_name_get_extended.c ****         }
 162:Middlewares/ST/filex/common/src/fx_directory_short_name_get_extended.c ****     }
 163:Middlewares/ST/filex/common/src/fx_directory_short_name_get_extended.c **** 
 164:Middlewares/ST/filex/common/src/fx_directory_short_name_get_extended.c ****     /* Release media protection.  */
 165:Middlewares/ST/filex/common/src/fx_directory_short_name_get_extended.c ****     FX_UNPROTECT
 166:Middlewares/ST/filex/common/src/fx_directory_short_name_get_extended.c **** 
 167:Middlewares/ST/filex/common/src/fx_directory_short_name_get_extended.c ****     /* Return the completion status.  */
 168:Middlewares/ST/filex/common/src/fx_directory_short_name_get_extended.c ****     return(status);
 169:Middlewares/ST/filex/common/src/fx_directory_short_name_get_extended.c **** }
  72              		.loc 1 169 1 view .LVU12
  73 0020 2046     		mov	r0, r4
  74 0022 1EB0     		add	sp, sp, #120
  75              	.LCFI2:
  76              		.cfi_remember_state
  77              		.cfi_def_cfa_offset 24
  78              		@ sp needed
  79 0024 BDE8F081 		pop	{r4, r5, r6, r7, r8, pc}
  80              	.LVL4:
  81              	.L17:
  82              	.LCFI3:
  83              		.cfi_restore_state
  84              		.loc 1 169 1 view .LVU13
  85 0028 0446     		mov	r4, r0
  86 002a 0E46     		mov	r6, r1
  94:Middlewares/ST/filex/common/src/fx_directory_short_name_get_extended.c **** 
  87              		.loc 1 94 5 is_stmt 1 discriminator 2 view .LVU14
  88 002c 00F5E477 		add	r7, r0, #456
  89 0030 4FF0FF31 		mov	r1, #-1
  90              	.LVL5:
  94:Middlewares/ST/filex/common/src/fx_directory_short_name_get_extended.c **** 
  91              		.loc 1 94 5 is_stmt 0 discriminator 2 view .LVU15
  92 0034 3846     		mov	r0, r7
  93              	.LVL6:
  94:Middlewares/ST/filex/common/src/fx_directory_short_name_get_extended.c **** 
  94              		.loc 1 94 5 discriminator 2 view .LVU16
  95 0036 FFF7FEFF 		bl	_tx_mutex_get
  96              	.LVL7:
  97 003a 0028     		cmp	r0, #0
  98 003c 4CD1     		bne	.L12
  97:Middlewares/ST/filex/common/src/fx_directory_short_name_get_extended.c **** 
  99              		.loc 1 97 5 is_stmt 1 view .LVU17
  97:Middlewares/ST/filex/common/src/fx_directory_short_name_get_extended.c **** 
 100              		.loc 1 97 15 is_stmt 0 view .LVU18
 101 003e 0023     		movs	r3, #0
 102 0040 0093     		str	r3, [sp]
 103 0042 02AA     		add	r2, sp, #8
 104 0044 3146     		mov	r1, r6
 105 0046 2046     		mov	r0, r4
 106 0048 FFF7FEFF 		bl	_fx_directory_search
 107              	.LVL8:
 100:Middlewares/ST/filex/common/src/fx_directory_short_name_get_extended.c ****     {
 108              		.loc 1 100 5 is_stmt 1 view .LVU19
 100:Middlewares/ST/filex/common/src/fx_directory_short_name_get_extended.c ****     {
 109              		.loc 1 100 8 is_stmt 0 view .LVU20
 110 004c 0446     		mov	r4, r0
ARM GAS  C:\Users\HP\AppData\Local\Temp\cclP95hp.s 			page 6


 111              	.LVL9:
 100:Middlewares/ST/filex/common/src/fx_directory_short_name_get_extended.c ****     {
 112              		.loc 1 100 8 view .LVU21
 113 004e 20B9     		cbnz	r0, .L18
 111:Middlewares/ST/filex/common/src/fx_directory_short_name_get_extended.c ****     {
 114              		.loc 1 111 5 is_stmt 1 view .LVU22
 111:Middlewares/ST/filex/common/src/fx_directory_short_name_get_extended.c ****     {
 115              		.loc 1 111 42 is_stmt 0 view .LVU23
 116 0050 9DF80C30 		ldrb	r3, [sp, #12]	@ zero_extendqisi2
 111:Middlewares/ST/filex/common/src/fx_directory_short_name_get_extended.c ****     {
 117              		.loc 1 111 8 view .LVU24
 118 0054 EBB9     		cbnz	r3, .L13
 141:Middlewares/ST/filex/common/src/fx_directory_short_name_get_extended.c ****         while ((i < (FX_MAX_SHORT_NAME_LEN - 1)) && (dir_entry.fx_dir_entry_name[i]) && (i < (short
 119              		.loc 1 141 11 view .LVU25
 120 0056 0146     		mov	r1, r0
 121 0058 2AE0     		b	.L5
 122              	.L18:
 104:Middlewares/ST/filex/common/src/fx_directory_short_name_get_extended.c **** 
 123              		.loc 1 104 9 is_stmt 1 view .LVU26
 124 005a 3846     		mov	r0, r7
 125              	.LVL10:
 104:Middlewares/ST/filex/common/src/fx_directory_short_name_get_extended.c **** 
 126              		.loc 1 104 9 is_stmt 0 view .LVU27
 127 005c FFF7FEFF 		bl	_tx_mutex_put
 128              	.LVL11:
 107:Middlewares/ST/filex/common/src/fx_directory_short_name_get_extended.c ****     }
 129              		.loc 1 107 9 is_stmt 1 view .LVU28
 107:Middlewares/ST/filex/common/src/fx_directory_short_name_get_extended.c ****     }
 130              		.loc 1 107 15 is_stmt 0 view .LVU29
 131 0060 DEE7     		b	.L1
 132              	.LVL12:
 133              	.L7:
 120:Middlewares/ST/filex/common/src/fx_directory_short_name_get_extended.c **** 
 134              		.loc 1 120 13 is_stmt 1 view .LVU30
 120:Middlewares/ST/filex/common/src/fx_directory_short_name_get_extended.c **** 
 135              		.loc 1 120 32 is_stmt 0 view .LVU31
 136 0062 08F80130 		strb	r3, [r8, r1]
 123:Middlewares/ST/filex/common/src/fx_directory_short_name_get_extended.c ****         }
 137              		.loc 1 123 13 is_stmt 1 view .LVU32
 123:Middlewares/ST/filex/common/src/fx_directory_short_name_get_extended.c ****         }
 138              		.loc 1 123 14 is_stmt 0 view .LVU33
 139 0066 0131     		adds	r1, r1, #1
 140              	.LVL13:
 141              	.L4:
 116:Middlewares/ST/filex/common/src/fx_directory_short_name_get_extended.c ****         {
 142              		.loc 1 116 15 is_stmt 1 view .LVU34
 143 0068 0B29     		cmp	r1, #11
 144 006a 08D8     		bhi	.L6
 116:Middlewares/ST/filex/common/src/fx_directory_short_name_get_extended.c ****         {
 145              		.loc 1 116 87 is_stmt 0 discriminator 1 view .LVU35
 146 006c 01F17803 		add	r3, r1, #120
 147 0070 6B44     		add	r3, sp, r3
 148 0072 13F86C3C 		ldrb	r3, [r3, #-108]	@ zero_extendqisi2
 116:Middlewares/ST/filex/common/src/fx_directory_short_name_get_extended.c ****         {
 149              		.loc 1 116 50 discriminator 1 view .LVU36
 150 0076 13B1     		cbz	r3, .L6
 116:Middlewares/ST/filex/common/src/fx_directory_short_name_get_extended.c ****         {
ARM GAS  C:\Users\HP\AppData\Local\Temp\cclP95hp.s 			page 7


 151              		.loc 1 116 124 discriminator 2 view .LVU37
 152 0078 6A1E     		subs	r2, r5, #1
 116:Middlewares/ST/filex/common/src/fx_directory_short_name_get_extended.c ****         {
 153              		.loc 1 116 92 discriminator 2 view .LVU38
 154 007a 8A42     		cmp	r2, r1
 155 007c F1D8     		bhi	.L7
 156              	.L6:
 127:Middlewares/ST/filex/common/src/fx_directory_short_name_get_extended.c ****         
 157              		.loc 1 127 9 is_stmt 1 view .LVU39
 127:Middlewares/ST/filex/common/src/fx_directory_short_name_get_extended.c ****         
 158              		.loc 1 127 28 is_stmt 0 view .LVU40
 159 007e 0023     		movs	r3, #0
 160 0080 08F80130 		strb	r3, [r8, r1]
 130:Middlewares/ST/filex/common/src/fx_directory_short_name_get_extended.c ****         {
 161              		.loc 1 130 9 is_stmt 1 view .LVU41
 130:Middlewares/ST/filex/common/src/fx_directory_short_name_get_extended.c ****         {
 162              		.loc 1 130 43 is_stmt 0 view .LVU42
 163 0084 013D     		subs	r5, r5, #1
 164              	.LVL14:
 130:Middlewares/ST/filex/common/src/fx_directory_short_name_get_extended.c ****         {
 165              		.loc 1 130 12 view .LVU43
 166 0086 8D42     		cmp	r5, r1
 167 0088 05D0     		beq	.L19
 168              	.LVL15:
 169              	.L8:
 165:Middlewares/ST/filex/common/src/fx_directory_short_name_get_extended.c **** 
 170              		.loc 1 165 5 is_stmt 1 view .LVU44
 171 008a 3846     		mov	r0, r7
 172 008c FFF7FEFF 		bl	_tx_mutex_put
 173              	.LVL16:
 168:Middlewares/ST/filex/common/src/fx_directory_short_name_get_extended.c **** }
 174              		.loc 1 168 5 view .LVU45
 168:Middlewares/ST/filex/common/src/fx_directory_short_name_get_extended.c **** }
 175              		.loc 1 168 11 is_stmt 0 view .LVU46
 176 0090 C6E7     		b	.L1
 177              	.LVL17:
 178              	.L13:
 115:Middlewares/ST/filex/common/src/fx_directory_short_name_get_extended.c ****         while ((i < (FX_MAX_SHORT_NAME_LEN - 1)) && (dir_entry.fx_dir_entry_short_name[i]) && (i < 
 179              		.loc 1 115 11 view .LVU47
 180 0092 0146     		mov	r1, r0
 181 0094 E8E7     		b	.L4
 182              	.LVL18:
 183              	.L19:
 130:Middlewares/ST/filex/common/src/fx_directory_short_name_get_extended.c ****         {
 184              		.loc 1 130 86 discriminator 1 view .LVU48
 185 0096 01F17803 		add	r3, r1, #120
 186 009a 0DEB0301 		add	r1, sp, r3
 187              	.LVL19:
 130:Middlewares/ST/filex/common/src/fx_directory_short_name_get_extended.c ****         {
 188              		.loc 1 130 86 discriminator 1 view .LVU49
 189 009e 11F86C3C 		ldrb	r3, [r1, #-108]	@ zero_extendqisi2
 190              	.LVL20:
 130:Middlewares/ST/filex/common/src/fx_directory_short_name_get_extended.c ****         {
 191              		.loc 1 130 49 discriminator 1 view .LVU50
 192 00a2 002B     		cmp	r3, #0
 193 00a4 F1D0     		beq	.L8
 134:Middlewares/ST/filex/common/src/fx_directory_short_name_get_extended.c ****         }
ARM GAS  C:\Users\HP\AppData\Local\Temp\cclP95hp.s 			page 8


 194              		.loc 1 134 20 view .LVU51
 195 00a6 2124     		movs	r4, #33
 196 00a8 EFE7     		b	.L8
 197              	.LVL21:
 198              	.L10:
 146:Middlewares/ST/filex/common/src/fx_directory_short_name_get_extended.c **** 
 199              		.loc 1 146 13 is_stmt 1 view .LVU52
 146:Middlewares/ST/filex/common/src/fx_directory_short_name_get_extended.c **** 
 200              		.loc 1 146 32 is_stmt 0 view .LVU53
 201 00aa 08F80130 		strb	r3, [r8, r1]
 149:Middlewares/ST/filex/common/src/fx_directory_short_name_get_extended.c ****         }
 202              		.loc 1 149 13 is_stmt 1 view .LVU54
 149:Middlewares/ST/filex/common/src/fx_directory_short_name_get_extended.c ****         }
 203              		.loc 1 149 14 is_stmt 0 view .LVU55
 204 00ae 0131     		adds	r1, r1, #1
 205              	.LVL22:
 206              	.L5:
 142:Middlewares/ST/filex/common/src/fx_directory_short_name_get_extended.c ****         {
 207              		.loc 1 142 15 is_stmt 1 view .LVU56
 208 00b0 0B29     		cmp	r1, #11
 209 00b2 05D8     		bhi	.L9
 142:Middlewares/ST/filex/common/src/fx_directory_short_name_get_extended.c ****         {
 210              		.loc 1 142 63 is_stmt 0 discriminator 1 view .LVU57
 211 00b4 029B     		ldr	r3, [sp, #8]
 142:Middlewares/ST/filex/common/src/fx_directory_short_name_get_extended.c ****         {
 212              		.loc 1 142 81 discriminator 1 view .LVU58
 213 00b6 5B5C     		ldrb	r3, [r3, r1]	@ zero_extendqisi2
 142:Middlewares/ST/filex/common/src/fx_directory_short_name_get_extended.c ****         {
 214              		.loc 1 142 50 discriminator 1 view .LVU59
 215 00b8 13B1     		cbz	r3, .L9
 142:Middlewares/ST/filex/common/src/fx_directory_short_name_get_extended.c ****         {
 216              		.loc 1 142 118 discriminator 2 view .LVU60
 217 00ba 6A1E     		subs	r2, r5, #1
 142:Middlewares/ST/filex/common/src/fx_directory_short_name_get_extended.c ****         {
 218              		.loc 1 142 86 discriminator 2 view .LVU61
 219 00bc 8A42     		cmp	r2, r1
 220 00be F4D8     		bhi	.L10
 221              	.L9:
 153:Middlewares/ST/filex/common/src/fx_directory_short_name_get_extended.c **** 
 222              		.loc 1 153 9 is_stmt 1 view .LVU62
 153:Middlewares/ST/filex/common/src/fx_directory_short_name_get_extended.c **** 
 223              		.loc 1 153 28 is_stmt 0 view .LVU63
 224 00c0 0023     		movs	r3, #0
 225 00c2 08F80130 		strb	r3, [r8, r1]
 156:Middlewares/ST/filex/common/src/fx_directory_short_name_get_extended.c ****         {
 226              		.loc 1 156 9 is_stmt 1 view .LVU64
 156:Middlewares/ST/filex/common/src/fx_directory_short_name_get_extended.c ****         {
 227              		.loc 1 156 43 is_stmt 0 view .LVU65
 228 00c6 013D     		subs	r5, r5, #1
 229              	.LVL23:
 156:Middlewares/ST/filex/common/src/fx_directory_short_name_get_extended.c ****         {
 230              		.loc 1 156 12 view .LVU66
 231 00c8 8D42     		cmp	r5, r1
 232 00ca DED1     		bne	.L8
 156:Middlewares/ST/filex/common/src/fx_directory_short_name_get_extended.c ****         {
 233              		.loc 1 156 62 discriminator 1 view .LVU67
 234 00cc 029B     		ldr	r3, [sp, #8]
ARM GAS  C:\Users\HP\AppData\Local\Temp\cclP95hp.s 			page 9


 156:Middlewares/ST/filex/common/src/fx_directory_short_name_get_extended.c ****         {
 235              		.loc 1 156 80 discriminator 1 view .LVU68
 236 00ce 5B5C     		ldrb	r3, [r3, r1]	@ zero_extendqisi2
 156:Middlewares/ST/filex/common/src/fx_directory_short_name_get_extended.c ****         {
 237              		.loc 1 156 49 discriminator 1 view .LVU69
 238 00d0 002B     		cmp	r3, #0
 239 00d2 DAD0     		beq	.L8
 160:Middlewares/ST/filex/common/src/fx_directory_short_name_get_extended.c ****         }
 240              		.loc 1 160 20 view .LVU70
 241 00d4 2124     		movs	r4, #33
 242 00d6 D8E7     		b	.L8
 243              	.LVL24:
 244              	.L12:
  94:Middlewares/ST/filex/common/src/fx_directory_short_name_get_extended.c **** 
 245              		.loc 1 94 5 view .LVU71
 246 00d8 1124     		movs	r4, #17
 247              	.LVL25:
  94:Middlewares/ST/filex/common/src/fx_directory_short_name_get_extended.c **** 
 248              		.loc 1 94 5 view .LVU72
 249 00da A1E7     		b	.L1
 250              	.L21:
 251              		.align	2
 252              	.L20:
 253 00dc 4944454D 		.word	1296385097
 254              		.cfi_endproc
 255              	.LFE8:
 257              		.text
 258              	.Letext0:
 259              		.file 2 "Middlewares/ST/threadx/ports/cortex_m4/gnu/inc/tx_port.h"
 260              		.file 3 "Middlewares/ST/threadx/common/inc/tx_api.h"
 261              		.file 4 "Middlewares/ST/filex/common/inc/fx_api.h"
 262              		.file 5 "Middlewares/ST/filex/common/inc/fx_directory.h"
ARM GAS  C:\Users\HP\AppData\Local\Temp\cclP95hp.s 			page 10

