ARM GAS  C:\Users\HP\AppData\Local\Temp\ccyw7Q3t.s 			page 1


   1              		.cpu cortex-m4
   2              		.arch armv7e-m
   3              		.fpu fpv4-sp-d16
   4              		.eabi_attribute 27, 1
   5              		.eabi_attribute 28, 1
   6              		.eabi_attribute 20, 1
   7              		.eabi_attribute 21, 1
   8              		.eabi_attribute 23, 3
   9              		.eabi_attribute 24, 1
  10              		.eabi_attribute 25, 1
  11              		.eabi_attribute 26, 1
  12              		.eabi_attribute 30, 1
  13              		.eabi_attribute 34, 1
  14              		.eabi_attribute 18, 4
  15              		.file	"fx_directory_rename.c"
  16              		.text
  17              	.Ltext0:
  18              		.cfi_sections	.debug_frame
  19              		.section	.text._fx_directory_rename,"ax",%progbits
  20              		.align	1
  21              		.global	_fx_directory_rename
  22              		.syntax unified
  23              		.thumb
  24              		.thumb_func
  26              	_fx_directory_rename:
  27              	.LVL0:
  28              	.LFB8:
  29              		.file 1 "Middlewares/ST/filex/common/src/fx_directory_rename.c"
   1:Middlewares/ST/filex/common/src/fx_directory_rename.c **** /**************************************************************************/
   2:Middlewares/ST/filex/common/src/fx_directory_rename.c **** /*                                                                        */
   3:Middlewares/ST/filex/common/src/fx_directory_rename.c **** /*       Copyright (c) Microsoft Corporation. All rights reserved.        */
   4:Middlewares/ST/filex/common/src/fx_directory_rename.c **** /*                                                                        */
   5:Middlewares/ST/filex/common/src/fx_directory_rename.c **** /*       This software is licensed under the Microsoft Software License   */
   6:Middlewares/ST/filex/common/src/fx_directory_rename.c **** /*       Terms for Microsoft Azure RTOS. Full text of the license can be  */
   7:Middlewares/ST/filex/common/src/fx_directory_rename.c **** /*       found in the LICENSE file at https://aka.ms/AzureRTOS_EULA       */
   8:Middlewares/ST/filex/common/src/fx_directory_rename.c **** /*       and in the root directory of this software.                      */
   9:Middlewares/ST/filex/common/src/fx_directory_rename.c **** /*                                                                        */
  10:Middlewares/ST/filex/common/src/fx_directory_rename.c **** /**************************************************************************/
  11:Middlewares/ST/filex/common/src/fx_directory_rename.c **** 
  12:Middlewares/ST/filex/common/src/fx_directory_rename.c **** 
  13:Middlewares/ST/filex/common/src/fx_directory_rename.c **** /**************************************************************************/
  14:Middlewares/ST/filex/common/src/fx_directory_rename.c **** /**************************************************************************/
  15:Middlewares/ST/filex/common/src/fx_directory_rename.c **** /**                                                                       */
  16:Middlewares/ST/filex/common/src/fx_directory_rename.c **** /** FileX Component                                                       */
  17:Middlewares/ST/filex/common/src/fx_directory_rename.c **** /**                                                                       */
  18:Middlewares/ST/filex/common/src/fx_directory_rename.c **** /**   Directory                                                           */
  19:Middlewares/ST/filex/common/src/fx_directory_rename.c **** /**                                                                       */
  20:Middlewares/ST/filex/common/src/fx_directory_rename.c **** /**************************************************************************/
  21:Middlewares/ST/filex/common/src/fx_directory_rename.c **** /**************************************************************************/
  22:Middlewares/ST/filex/common/src/fx_directory_rename.c **** 
  23:Middlewares/ST/filex/common/src/fx_directory_rename.c **** #define FX_SOURCE_CODE
  24:Middlewares/ST/filex/common/src/fx_directory_rename.c **** 
  25:Middlewares/ST/filex/common/src/fx_directory_rename.c **** 
  26:Middlewares/ST/filex/common/src/fx_directory_rename.c **** /* Include necessary system files.  */
  27:Middlewares/ST/filex/common/src/fx_directory_rename.c **** 
  28:Middlewares/ST/filex/common/src/fx_directory_rename.c **** #include "fx_api.h"
  29:Middlewares/ST/filex/common/src/fx_directory_rename.c **** #include "fx_system.h"
ARM GAS  C:\Users\HP\AppData\Local\Temp\ccyw7Q3t.s 			page 2


  30:Middlewares/ST/filex/common/src/fx_directory_rename.c **** #include "fx_directory.h"
  31:Middlewares/ST/filex/common/src/fx_directory_rename.c **** #include "fx_file.h"
  32:Middlewares/ST/filex/common/src/fx_directory_rename.c **** #include "fx_utility.h"
  33:Middlewares/ST/filex/common/src/fx_directory_rename.c **** #ifdef FX_ENABLE_EXFAT
  34:Middlewares/ST/filex/common/src/fx_directory_rename.c **** #include "fx_directory_exFAT.h"
  35:Middlewares/ST/filex/common/src/fx_directory_rename.c **** #endif /* FX_ENABLE_EXFAT */
  36:Middlewares/ST/filex/common/src/fx_directory_rename.c **** #ifdef FX_ENABLE_FAULT_TOLERANT
  37:Middlewares/ST/filex/common/src/fx_directory_rename.c **** #include "fx_fault_tolerant.h"
  38:Middlewares/ST/filex/common/src/fx_directory_rename.c **** #endif /* FX_ENABLE_FAULT_TOLERANT */
  39:Middlewares/ST/filex/common/src/fx_directory_rename.c **** 
  40:Middlewares/ST/filex/common/src/fx_directory_rename.c **** 
  41:Middlewares/ST/filex/common/src/fx_directory_rename.c **** /**************************************************************************/
  42:Middlewares/ST/filex/common/src/fx_directory_rename.c **** /*                                                                        */
  43:Middlewares/ST/filex/common/src/fx_directory_rename.c **** /*  FUNCTION                                               RELEASE        */
  44:Middlewares/ST/filex/common/src/fx_directory_rename.c **** /*                                                                        */
  45:Middlewares/ST/filex/common/src/fx_directory_rename.c **** /*    _fx_directory_rename                                PORTABLE C      */
  46:Middlewares/ST/filex/common/src/fx_directory_rename.c **** /*                                                           6.1          */
  47:Middlewares/ST/filex/common/src/fx_directory_rename.c **** /*  AUTHOR                                                                */
  48:Middlewares/ST/filex/common/src/fx_directory_rename.c **** /*                                                                        */
  49:Middlewares/ST/filex/common/src/fx_directory_rename.c **** /*    William E. Lamie, Microsoft Corporation                             */
  50:Middlewares/ST/filex/common/src/fx_directory_rename.c **** /*                                                                        */
  51:Middlewares/ST/filex/common/src/fx_directory_rename.c **** /*  DESCRIPTION                                                           */
  52:Middlewares/ST/filex/common/src/fx_directory_rename.c **** /*                                                                        */
  53:Middlewares/ST/filex/common/src/fx_directory_rename.c **** /*    This function first attempts to find the specified directory.       */
  54:Middlewares/ST/filex/common/src/fx_directory_rename.c **** /*    If found, the rename request is valid and the directory will be     */
  55:Middlewares/ST/filex/common/src/fx_directory_rename.c **** /*    changed to the new name.  Otherwise, if the directory is not found, */
  56:Middlewares/ST/filex/common/src/fx_directory_rename.c **** /*    the appropriate error code is returned to the caller.               */
  57:Middlewares/ST/filex/common/src/fx_directory_rename.c **** /*                                                                        */
  58:Middlewares/ST/filex/common/src/fx_directory_rename.c **** /*  INPUT                                                                 */
  59:Middlewares/ST/filex/common/src/fx_directory_rename.c **** /*                                                                        */
  60:Middlewares/ST/filex/common/src/fx_directory_rename.c **** /*    media_ptr                             Media control block pointer   */
  61:Middlewares/ST/filex/common/src/fx_directory_rename.c **** /*    old_directory_name                    Old file directory pointer    */
  62:Middlewares/ST/filex/common/src/fx_directory_rename.c **** /*    new_directory_name                    New file directory pointer    */
  63:Middlewares/ST/filex/common/src/fx_directory_rename.c **** /*                                                                        */
  64:Middlewares/ST/filex/common/src/fx_directory_rename.c **** /*  OUTPUT                                                                */
  65:Middlewares/ST/filex/common/src/fx_directory_rename.c **** /*                                                                        */
  66:Middlewares/ST/filex/common/src/fx_directory_rename.c **** /*    return status                                                       */
  67:Middlewares/ST/filex/common/src/fx_directory_rename.c **** /*                                                                        */
  68:Middlewares/ST/filex/common/src/fx_directory_rename.c **** /*  CALLS                                                                 */
  69:Middlewares/ST/filex/common/src/fx_directory_rename.c **** /*                                                                        */
  70:Middlewares/ST/filex/common/src/fx_directory_rename.c **** /*    _fx_directory_entry_write             Write the new directory entry */
  71:Middlewares/ST/filex/common/src/fx_directory_rename.c **** /*    _fx_directory_free_search             Search for a free directory   */
  72:Middlewares/ST/filex/common/src/fx_directory_rename.c **** /*                                            entry                       */
  73:Middlewares/ST/filex/common/src/fx_directory_rename.c **** /*    _fx_directory_name_extract            Extract directory name        */
  74:Middlewares/ST/filex/common/src/fx_directory_rename.c **** /*    _fx_directory_search                  Search for the file name in   */
  75:Middlewares/ST/filex/common/src/fx_directory_rename.c **** /*                                          the directory structure       */
  76:Middlewares/ST/filex/common/src/fx_directory_rename.c **** /*    _fx_fault_tolerant_transaction_start  Start fault tolerant          */
  77:Middlewares/ST/filex/common/src/fx_directory_rename.c **** /*                                            transaction                 */
  78:Middlewares/ST/filex/common/src/fx_directory_rename.c **** /*    _fx_fault_tolerant_transaction_end    End fault tolerant transaction*/
  79:Middlewares/ST/filex/common/src/fx_directory_rename.c **** /*    _fx_fault_tolerant_recover            Recover FAT chain             */
  80:Middlewares/ST/filex/common/src/fx_directory_rename.c **** /*    _fx_fault_tolerant_reset_log_file     Reset the log file            */
  81:Middlewares/ST/filex/common/src/fx_directory_rename.c **** /*                                                                        */
  82:Middlewares/ST/filex/common/src/fx_directory_rename.c **** /*  CALLED BY                                                             */
  83:Middlewares/ST/filex/common/src/fx_directory_rename.c **** /*                                                                        */
  84:Middlewares/ST/filex/common/src/fx_directory_rename.c **** /*    Application Code                                                    */
  85:Middlewares/ST/filex/common/src/fx_directory_rename.c **** /*                                                                        */
  86:Middlewares/ST/filex/common/src/fx_directory_rename.c **** /*  RELEASE HISTORY                                                       */
ARM GAS  C:\Users\HP\AppData\Local\Temp\ccyw7Q3t.s 			page 3


  87:Middlewares/ST/filex/common/src/fx_directory_rename.c **** /*                                                                        */
  88:Middlewares/ST/filex/common/src/fx_directory_rename.c **** /*    DATE              NAME                      DESCRIPTION             */
  89:Middlewares/ST/filex/common/src/fx_directory_rename.c **** /*                                                                        */
  90:Middlewares/ST/filex/common/src/fx_directory_rename.c **** /*  05-19-2020     William E. Lamie         Initial Version 6.0           */
  91:Middlewares/ST/filex/common/src/fx_directory_rename.c **** /*  09-30-2020     William E. Lamie         Modified comment(s),          */
  92:Middlewares/ST/filex/common/src/fx_directory_rename.c **** /*                                            resulting in version 6.1    */
  93:Middlewares/ST/filex/common/src/fx_directory_rename.c **** /*                                                                        */
  94:Middlewares/ST/filex/common/src/fx_directory_rename.c **** /**************************************************************************/
  95:Middlewares/ST/filex/common/src/fx_directory_rename.c **** UINT  _fx_directory_rename(FX_MEDIA *media_ptr, CHAR *old_directory_name, CHAR *new_directory_name)
  96:Middlewares/ST/filex/common/src/fx_directory_rename.c **** {
  30              		.loc 1 96 1 view -0
  31              		.cfi_startproc
  32              		@ args = 0, pretend = 0, frame = 344
  33              		@ frame_needed = 0, uses_anonymous_args = 0
  34              		.loc 1 96 1 is_stmt 0 view .LVU1
  35 0000 2DE9F041 		push	{r4, r5, r6, r7, r8, lr}
  36              	.LCFI0:
  37              		.cfi_def_cfa_offset 24
  38              		.cfi_offset 4, -24
  39              		.cfi_offset 5, -20
  40              		.cfi_offset 6, -16
  41              		.cfi_offset 7, -12
  42              		.cfi_offset 8, -8
  43              		.cfi_offset 14, -4
  44 0004 D8B0     		sub	sp, sp, #352
  45              	.LCFI1:
  46              		.cfi_def_cfa_offset 376
  47 0006 0546     		mov	r5, r0
  48 0008 0F46     		mov	r7, r1
  49 000a 1646     		mov	r6, r2
  97:Middlewares/ST/filex/common/src/fx_directory_rename.c **** 
  98:Middlewares/ST/filex/common/src/fx_directory_rename.c **** UINT         status;
  50              		.loc 1 98 1 is_stmt 1 view .LVU2
  99:Middlewares/ST/filex/common/src/fx_directory_rename.c **** FX_DIR_ENTRY old_dir_entry;
  51              		.loc 1 99 1 view .LVU3
 100:Middlewares/ST/filex/common/src/fx_directory_rename.c **** FX_DIR_ENTRY new_dir_entry;
  52              		.loc 1 100 1 view .LVU4
 101:Middlewares/ST/filex/common/src/fx_directory_rename.c **** FX_DIR_ENTRY search_directory;
  53              		.loc 1 101 1 view .LVU5
 102:Middlewares/ST/filex/common/src/fx_directory_rename.c **** CHAR        *new_name_ptr;
  54              		.loc 1 102 1 view .LVU6
 103:Middlewares/ST/filex/common/src/fx_directory_rename.c **** ULONG        i;
  55              		.loc 1 103 1 view .LVU7
 104:Middlewares/ST/filex/common/src/fx_directory_rename.c **** CHAR        *work_ptr;
  56              		.loc 1 104 1 view .LVU8
 105:Middlewares/ST/filex/common/src/fx_directory_rename.c **** CHAR         alpha, beta;
  57              		.loc 1 105 1 view .LVU9
 106:Middlewares/ST/filex/common/src/fx_directory_rename.c **** #ifdef FX_RENAME_PATH_INHERIT
 107:Middlewares/ST/filex/common/src/fx_directory_rename.c **** UINT         j;
 108:Middlewares/ST/filex/common/src/fx_directory_rename.c **** #endif
 109:Middlewares/ST/filex/common/src/fx_directory_rename.c **** 
 110:Middlewares/ST/filex/common/src/fx_directory_rename.c **** 
 111:Middlewares/ST/filex/common/src/fx_directory_rename.c **** #ifndef FX_MEDIA_STATISTICS_DISABLE
 112:Middlewares/ST/filex/common/src/fx_directory_rename.c **** 
 113:Middlewares/ST/filex/common/src/fx_directory_rename.c ****     /* Increment the number of times this service has been called.  */
 114:Middlewares/ST/filex/common/src/fx_directory_rename.c ****     media_ptr -> fx_media_directory_renames++;
  58              		.loc 1 114 5 view .LVU10
ARM GAS  C:\Users\HP\AppData\Local\Temp\ccyw7Q3t.s 			page 4


  59              		.loc 1 114 15 is_stmt 0 view .LVU11
  60 000c D0F81831 		ldr	r3, [r0, #280]
  61              		.loc 1 114 44 view .LVU12
  62 0010 0133     		adds	r3, r3, #1
  63 0012 C0F81831 		str	r3, [r0, #280]
 115:Middlewares/ST/filex/common/src/fx_directory_rename.c **** #endif
 116:Middlewares/ST/filex/common/src/fx_directory_rename.c **** 
 117:Middlewares/ST/filex/common/src/fx_directory_rename.c ****     /* Setup pointers to media name buffers.  */
 118:Middlewares/ST/filex/common/src/fx_directory_rename.c ****     old_dir_entry.fx_dir_entry_name =     media_ptr -> fx_media_name_buffer + FX_MAX_LONG_NAME_LEN;
  64              		.loc 1 118 5 is_stmt 1 view .LVU13
  65              		.loc 1 118 77 is_stmt 0 view .LVU14
  66 0016 00F69C13 		addw	r3, r0, #2460
  67              		.loc 1 118 37 view .LVU15
  68 001a 3C93     		str	r3, [sp, #240]
 119:Middlewares/ST/filex/common/src/fx_directory_rename.c ****     new_dir_entry.fx_dir_entry_name =     media_ptr -> fx_media_name_buffer + FX_MAX_LONG_NAME_LEN 
  69              		.loc 1 119 5 is_stmt 1 view .LVU16
  70              		.loc 1 119 77 is_stmt 0 view .LVU17
  71 001c 00F69C23 		addw	r3, r0, #2716
  72              		.loc 1 119 37 view .LVU18
  73 0020 2093     		str	r3, [sp, #128]
 120:Middlewares/ST/filex/common/src/fx_directory_rename.c ****     search_directory.fx_dir_entry_name =  media_ptr -> fx_media_name_buffer + FX_MAX_LONG_NAME_LEN 
  74              		.loc 1 120 5 is_stmt 1 view .LVU19
  75              		.loc 1 120 77 is_stmt 0 view .LVU20
  76 0022 00F69C33 		addw	r3, r0, #2972
  77              		.loc 1 120 40 view .LVU21
  78 0026 0493     		str	r3, [sp, #16]
 121:Middlewares/ST/filex/common/src/fx_directory_rename.c **** 
 122:Middlewares/ST/filex/common/src/fx_directory_rename.c ****     /* Clear the short name strings.  */
 123:Middlewares/ST/filex/common/src/fx_directory_rename.c ****     old_dir_entry.fx_dir_entry_short_name[0] =     0;
  79              		.loc 1 123 5 is_stmt 1 view .LVU22
  80              		.loc 1 123 46 is_stmt 0 view .LVU23
  81 0028 0024     		movs	r4, #0
  82 002a 8DF8F440 		strb	r4, [sp, #244]
 124:Middlewares/ST/filex/common/src/fx_directory_rename.c ****     new_dir_entry.fx_dir_entry_short_name[0] =     0;
  83              		.loc 1 124 5 is_stmt 1 view .LVU24
  84              		.loc 1 124 46 is_stmt 0 view .LVU25
  85 002e 8DF88440 		strb	r4, [sp, #132]
 125:Middlewares/ST/filex/common/src/fx_directory_rename.c ****     search_directory.fx_dir_entry_short_name[0] =  0;
  86              		.loc 1 125 5 is_stmt 1 view .LVU26
  87              		.loc 1 125 49 is_stmt 0 view .LVU27
  88 0032 8DF81440 		strb	r4, [sp, #20]
 126:Middlewares/ST/filex/common/src/fx_directory_rename.c **** 
 127:Middlewares/ST/filex/common/src/fx_directory_rename.c ****     /* Determine if the supplied name is less than the maximum supported name size. The
 128:Middlewares/ST/filex/common/src/fx_directory_rename.c ****        maximum name (FX_MAX_LONG_NAME_LEN) is defined in fx_api.h.  */
 129:Middlewares/ST/filex/common/src/fx_directory_rename.c ****     i =  0;
  89              		.loc 1 129 5 is_stmt 1 view .LVU28
  90              	.LVL1:
 130:Middlewares/ST/filex/common/src/fx_directory_rename.c ****     work_ptr =  (CHAR *)new_directory_name;
  91              		.loc 1 130 5 view .LVU29
 131:Middlewares/ST/filex/common/src/fx_directory_rename.c ****     while (*work_ptr && (i < FX_MAX_LONG_NAME_LEN))
  92              		.loc 1 131 5 view .LVU30
 130:Middlewares/ST/filex/common/src/fx_directory_rename.c ****     work_ptr =  (CHAR *)new_directory_name;
  93              		.loc 1 130 14 is_stmt 0 view .LVU31
  94 0036 9446     		mov	ip, r2
  95              		.loc 1 131 11 view .LVU32
  96 0038 02E0     		b	.L2
  97              	.LVL2:
ARM GAS  C:\Users\HP\AppData\Local\Temp\ccyw7Q3t.s 			page 5


  98              	.L4:
 132:Middlewares/ST/filex/common/src/fx_directory_rename.c ****     {
 133:Middlewares/ST/filex/common/src/fx_directory_rename.c **** 
 134:Middlewares/ST/filex/common/src/fx_directory_rename.c ****         /* Determine if the character designates a new path.  */
 135:Middlewares/ST/filex/common/src/fx_directory_rename.c ****         if ((*work_ptr == '\\') || (*work_ptr == '/'))
 136:Middlewares/ST/filex/common/src/fx_directory_rename.c ****         {
 137:Middlewares/ST/filex/common/src/fx_directory_rename.c ****             /* Yes, reset the name size.  */
 138:Middlewares/ST/filex/common/src/fx_directory_rename.c ****             i =  0;
 139:Middlewares/ST/filex/common/src/fx_directory_rename.c ****         }
 140:Middlewares/ST/filex/common/src/fx_directory_rename.c ****         /* Check for leading spaces.  */
 141:Middlewares/ST/filex/common/src/fx_directory_rename.c ****         else if ((*work_ptr != ' ') || (i != 0))
 142:Middlewares/ST/filex/common/src/fx_directory_rename.c ****         {
 143:Middlewares/ST/filex/common/src/fx_directory_rename.c **** 
 144:Middlewares/ST/filex/common/src/fx_directory_rename.c ****             /* No leading spaces, increment the name size.  */
 145:Middlewares/ST/filex/common/src/fx_directory_rename.c ****             i++;
  99              		.loc 1 145 13 is_stmt 1 view .LVU33
 100              		.loc 1 145 14 is_stmt 0 view .LVU34
 101 003a 0134     		adds	r4, r4, #1
 102              	.LVL3:
 103              	.L3:
 146:Middlewares/ST/filex/common/src/fx_directory_rename.c ****         }
 147:Middlewares/ST/filex/common/src/fx_directory_rename.c **** 
 148:Middlewares/ST/filex/common/src/fx_directory_rename.c ****         /* Move to the next character.  */
 149:Middlewares/ST/filex/common/src/fx_directory_rename.c ****         work_ptr++;
 104              		.loc 1 149 9 is_stmt 1 view .LVU35
 105              		.loc 1 149 17 is_stmt 0 view .LVU36
 106 003c 0CF1010C 		add	ip, ip, #1
 107              	.LVL4:
 108              	.L2:
 131:Middlewares/ST/filex/common/src/fx_directory_rename.c ****     {
 109              		.loc 1 131 11 is_stmt 1 view .LVU37
 131:Middlewares/ST/filex/common/src/fx_directory_rename.c ****     {
 110              		.loc 1 131 12 is_stmt 0 view .LVU38
 111 0040 9CF80030 		ldrb	r3, [ip]	@ zero_extendqisi2
 131:Middlewares/ST/filex/common/src/fx_directory_rename.c ****     {
 112              		.loc 1 131 11 view .LVU39
 113 0044 73B1     		cbz	r3, .L5
 131:Middlewares/ST/filex/common/src/fx_directory_rename.c ****     {
 114              		.loc 1 131 22 discriminator 1 view .LVU40
 115 0046 FF2C     		cmp	r4, #255
 116 0048 0CD8     		bhi	.L5
 135:Middlewares/ST/filex/common/src/fx_directory_rename.c ****         {
 117              		.loc 1 135 9 is_stmt 1 view .LVU41
 135:Middlewares/ST/filex/common/src/fx_directory_rename.c ****         {
 118              		.loc 1 135 12 is_stmt 0 view .LVU42
 119 004a 5C2B     		cmp	r3, #92
 120 004c 06D0     		beq	.L21
 135:Middlewares/ST/filex/common/src/fx_directory_rename.c ****         {
 121              		.loc 1 135 33 discriminator 1 view .LVU43
 122 004e 2F2B     		cmp	r3, #47
 123 0050 06D0     		beq	.L22
 141:Middlewares/ST/filex/common/src/fx_directory_rename.c ****         {
 124              		.loc 1 141 14 is_stmt 1 view .LVU44
 141:Middlewares/ST/filex/common/src/fx_directory_rename.c ****         {
 125              		.loc 1 141 17 is_stmt 0 view .LVU45
 126 0052 202B     		cmp	r3, #32
 127 0054 F1D1     		bne	.L4
ARM GAS  C:\Users\HP\AppData\Local\Temp\ccyw7Q3t.s 			page 6


 141:Middlewares/ST/filex/common/src/fx_directory_rename.c ****         {
 128              		.loc 1 141 37 discriminator 1 view .LVU46
 129 0056 002C     		cmp	r4, #0
 130 0058 F0D0     		beq	.L3
 131 005a EEE7     		b	.L4
 132              	.L21:
 138:Middlewares/ST/filex/common/src/fx_directory_rename.c ****         }
 133              		.loc 1 138 15 view .LVU47
 134 005c 0024     		movs	r4, #0
 135              	.LVL5:
 138:Middlewares/ST/filex/common/src/fx_directory_rename.c ****         }
 136              		.loc 1 138 15 view .LVU48
 137 005e EDE7     		b	.L3
 138              	.LVL6:
 139              	.L22:
 138:Middlewares/ST/filex/common/src/fx_directory_rename.c ****         }
 140              		.loc 1 138 15 view .LVU49
 141 0060 0024     		movs	r4, #0
 142              	.LVL7:
 138:Middlewares/ST/filex/common/src/fx_directory_rename.c ****         }
 143              		.loc 1 138 15 view .LVU50
 144 0062 EBE7     		b	.L3
 145              	.LVL8:
 146              	.L5:
 150:Middlewares/ST/filex/common/src/fx_directory_rename.c ****     }
 151:Middlewares/ST/filex/common/src/fx_directory_rename.c **** 
 152:Middlewares/ST/filex/common/src/fx_directory_rename.c ****     /* Determine if the supplied name is valid.  */
 153:Middlewares/ST/filex/common/src/fx_directory_rename.c ****     if ((i == 0) || (i >= FX_MAX_LONG_NAME_LEN))
 147              		.loc 1 153 5 is_stmt 1 view .LVU51
 148              		.loc 1 153 18 is_stmt 0 view .LVU52
 149 0064 013C     		subs	r4, r4, #1
 150              	.LVL9:
 151              		.loc 1 153 8 view .LVU53
 152 0066 FE2C     		cmp	r4, #254
 153 0068 00F2C180 		bhi	.L23
 154:Middlewares/ST/filex/common/src/fx_directory_rename.c ****     {
 155:Middlewares/ST/filex/common/src/fx_directory_rename.c **** 
 156:Middlewares/ST/filex/common/src/fx_directory_rename.c ****         /* Return an invalid name value.  */
 157:Middlewares/ST/filex/common/src/fx_directory_rename.c ****         return(FX_INVALID_NAME);
 158:Middlewares/ST/filex/common/src/fx_directory_rename.c ****     }
 159:Middlewares/ST/filex/common/src/fx_directory_rename.c **** 
 160:Middlewares/ST/filex/common/src/fx_directory_rename.c ****     /* Check the media to make sure it is open.  */
 161:Middlewares/ST/filex/common/src/fx_directory_rename.c ****     if (media_ptr -> fx_media_id != FX_MEDIA_ID)
 154              		.loc 1 161 5 is_stmt 1 view .LVU54
 155              		.loc 1 161 19 is_stmt 0 view .LVU55
 156 006c 2A68     		ldr	r2, [r5]
 157              	.LVL10:
 158              		.loc 1 161 8 view .LVU56
 159 006e 634B     		ldr	r3, .L36
 160 0070 9A42     		cmp	r2, r3
 161 0072 05D0     		beq	.L27
 162:Middlewares/ST/filex/common/src/fx_directory_rename.c ****     {
 163:Middlewares/ST/filex/common/src/fx_directory_rename.c **** 
 164:Middlewares/ST/filex/common/src/fx_directory_rename.c ****         /* Return the media not opened error.  */
 165:Middlewares/ST/filex/common/src/fx_directory_rename.c ****         return(FX_MEDIA_NOT_OPEN);
 162              		.loc 1 165 15 view .LVU57
 163 0074 4FF01108 		mov	r8, #17
ARM GAS  C:\Users\HP\AppData\Local\Temp\ccyw7Q3t.s 			page 7


 164              	.LVL11:
 165              	.L1:
 166:Middlewares/ST/filex/common/src/fx_directory_rename.c ****     }
 167:Middlewares/ST/filex/common/src/fx_directory_rename.c **** 
 168:Middlewares/ST/filex/common/src/fx_directory_rename.c ****     /* If trace is enabled, insert this event into the trace buffer.  */
 169:Middlewares/ST/filex/common/src/fx_directory_rename.c ****     FX_TRACE_IN_LINE_INSERT(FX_TRACE_DIRECTORY_RENAME, media_ptr, old_directory_name, new_directory
 170:Middlewares/ST/filex/common/src/fx_directory_rename.c **** 
 171:Middlewares/ST/filex/common/src/fx_directory_rename.c ****     /* Protect against other threads accessing the media.  */
 172:Middlewares/ST/filex/common/src/fx_directory_rename.c ****     FX_PROTECT
 173:Middlewares/ST/filex/common/src/fx_directory_rename.c **** 
 174:Middlewares/ST/filex/common/src/fx_directory_rename.c **** #ifdef FX_ENABLE_FAULT_TOLERANT
 175:Middlewares/ST/filex/common/src/fx_directory_rename.c ****     /* Start transaction. */
 176:Middlewares/ST/filex/common/src/fx_directory_rename.c ****     _fx_fault_tolerant_transaction_start(media_ptr);
 177:Middlewares/ST/filex/common/src/fx_directory_rename.c **** #endif /* FX_ENABLE_FAULT_TOLERANT */
 178:Middlewares/ST/filex/common/src/fx_directory_rename.c **** 
 179:Middlewares/ST/filex/common/src/fx_directory_rename.c ****     /* Check for write protect at the media level (set by driver).  */
 180:Middlewares/ST/filex/common/src/fx_directory_rename.c ****     if (media_ptr -> fx_media_driver_write_protect)
 181:Middlewares/ST/filex/common/src/fx_directory_rename.c ****     {
 182:Middlewares/ST/filex/common/src/fx_directory_rename.c **** 
 183:Middlewares/ST/filex/common/src/fx_directory_rename.c **** #ifdef FX_ENABLE_FAULT_TOLERANT
 184:Middlewares/ST/filex/common/src/fx_directory_rename.c ****         FX_FAULT_TOLERANT_TRANSACTION_FAIL(media_ptr);
 185:Middlewares/ST/filex/common/src/fx_directory_rename.c **** #endif /* FX_ENABLE_FAULT_TOLERANT */
 186:Middlewares/ST/filex/common/src/fx_directory_rename.c **** 
 187:Middlewares/ST/filex/common/src/fx_directory_rename.c ****         /* Release media protection.  */
 188:Middlewares/ST/filex/common/src/fx_directory_rename.c ****         FX_UNPROTECT
 189:Middlewares/ST/filex/common/src/fx_directory_rename.c **** 
 190:Middlewares/ST/filex/common/src/fx_directory_rename.c ****         /* Return write protect error.  */
 191:Middlewares/ST/filex/common/src/fx_directory_rename.c ****         return(FX_WRITE_PROTECT);
 192:Middlewares/ST/filex/common/src/fx_directory_rename.c ****     }
 193:Middlewares/ST/filex/common/src/fx_directory_rename.c **** 
 194:Middlewares/ST/filex/common/src/fx_directory_rename.c ****     /* Search the system for the supplied directory name.  */
 195:Middlewares/ST/filex/common/src/fx_directory_rename.c ****     status =  _fx_directory_search(media_ptr, old_directory_name, &old_dir_entry, &search_directory
 196:Middlewares/ST/filex/common/src/fx_directory_rename.c **** 
 197:Middlewares/ST/filex/common/src/fx_directory_rename.c ****     /* Determine if the search was successful.  */
 198:Middlewares/ST/filex/common/src/fx_directory_rename.c ****     if (status != FX_SUCCESS)
 199:Middlewares/ST/filex/common/src/fx_directory_rename.c ****     {
 200:Middlewares/ST/filex/common/src/fx_directory_rename.c **** 
 201:Middlewares/ST/filex/common/src/fx_directory_rename.c **** #ifdef FX_ENABLE_FAULT_TOLERANT
 202:Middlewares/ST/filex/common/src/fx_directory_rename.c ****         FX_FAULT_TOLERANT_TRANSACTION_FAIL(media_ptr);
 203:Middlewares/ST/filex/common/src/fx_directory_rename.c **** #endif /* FX_ENABLE_FAULT_TOLERANT */
 204:Middlewares/ST/filex/common/src/fx_directory_rename.c **** 
 205:Middlewares/ST/filex/common/src/fx_directory_rename.c ****         /* Release media protection.  */
 206:Middlewares/ST/filex/common/src/fx_directory_rename.c ****         FX_UNPROTECT
 207:Middlewares/ST/filex/common/src/fx_directory_rename.c **** 
 208:Middlewares/ST/filex/common/src/fx_directory_rename.c ****         /* Return the error code.  */
 209:Middlewares/ST/filex/common/src/fx_directory_rename.c ****         return(status);
 210:Middlewares/ST/filex/common/src/fx_directory_rename.c ****     }
 211:Middlewares/ST/filex/common/src/fx_directory_rename.c **** 
 212:Middlewares/ST/filex/common/src/fx_directory_rename.c ****     /* Check to make sure the found entry is a directory.  */
 213:Middlewares/ST/filex/common/src/fx_directory_rename.c ****     if (!(old_dir_entry.fx_dir_entry_attributes & (UCHAR)(FX_DIRECTORY)))
 214:Middlewares/ST/filex/common/src/fx_directory_rename.c ****     {
 215:Middlewares/ST/filex/common/src/fx_directory_rename.c **** 
 216:Middlewares/ST/filex/common/src/fx_directory_rename.c **** #ifdef FX_ENABLE_FAULT_TOLERANT
 217:Middlewares/ST/filex/common/src/fx_directory_rename.c ****         FX_FAULT_TOLERANT_TRANSACTION_FAIL(media_ptr);
 218:Middlewares/ST/filex/common/src/fx_directory_rename.c **** #endif /* FX_ENABLE_FAULT_TOLERANT */
 219:Middlewares/ST/filex/common/src/fx_directory_rename.c **** 
 220:Middlewares/ST/filex/common/src/fx_directory_rename.c ****         /* Release media protection.  */
ARM GAS  C:\Users\HP\AppData\Local\Temp\ccyw7Q3t.s 			page 8


 221:Middlewares/ST/filex/common/src/fx_directory_rename.c ****         FX_UNPROTECT
 222:Middlewares/ST/filex/common/src/fx_directory_rename.c **** 
 223:Middlewares/ST/filex/common/src/fx_directory_rename.c ****         /* Return the not a directory error code.  */
 224:Middlewares/ST/filex/common/src/fx_directory_rename.c ****         return(FX_NOT_DIRECTORY);
 225:Middlewares/ST/filex/common/src/fx_directory_rename.c ****     }
 226:Middlewares/ST/filex/common/src/fx_directory_rename.c **** 
 227:Middlewares/ST/filex/common/src/fx_directory_rename.c **** #ifdef FX_RENAME_PATH_INHERIT
 228:Middlewares/ST/filex/common/src/fx_directory_rename.c **** 
 229:Middlewares/ST/filex/common/src/fx_directory_rename.c ****     /* Determine if the source directory name has a path and the target directory name does not.  *
 230:Middlewares/ST/filex/common/src/fx_directory_rename.c ****     if (((old_directory_name[0] == '/') || (old_directory_name[0] == '\\')) && (new_directory_name[
 231:Middlewares/ST/filex/common/src/fx_directory_rename.c ****     {
 232:Middlewares/ST/filex/common/src/fx_directory_rename.c **** 
 233:Middlewares/ST/filex/common/src/fx_directory_rename.c ****         /* In this case, we need to prepend the path of the old directory name to that of the new d
 234:Middlewares/ST/filex/common/src/fx_directory_rename.c **** 
 235:Middlewares/ST/filex/common/src/fx_directory_rename.c ****         /* Setup pointer to the rename buffer.  */
 236:Middlewares/ST/filex/common/src/fx_directory_rename.c ****         work_ptr =  (CHAR *)media_ptr -> fx_media_rename_buffer;
 237:Middlewares/ST/filex/common/src/fx_directory_rename.c **** 
 238:Middlewares/ST/filex/common/src/fx_directory_rename.c ****         /* First, copy the path of the old directory name.  */
 239:Middlewares/ST/filex/common/src/fx_directory_rename.c ****         i =  0;
 240:Middlewares/ST/filex/common/src/fx_directory_rename.c ****         j =  0;
 241:Middlewares/ST/filex/common/src/fx_directory_rename.c ****         while ((old_directory_name[i]) && (i < FX_MAXIMUM_PATH))
 242:Middlewares/ST/filex/common/src/fx_directory_rename.c ****         {
 243:Middlewares/ST/filex/common/src/fx_directory_rename.c **** 
 244:Middlewares/ST/filex/common/src/fx_directory_rename.c ****             /* Copy a character into the rename buffer.  */
 245:Middlewares/ST/filex/common/src/fx_directory_rename.c ****             *work_ptr++ =  old_directory_name[i];
 246:Middlewares/ST/filex/common/src/fx_directory_rename.c **** 
 247:Middlewares/ST/filex/common/src/fx_directory_rename.c ****             /* Determine if this character is directory separator.  */
 248:Middlewares/ST/filex/common/src/fx_directory_rename.c ****             if ((old_directory_name[i] == '/') || (old_directory_name[i] == '\\'))
 249:Middlewares/ST/filex/common/src/fx_directory_rename.c ****             {
 250:Middlewares/ST/filex/common/src/fx_directory_rename.c **** 
 251:Middlewares/ST/filex/common/src/fx_directory_rename.c ****                 /* Yes, directory separator has been found - remember the index.  */
 252:Middlewares/ST/filex/common/src/fx_directory_rename.c ****                 j =  i;
 253:Middlewares/ST/filex/common/src/fx_directory_rename.c ****             }
 254:Middlewares/ST/filex/common/src/fx_directory_rename.c **** 
 255:Middlewares/ST/filex/common/src/fx_directory_rename.c ****             /* Move to next position in the old directory name.  */
 256:Middlewares/ST/filex/common/src/fx_directory_rename.c ****             i++;
 257:Middlewares/ST/filex/common/src/fx_directory_rename.c ****         }
 258:Middlewares/ST/filex/common/src/fx_directory_rename.c **** 
 259:Middlewares/ST/filex/common/src/fx_directory_rename.c ****         /* At this point, we have the path stored in the rename buffer.  */
 260:Middlewares/ST/filex/common/src/fx_directory_rename.c **** 
 261:Middlewares/ST/filex/common/src/fx_directory_rename.c ****         /* Position past the last slash or backslash.  */
 262:Middlewares/ST/filex/common/src/fx_directory_rename.c ****         j++;
 263:Middlewares/ST/filex/common/src/fx_directory_rename.c **** 
 264:Middlewares/ST/filex/common/src/fx_directory_rename.c ****         /* Reset the working pointer to the position after the last directory separator.  */
 265:Middlewares/ST/filex/common/src/fx_directory_rename.c ****         work_ptr =  (CHAR *)&(media_ptr -> fx_media_rename_buffer[j]);
 266:Middlewares/ST/filex/common/src/fx_directory_rename.c **** 
 267:Middlewares/ST/filex/common/src/fx_directory_rename.c ****         /* Now copy the new directory name into the rename buffer.  */
 268:Middlewares/ST/filex/common/src/fx_directory_rename.c ****         i =  0;
 269:Middlewares/ST/filex/common/src/fx_directory_rename.c ****         while ((new_directory_name[i]) && (j < FX_MAXIMUM_PATH))
 270:Middlewares/ST/filex/common/src/fx_directory_rename.c ****         {
 271:Middlewares/ST/filex/common/src/fx_directory_rename.c **** 
 272:Middlewares/ST/filex/common/src/fx_directory_rename.c ****             /* Copy a character into the rename buffer.  */
 273:Middlewares/ST/filex/common/src/fx_directory_rename.c ****             *work_ptr++ =  new_directory_name[i];
 274:Middlewares/ST/filex/common/src/fx_directory_rename.c **** 
 275:Middlewares/ST/filex/common/src/fx_directory_rename.c ****             /* Move to next character.  */
 276:Middlewares/ST/filex/common/src/fx_directory_rename.c ****             i++;
 277:Middlewares/ST/filex/common/src/fx_directory_rename.c ****             j++;
ARM GAS  C:\Users\HP\AppData\Local\Temp\ccyw7Q3t.s 			page 9


 278:Middlewares/ST/filex/common/src/fx_directory_rename.c ****         }
 279:Middlewares/ST/filex/common/src/fx_directory_rename.c **** 
 280:Middlewares/ST/filex/common/src/fx_directory_rename.c ****         /* Determine if the path was successfully prepended.  */
 281:Middlewares/ST/filex/common/src/fx_directory_rename.c ****         if (new_directory_name[i])
 282:Middlewares/ST/filex/common/src/fx_directory_rename.c ****         {
 283:Middlewares/ST/filex/common/src/fx_directory_rename.c **** 
 284:Middlewares/ST/filex/common/src/fx_directory_rename.c ****             /* No, there was not enough room in the destination buffer.  */
 285:Middlewares/ST/filex/common/src/fx_directory_rename.c **** 
 286:Middlewares/ST/filex/common/src/fx_directory_rename.c **** #ifdef FX_ENABLE_FAULT_TOLERANT
 287:Middlewares/ST/filex/common/src/fx_directory_rename.c ****             FX_FAULT_TOLERANT_TRANSACTION_FAIL(media_ptr);
 288:Middlewares/ST/filex/common/src/fx_directory_rename.c **** #endif /* FX_ENABLE_FAULT_TOLERANT */
 289:Middlewares/ST/filex/common/src/fx_directory_rename.c **** 
 290:Middlewares/ST/filex/common/src/fx_directory_rename.c ****             /* Release media protection.  */
 291:Middlewares/ST/filex/common/src/fx_directory_rename.c ****             FX_UNPROTECT
 292:Middlewares/ST/filex/common/src/fx_directory_rename.c **** 
 293:Middlewares/ST/filex/common/src/fx_directory_rename.c ****             /* Return the invalid path error code.  */
 294:Middlewares/ST/filex/common/src/fx_directory_rename.c ****             return(FX_INVALID_PATH);
 295:Middlewares/ST/filex/common/src/fx_directory_rename.c ****         }
 296:Middlewares/ST/filex/common/src/fx_directory_rename.c **** 
 297:Middlewares/ST/filex/common/src/fx_directory_rename.c ****         /* Place a NULL at the end of the string.  */
 298:Middlewares/ST/filex/common/src/fx_directory_rename.c ****         *work_ptr =  (CHAR)FX_NULL;
 299:Middlewares/ST/filex/common/src/fx_directory_rename.c **** 
 300:Middlewares/ST/filex/common/src/fx_directory_rename.c ****         /* At this point, we have successfully prepended the path in the new directory name, overri
 301:Middlewares/ST/filex/common/src/fx_directory_rename.c ****            the new directory name so it is used from now on.  */
 302:Middlewares/ST/filex/common/src/fx_directory_rename.c ****         new_directory_name =  (CHAR *)media_ptr -> fx_media_rename_buffer;
 303:Middlewares/ST/filex/common/src/fx_directory_rename.c ****     }
 304:Middlewares/ST/filex/common/src/fx_directory_rename.c **** #endif
 305:Middlewares/ST/filex/common/src/fx_directory_rename.c **** 
 306:Middlewares/ST/filex/common/src/fx_directory_rename.c ****     /* Search the media for the new directory name - including any supplied path.  */
 307:Middlewares/ST/filex/common/src/fx_directory_rename.c ****     status = _fx_directory_search(media_ptr, new_directory_name, &new_dir_entry, &search_directory,
 308:Middlewares/ST/filex/common/src/fx_directory_rename.c **** 
 309:Middlewares/ST/filex/common/src/fx_directory_rename.c ****     /* Determine if the search found anything.  */
 310:Middlewares/ST/filex/common/src/fx_directory_rename.c ****     if (status == FX_SUCCESS)
 311:Middlewares/ST/filex/common/src/fx_directory_rename.c ****     {
 312:Middlewares/ST/filex/common/src/fx_directory_rename.c **** 
 313:Middlewares/ST/filex/common/src/fx_directory_rename.c ****         /* Determine if the new name simply has an ASCII case change. If so, simply let the process
 314:Middlewares/ST/filex/common/src/fx_directory_rename.c ****            continue.  */
 315:Middlewares/ST/filex/common/src/fx_directory_rename.c ****         i =  0;
 316:Middlewares/ST/filex/common/src/fx_directory_rename.c ****         do
 317:Middlewares/ST/filex/common/src/fx_directory_rename.c ****         {
 318:Middlewares/ST/filex/common/src/fx_directory_rename.c **** 
 319:Middlewares/ST/filex/common/src/fx_directory_rename.c ****             /* Pickup an old name and new name character and convert to upper case if necessary.  *
 320:Middlewares/ST/filex/common/src/fx_directory_rename.c ****             alpha =  old_directory_name[i];
 321:Middlewares/ST/filex/common/src/fx_directory_rename.c ****             if ((alpha >= 'a') && (alpha <= 'z'))
 322:Middlewares/ST/filex/common/src/fx_directory_rename.c ****             {
 323:Middlewares/ST/filex/common/src/fx_directory_rename.c **** 
 324:Middlewares/ST/filex/common/src/fx_directory_rename.c ****                 /* Lower case, convert to upper case!  */
 325:Middlewares/ST/filex/common/src/fx_directory_rename.c ****                 alpha =  (CHAR)((INT)alpha - 0x20);
 326:Middlewares/ST/filex/common/src/fx_directory_rename.c ****             }
 327:Middlewares/ST/filex/common/src/fx_directory_rename.c ****             beta =   new_directory_name[i];
 328:Middlewares/ST/filex/common/src/fx_directory_rename.c ****             if ((beta >= 'a') && (beta <= 'z'))
 329:Middlewares/ST/filex/common/src/fx_directory_rename.c ****             {
 330:Middlewares/ST/filex/common/src/fx_directory_rename.c **** 
 331:Middlewares/ST/filex/common/src/fx_directory_rename.c ****                 /* Lower case, convert to upper case!  */
 332:Middlewares/ST/filex/common/src/fx_directory_rename.c ****                 beta =  (CHAR)((INT)beta - 0x20);
 333:Middlewares/ST/filex/common/src/fx_directory_rename.c ****             }
 334:Middlewares/ST/filex/common/src/fx_directory_rename.c **** 
ARM GAS  C:\Users\HP\AppData\Local\Temp\ccyw7Q3t.s 			page 10


 335:Middlewares/ST/filex/common/src/fx_directory_rename.c ****             /* Now compare the characters.  */
 336:Middlewares/ST/filex/common/src/fx_directory_rename.c ****             if ((alpha != beta) || (alpha == 0))
 337:Middlewares/ST/filex/common/src/fx_directory_rename.c ****             {
 338:Middlewares/ST/filex/common/src/fx_directory_rename.c **** 
 339:Middlewares/ST/filex/common/src/fx_directory_rename.c ****                 /* Get out of this loop!  */
 340:Middlewares/ST/filex/common/src/fx_directory_rename.c ****                 break;
 341:Middlewares/ST/filex/common/src/fx_directory_rename.c ****             }
 342:Middlewares/ST/filex/common/src/fx_directory_rename.c **** 
 343:Middlewares/ST/filex/common/src/fx_directory_rename.c ****             /* Move to next character.  */
 344:Middlewares/ST/filex/common/src/fx_directory_rename.c ****             i++;
 345:Middlewares/ST/filex/common/src/fx_directory_rename.c ****         } while (i < (FX_MAXIMUM_PATH-1));
 346:Middlewares/ST/filex/common/src/fx_directory_rename.c **** 
 347:Middlewares/ST/filex/common/src/fx_directory_rename.c ****         /* Now determine if the names match.  */
 348:Middlewares/ST/filex/common/src/fx_directory_rename.c ****         if (alpha != beta)
 349:Middlewares/ST/filex/common/src/fx_directory_rename.c ****         {
 350:Middlewares/ST/filex/common/src/fx_directory_rename.c **** 
 351:Middlewares/ST/filex/common/src/fx_directory_rename.c ****             /* Yes, the directory name already exists in the target location.  */
 352:Middlewares/ST/filex/common/src/fx_directory_rename.c **** 
 353:Middlewares/ST/filex/common/src/fx_directory_rename.c **** #ifdef FX_ENABLE_FAULT_TOLERANT
 354:Middlewares/ST/filex/common/src/fx_directory_rename.c ****             FX_FAULT_TOLERANT_TRANSACTION_FAIL(media_ptr);
 355:Middlewares/ST/filex/common/src/fx_directory_rename.c **** #endif /* FX_ENABLE_FAULT_TOLERANT */
 356:Middlewares/ST/filex/common/src/fx_directory_rename.c **** 
 357:Middlewares/ST/filex/common/src/fx_directory_rename.c ****             /* Release media protection.  */
 358:Middlewares/ST/filex/common/src/fx_directory_rename.c ****             FX_UNPROTECT
 359:Middlewares/ST/filex/common/src/fx_directory_rename.c **** 
 360:Middlewares/ST/filex/common/src/fx_directory_rename.c ****             /* Return the error code.  */
 361:Middlewares/ST/filex/common/src/fx_directory_rename.c ****             return(FX_ALREADY_CREATED);
 362:Middlewares/ST/filex/common/src/fx_directory_rename.c ****         }
 363:Middlewares/ST/filex/common/src/fx_directory_rename.c ****     }
 364:Middlewares/ST/filex/common/src/fx_directory_rename.c **** 
 365:Middlewares/ST/filex/common/src/fx_directory_rename.c ****     /* Make sure the name is valid.  */
 366:Middlewares/ST/filex/common/src/fx_directory_rename.c ****     if (_fx_directory_name_extract(new_name_ptr, &new_dir_entry.fx_dir_entry_name[0]))
 367:Middlewares/ST/filex/common/src/fx_directory_rename.c ****     {
 368:Middlewares/ST/filex/common/src/fx_directory_rename.c **** 
 369:Middlewares/ST/filex/common/src/fx_directory_rename.c **** #ifdef FX_ENABLE_FAULT_TOLERANT
 370:Middlewares/ST/filex/common/src/fx_directory_rename.c ****         FX_FAULT_TOLERANT_TRANSACTION_FAIL(media_ptr);
 371:Middlewares/ST/filex/common/src/fx_directory_rename.c **** #endif /* FX_ENABLE_FAULT_TOLERANT */
 372:Middlewares/ST/filex/common/src/fx_directory_rename.c **** 
 373:Middlewares/ST/filex/common/src/fx_directory_rename.c ****         /* Release media protection */
 374:Middlewares/ST/filex/common/src/fx_directory_rename.c ****         FX_UNPROTECT
 375:Middlewares/ST/filex/common/src/fx_directory_rename.c **** 
 376:Middlewares/ST/filex/common/src/fx_directory_rename.c ****         /* Return the error code */
 377:Middlewares/ST/filex/common/src/fx_directory_rename.c ****         return(FX_INVALID_NAME);
 378:Middlewares/ST/filex/common/src/fx_directory_rename.c ****     }
 379:Middlewares/ST/filex/common/src/fx_directory_rename.c **** 
 380:Middlewares/ST/filex/common/src/fx_directory_rename.c ****     /* Look for a free slot in the target directory.  */
 381:Middlewares/ST/filex/common/src/fx_directory_rename.c ****     status =  _fx_directory_free_search(media_ptr, &search_directory, &new_dir_entry);
 382:Middlewares/ST/filex/common/src/fx_directory_rename.c **** 
 383:Middlewares/ST/filex/common/src/fx_directory_rename.c ****     /* Was a free slot found?  */
 384:Middlewares/ST/filex/common/src/fx_directory_rename.c ****     if (status != FX_SUCCESS)
 385:Middlewares/ST/filex/common/src/fx_directory_rename.c ****     {
 386:Middlewares/ST/filex/common/src/fx_directory_rename.c **** 
 387:Middlewares/ST/filex/common/src/fx_directory_rename.c **** #ifdef FX_ENABLE_FAULT_TOLERANT
 388:Middlewares/ST/filex/common/src/fx_directory_rename.c ****         FX_FAULT_TOLERANT_TRANSACTION_FAIL(media_ptr);
 389:Middlewares/ST/filex/common/src/fx_directory_rename.c **** #endif /* FX_ENABLE_FAULT_TOLERANT */
 390:Middlewares/ST/filex/common/src/fx_directory_rename.c **** 
 391:Middlewares/ST/filex/common/src/fx_directory_rename.c ****         /* No, release protection.  */
ARM GAS  C:\Users\HP\AppData\Local\Temp\ccyw7Q3t.s 			page 11


 392:Middlewares/ST/filex/common/src/fx_directory_rename.c ****         FX_UNPROTECT
 393:Middlewares/ST/filex/common/src/fx_directory_rename.c **** 
 394:Middlewares/ST/filex/common/src/fx_directory_rename.c ****         /* Return the error code.  */
 395:Middlewares/ST/filex/common/src/fx_directory_rename.c ****         return(status);
 396:Middlewares/ST/filex/common/src/fx_directory_rename.c ****     }
 397:Middlewares/ST/filex/common/src/fx_directory_rename.c **** 
 398:Middlewares/ST/filex/common/src/fx_directory_rename.c ****     /* Extract the new directory name.  */
 399:Middlewares/ST/filex/common/src/fx_directory_rename.c ****     _fx_directory_name_extract(new_name_ptr, &new_dir_entry.fx_dir_entry_name[0]);
 400:Middlewares/ST/filex/common/src/fx_directory_rename.c **** 
 401:Middlewares/ST/filex/common/src/fx_directory_rename.c ****     /* Determine if the name was a long directory name.   */
 402:Middlewares/ST/filex/common/src/fx_directory_rename.c ****     if (new_dir_entry.fx_dir_entry_long_name_present)
 403:Middlewares/ST/filex/common/src/fx_directory_rename.c ****     {
 404:Middlewares/ST/filex/common/src/fx_directory_rename.c **** 
 405:Middlewares/ST/filex/common/src/fx_directory_rename.c ****         /* Yes, clear the short directory name to force a new one.  */
 406:Middlewares/ST/filex/common/src/fx_directory_rename.c ****         new_dir_entry.fx_dir_entry_short_name[0] =  0;
 407:Middlewares/ST/filex/common/src/fx_directory_rename.c ****     }
 408:Middlewares/ST/filex/common/src/fx_directory_rename.c **** 
 409:Middlewares/ST/filex/common/src/fx_directory_rename.c ****     /* Setup new attributes for the new directory entry.  */
 410:Middlewares/ST/filex/common/src/fx_directory_rename.c ****     new_dir_entry.fx_dir_entry_attributes = old_dir_entry.fx_dir_entry_attributes;
 411:Middlewares/ST/filex/common/src/fx_directory_rename.c ****     new_dir_entry.fx_dir_entry_cluster    = old_dir_entry.fx_dir_entry_cluster;
 412:Middlewares/ST/filex/common/src/fx_directory_rename.c ****     new_dir_entry.fx_dir_entry_file_size  = old_dir_entry.fx_dir_entry_file_size;
 413:Middlewares/ST/filex/common/src/fx_directory_rename.c **** 
 414:Middlewares/ST/filex/common/src/fx_directory_rename.c ****     /* Save the reserved field.  */
 415:Middlewares/ST/filex/common/src/fx_directory_rename.c ****     new_dir_entry.fx_dir_entry_reserved =            old_dir_entry.fx_dir_entry_reserved;
 416:Middlewares/ST/filex/common/src/fx_directory_rename.c **** 
 417:Middlewares/ST/filex/common/src/fx_directory_rename.c ****     /* Set time and date stamps.  */
 418:Middlewares/ST/filex/common/src/fx_directory_rename.c ****     new_dir_entry.fx_dir_entry_created_time_ms =     old_dir_entry.fx_dir_entry_created_time_ms;
 419:Middlewares/ST/filex/common/src/fx_directory_rename.c ****     new_dir_entry.fx_dir_entry_created_time =        old_dir_entry.fx_dir_entry_created_time;
 420:Middlewares/ST/filex/common/src/fx_directory_rename.c ****     new_dir_entry.fx_dir_entry_created_date =        old_dir_entry.fx_dir_entry_created_date;
 421:Middlewares/ST/filex/common/src/fx_directory_rename.c ****     new_dir_entry.fx_dir_entry_last_accessed_date =  old_dir_entry.fx_dir_entry_last_accessed_date;
 422:Middlewares/ST/filex/common/src/fx_directory_rename.c ****     new_dir_entry.fx_dir_entry_time =                old_dir_entry.fx_dir_entry_time;
 423:Middlewares/ST/filex/common/src/fx_directory_rename.c ****     new_dir_entry.fx_dir_entry_date =                old_dir_entry.fx_dir_entry_date;
 424:Middlewares/ST/filex/common/src/fx_directory_rename.c **** 
 425:Middlewares/ST/filex/common/src/fx_directory_rename.c **** #ifdef FX_ENABLE_EXFAT
 426:Middlewares/ST/filex/common/src/fx_directory_rename.c ****     if (media_ptr -> fx_media_FAT_type == FX_exFAT)
 427:Middlewares/ST/filex/common/src/fx_directory_rename.c ****     {
 428:Middlewares/ST/filex/common/src/fx_directory_rename.c **** 
 429:Middlewares/ST/filex/common/src/fx_directory_rename.c ****         new_dir_entry.fx_dir_entry_dont_use_fat =           old_dir_entry.fx_dir_entry_dont_use_fat
 430:Middlewares/ST/filex/common/src/fx_directory_rename.c ****         new_dir_entry.fx_dir_entry_type =                   old_dir_entry.fx_dir_entry_type;
 431:Middlewares/ST/filex/common/src/fx_directory_rename.c ****         new_dir_entry.fx_dir_entry_available_file_size =    old_dir_entry.fx_dir_entry_available_fi
 432:Middlewares/ST/filex/common/src/fx_directory_rename.c ****         new_dir_entry.fx_dir_entry_secondary_count =        old_dir_entry.fx_dir_entry_secondary_co
 433:Middlewares/ST/filex/common/src/fx_directory_rename.c ****     }
 434:Middlewares/ST/filex/common/src/fx_directory_rename.c **** #endif /* FX_ENABLE_EXFAT */
 435:Middlewares/ST/filex/common/src/fx_directory_rename.c **** 
 436:Middlewares/ST/filex/common/src/fx_directory_rename.c ****     /* Is there a leading dot?  */
 437:Middlewares/ST/filex/common/src/fx_directory_rename.c ****     if (new_dir_entry.fx_dir_entry_name[0] == '.')
 438:Middlewares/ST/filex/common/src/fx_directory_rename.c ****     {
 439:Middlewares/ST/filex/common/src/fx_directory_rename.c **** 
 440:Middlewares/ST/filex/common/src/fx_directory_rename.c ****         /* Yes, toggle the hidden attribute bit.  */
 441:Middlewares/ST/filex/common/src/fx_directory_rename.c ****         new_dir_entry.fx_dir_entry_attributes |=  FX_HIDDEN;
 442:Middlewares/ST/filex/common/src/fx_directory_rename.c ****     }
 443:Middlewares/ST/filex/common/src/fx_directory_rename.c **** 
 444:Middlewares/ST/filex/common/src/fx_directory_rename.c **** #ifndef FX_MEDIA_DISABLE_SEARCH_CACHE
 445:Middlewares/ST/filex/common/src/fx_directory_rename.c **** 
 446:Middlewares/ST/filex/common/src/fx_directory_rename.c ****     /* Invalidate the directory cache.  */
 447:Middlewares/ST/filex/common/src/fx_directory_rename.c ****     media_ptr -> fx_media_last_found_name[0] =  FX_NULL;
 448:Middlewares/ST/filex/common/src/fx_directory_rename.c **** #endif
ARM GAS  C:\Users\HP\AppData\Local\Temp\ccyw7Q3t.s 			page 12


 449:Middlewares/ST/filex/common/src/fx_directory_rename.c **** 
 450:Middlewares/ST/filex/common/src/fx_directory_rename.c ****     /* Now write out the directory entry.  */
 451:Middlewares/ST/filex/common/src/fx_directory_rename.c **** #ifdef FX_ENABLE_EXFAT
 452:Middlewares/ST/filex/common/src/fx_directory_rename.c ****     if (media_ptr -> fx_media_FAT_type == FX_exFAT)
 453:Middlewares/ST/filex/common/src/fx_directory_rename.c ****     {
 454:Middlewares/ST/filex/common/src/fx_directory_rename.c **** 
 455:Middlewares/ST/filex/common/src/fx_directory_rename.c ****         status = _fx_directory_exFAT_entry_write(media_ptr, &new_dir_entry, UPDATE_FULL);
 456:Middlewares/ST/filex/common/src/fx_directory_rename.c ****     }
 457:Middlewares/ST/filex/common/src/fx_directory_rename.c ****     else
 458:Middlewares/ST/filex/common/src/fx_directory_rename.c ****     {
 459:Middlewares/ST/filex/common/src/fx_directory_rename.c **** #endif /* FX_ENABLE_EXFAT */
 460:Middlewares/ST/filex/common/src/fx_directory_rename.c ****         status =  _fx_directory_entry_write(media_ptr, &new_dir_entry);
 461:Middlewares/ST/filex/common/src/fx_directory_rename.c **** #ifdef FX_ENABLE_EXFAT
 462:Middlewares/ST/filex/common/src/fx_directory_rename.c ****     }
 463:Middlewares/ST/filex/common/src/fx_directory_rename.c **** #endif /* FX_ENABLE_EXFAT */
 464:Middlewares/ST/filex/common/src/fx_directory_rename.c **** 
 465:Middlewares/ST/filex/common/src/fx_directory_rename.c ****     /* Determine if the write was successful.  */
 466:Middlewares/ST/filex/common/src/fx_directory_rename.c ****     if (status != FX_SUCCESS)
 467:Middlewares/ST/filex/common/src/fx_directory_rename.c ****     {
 468:Middlewares/ST/filex/common/src/fx_directory_rename.c **** 
 469:Middlewares/ST/filex/common/src/fx_directory_rename.c **** #ifdef FX_ENABLE_FAULT_TOLERANT
 470:Middlewares/ST/filex/common/src/fx_directory_rename.c ****         FX_FAULT_TOLERANT_TRANSACTION_FAIL(media_ptr);
 471:Middlewares/ST/filex/common/src/fx_directory_rename.c **** #endif /* FX_ENABLE_FAULT_TOLERANT */
 472:Middlewares/ST/filex/common/src/fx_directory_rename.c **** 
 473:Middlewares/ST/filex/common/src/fx_directory_rename.c ****         /* Release media protection.  */
 474:Middlewares/ST/filex/common/src/fx_directory_rename.c ****         FX_UNPROTECT
 475:Middlewares/ST/filex/common/src/fx_directory_rename.c **** 
 476:Middlewares/ST/filex/common/src/fx_directory_rename.c ****         /* Return the error code.  */
 477:Middlewares/ST/filex/common/src/fx_directory_rename.c ****         return(status);
 478:Middlewares/ST/filex/common/src/fx_directory_rename.c ****     }
 479:Middlewares/ST/filex/common/src/fx_directory_rename.c **** 
 480:Middlewares/ST/filex/common/src/fx_directory_rename.c ****     /* Set the old directory entry to free.  */
 481:Middlewares/ST/filex/common/src/fx_directory_rename.c ****     old_dir_entry.fx_dir_entry_name[0] =        (CHAR)FX_DIR_ENTRY_FREE;
 482:Middlewares/ST/filex/common/src/fx_directory_rename.c ****     old_dir_entry.fx_dir_entry_short_name[0] =  (CHAR)FX_DIR_ENTRY_FREE;
 483:Middlewares/ST/filex/common/src/fx_directory_rename.c **** 
 484:Middlewares/ST/filex/common/src/fx_directory_rename.c ****     /* Now wipe out the old directory entry.  */
 485:Middlewares/ST/filex/common/src/fx_directory_rename.c **** #ifdef FX_ENABLE_EXFAT
 486:Middlewares/ST/filex/common/src/fx_directory_rename.c ****     if (media_ptr -> fx_media_FAT_type == FX_exFAT)
 487:Middlewares/ST/filex/common/src/fx_directory_rename.c ****     {
 488:Middlewares/ST/filex/common/src/fx_directory_rename.c **** 
 489:Middlewares/ST/filex/common/src/fx_directory_rename.c ****         status = _fx_directory_exFAT_entry_write(media_ptr, &old_dir_entry, UPDATE_DELETE);
 490:Middlewares/ST/filex/common/src/fx_directory_rename.c ****     }
 491:Middlewares/ST/filex/common/src/fx_directory_rename.c ****     else
 492:Middlewares/ST/filex/common/src/fx_directory_rename.c ****     {
 493:Middlewares/ST/filex/common/src/fx_directory_rename.c **** #endif /* FX_ENABLE_EXFAT */
 494:Middlewares/ST/filex/common/src/fx_directory_rename.c ****         status =  _fx_directory_entry_write(media_ptr, &old_dir_entry);
 495:Middlewares/ST/filex/common/src/fx_directory_rename.c **** #ifdef FX_ENABLE_EXFAT
 496:Middlewares/ST/filex/common/src/fx_directory_rename.c ****     }
 497:Middlewares/ST/filex/common/src/fx_directory_rename.c **** #endif /* FX_ENABLE_EXFAT */
 498:Middlewares/ST/filex/common/src/fx_directory_rename.c **** 
 499:Middlewares/ST/filex/common/src/fx_directory_rename.c **** #ifdef FX_ENABLE_FAULT_TOLERANT
 500:Middlewares/ST/filex/common/src/fx_directory_rename.c ****     /* Check for a bad status.  */
 501:Middlewares/ST/filex/common/src/fx_directory_rename.c ****     if (status != FX_SUCCESS)
 502:Middlewares/ST/filex/common/src/fx_directory_rename.c ****     {
 503:Middlewares/ST/filex/common/src/fx_directory_rename.c **** 
 504:Middlewares/ST/filex/common/src/fx_directory_rename.c ****         FX_FAULT_TOLERANT_TRANSACTION_FAIL(media_ptr);
 505:Middlewares/ST/filex/common/src/fx_directory_rename.c **** 
ARM GAS  C:\Users\HP\AppData\Local\Temp\ccyw7Q3t.s 			page 13


 506:Middlewares/ST/filex/common/src/fx_directory_rename.c ****         /* Release media protection.  */
 507:Middlewares/ST/filex/common/src/fx_directory_rename.c ****         FX_UNPROTECT
 508:Middlewares/ST/filex/common/src/fx_directory_rename.c **** 
 509:Middlewares/ST/filex/common/src/fx_directory_rename.c ****         /* Return the bad status.  */
 510:Middlewares/ST/filex/common/src/fx_directory_rename.c ****         return(status);
 511:Middlewares/ST/filex/common/src/fx_directory_rename.c ****     }
 512:Middlewares/ST/filex/common/src/fx_directory_rename.c **** 
 513:Middlewares/ST/filex/common/src/fx_directory_rename.c ****     /* End transaction. */
 514:Middlewares/ST/filex/common/src/fx_directory_rename.c ****     status = _fx_fault_tolerant_transaction_end(media_ptr);
 515:Middlewares/ST/filex/common/src/fx_directory_rename.c **** #endif /* FX_ENABLE_FAULT_TOLERANT */
 516:Middlewares/ST/filex/common/src/fx_directory_rename.c **** 
 517:Middlewares/ST/filex/common/src/fx_directory_rename.c ****     /* Release media protection.  */
 518:Middlewares/ST/filex/common/src/fx_directory_rename.c ****     FX_UNPROTECT
 519:Middlewares/ST/filex/common/src/fx_directory_rename.c **** 
 520:Middlewares/ST/filex/common/src/fx_directory_rename.c ****     /* Directory rename is complete, return status.  */
 521:Middlewares/ST/filex/common/src/fx_directory_rename.c ****     return(status);
 522:Middlewares/ST/filex/common/src/fx_directory_rename.c **** }
 166              		.loc 1 522 1 view .LVU58
 167 0078 4046     		mov	r0, r8
 168 007a 58B0     		add	sp, sp, #352
 169              	.LCFI2:
 170              		.cfi_remember_state
 171              		.cfi_def_cfa_offset 24
 172              		@ sp needed
 173 007c BDE8F081 		pop	{r4, r5, r6, r7, r8, pc}
 174              	.LVL12:
 175              	.L27:
 176              	.LCFI3:
 177              		.cfi_restore_state
 172:Middlewares/ST/filex/common/src/fx_directory_rename.c **** 
 178              		.loc 1 172 5 is_stmt 1 discriminator 2 view .LVU59
 172:Middlewares/ST/filex/common/src/fx_directory_rename.c **** 
 179              		.loc 1 172 5 discriminator 2 view .LVU60
 180 0080 05F5E474 		add	r4, r5, #456
 181              	.LVL13:
 172:Middlewares/ST/filex/common/src/fx_directory_rename.c **** 
 182              		.loc 1 172 5 is_stmt 0 discriminator 2 view .LVU61
 183 0084 4FF0FF31 		mov	r1, #-1
 184              	.LVL14:
 172:Middlewares/ST/filex/common/src/fx_directory_rename.c **** 
 185              		.loc 1 172 5 discriminator 2 view .LVU62
 186 0088 2046     		mov	r0, r4
 187              	.LVL15:
 172:Middlewares/ST/filex/common/src/fx_directory_rename.c **** 
 188              		.loc 1 172 5 discriminator 2 view .LVU63
 189 008a FFF7FEFF 		bl	_tx_mutex_get
 190              	.LVL16:
 172:Middlewares/ST/filex/common/src/fx_directory_rename.c **** 
 191              		.loc 1 172 5 discriminator 2 view .LVU64
 192 008e 0028     		cmp	r0, #0
 193 0090 40F0B080 		bne	.L25
 180:Middlewares/ST/filex/common/src/fx_directory_rename.c ****     {
 194              		.loc 1 180 5 is_stmt 1 view .LVU65
 180:Middlewares/ST/filex/common/src/fx_directory_rename.c ****     {
 195              		.loc 1 180 19 is_stmt 0 view .LVU66
 196 0094 D5F8A830 		ldr	r3, [r5, #168]
 180:Middlewares/ST/filex/common/src/fx_directory_rename.c ****     {
ARM GAS  C:\Users\HP\AppData\Local\Temp\ccyw7Q3t.s 			page 14


 197              		.loc 1 180 8 view .LVU67
 198 0098 CBB9     		cbnz	r3, .L28
 195:Middlewares/ST/filex/common/src/fx_directory_rename.c **** 
 199              		.loc 1 195 5 is_stmt 1 view .LVU68
 195:Middlewares/ST/filex/common/src/fx_directory_rename.c **** 
 200              		.loc 1 195 15 is_stmt 0 view .LVU69
 201 009a 0023     		movs	r3, #0
 202 009c 0093     		str	r3, [sp]
 203 009e 04AB     		add	r3, sp, #16
 204 00a0 3CAA     		add	r2, sp, #240
 205 00a2 3946     		mov	r1, r7
 206 00a4 2846     		mov	r0, r5
 207 00a6 FFF7FEFF 		bl	_fx_directory_search
 208              	.LVL17:
 198:Middlewares/ST/filex/common/src/fx_directory_rename.c ****     {
 209              		.loc 1 198 5 is_stmt 1 view .LVU70
 198:Middlewares/ST/filex/common/src/fx_directory_rename.c ****     {
 210              		.loc 1 198 8 is_stmt 0 view .LVU71
 211 00aa 8046     		mov	r8, r0
 212 00ac A8B9     		cbnz	r0, .L29
 213:Middlewares/ST/filex/common/src/fx_directory_rename.c ****     {
 213              		.loc 1 213 5 is_stmt 1 view .LVU72
 213:Middlewares/ST/filex/common/src/fx_directory_rename.c ****     {
 214              		.loc 1 213 24 is_stmt 0 view .LVU73
 215 00ae 9DF80C31 		ldrb	r3, [sp, #268]	@ zero_extendqisi2
 213:Middlewares/ST/filex/common/src/fx_directory_rename.c ****     {
 216              		.loc 1 213 8 view .LVU74
 217 00b2 13F0100F 		tst	r3, #16
 218 00b6 14D0     		beq	.L30
 307:Middlewares/ST/filex/common/src/fx_directory_rename.c **** 
 219              		.loc 1 307 5 is_stmt 1 view .LVU75
 307:Middlewares/ST/filex/common/src/fx_directory_rename.c **** 
 220              		.loc 1 307 14 is_stmt 0 view .LVU76
 221 00b8 03AB     		add	r3, sp, #12
 222 00ba 0093     		str	r3, [sp]
 223 00bc 04AB     		add	r3, sp, #16
 224 00be 20AA     		add	r2, sp, #128
 225 00c0 3146     		mov	r1, r6
 226 00c2 2846     		mov	r0, r5
 227              	.LVL18:
 307:Middlewares/ST/filex/common/src/fx_directory_rename.c **** 
 228              		.loc 1 307 14 view .LVU77
 229 00c4 FFF7FEFF 		bl	_fx_directory_search
 230              	.LVL19:
 310:Middlewares/ST/filex/common/src/fx_directory_rename.c ****     {
 231              		.loc 1 310 5 is_stmt 1 view .LVU78
 310:Middlewares/ST/filex/common/src/fx_directory_rename.c ****     {
 232              		.loc 1 310 8 is_stmt 0 view .LVU79
 233 00c8 0146     		mov	r1, r0
 234 00ca B0B1     		cbz	r0, .L15
 235 00cc 28E0     		b	.L11
 236              	.LVL20:
 237              	.L28:
 188:Middlewares/ST/filex/common/src/fx_directory_rename.c **** 
 238              		.loc 1 188 9 is_stmt 1 view .LVU80
 239 00ce 2046     		mov	r0, r4
 240 00d0 FFF7FEFF 		bl	_tx_mutex_put
ARM GAS  C:\Users\HP\AppData\Local\Temp\ccyw7Q3t.s 			page 15


 241              	.LVL21:
 191:Middlewares/ST/filex/common/src/fx_directory_rename.c ****     }
 242              		.loc 1 191 9 view .LVU81
 191:Middlewares/ST/filex/common/src/fx_directory_rename.c ****     }
 243              		.loc 1 191 15 is_stmt 0 view .LVU82
 244 00d4 4FF02308 		mov	r8, #35
 245 00d8 CEE7     		b	.L1
 246              	.LVL22:
 247              	.L29:
 206:Middlewares/ST/filex/common/src/fx_directory_rename.c **** 
 248              		.loc 1 206 9 is_stmt 1 view .LVU83
 249 00da 2046     		mov	r0, r4
 250              	.LVL23:
 206:Middlewares/ST/filex/common/src/fx_directory_rename.c **** 
 251              		.loc 1 206 9 is_stmt 0 view .LVU84
 252 00dc FFF7FEFF 		bl	_tx_mutex_put
 253              	.LVL24:
 209:Middlewares/ST/filex/common/src/fx_directory_rename.c ****     }
 254              		.loc 1 209 9 is_stmt 1 view .LVU85
 209:Middlewares/ST/filex/common/src/fx_directory_rename.c ****     }
 255              		.loc 1 209 15 is_stmt 0 view .LVU86
 256 00e0 CAE7     		b	.L1
 257              	.LVL25:
 258              	.L30:
 221:Middlewares/ST/filex/common/src/fx_directory_rename.c **** 
 259              		.loc 1 221 9 is_stmt 1 view .LVU87
 260 00e2 2046     		mov	r0, r4
 261              	.LVL26:
 221:Middlewares/ST/filex/common/src/fx_directory_rename.c **** 
 262              		.loc 1 221 9 is_stmt 0 view .LVU88
 263 00e4 FFF7FEFF 		bl	_tx_mutex_put
 264              	.LVL27:
 224:Middlewares/ST/filex/common/src/fx_directory_rename.c ****     }
 265              		.loc 1 224 9 is_stmt 1 view .LVU89
 224:Middlewares/ST/filex/common/src/fx_directory_rename.c ****     }
 266              		.loc 1 224 15 is_stmt 0 view .LVU90
 267 00e8 4FF00E08 		mov	r8, #14
 268              	.LVL28:
 224:Middlewares/ST/filex/common/src/fx_directory_rename.c ****     }
 269              		.loc 1 224 15 view .LVU91
 270 00ec C4E7     		b	.L1
 271              	.LVL29:
 272              	.L13:
 336:Middlewares/ST/filex/common/src/fx_directory_rename.c ****             {
 273              		.loc 1 336 13 is_stmt 1 view .LVU92
 336:Middlewares/ST/filex/common/src/fx_directory_rename.c ****             {
 274              		.loc 1 336 16 is_stmt 0 view .LVU93
 275 00ee 9342     		cmp	r3, r2
 276 00f0 14D1     		bne	.L14
 336:Middlewares/ST/filex/common/src/fx_directory_rename.c ****             {
 277              		.loc 1 336 33 discriminator 1 view .LVU94
 278 00f2 9BB1     		cbz	r3, .L14
 344:Middlewares/ST/filex/common/src/fx_directory_rename.c ****         } while (i < (FX_MAXIMUM_PATH-1));
 279              		.loc 1 344 13 is_stmt 1 view .LVU95
 344:Middlewares/ST/filex/common/src/fx_directory_rename.c ****         } while (i < (FX_MAXIMUM_PATH-1));
 280              		.loc 1 344 14 is_stmt 0 view .LVU96
 281 00f4 0131     		adds	r1, r1, #1
ARM GAS  C:\Users\HP\AppData\Local\Temp\ccyw7Q3t.s 			page 16


 282              	.LVL30:
 345:Middlewares/ST/filex/common/src/fx_directory_rename.c **** 
 283              		.loc 1 345 17 is_stmt 1 view .LVU97
 345:Middlewares/ST/filex/common/src/fx_directory_rename.c **** 
 284              		.loc 1 345 9 is_stmt 0 view .LVU98
 285 00f6 FE29     		cmp	r1, #254
 286 00f8 10D8     		bhi	.L14
 287              	.LVL31:
 288              	.L15:
 316:Middlewares/ST/filex/common/src/fx_directory_rename.c ****         {
 289              		.loc 1 316 9 is_stmt 1 view .LVU99
 320:Middlewares/ST/filex/common/src/fx_directory_rename.c ****             if ((alpha >= 'a') && (alpha <= 'z'))
 290              		.loc 1 320 13 view .LVU100
 320:Middlewares/ST/filex/common/src/fx_directory_rename.c ****             if ((alpha >= 'a') && (alpha <= 'z'))
 291              		.loc 1 320 19 is_stmt 0 view .LVU101
 292 00fa 7B5C     		ldrb	r3, [r7, r1]	@ zero_extendqisi2
 293              	.LVL32:
 321:Middlewares/ST/filex/common/src/fx_directory_rename.c ****             {
 294              		.loc 1 321 13 is_stmt 1 view .LVU102
 321:Middlewares/ST/filex/common/src/fx_directory_rename.c ****             {
 295              		.loc 1 321 32 is_stmt 0 view .LVU103
 296 00fc A3F16102 		sub	r2, r3, #97
 297 0100 D2B2     		uxtb	r2, r2
 321:Middlewares/ST/filex/common/src/fx_directory_rename.c ****             {
 298              		.loc 1 321 16 view .LVU104
 299 0102 192A     		cmp	r2, #25
 300 0104 01D8     		bhi	.L12
 325:Middlewares/ST/filex/common/src/fx_directory_rename.c ****             }
 301              		.loc 1 325 17 is_stmt 1 view .LVU105
 325:Middlewares/ST/filex/common/src/fx_directory_rename.c ****             }
 302              		.loc 1 325 23 is_stmt 0 view .LVU106
 303 0106 203B     		subs	r3, r3, #32
 304              	.LVL33:
 325:Middlewares/ST/filex/common/src/fx_directory_rename.c ****             }
 305              		.loc 1 325 23 view .LVU107
 306 0108 DBB2     		uxtb	r3, r3
 307              	.LVL34:
 308              	.L12:
 327:Middlewares/ST/filex/common/src/fx_directory_rename.c ****             if ((beta >= 'a') && (beta <= 'z'))
 309              		.loc 1 327 13 is_stmt 1 view .LVU108
 327:Middlewares/ST/filex/common/src/fx_directory_rename.c ****             if ((beta >= 'a') && (beta <= 'z'))
 310              		.loc 1 327 18 is_stmt 0 view .LVU109
 311 010a 725C     		ldrb	r2, [r6, r1]	@ zero_extendqisi2
 312              	.LVL35:
 328:Middlewares/ST/filex/common/src/fx_directory_rename.c ****             {
 313              		.loc 1 328 13 is_stmt 1 view .LVU110
 328:Middlewares/ST/filex/common/src/fx_directory_rename.c ****             {
 314              		.loc 1 328 31 is_stmt 0 view .LVU111
 315 010c A2F16100 		sub	r0, r2, #97
 316 0110 C0B2     		uxtb	r0, r0
 328:Middlewares/ST/filex/common/src/fx_directory_rename.c ****             {
 317              		.loc 1 328 16 view .LVU112
 318 0112 1928     		cmp	r0, #25
 319 0114 EBD8     		bhi	.L13
 332:Middlewares/ST/filex/common/src/fx_directory_rename.c ****             }
 320              		.loc 1 332 17 is_stmt 1 view .LVU113
 332:Middlewares/ST/filex/common/src/fx_directory_rename.c ****             }
ARM GAS  C:\Users\HP\AppData\Local\Temp\ccyw7Q3t.s 			page 17


 321              		.loc 1 332 22 is_stmt 0 view .LVU114
 322 0116 203A     		subs	r2, r2, #32
 323              	.LVL36:
 332:Middlewares/ST/filex/common/src/fx_directory_rename.c ****             }
 324              		.loc 1 332 22 view .LVU115
 325 0118 D2B2     		uxtb	r2, r2
 326              	.LVL37:
 332:Middlewares/ST/filex/common/src/fx_directory_rename.c ****             }
 327              		.loc 1 332 22 view .LVU116
 328 011a E8E7     		b	.L13
 329              	.L14:
 348:Middlewares/ST/filex/common/src/fx_directory_rename.c ****         {
 330              		.loc 1 348 9 is_stmt 1 view .LVU117
 348:Middlewares/ST/filex/common/src/fx_directory_rename.c ****         {
 331              		.loc 1 348 12 is_stmt 0 view .LVU118
 332 011c 9342     		cmp	r3, r2
 333 011e 4DD1     		bne	.L31
 334              	.LVL38:
 335              	.L11:
 366:Middlewares/ST/filex/common/src/fx_directory_rename.c ****     {
 336              		.loc 1 366 5 is_stmt 1 view .LVU119
 366:Middlewares/ST/filex/common/src/fx_directory_rename.c ****     {
 337              		.loc 1 366 9 is_stmt 0 view .LVU120
 338 0120 2099     		ldr	r1, [sp, #128]
 339 0122 0398     		ldr	r0, [sp, #12]
 340 0124 FFF7FEFF 		bl	_fx_directory_name_extract
 341              	.LVL39:
 366:Middlewares/ST/filex/common/src/fx_directory_rename.c ****     {
 342              		.loc 1 366 8 view .LVU121
 343 0128 0028     		cmp	r0, #0
 344 012a 4DD1     		bne	.L32
 381:Middlewares/ST/filex/common/src/fx_directory_rename.c **** 
 345              		.loc 1 381 5 is_stmt 1 view .LVU122
 381:Middlewares/ST/filex/common/src/fx_directory_rename.c **** 
 346              		.loc 1 381 15 is_stmt 0 view .LVU123
 347 012c 20AA     		add	r2, sp, #128
 348 012e 04A9     		add	r1, sp, #16
 349 0130 2846     		mov	r0, r5
 350 0132 FFF7FEFF 		bl	_fx_directory_free_search
 351              	.LVL40:
 384:Middlewares/ST/filex/common/src/fx_directory_rename.c ****     {
 352              		.loc 1 384 5 is_stmt 1 view .LVU124
 384:Middlewares/ST/filex/common/src/fx_directory_rename.c ****     {
 353              		.loc 1 384 8 is_stmt 0 view .LVU125
 354 0136 8046     		mov	r8, r0
 355 0138 0028     		cmp	r0, #0
 356 013a 4BD1     		bne	.L33
 399:Middlewares/ST/filex/common/src/fx_directory_rename.c **** 
 357              		.loc 1 399 5 is_stmt 1 view .LVU126
 358 013c 2099     		ldr	r1, [sp, #128]
 359 013e 0398     		ldr	r0, [sp, #12]
 360              	.LVL41:
 399:Middlewares/ST/filex/common/src/fx_directory_rename.c **** 
 361              		.loc 1 399 5 is_stmt 0 view .LVU127
 362 0140 FFF7FEFF 		bl	_fx_directory_name_extract
 363              	.LVL42:
 402:Middlewares/ST/filex/common/src/fx_directory_rename.c ****     {
ARM GAS  C:\Users\HP\AppData\Local\Temp\ccyw7Q3t.s 			page 18


 364              		.loc 1 402 5 is_stmt 1 view .LVU128
 402:Middlewares/ST/filex/common/src/fx_directory_rename.c ****     {
 365              		.loc 1 402 22 is_stmt 0 view .LVU129
 366 0144 259B     		ldr	r3, [sp, #148]
 402:Middlewares/ST/filex/common/src/fx_directory_rename.c ****     {
 367              		.loc 1 402 8 view .LVU130
 368 0146 13B1     		cbz	r3, .L18
 406:Middlewares/ST/filex/common/src/fx_directory_rename.c ****     }
 369              		.loc 1 406 9 is_stmt 1 view .LVU131
 406:Middlewares/ST/filex/common/src/fx_directory_rename.c ****     }
 370              		.loc 1 406 50 is_stmt 0 view .LVU132
 371 0148 0023     		movs	r3, #0
 372 014a 8DF88430 		strb	r3, [sp, #132]
 373              	.L18:
 410:Middlewares/ST/filex/common/src/fx_directory_rename.c ****     new_dir_entry.fx_dir_entry_cluster    = old_dir_entry.fx_dir_entry_cluster;
 374              		.loc 1 410 5 is_stmt 1 view .LVU133
 410:Middlewares/ST/filex/common/src/fx_directory_rename.c ****     new_dir_entry.fx_dir_entry_cluster    = old_dir_entry.fx_dir_entry_cluster;
 375              		.loc 1 410 58 is_stmt 0 view .LVU134
 376 014e 9DF80C31 		ldrb	r3, [sp, #268]	@ zero_extendqisi2
 410:Middlewares/ST/filex/common/src/fx_directory_rename.c ****     new_dir_entry.fx_dir_entry_cluster    = old_dir_entry.fx_dir_entry_cluster;
 377              		.loc 1 410 43 view .LVU135
 378 0152 8DF89C30 		strb	r3, [sp, #156]
 411:Middlewares/ST/filex/common/src/fx_directory_rename.c ****     new_dir_entry.fx_dir_entry_file_size  = old_dir_entry.fx_dir_entry_file_size;
 379              		.loc 1 411 5 is_stmt 1 view .LVU136
 411:Middlewares/ST/filex/common/src/fx_directory_rename.c ****     new_dir_entry.fx_dir_entry_file_size  = old_dir_entry.fx_dir_entry_file_size;
 380              		.loc 1 411 58 is_stmt 0 view .LVU137
 381 0156 499A     		ldr	r2, [sp, #292]
 411:Middlewares/ST/filex/common/src/fx_directory_rename.c ****     new_dir_entry.fx_dir_entry_file_size  = old_dir_entry.fx_dir_entry_file_size;
 382              		.loc 1 411 43 view .LVU138
 383 0158 2D92     		str	r2, [sp, #180]
 412:Middlewares/ST/filex/common/src/fx_directory_rename.c **** 
 384              		.loc 1 412 5 is_stmt 1 view .LVU139
 412:Middlewares/ST/filex/common/src/fx_directory_rename.c **** 
 385              		.loc 1 412 58 is_stmt 0 view .LVU140
 386 015a DDE94A01 		ldrd	r0, [sp, #296]
 412:Middlewares/ST/filex/common/src/fx_directory_rename.c **** 
 387              		.loc 1 412 43 view .LVU141
 388 015e CDE92E01 		strd	r0, [sp, #184]
 415:Middlewares/ST/filex/common/src/fx_directory_rename.c **** 
 389              		.loc 1 415 5 is_stmt 1 view .LVU142
 415:Middlewares/ST/filex/common/src/fx_directory_rename.c **** 
 390              		.loc 1 415 67 is_stmt 0 view .LVU143
 391 0162 9DF80D21 		ldrb	r2, [sp, #269]	@ zero_extendqisi2
 415:Middlewares/ST/filex/common/src/fx_directory_rename.c **** 
 392              		.loc 1 415 41 view .LVU144
 393 0166 8DF89D20 		strb	r2, [sp, #157]
 418:Middlewares/ST/filex/common/src/fx_directory_rename.c ****     new_dir_entry.fx_dir_entry_created_time =        old_dir_entry.fx_dir_entry_created_time;
 394              		.loc 1 418 5 is_stmt 1 view .LVU145
 418:Middlewares/ST/filex/common/src/fx_directory_rename.c ****     new_dir_entry.fx_dir_entry_created_time =        old_dir_entry.fx_dir_entry_created_time;
 395              		.loc 1 418 67 is_stmt 0 view .LVU146
 396 016a 9DF80E21 		ldrb	r2, [sp, #270]	@ zero_extendqisi2
 418:Middlewares/ST/filex/common/src/fx_directory_rename.c ****     new_dir_entry.fx_dir_entry_created_time =        old_dir_entry.fx_dir_entry_created_time;
 397              		.loc 1 418 48 view .LVU147
 398 016e 8DF89E20 		strb	r2, [sp, #158]
 419:Middlewares/ST/filex/common/src/fx_directory_rename.c ****     new_dir_entry.fx_dir_entry_created_date =        old_dir_entry.fx_dir_entry_created_date;
 399              		.loc 1 419 5 is_stmt 1 view .LVU148
 419:Middlewares/ST/filex/common/src/fx_directory_rename.c ****     new_dir_entry.fx_dir_entry_created_date =        old_dir_entry.fx_dir_entry_created_date;
ARM GAS  C:\Users\HP\AppData\Local\Temp\ccyw7Q3t.s 			page 19


 400              		.loc 1 419 67 is_stmt 0 view .LVU149
 401 0172 449A     		ldr	r2, [sp, #272]
 419:Middlewares/ST/filex/common/src/fx_directory_rename.c ****     new_dir_entry.fx_dir_entry_created_date =        old_dir_entry.fx_dir_entry_created_date;
 402              		.loc 1 419 45 view .LVU150
 403 0174 2892     		str	r2, [sp, #160]
 420:Middlewares/ST/filex/common/src/fx_directory_rename.c ****     new_dir_entry.fx_dir_entry_last_accessed_date =  old_dir_entry.fx_dir_entry_last_accessed_date;
 404              		.loc 1 420 5 is_stmt 1 view .LVU151
 420:Middlewares/ST/filex/common/src/fx_directory_rename.c ****     new_dir_entry.fx_dir_entry_last_accessed_date =  old_dir_entry.fx_dir_entry_last_accessed_date;
 405              		.loc 1 420 67 is_stmt 0 view .LVU152
 406 0176 459A     		ldr	r2, [sp, #276]
 420:Middlewares/ST/filex/common/src/fx_directory_rename.c ****     new_dir_entry.fx_dir_entry_last_accessed_date =  old_dir_entry.fx_dir_entry_last_accessed_date;
 407              		.loc 1 420 45 view .LVU153
 408 0178 2992     		str	r2, [sp, #164]
 421:Middlewares/ST/filex/common/src/fx_directory_rename.c ****     new_dir_entry.fx_dir_entry_time =                old_dir_entry.fx_dir_entry_time;
 409              		.loc 1 421 5 is_stmt 1 view .LVU154
 421:Middlewares/ST/filex/common/src/fx_directory_rename.c ****     new_dir_entry.fx_dir_entry_time =                old_dir_entry.fx_dir_entry_time;
 410              		.loc 1 421 67 is_stmt 0 view .LVU155
 411 017a 469A     		ldr	r2, [sp, #280]
 421:Middlewares/ST/filex/common/src/fx_directory_rename.c ****     new_dir_entry.fx_dir_entry_time =                old_dir_entry.fx_dir_entry_time;
 412              		.loc 1 421 51 view .LVU156
 413 017c 2A92     		str	r2, [sp, #168]
 422:Middlewares/ST/filex/common/src/fx_directory_rename.c ****     new_dir_entry.fx_dir_entry_date =                old_dir_entry.fx_dir_entry_date;
 414              		.loc 1 422 5 is_stmt 1 view .LVU157
 422:Middlewares/ST/filex/common/src/fx_directory_rename.c ****     new_dir_entry.fx_dir_entry_date =                old_dir_entry.fx_dir_entry_date;
 415              		.loc 1 422 67 is_stmt 0 view .LVU158
 416 017e 479A     		ldr	r2, [sp, #284]
 422:Middlewares/ST/filex/common/src/fx_directory_rename.c ****     new_dir_entry.fx_dir_entry_date =                old_dir_entry.fx_dir_entry_date;
 417              		.loc 1 422 37 view .LVU159
 418 0180 2B92     		str	r2, [sp, #172]
 423:Middlewares/ST/filex/common/src/fx_directory_rename.c **** 
 419              		.loc 1 423 5 is_stmt 1 view .LVU160
 423:Middlewares/ST/filex/common/src/fx_directory_rename.c **** 
 420              		.loc 1 423 67 is_stmt 0 view .LVU161
 421 0182 489A     		ldr	r2, [sp, #288]
 423:Middlewares/ST/filex/common/src/fx_directory_rename.c **** 
 422              		.loc 1 423 37 view .LVU162
 423 0184 2C92     		str	r2, [sp, #176]
 437:Middlewares/ST/filex/common/src/fx_directory_rename.c ****     {
 424              		.loc 1 437 5 is_stmt 1 view .LVU163
 437:Middlewares/ST/filex/common/src/fx_directory_rename.c ****     {
 425              		.loc 1 437 22 is_stmt 0 view .LVU164
 426 0186 209A     		ldr	r2, [sp, #128]
 437:Middlewares/ST/filex/common/src/fx_directory_rename.c ****     {
 427              		.loc 1 437 40 view .LVU165
 428 0188 1278     		ldrb	r2, [r2]	@ zero_extendqisi2
 437:Middlewares/ST/filex/common/src/fx_directory_rename.c ****     {
 429              		.loc 1 437 8 view .LVU166
 430 018a 2E2A     		cmp	r2, #46
 431 018c 26D0     		beq	.L34
 432              	.L19:
 447:Middlewares/ST/filex/common/src/fx_directory_rename.c **** #endif
 433              		.loc 1 447 5 is_stmt 1 view .LVU167
 447:Middlewares/ST/filex/common/src/fx_directory_rename.c **** #endif
 434              		.loc 1 447 46 is_stmt 0 view .LVU168
 435 018e 0023     		movs	r3, #0
 436 0190 85F8E033 		strb	r3, [r5, #992]
 460:Middlewares/ST/filex/common/src/fx_directory_rename.c **** #ifdef FX_ENABLE_EXFAT
ARM GAS  C:\Users\HP\AppData\Local\Temp\ccyw7Q3t.s 			page 20


 437              		.loc 1 460 9 is_stmt 1 view .LVU169
 460:Middlewares/ST/filex/common/src/fx_directory_rename.c **** #ifdef FX_ENABLE_EXFAT
 438              		.loc 1 460 19 is_stmt 0 view .LVU170
 439 0194 20A9     		add	r1, sp, #128
 440 0196 2846     		mov	r0, r5
 441 0198 FFF7FEFF 		bl	_fx_directory_entry_write
 442              	.LVL43:
 466:Middlewares/ST/filex/common/src/fx_directory_rename.c ****     {
 443              		.loc 1 466 5 is_stmt 1 view .LVU171
 466:Middlewares/ST/filex/common/src/fx_directory_rename.c ****     {
 444              		.loc 1 466 8 is_stmt 0 view .LVU172
 445 019c 8046     		mov	r8, r0
 446 019e 10BB     		cbnz	r0, .L35
 481:Middlewares/ST/filex/common/src/fx_directory_rename.c ****     old_dir_entry.fx_dir_entry_short_name[0] =  (CHAR)FX_DIR_ENTRY_FREE;
 447              		.loc 1 481 5 is_stmt 1 view .LVU173
 481:Middlewares/ST/filex/common/src/fx_directory_rename.c ****     old_dir_entry.fx_dir_entry_short_name[0] =  (CHAR)FX_DIR_ENTRY_FREE;
 448              		.loc 1 481 40 is_stmt 0 view .LVU174
 449 01a0 E523     		movs	r3, #229
 450 01a2 3C9A     		ldr	r2, [sp, #240]
 451 01a4 1370     		strb	r3, [r2]
 482:Middlewares/ST/filex/common/src/fx_directory_rename.c **** 
 452              		.loc 1 482 5 is_stmt 1 view .LVU175
 482:Middlewares/ST/filex/common/src/fx_directory_rename.c **** 
 453              		.loc 1 482 46 is_stmt 0 view .LVU176
 454 01a6 8DF8F430 		strb	r3, [sp, #244]
 494:Middlewares/ST/filex/common/src/fx_directory_rename.c **** #ifdef FX_ENABLE_EXFAT
 455              		.loc 1 494 9 is_stmt 1 view .LVU177
 494:Middlewares/ST/filex/common/src/fx_directory_rename.c **** #ifdef FX_ENABLE_EXFAT
 456              		.loc 1 494 19 is_stmt 0 view .LVU178
 457 01aa 3CA9     		add	r1, sp, #240
 458 01ac 2846     		mov	r0, r5
 459              	.LVL44:
 494:Middlewares/ST/filex/common/src/fx_directory_rename.c **** #ifdef FX_ENABLE_EXFAT
 460              		.loc 1 494 19 view .LVU179
 461 01ae FFF7FEFF 		bl	_fx_directory_entry_write
 462              	.LVL45:
 463 01b2 8046     		mov	r8, r0
 464              	.LVL46:
 518:Middlewares/ST/filex/common/src/fx_directory_rename.c **** 
 465              		.loc 1 518 5 is_stmt 1 view .LVU180
 466 01b4 2046     		mov	r0, r4
 467              	.LVL47:
 518:Middlewares/ST/filex/common/src/fx_directory_rename.c **** 
 468              		.loc 1 518 5 is_stmt 0 view .LVU181
 469 01b6 FFF7FEFF 		bl	_tx_mutex_put
 470              	.LVL48:
 521:Middlewares/ST/filex/common/src/fx_directory_rename.c **** }
 471              		.loc 1 521 5 is_stmt 1 view .LVU182
 521:Middlewares/ST/filex/common/src/fx_directory_rename.c **** }
 472              		.loc 1 521 11 is_stmt 0 view .LVU183
 473 01ba 5DE7     		b	.L1
 474              	.LVL49:
 475              	.L31:
 358:Middlewares/ST/filex/common/src/fx_directory_rename.c **** 
 476              		.loc 1 358 13 is_stmt 1 view .LVU184
 477 01bc 2046     		mov	r0, r4
 478 01be FFF7FEFF 		bl	_tx_mutex_put
ARM GAS  C:\Users\HP\AppData\Local\Temp\ccyw7Q3t.s 			page 21


 479              	.LVL50:
 361:Middlewares/ST/filex/common/src/fx_directory_rename.c ****         }
 480              		.loc 1 361 13 view .LVU185
 361:Middlewares/ST/filex/common/src/fx_directory_rename.c ****         }
 481              		.loc 1 361 19 is_stmt 0 view .LVU186
 482 01c2 4FF00B08 		mov	r8, #11
 483 01c6 57E7     		b	.L1
 484              	.L32:
 374:Middlewares/ST/filex/common/src/fx_directory_rename.c **** 
 485              		.loc 1 374 9 is_stmt 1 view .LVU187
 486 01c8 2046     		mov	r0, r4
 487 01ca FFF7FEFF 		bl	_tx_mutex_put
 488              	.LVL51:
 377:Middlewares/ST/filex/common/src/fx_directory_rename.c ****     }
 489              		.loc 1 377 9 view .LVU188
 377:Middlewares/ST/filex/common/src/fx_directory_rename.c ****     }
 490              		.loc 1 377 15 is_stmt 0 view .LVU189
 491 01ce 4FF00C08 		mov	r8, #12
 492 01d2 51E7     		b	.L1
 493              	.LVL52:
 494              	.L33:
 392:Middlewares/ST/filex/common/src/fx_directory_rename.c **** 
 495              		.loc 1 392 9 is_stmt 1 view .LVU190
 496 01d4 2046     		mov	r0, r4
 497              	.LVL53:
 392:Middlewares/ST/filex/common/src/fx_directory_rename.c **** 
 498              		.loc 1 392 9 is_stmt 0 view .LVU191
 499 01d6 FFF7FEFF 		bl	_tx_mutex_put
 500              	.LVL54:
 395:Middlewares/ST/filex/common/src/fx_directory_rename.c ****     }
 501              		.loc 1 395 9 is_stmt 1 view .LVU192
 395:Middlewares/ST/filex/common/src/fx_directory_rename.c ****     }
 502              		.loc 1 395 15 is_stmt 0 view .LVU193
 503 01da 4DE7     		b	.L1
 504              	.L34:
 441:Middlewares/ST/filex/common/src/fx_directory_rename.c ****     }
 505              		.loc 1 441 9 is_stmt 1 view .LVU194
 441:Middlewares/ST/filex/common/src/fx_directory_rename.c ****     }
 506              		.loc 1 441 47 is_stmt 0 view .LVU195
 507 01dc 43F00203 		orr	r3, r3, #2
 508 01e0 8DF89C30 		strb	r3, [sp, #156]
 509 01e4 D3E7     		b	.L19
 510              	.LVL55:
 511              	.L35:
 474:Middlewares/ST/filex/common/src/fx_directory_rename.c **** 
 512              		.loc 1 474 9 is_stmt 1 view .LVU196
 513 01e6 2046     		mov	r0, r4
 514              	.LVL56:
 474:Middlewares/ST/filex/common/src/fx_directory_rename.c **** 
 515              		.loc 1 474 9 is_stmt 0 view .LVU197
 516 01e8 FFF7FEFF 		bl	_tx_mutex_put
 517              	.LVL57:
 477:Middlewares/ST/filex/common/src/fx_directory_rename.c ****     }
 518              		.loc 1 477 9 is_stmt 1 view .LVU198
 477:Middlewares/ST/filex/common/src/fx_directory_rename.c ****     }
 519              		.loc 1 477 15 is_stmt 0 view .LVU199
 520 01ec 44E7     		b	.L1
ARM GAS  C:\Users\HP\AppData\Local\Temp\ccyw7Q3t.s 			page 22


 521              	.LVL58:
 522              	.L23:
 157:Middlewares/ST/filex/common/src/fx_directory_rename.c ****     }
 523              		.loc 1 157 15 view .LVU200
 524 01ee 4FF00C08 		mov	r8, #12
 525 01f2 41E7     		b	.L1
 526              	.LVL59:
 527              	.L25:
 172:Middlewares/ST/filex/common/src/fx_directory_rename.c **** 
 528              		.loc 1 172 5 view .LVU201
 529 01f4 4FF01108 		mov	r8, #17
 530 01f8 3EE7     		b	.L1
 531              	.L37:
 532 01fa 00BF     		.align	2
 533              	.L36:
 534 01fc 4944454D 		.word	1296385097
 535              		.cfi_endproc
 536              	.LFE8:
 538              		.text
 539              	.Letext0:
 540              		.file 2 "Middlewares/ST/threadx/ports/cortex_m4/gnu/inc/tx_port.h"
 541              		.file 3 "Middlewares/ST/threadx/common/inc/tx_api.h"
 542              		.file 4 "Middlewares/ST/filex/common/inc/fx_api.h"
 543              		.file 5 "Middlewares/ST/filex/common/inc/fx_directory.h"
ARM GAS  C:\Users\HP\AppData\Local\Temp\ccyw7Q3t.s 			page 23

