ARM GAS  C:\Users\HP\AppData\Local\Temp\cckqOOOV.s 			page 1


   1              		.cpu cortex-m4
   2              		.arch armv7e-m
   3              		.fpu fpv4-sp-d16
   4              		.eabi_attribute 27, 1
   5              		.eabi_attribute 28, 1
   6              		.eabi_attribute 20, 1
   7              		.eabi_attribute 21, 1
   8              		.eabi_attribute 23, 3
   9              		.eabi_attribute 24, 1
  10              		.eabi_attribute 25, 1
  11              		.eabi_attribute 26, 1
  12              		.eabi_attribute 30, 1
  13              		.eabi_attribute 34, 1
  14              		.eabi_attribute 18, 4
  15              		.file	"fx_directory_long_name_get_extended.c"
  16              		.text
  17              	.Ltext0:
  18              		.cfi_sections	.debug_frame
  19              		.section	.text._fx_directory_long_name_get_extended,"ax",%progbits
  20              		.align	1
  21              		.global	_fx_directory_long_name_get_extended
  22              		.syntax unified
  23              		.thumb
  24              		.thumb_func
  26              	_fx_directory_long_name_get_extended:
  27              	.LVL0:
  28              	.LFB8:
  29              		.file 1 "Middlewares/ST/filex/common/src/fx_directory_long_name_get_extended.c"
   1:Middlewares/ST/filex/common/src/fx_directory_long_name_get_extended.c **** /**************************************************************************/
   2:Middlewares/ST/filex/common/src/fx_directory_long_name_get_extended.c **** /*                                                                        */
   3:Middlewares/ST/filex/common/src/fx_directory_long_name_get_extended.c **** /*       Copyright (c) Microsoft Corporation. All rights reserved.        */
   4:Middlewares/ST/filex/common/src/fx_directory_long_name_get_extended.c **** /*                                                                        */
   5:Middlewares/ST/filex/common/src/fx_directory_long_name_get_extended.c **** /*       This software is licensed under the Microsoft Software License   */
   6:Middlewares/ST/filex/common/src/fx_directory_long_name_get_extended.c **** /*       Terms for Microsoft Azure RTOS. Full text of the license can be  */
   7:Middlewares/ST/filex/common/src/fx_directory_long_name_get_extended.c **** /*       found in the LICENSE file at https://aka.ms/AzureRTOS_EULA       */
   8:Middlewares/ST/filex/common/src/fx_directory_long_name_get_extended.c **** /*       and in the root directory of this software.                      */
   9:Middlewares/ST/filex/common/src/fx_directory_long_name_get_extended.c **** /*                                                                        */
  10:Middlewares/ST/filex/common/src/fx_directory_long_name_get_extended.c **** /**************************************************************************/
  11:Middlewares/ST/filex/common/src/fx_directory_long_name_get_extended.c **** 
  12:Middlewares/ST/filex/common/src/fx_directory_long_name_get_extended.c **** 
  13:Middlewares/ST/filex/common/src/fx_directory_long_name_get_extended.c **** /**************************************************************************/
  14:Middlewares/ST/filex/common/src/fx_directory_long_name_get_extended.c **** /**************************************************************************/
  15:Middlewares/ST/filex/common/src/fx_directory_long_name_get_extended.c **** /**                                                                       */
  16:Middlewares/ST/filex/common/src/fx_directory_long_name_get_extended.c **** /** FileX Component                                                       */
  17:Middlewares/ST/filex/common/src/fx_directory_long_name_get_extended.c **** /**                                                                       */
  18:Middlewares/ST/filex/common/src/fx_directory_long_name_get_extended.c **** /**   Directory                                                           */
  19:Middlewares/ST/filex/common/src/fx_directory_long_name_get_extended.c **** /**                                                                       */
  20:Middlewares/ST/filex/common/src/fx_directory_long_name_get_extended.c **** /**************************************************************************/
  21:Middlewares/ST/filex/common/src/fx_directory_long_name_get_extended.c **** /**************************************************************************/
  22:Middlewares/ST/filex/common/src/fx_directory_long_name_get_extended.c **** 
  23:Middlewares/ST/filex/common/src/fx_directory_long_name_get_extended.c **** #define FX_SOURCE_CODE
  24:Middlewares/ST/filex/common/src/fx_directory_long_name_get_extended.c **** 
  25:Middlewares/ST/filex/common/src/fx_directory_long_name_get_extended.c **** 
  26:Middlewares/ST/filex/common/src/fx_directory_long_name_get_extended.c **** /* Include necessary system files.  */
  27:Middlewares/ST/filex/common/src/fx_directory_long_name_get_extended.c **** 
  28:Middlewares/ST/filex/common/src/fx_directory_long_name_get_extended.c **** #include "fx_api.h"
  29:Middlewares/ST/filex/common/src/fx_directory_long_name_get_extended.c **** #include "fx_directory.h"
ARM GAS  C:\Users\HP\AppData\Local\Temp\cckqOOOV.s 			page 2


  30:Middlewares/ST/filex/common/src/fx_directory_long_name_get_extended.c **** 
  31:Middlewares/ST/filex/common/src/fx_directory_long_name_get_extended.c **** 
  32:Middlewares/ST/filex/common/src/fx_directory_long_name_get_extended.c **** /**************************************************************************/
  33:Middlewares/ST/filex/common/src/fx_directory_long_name_get_extended.c **** /*                                                                        */
  34:Middlewares/ST/filex/common/src/fx_directory_long_name_get_extended.c **** /*  FUNCTION                                               RELEASE        */
  35:Middlewares/ST/filex/common/src/fx_directory_long_name_get_extended.c **** /*                                                                        */
  36:Middlewares/ST/filex/common/src/fx_directory_long_name_get_extended.c **** /*    _fx_directory_long_name_get_extended                PORTABLE C      */
  37:Middlewares/ST/filex/common/src/fx_directory_long_name_get_extended.c **** /*                                                           6.1          */
  38:Middlewares/ST/filex/common/src/fx_directory_long_name_get_extended.c **** /*  AUTHOR                                                                */
  39:Middlewares/ST/filex/common/src/fx_directory_long_name_get_extended.c **** /*                                                                        */
  40:Middlewares/ST/filex/common/src/fx_directory_long_name_get_extended.c **** /*    William E. Lamie, Microsoft Corporation                             */
  41:Middlewares/ST/filex/common/src/fx_directory_long_name_get_extended.c **** /*                                                                        */
  42:Middlewares/ST/filex/common/src/fx_directory_long_name_get_extended.c **** /*  DESCRIPTION                                                           */
  43:Middlewares/ST/filex/common/src/fx_directory_long_name_get_extended.c **** /*                                                                        */
  44:Middlewares/ST/filex/common/src/fx_directory_long_name_get_extended.c **** /*    This function gets the long file name via the supplied short file   */
  45:Middlewares/ST/filex/common/src/fx_directory_long_name_get_extended.c **** /*    name. If there is no long file name, the short file name will be    */
  46:Middlewares/ST/filex/common/src/fx_directory_long_name_get_extended.c **** /*    returned.                                                           */
  47:Middlewares/ST/filex/common/src/fx_directory_long_name_get_extended.c **** /*                                                                        */
  48:Middlewares/ST/filex/common/src/fx_directory_long_name_get_extended.c **** /*  INPUT                                                                 */
  49:Middlewares/ST/filex/common/src/fx_directory_long_name_get_extended.c **** /*                                                                        */
  50:Middlewares/ST/filex/common/src/fx_directory_long_name_get_extended.c **** /*    media_ptr                             Media control block pointer   */
  51:Middlewares/ST/filex/common/src/fx_directory_long_name_get_extended.c **** /*    short_file_name                       Pointer to short (8.3) name   */
  52:Middlewares/ST/filex/common/src/fx_directory_long_name_get_extended.c **** /*    long_file_name                        Pointer to long (max 255) name*/
  53:Middlewares/ST/filex/common/src/fx_directory_long_name_get_extended.c **** /*    long_file_name_buffer_length          Buffer length for long name   */
  54:Middlewares/ST/filex/common/src/fx_directory_long_name_get_extended.c **** /*                                                                        */
  55:Middlewares/ST/filex/common/src/fx_directory_long_name_get_extended.c **** /*  OUTPUT                                                                */
  56:Middlewares/ST/filex/common/src/fx_directory_long_name_get_extended.c **** /*                                                                        */
  57:Middlewares/ST/filex/common/src/fx_directory_long_name_get_extended.c **** /*    return status                                                       */
  58:Middlewares/ST/filex/common/src/fx_directory_long_name_get_extended.c **** /*                                                                        */
  59:Middlewares/ST/filex/common/src/fx_directory_long_name_get_extended.c **** /*  CALLS                                                                 */
  60:Middlewares/ST/filex/common/src/fx_directory_long_name_get_extended.c **** /*                                                                        */
  61:Middlewares/ST/filex/common/src/fx_directory_long_name_get_extended.c **** /*    _fx_directory_search                  Search for the file name in   */
  62:Middlewares/ST/filex/common/src/fx_directory_long_name_get_extended.c **** /*                                                                        */
  63:Middlewares/ST/filex/common/src/fx_directory_long_name_get_extended.c **** /*  CALLED BY                                                             */
  64:Middlewares/ST/filex/common/src/fx_directory_long_name_get_extended.c **** /*                                                                        */
  65:Middlewares/ST/filex/common/src/fx_directory_long_name_get_extended.c **** /*    Application Code                                                    */
  66:Middlewares/ST/filex/common/src/fx_directory_long_name_get_extended.c **** /*                                                                        */
  67:Middlewares/ST/filex/common/src/fx_directory_long_name_get_extended.c **** /*  RELEASE HISTORY                                                       */
  68:Middlewares/ST/filex/common/src/fx_directory_long_name_get_extended.c **** /*                                                                        */
  69:Middlewares/ST/filex/common/src/fx_directory_long_name_get_extended.c **** /*    DATE              NAME                      DESCRIPTION             */
  70:Middlewares/ST/filex/common/src/fx_directory_long_name_get_extended.c **** /*                                                                        */
  71:Middlewares/ST/filex/common/src/fx_directory_long_name_get_extended.c **** /*  05-19-2020     William E. Lamie         Initial Version 6.0           */
  72:Middlewares/ST/filex/common/src/fx_directory_long_name_get_extended.c **** /*  09-30-2020     William E. Lamie         Modified comment(s),          */
  73:Middlewares/ST/filex/common/src/fx_directory_long_name_get_extended.c **** /*                                            resulting in version 6.1    */
  74:Middlewares/ST/filex/common/src/fx_directory_long_name_get_extended.c **** /*                                                                        */
  75:Middlewares/ST/filex/common/src/fx_directory_long_name_get_extended.c **** /**************************************************************************/
  76:Middlewares/ST/filex/common/src/fx_directory_long_name_get_extended.c **** UINT  _fx_directory_long_name_get_extended(FX_MEDIA *media_ptr, CHAR *short_file_name, CHAR *long_f
  77:Middlewares/ST/filex/common/src/fx_directory_long_name_get_extended.c **** {
  30              		.loc 1 77 1 view -0
  31              		.cfi_startproc
  32              		@ args = 0, pretend = 0, frame = 112
  33              		@ frame_needed = 0, uses_anonymous_args = 0
  34              		.loc 1 77 1 is_stmt 0 view .LVU1
  35 0000 2DE9F041 		push	{r4, r5, r6, r7, r8, lr}
  36              	.LCFI0:
  37              		.cfi_def_cfa_offset 24
  38              		.cfi_offset 4, -24
ARM GAS  C:\Users\HP\AppData\Local\Temp\cckqOOOV.s 			page 3


  39              		.cfi_offset 5, -20
  40              		.cfi_offset 6, -16
  41              		.cfi_offset 7, -12
  42              		.cfi_offset 8, -8
  43              		.cfi_offset 14, -4
  44 0004 9EB0     		sub	sp, sp, #120
  45              	.LCFI1:
  46              		.cfi_def_cfa_offset 144
  47 0006 1546     		mov	r5, r2
  48 0008 1C46     		mov	r4, r3
  78:Middlewares/ST/filex/common/src/fx_directory_long_name_get_extended.c **** 
  79:Middlewares/ST/filex/common/src/fx_directory_long_name_get_extended.c **** UINT         status;
  49              		.loc 1 79 1 is_stmt 1 view .LVU2
  80:Middlewares/ST/filex/common/src/fx_directory_long_name_get_extended.c **** UINT         i;
  50              		.loc 1 80 1 view .LVU3
  81:Middlewares/ST/filex/common/src/fx_directory_long_name_get_extended.c **** FX_DIR_ENTRY dir_entry;
  51              		.loc 1 81 1 view .LVU4
  82:Middlewares/ST/filex/common/src/fx_directory_long_name_get_extended.c **** 
  83:Middlewares/ST/filex/common/src/fx_directory_long_name_get_extended.c **** 
  84:Middlewares/ST/filex/common/src/fx_directory_long_name_get_extended.c ****     /* Setup pointer to media name buffer.  */
  85:Middlewares/ST/filex/common/src/fx_directory_long_name_get_extended.c ****     dir_entry.fx_dir_entry_name =  media_ptr -> fx_media_name_buffer + FX_MAX_LONG_NAME_LEN;
  52              		.loc 1 85 5 view .LVU5
  53              		.loc 1 85 70 is_stmt 0 view .LVU6
  54 000a 00F69C13 		addw	r3, r0, #2460
  55              	.LVL1:
  56              		.loc 1 85 33 view .LVU7
  57 000e 0293     		str	r3, [sp, #8]
  86:Middlewares/ST/filex/common/src/fx_directory_long_name_get_extended.c **** 
  87:Middlewares/ST/filex/common/src/fx_directory_long_name_get_extended.c ****     /* Clear the short name string.  */
  88:Middlewares/ST/filex/common/src/fx_directory_long_name_get_extended.c ****     dir_entry.fx_dir_entry_short_name[0] =  0;
  58              		.loc 1 88 5 is_stmt 1 view .LVU8
  59              		.loc 1 88 42 is_stmt 0 view .LVU9
  60 0010 0023     		movs	r3, #0
  61 0012 8DF80C30 		strb	r3, [sp, #12]
  89:Middlewares/ST/filex/common/src/fx_directory_long_name_get_extended.c **** 
  90:Middlewares/ST/filex/common/src/fx_directory_long_name_get_extended.c ****     /* If trace is enabled, insert this event into the trace buffer.  */
  91:Middlewares/ST/filex/common/src/fx_directory_long_name_get_extended.c ****     FX_TRACE_IN_LINE_INSERT(FX_TRACE_DIRECTORY_LONG_NAME_GET, media_ptr, short_file_name, long_file
  92:Middlewares/ST/filex/common/src/fx_directory_long_name_get_extended.c **** 
  93:Middlewares/ST/filex/common/src/fx_directory_long_name_get_extended.c ****     /* Protect against other threads accessing the media.  */
  94:Middlewares/ST/filex/common/src/fx_directory_long_name_get_extended.c ****     FX_PROTECT
  62              		.loc 1 94 5 is_stmt 1 view .LVU10
  63 0016 0268     		ldr	r2, [r0]
  64              	.LVL2:
  65              		.loc 1 94 5 is_stmt 0 view .LVU11
  66 0018 1D4B     		ldr	r3, .L15
  67 001a 9A42     		cmp	r2, r3
  68 001c 04D0     		beq	.L12
  69 001e 1126     		movs	r6, #17
  70              	.LVL3:
  71              	.L1:
  95:Middlewares/ST/filex/common/src/fx_directory_long_name_get_extended.c **** 
  96:Middlewares/ST/filex/common/src/fx_directory_long_name_get_extended.c ****     /* Search the system for the supplied short directory name.  */
  97:Middlewares/ST/filex/common/src/fx_directory_long_name_get_extended.c ****     status =  _fx_directory_search(media_ptr, short_file_name, &dir_entry, FX_NULL, FX_NULL);
  98:Middlewares/ST/filex/common/src/fx_directory_long_name_get_extended.c **** 
  99:Middlewares/ST/filex/common/src/fx_directory_long_name_get_extended.c ****     /* Determine if the search was successful.  */
 100:Middlewares/ST/filex/common/src/fx_directory_long_name_get_extended.c ****     if (status != FX_SUCCESS)
 101:Middlewares/ST/filex/common/src/fx_directory_long_name_get_extended.c ****     {
ARM GAS  C:\Users\HP\AppData\Local\Temp\cckqOOOV.s 			page 4


 102:Middlewares/ST/filex/common/src/fx_directory_long_name_get_extended.c **** 
 103:Middlewares/ST/filex/common/src/fx_directory_long_name_get_extended.c ****         /* Release media protection.  */
 104:Middlewares/ST/filex/common/src/fx_directory_long_name_get_extended.c ****         FX_UNPROTECT
 105:Middlewares/ST/filex/common/src/fx_directory_long_name_get_extended.c **** 
 106:Middlewares/ST/filex/common/src/fx_directory_long_name_get_extended.c ****         /* Return the error code.  */
 107:Middlewares/ST/filex/common/src/fx_directory_long_name_get_extended.c ****         return(status);
 108:Middlewares/ST/filex/common/src/fx_directory_long_name_get_extended.c ****     }
 109:Middlewares/ST/filex/common/src/fx_directory_long_name_get_extended.c **** 
 110:Middlewares/ST/filex/common/src/fx_directory_long_name_get_extended.c ****     /* Copy the long name portion into the destination string.  */
 111:Middlewares/ST/filex/common/src/fx_directory_long_name_get_extended.c ****     i =  0;
 112:Middlewares/ST/filex/common/src/fx_directory_long_name_get_extended.c ****     while ((i < (FX_MAX_LONG_NAME_LEN - 1)) && (dir_entry.fx_dir_entry_name[i]) && (i < (long_file_
 113:Middlewares/ST/filex/common/src/fx_directory_long_name_get_extended.c ****     {
 114:Middlewares/ST/filex/common/src/fx_directory_long_name_get_extended.c **** 
 115:Middlewares/ST/filex/common/src/fx_directory_long_name_get_extended.c ****         /* Copy a character of the long name into the destination name.  */
 116:Middlewares/ST/filex/common/src/fx_directory_long_name_get_extended.c ****         long_file_name[i] =  dir_entry.fx_dir_entry_name[i];
 117:Middlewares/ST/filex/common/src/fx_directory_long_name_get_extended.c **** 
 118:Middlewares/ST/filex/common/src/fx_directory_long_name_get_extended.c ****         /* Move to next character.  */
 119:Middlewares/ST/filex/common/src/fx_directory_long_name_get_extended.c ****         i++;
 120:Middlewares/ST/filex/common/src/fx_directory_long_name_get_extended.c ****     }
 121:Middlewares/ST/filex/common/src/fx_directory_long_name_get_extended.c **** 
 122:Middlewares/ST/filex/common/src/fx_directory_long_name_get_extended.c ****     /* Ensure the long file name is NULL terminated.  */
 123:Middlewares/ST/filex/common/src/fx_directory_long_name_get_extended.c ****     long_file_name[i] =  FX_NULL;
 124:Middlewares/ST/filex/common/src/fx_directory_long_name_get_extended.c **** 
 125:Middlewares/ST/filex/common/src/fx_directory_long_name_get_extended.c ****     /* Check if the buffer is too short for the name.  */
 126:Middlewares/ST/filex/common/src/fx_directory_long_name_get_extended.c ****     if ((i == (long_file_name_buffer_length - 1)) && (dir_entry.fx_dir_entry_name[i]))
 127:Middlewares/ST/filex/common/src/fx_directory_long_name_get_extended.c ****     {
 128:Middlewares/ST/filex/common/src/fx_directory_long_name_get_extended.c **** 
 129:Middlewares/ST/filex/common/src/fx_directory_long_name_get_extended.c ****         /* Buffer too short, return error.  */
 130:Middlewares/ST/filex/common/src/fx_directory_long_name_get_extended.c ****         status = FX_BUFFER_ERROR;
 131:Middlewares/ST/filex/common/src/fx_directory_long_name_get_extended.c ****     }
 132:Middlewares/ST/filex/common/src/fx_directory_long_name_get_extended.c **** 
 133:Middlewares/ST/filex/common/src/fx_directory_long_name_get_extended.c ****     /* Release media protection.  */
 134:Middlewares/ST/filex/common/src/fx_directory_long_name_get_extended.c ****     FX_UNPROTECT
 135:Middlewares/ST/filex/common/src/fx_directory_long_name_get_extended.c **** 
 136:Middlewares/ST/filex/common/src/fx_directory_long_name_get_extended.c ****     /* Return the completion status.  */
 137:Middlewares/ST/filex/common/src/fx_directory_long_name_get_extended.c ****     return(status);
 138:Middlewares/ST/filex/common/src/fx_directory_long_name_get_extended.c **** }
  72              		.loc 1 138 1 view .LVU12
  73 0020 3046     		mov	r0, r6
  74 0022 1EB0     		add	sp, sp, #120
  75              	.LCFI2:
  76              		.cfi_remember_state
  77              		.cfi_def_cfa_offset 24
  78              		@ sp needed
  79 0024 BDE8F081 		pop	{r4, r5, r6, r7, r8, pc}
  80              	.LVL4:
  81              	.L12:
  82              	.LCFI3:
  83              		.cfi_restore_state
  84              		.loc 1 138 1 view .LVU13
  85 0028 0646     		mov	r6, r0
  86 002a 8846     		mov	r8, r1
  94:Middlewares/ST/filex/common/src/fx_directory_long_name_get_extended.c **** 
  87              		.loc 1 94 5 is_stmt 1 discriminator 2 view .LVU14
  88 002c 00F5E477 		add	r7, r0, #456
  89 0030 4FF0FF31 		mov	r1, #-1
  90              	.LVL5:
ARM GAS  C:\Users\HP\AppData\Local\Temp\cckqOOOV.s 			page 5


  94:Middlewares/ST/filex/common/src/fx_directory_long_name_get_extended.c **** 
  91              		.loc 1 94 5 is_stmt 0 discriminator 2 view .LVU15
  92 0034 3846     		mov	r0, r7
  93              	.LVL6:
  94:Middlewares/ST/filex/common/src/fx_directory_long_name_get_extended.c **** 
  94              		.loc 1 94 5 discriminator 2 view .LVU16
  95 0036 FFF7FEFF 		bl	_tx_mutex_get
  96              	.LVL7:
  97 003a 38BB     		cbnz	r0, .L8
  97:Middlewares/ST/filex/common/src/fx_directory_long_name_get_extended.c **** 
  98              		.loc 1 97 5 is_stmt 1 view .LVU17
  97:Middlewares/ST/filex/common/src/fx_directory_long_name_get_extended.c **** 
  99              		.loc 1 97 15 is_stmt 0 view .LVU18
 100 003c 0023     		movs	r3, #0
 101 003e 0093     		str	r3, [sp]
 102 0040 02AA     		add	r2, sp, #8
 103 0042 4146     		mov	r1, r8
 104 0044 3046     		mov	r0, r6
 105 0046 FFF7FEFF 		bl	_fx_directory_search
 106              	.LVL8:
 100:Middlewares/ST/filex/common/src/fx_directory_long_name_get_extended.c ****     {
 107              		.loc 1 100 5 is_stmt 1 view .LVU19
 100:Middlewares/ST/filex/common/src/fx_directory_long_name_get_extended.c ****     {
 108              		.loc 1 100 8 is_stmt 0 view .LVU20
 109 004a 0646     		mov	r6, r0
 110              	.LVL9:
 100:Middlewares/ST/filex/common/src/fx_directory_long_name_get_extended.c ****     {
 111              		.loc 1 100 8 view .LVU21
 112 004c 58B9     		cbnz	r0, .L13
 111:Middlewares/ST/filex/common/src/fx_directory_long_name_get_extended.c ****     while ((i < (FX_MAX_LONG_NAME_LEN - 1)) && (dir_entry.fx_dir_entry_name[i]) && (i < (long_file_
 113              		.loc 1 111 7 view .LVU22
 114 004e 0146     		mov	r1, r0
 115              	.LVL10:
 116              	.L3:
 112:Middlewares/ST/filex/common/src/fx_directory_long_name_get_extended.c ****     {
 117              		.loc 1 112 11 is_stmt 1 view .LVU23
 118 0050 FE29     		cmp	r1, #254
 119 0052 0CD8     		bhi	.L4
 112:Middlewares/ST/filex/common/src/fx_directory_long_name_get_extended.c ****     {
 120              		.loc 1 112 58 is_stmt 0 discriminator 1 view .LVU24
 121 0054 029B     		ldr	r3, [sp, #8]
 112:Middlewares/ST/filex/common/src/fx_directory_long_name_get_extended.c ****     {
 122              		.loc 1 112 76 discriminator 1 view .LVU25
 123 0056 585C     		ldrb	r0, [r3, r1]	@ zero_extendqisi2
 112:Middlewares/ST/filex/common/src/fx_directory_long_name_get_extended.c ****     {
 124              		.loc 1 112 45 discriminator 1 view .LVU26
 125 0058 48B1     		cbz	r0, .L4
 112:Middlewares/ST/filex/common/src/fx_directory_long_name_get_extended.c ****     {
 126              		.loc 1 112 119 discriminator 2 view .LVU27
 127 005a 631E     		subs	r3, r4, #1
 112:Middlewares/ST/filex/common/src/fx_directory_long_name_get_extended.c ****     {
 128              		.loc 1 112 81 discriminator 2 view .LVU28
 129 005c 8B42     		cmp	r3, r1
 130 005e 06D9     		bls	.L4
 116:Middlewares/ST/filex/common/src/fx_directory_long_name_get_extended.c **** 
 131              		.loc 1 116 9 is_stmt 1 view .LVU29
 116:Middlewares/ST/filex/common/src/fx_directory_long_name_get_extended.c **** 
ARM GAS  C:\Users\HP\AppData\Local\Temp\cckqOOOV.s 			page 6


 132              		.loc 1 116 27 is_stmt 0 view .LVU30
 133 0060 6854     		strb	r0, [r5, r1]
 119:Middlewares/ST/filex/common/src/fx_directory_long_name_get_extended.c ****     }
 134              		.loc 1 119 9 is_stmt 1 view .LVU31
 119:Middlewares/ST/filex/common/src/fx_directory_long_name_get_extended.c ****     }
 135              		.loc 1 119 10 is_stmt 0 view .LVU32
 136 0062 0131     		adds	r1, r1, #1
 137              	.LVL11:
 119:Middlewares/ST/filex/common/src/fx_directory_long_name_get_extended.c ****     }
 138              		.loc 1 119 10 view .LVU33
 139 0064 F4E7     		b	.L3
 140              	.LVL12:
 141              	.L13:
 104:Middlewares/ST/filex/common/src/fx_directory_long_name_get_extended.c **** 
 142              		.loc 1 104 9 is_stmt 1 view .LVU34
 143 0066 3846     		mov	r0, r7
 144              	.LVL13:
 104:Middlewares/ST/filex/common/src/fx_directory_long_name_get_extended.c **** 
 145              		.loc 1 104 9 is_stmt 0 view .LVU35
 146 0068 FFF7FEFF 		bl	_tx_mutex_put
 147              	.LVL14:
 107:Middlewares/ST/filex/common/src/fx_directory_long_name_get_extended.c ****     }
 148              		.loc 1 107 9 is_stmt 1 view .LVU36
 107:Middlewares/ST/filex/common/src/fx_directory_long_name_get_extended.c ****     }
 149              		.loc 1 107 15 is_stmt 0 view .LVU37
 150 006c D8E7     		b	.L1
 151              	.LVL15:
 152              	.L4:
 123:Middlewares/ST/filex/common/src/fx_directory_long_name_get_extended.c **** 
 153              		.loc 1 123 5 is_stmt 1 view .LVU38
 123:Middlewares/ST/filex/common/src/fx_directory_long_name_get_extended.c **** 
 154              		.loc 1 123 23 is_stmt 0 view .LVU39
 155 006e 0023     		movs	r3, #0
 156 0070 6B54     		strb	r3, [r5, r1]
 126:Middlewares/ST/filex/common/src/fx_directory_long_name_get_extended.c ****     {
 157              		.loc 1 126 5 is_stmt 1 view .LVU40
 126:Middlewares/ST/filex/common/src/fx_directory_long_name_get_extended.c ****     {
 158              		.loc 1 126 45 is_stmt 0 view .LVU41
 159 0072 013C     		subs	r4, r4, #1
 160              	.LVL16:
 126:Middlewares/ST/filex/common/src/fx_directory_long_name_get_extended.c ****     {
 161              		.loc 1 126 8 view .LVU42
 162 0074 8C42     		cmp	r4, r1
 163 0076 03D0     		beq	.L14
 164              	.LVL17:
 165              	.L6:
 134:Middlewares/ST/filex/common/src/fx_directory_long_name_get_extended.c **** 
 166              		.loc 1 134 5 is_stmt 1 view .LVU43
 167 0078 3846     		mov	r0, r7
 168 007a FFF7FEFF 		bl	_tx_mutex_put
 169              	.LVL18:
 137:Middlewares/ST/filex/common/src/fx_directory_long_name_get_extended.c **** }
 170              		.loc 1 137 5 view .LVU44
 137:Middlewares/ST/filex/common/src/fx_directory_long_name_get_extended.c **** }
 171              		.loc 1 137 11 is_stmt 0 view .LVU45
 172 007e CFE7     		b	.L1
 173              	.LVL19:
ARM GAS  C:\Users\HP\AppData\Local\Temp\cckqOOOV.s 			page 7


 174              	.L14:
 126:Middlewares/ST/filex/common/src/fx_directory_long_name_get_extended.c ****     {
 175              		.loc 1 126 64 discriminator 1 view .LVU46
 176 0080 029B     		ldr	r3, [sp, #8]
 126:Middlewares/ST/filex/common/src/fx_directory_long_name_get_extended.c ****     {
 177              		.loc 1 126 82 discriminator 1 view .LVU47
 178 0082 5B5C     		ldrb	r3, [r3, r1]	@ zero_extendqisi2
 126:Middlewares/ST/filex/common/src/fx_directory_long_name_get_extended.c ****     {
 179              		.loc 1 126 51 discriminator 1 view .LVU48
 180 0084 002B     		cmp	r3, #0
 181 0086 F7D0     		beq	.L6
 130:Middlewares/ST/filex/common/src/fx_directory_long_name_get_extended.c ****     }
 182              		.loc 1 130 16 view .LVU49
 183 0088 2126     		movs	r6, #33
 184              	.LVL20:
 130:Middlewares/ST/filex/common/src/fx_directory_long_name_get_extended.c ****     }
 185              		.loc 1 130 16 view .LVU50
 186 008a F5E7     		b	.L6
 187              	.LVL21:
 188              	.L8:
  94:Middlewares/ST/filex/common/src/fx_directory_long_name_get_extended.c **** 
 189              		.loc 1 94 5 view .LVU51
 190 008c 1126     		movs	r6, #17
 191              	.LVL22:
  94:Middlewares/ST/filex/common/src/fx_directory_long_name_get_extended.c **** 
 192              		.loc 1 94 5 view .LVU52
 193 008e C7E7     		b	.L1
 194              	.L16:
 195              		.align	2
 196              	.L15:
 197 0090 4944454D 		.word	1296385097
 198              		.cfi_endproc
 199              	.LFE8:
 201              		.text
 202              	.Letext0:
 203              		.file 2 "Middlewares/ST/threadx/ports/cortex_m4/gnu/inc/tx_port.h"
 204              		.file 3 "Middlewares/ST/threadx/common/inc/tx_api.h"
 205              		.file 4 "Middlewares/ST/filex/common/inc/fx_api.h"
 206              		.file 5 "Middlewares/ST/filex/common/inc/fx_directory.h"
ARM GAS  C:\Users\HP\AppData\Local\Temp\cckqOOOV.s 			page 8

