ARM GAS  C:\Users\HP\AppData\Local\Temp\ccYVoi0M.s 			page 1


   1              		.cpu cortex-m4
   2              		.arch armv7e-m
   3              		.fpu fpv4-sp-d16
   4              		.eabi_attribute 27, 1
   5              		.eabi_attribute 28, 1
   6              		.eabi_attribute 20, 1
   7              		.eabi_attribute 21, 1
   8              		.eabi_attribute 23, 3
   9              		.eabi_attribute 24, 1
  10              		.eabi_attribute 25, 1
  11              		.eabi_attribute 26, 1
  12              		.eabi_attribute 30, 1
  13              		.eabi_attribute 34, 1
  14              		.eabi_attribute 18, 4
  15              		.file	"fx_directory_search.c"
  16              		.text
  17              	.Ltext0:
  18              		.cfi_sections	.debug_frame
  19              		.section	.text._fx_directory_search,"ax",%progbits
  20              		.align	1
  21              		.global	_fx_directory_search
  22              		.syntax unified
  23              		.thumb
  24              		.thumb_func
  26              	_fx_directory_search:
  27              	.LVL0:
  28              	.LFB8:
  29              		.file 1 "Middlewares/ST/filex/common/src/fx_directory_search.c"
   1:Middlewares/ST/filex/common/src/fx_directory_search.c **** /**************************************************************************/
   2:Middlewares/ST/filex/common/src/fx_directory_search.c **** /*                                                                        */
   3:Middlewares/ST/filex/common/src/fx_directory_search.c **** /*       Copyright (c) Microsoft Corporation. All rights reserved.        */
   4:Middlewares/ST/filex/common/src/fx_directory_search.c **** /*                                                                        */
   5:Middlewares/ST/filex/common/src/fx_directory_search.c **** /*       This software is licensed under the Microsoft Software License   */
   6:Middlewares/ST/filex/common/src/fx_directory_search.c **** /*       Terms for Microsoft Azure RTOS. Full text of the license can be  */
   7:Middlewares/ST/filex/common/src/fx_directory_search.c **** /*       found in the LICENSE file at https://aka.ms/AzureRTOS_EULA       */
   8:Middlewares/ST/filex/common/src/fx_directory_search.c **** /*       and in the root directory of this software.                      */
   9:Middlewares/ST/filex/common/src/fx_directory_search.c **** /*                                                                        */
  10:Middlewares/ST/filex/common/src/fx_directory_search.c **** /**************************************************************************/
  11:Middlewares/ST/filex/common/src/fx_directory_search.c **** 
  12:Middlewares/ST/filex/common/src/fx_directory_search.c **** 
  13:Middlewares/ST/filex/common/src/fx_directory_search.c **** /**************************************************************************/
  14:Middlewares/ST/filex/common/src/fx_directory_search.c **** /**************************************************************************/
  15:Middlewares/ST/filex/common/src/fx_directory_search.c **** /**                                                                       */
  16:Middlewares/ST/filex/common/src/fx_directory_search.c **** /** FileX Component                                                       */
  17:Middlewares/ST/filex/common/src/fx_directory_search.c **** /**                                                                       */
  18:Middlewares/ST/filex/common/src/fx_directory_search.c **** /**   Directory                                                           */
  19:Middlewares/ST/filex/common/src/fx_directory_search.c **** /**                                                                       */
  20:Middlewares/ST/filex/common/src/fx_directory_search.c **** /**************************************************************************/
  21:Middlewares/ST/filex/common/src/fx_directory_search.c **** /**************************************************************************/
  22:Middlewares/ST/filex/common/src/fx_directory_search.c **** 
  23:Middlewares/ST/filex/common/src/fx_directory_search.c **** #define FX_SOURCE_CODE
  24:Middlewares/ST/filex/common/src/fx_directory_search.c **** 
  25:Middlewares/ST/filex/common/src/fx_directory_search.c **** 
  26:Middlewares/ST/filex/common/src/fx_directory_search.c **** /* Include necessary system files.  */
  27:Middlewares/ST/filex/common/src/fx_directory_search.c **** 
  28:Middlewares/ST/filex/common/src/fx_directory_search.c **** #include "fx_api.h"
  29:Middlewares/ST/filex/common/src/fx_directory_search.c **** #include "fx_system.h"
ARM GAS  C:\Users\HP\AppData\Local\Temp\ccYVoi0M.s 			page 2


  30:Middlewares/ST/filex/common/src/fx_directory_search.c **** #include "fx_directory.h"
  31:Middlewares/ST/filex/common/src/fx_directory_search.c **** #include "fx_utility.h"
  32:Middlewares/ST/filex/common/src/fx_directory_search.c **** #ifdef FX_ENABLE_EXFAT
  33:Middlewares/ST/filex/common/src/fx_directory_search.c **** #include "fx_directory_exFAT.h"
  34:Middlewares/ST/filex/common/src/fx_directory_search.c **** #endif /* FX_ENABLE_EXFAT */
  35:Middlewares/ST/filex/common/src/fx_directory_search.c **** 
  36:Middlewares/ST/filex/common/src/fx_directory_search.c **** #ifndef FX_NO_LOCAL_PATH
  37:Middlewares/ST/filex/common/src/fx_directory_search.c **** FX_LOCAL_PATH_SETUP
  38:Middlewares/ST/filex/common/src/fx_directory_search.c **** #endif
  39:Middlewares/ST/filex/common/src/fx_directory_search.c **** 
  40:Middlewares/ST/filex/common/src/fx_directory_search.c **** 
  41:Middlewares/ST/filex/common/src/fx_directory_search.c **** /**************************************************************************/
  42:Middlewares/ST/filex/common/src/fx_directory_search.c **** /*                                                                        */
  43:Middlewares/ST/filex/common/src/fx_directory_search.c **** /*  FUNCTION                                               RELEASE        */
  44:Middlewares/ST/filex/common/src/fx_directory_search.c **** /*                                                                        */
  45:Middlewares/ST/filex/common/src/fx_directory_search.c **** /*    _fx_directory_search                                PORTABLE C      */
  46:Middlewares/ST/filex/common/src/fx_directory_search.c **** /*                                                           6.1.10       */
  47:Middlewares/ST/filex/common/src/fx_directory_search.c **** /*  AUTHOR                                                                */
  48:Middlewares/ST/filex/common/src/fx_directory_search.c **** /*                                                                        */
  49:Middlewares/ST/filex/common/src/fx_directory_search.c **** /*    William E. Lamie, Microsoft Corporation                             */
  50:Middlewares/ST/filex/common/src/fx_directory_search.c **** /*                                                                        */
  51:Middlewares/ST/filex/common/src/fx_directory_search.c **** /*  DESCRIPTION                                                           */
  52:Middlewares/ST/filex/common/src/fx_directory_search.c **** /*                                                                        */
  53:Middlewares/ST/filex/common/src/fx_directory_search.c **** /*    This function searches the media for the supplied name.  The search */
  54:Middlewares/ST/filex/common/src/fx_directory_search.c **** /*    routine will find files as well as directory names.                 */
  55:Middlewares/ST/filex/common/src/fx_directory_search.c **** /*                                                                        */
  56:Middlewares/ST/filex/common/src/fx_directory_search.c **** /*  INPUT                                                                 */
  57:Middlewares/ST/filex/common/src/fx_directory_search.c **** /*                                                                        */
  58:Middlewares/ST/filex/common/src/fx_directory_search.c **** /*    media_ptr                             Media control block pointer   */
  59:Middlewares/ST/filex/common/src/fx_directory_search.c **** /*    name_ptr                              Name pointer                  */
  60:Middlewares/ST/filex/common/src/fx_directory_search.c **** /*    entry_ptr                             Pointer to directory entry    */
  61:Middlewares/ST/filex/common/src/fx_directory_search.c **** /*                                            record                      */
  62:Middlewares/ST/filex/common/src/fx_directory_search.c **** /*    last_dir_ptr                          Pointer to destination for    */
  63:Middlewares/ST/filex/common/src/fx_directory_search.c **** /*                                            the last directory entry    */
  64:Middlewares/ST/filex/common/src/fx_directory_search.c **** /*    last_name_ptr                         Pointer to the last name      */
  65:Middlewares/ST/filex/common/src/fx_directory_search.c **** /*                                            token that was searched for */
  66:Middlewares/ST/filex/common/src/fx_directory_search.c **** /*                                                                        */
  67:Middlewares/ST/filex/common/src/fx_directory_search.c **** /*  OUTPUT                                                                */
  68:Middlewares/ST/filex/common/src/fx_directory_search.c **** /*                                                                        */
  69:Middlewares/ST/filex/common/src/fx_directory_search.c **** /*    return status                                                       */
  70:Middlewares/ST/filex/common/src/fx_directory_search.c **** /*                                                                        */
  71:Middlewares/ST/filex/common/src/fx_directory_search.c **** /*  CALLS                                                                 */
  72:Middlewares/ST/filex/common/src/fx_directory_search.c **** /*                                                                        */
  73:Middlewares/ST/filex/common/src/fx_directory_search.c **** /*    _fx_directory_name_extract            Extract directory name from   */
  74:Middlewares/ST/filex/common/src/fx_directory_search.c **** /*                                            input string                */
  75:Middlewares/ST/filex/common/src/fx_directory_search.c **** /*    _fx_directory_entry_read              Read entries from root dir    */
  76:Middlewares/ST/filex/common/src/fx_directory_search.c **** /*    _fx_utility_exFAT_name_hash_get       Get name hash                 */
  77:Middlewares/ST/filex/common/src/fx_directory_search.c **** /*    _fx_utility_FAT_entry_read            Read FAT entries to calculate */
  78:Middlewares/ST/filex/common/src/fx_directory_search.c **** /*                                            the sub-directory size      */
  79:Middlewares/ST/filex/common/src/fx_directory_search.c **** /*                                                                        */
  80:Middlewares/ST/filex/common/src/fx_directory_search.c **** /*  CALLED BY                                                             */
  81:Middlewares/ST/filex/common/src/fx_directory_search.c **** /*                                                                        */
  82:Middlewares/ST/filex/common/src/fx_directory_search.c **** /*    FileX System Functions                                              */
  83:Middlewares/ST/filex/common/src/fx_directory_search.c **** /*                                                                        */
  84:Middlewares/ST/filex/common/src/fx_directory_search.c **** /*  RELEASE HISTORY                                                       */
  85:Middlewares/ST/filex/common/src/fx_directory_search.c **** /*                                                                        */
  86:Middlewares/ST/filex/common/src/fx_directory_search.c **** /*    DATE              NAME                      DESCRIPTION             */
ARM GAS  C:\Users\HP\AppData\Local\Temp\ccYVoi0M.s 			page 3


  87:Middlewares/ST/filex/common/src/fx_directory_search.c **** /*                                                                        */
  88:Middlewares/ST/filex/common/src/fx_directory_search.c **** /*  05-19-2020     William E. Lamie         Initial Version 6.0           */
  89:Middlewares/ST/filex/common/src/fx_directory_search.c **** /*  09-30-2020     William E. Lamie         Modified comment(s), and      */
  90:Middlewares/ST/filex/common/src/fx_directory_search.c **** /*                                            added conditional to        */
  91:Middlewares/ST/filex/common/src/fx_directory_search.c **** /*                                            disable media search cache, */
  92:Middlewares/ST/filex/common/src/fx_directory_search.c **** /*                                            resulting in version 6.1    */
  93:Middlewares/ST/filex/common/src/fx_directory_search.c **** /*  06-02-2021     Bhupendra Naphade        Modified comment(s), and      */
  94:Middlewares/ST/filex/common/src/fx_directory_search.c **** /*                                            added check for             */
  95:Middlewares/ST/filex/common/src/fx_directory_search.c **** /*                                            volume label,               */
  96:Middlewares/ST/filex/common/src/fx_directory_search.c **** /*                                            resulting in version 6.1.7  */
  97:Middlewares/ST/filex/common/src/fx_directory_search.c **** /*  01-31-2022     William E. Lamie         Modified comment(s), and      */
  98:Middlewares/ST/filex/common/src/fx_directory_search.c **** /*                                            fixed path compare,         */
  99:Middlewares/ST/filex/common/src/fx_directory_search.c **** /*                                            resulting in version 6.1.10 */
 100:Middlewares/ST/filex/common/src/fx_directory_search.c **** /*                                                                        */
 101:Middlewares/ST/filex/common/src/fx_directory_search.c **** /**************************************************************************/
 102:Middlewares/ST/filex/common/src/fx_directory_search.c **** UINT  _fx_directory_search(FX_MEDIA *media_ptr, CHAR *name_ptr, FX_DIR_ENTRY *entry_ptr,
 103:Middlewares/ST/filex/common/src/fx_directory_search.c ****                            FX_DIR_ENTRY *last_dir_ptr, CHAR **last_name_ptr)
 104:Middlewares/ST/filex/common/src/fx_directory_search.c **** {
  30              		.loc 1 104 1 view -0
  31              		.cfi_startproc
  32              		@ args = 4, pretend = 0, frame = 144
  33              		@ frame_needed = 0, uses_anonymous_args = 0
  34              		.loc 1 104 1 is_stmt 0 view .LVU1
  35 0000 2DE9F04F 		push	{r4, r5, r6, r7, r8, r9, r10, fp, lr}
  36              	.LCFI0:
  37              		.cfi_def_cfa_offset 36
  38              		.cfi_offset 4, -36
  39              		.cfi_offset 5, -32
  40              		.cfi_offset 6, -28
  41              		.cfi_offset 7, -24
  42              		.cfi_offset 8, -20
  43              		.cfi_offset 9, -16
  44              		.cfi_offset 10, -12
  45              		.cfi_offset 11, -8
  46              		.cfi_offset 14, -4
  47 0004 A5B0     		sub	sp, sp, #148
  48              	.LCFI1:
  49              		.cfi_def_cfa_offset 184
  50 0006 0446     		mov	r4, r0
  51 0008 8B46     		mov	fp, r1
  52 000a 1546     		mov	r5, r2
 105:Middlewares/ST/filex/common/src/fx_directory_search.c **** 
 106:Middlewares/ST/filex/common/src/fx_directory_search.c **** ULONG         i, n;
  53              		.loc 1 106 1 is_stmt 1 view .LVU2
 107:Middlewares/ST/filex/common/src/fx_directory_search.c **** UINT          found;
  54              		.loc 1 107 1 view .LVU3
 108:Middlewares/ST/filex/common/src/fx_directory_search.c **** UINT          status;
  55              		.loc 1 108 1 view .LVU4
 109:Middlewares/ST/filex/common/src/fx_directory_search.c **** #ifndef FX_MEDIA_DISABLE_SEARCH_CACHE
 110:Middlewares/ST/filex/common/src/fx_directory_search.c **** UINT          v, j;
  56              		.loc 1 110 1 view .LVU5
 111:Middlewares/ST/filex/common/src/fx_directory_search.c **** #endif /* FX_MEDIA_DISABLE_SEARCH_CACHE */
 112:Middlewares/ST/filex/common/src/fx_directory_search.c **** ULONG         cluster, next_cluster = 0;
  57              		.loc 1 112 1 view .LVU6
  58              		.loc 1 112 24 is_stmt 0 view .LVU7
  59 000c 0022     		movs	r2, #0
  60              	.LVL1:
ARM GAS  C:\Users\HP\AppData\Local\Temp\ccYVoi0M.s 			page 4


  61              		.loc 1 112 24 view .LVU8
  62 000e 2292     		str	r2, [sp, #136]
 113:Middlewares/ST/filex/common/src/fx_directory_search.c **** ULONG64       directory_size;
  63              		.loc 1 113 1 is_stmt 1 view .LVU9
 114:Middlewares/ST/filex/common/src/fx_directory_search.c **** CHAR         *dir_name_ptr;
  64              		.loc 1 114 1 view .LVU10
 115:Middlewares/ST/filex/common/src/fx_directory_search.c **** CHAR         *work_ptr;
  65              		.loc 1 115 1 view .LVU11
 116:Middlewares/ST/filex/common/src/fx_directory_search.c **** CHAR         *source_name_ptr;
  66              		.loc 1 116 1 view .LVU12
 117:Middlewares/ST/filex/common/src/fx_directory_search.c **** CHAR         *destination_name_ptr;
  67              		.loc 1 117 1 view .LVU13
 118:Middlewares/ST/filex/common/src/fx_directory_search.c **** FX_DIR_ENTRY  search_dir;
  68              		.loc 1 118 1 view .LVU14
 119:Middlewares/ST/filex/common/src/fx_directory_search.c **** FX_DIR_ENTRY *search_dir_ptr;
  69              		.loc 1 119 1 view .LVU15
 120:Middlewares/ST/filex/common/src/fx_directory_search.c **** CHAR         *name, alpha, name_alpha;
  70              		.loc 1 120 1 view .LVU16
 121:Middlewares/ST/filex/common/src/fx_directory_search.c **** #ifndef FX_MEDIA_DISABLE_SEARCH_CACHE
 122:Middlewares/ST/filex/common/src/fx_directory_search.c **** UINT          index;
  71              		.loc 1 122 1 view .LVU17
 123:Middlewares/ST/filex/common/src/fx_directory_search.c **** CHAR         *path_ptr =  FX_NULL;
  72              		.loc 1 123 1 view .LVU18
  73              	.LVL2:
 124:Middlewares/ST/filex/common/src/fx_directory_search.c **** CHAR         *original_name =  name_ptr;
  74              		.loc 1 124 1 view .LVU19
 125:Middlewares/ST/filex/common/src/fx_directory_search.c **** #endif
 126:Middlewares/ST/filex/common/src/fx_directory_search.c **** #ifdef FX_ENABLE_EXFAT
 127:Middlewares/ST/filex/common/src/fx_directory_search.c **** USHORT        hash = 0;
 128:Middlewares/ST/filex/common/src/fx_directory_search.c **** #endif /* FX_ENABLE_EXFAT */
 129:Middlewares/ST/filex/common/src/fx_directory_search.c **** 
 130:Middlewares/ST/filex/common/src/fx_directory_search.c **** #ifndef FX_MEDIA_STATISTICS_DISABLE
 131:Middlewares/ST/filex/common/src/fx_directory_search.c **** 
 132:Middlewares/ST/filex/common/src/fx_directory_search.c ****     /* Increment the number of directory search requests.  */
 133:Middlewares/ST/filex/common/src/fx_directory_search.c ****     media_ptr -> fx_media_directory_searches++;
  75              		.loc 1 133 5 view .LVU20
  76              		.loc 1 133 15 is_stmt 0 view .LVU21
  77 0010 D0F87021 		ldr	r2, [r0, #368]
  78              		.loc 1 133 45 view .LVU22
  79 0014 0132     		adds	r2, r2, #1
  80 0016 C0F87021 		str	r2, [r0, #368]
 134:Middlewares/ST/filex/common/src/fx_directory_search.c **** #endif
 135:Middlewares/ST/filex/common/src/fx_directory_search.c **** 
 136:Middlewares/ST/filex/common/src/fx_directory_search.c ****     /* Setup pointer to media name buffer.  */
 137:Middlewares/ST/filex/common/src/fx_directory_search.c ****     name =  media_ptr -> fx_media_name_buffer;
  81              		.loc 1 137 5 is_stmt 1 view .LVU23
  82              		.loc 1 137 10 is_stmt 0 view .LVU24
  83 001a 00F69C02 		addw	r2, r0, #2204
  84 001e 0292     		str	r2, [sp, #8]
  85              	.LVL3:
 138:Middlewares/ST/filex/common/src/fx_directory_search.c **** 
 139:Middlewares/ST/filex/common/src/fx_directory_search.c ****     /* Setup the last directory, if required.  */
 140:Middlewares/ST/filex/common/src/fx_directory_search.c ****     if (last_dir_ptr)
  86              		.loc 1 140 5 is_stmt 1 view .LVU25
  87              		.loc 1 140 8 is_stmt 0 view .LVU26
  88 0020 0493     		str	r3, [sp, #16]
  89 0022 13B1     		cbz	r3, .L2
ARM GAS  C:\Users\HP\AppData\Local\Temp\ccYVoi0M.s 			page 5


 141:Middlewares/ST/filex/common/src/fx_directory_search.c ****     {
 142:Middlewares/ST/filex/common/src/fx_directory_search.c **** 
 143:Middlewares/ST/filex/common/src/fx_directory_search.c ****         /* Set the first character of the directory entry to NULL to
 144:Middlewares/ST/filex/common/src/fx_directory_search.c ****            indicate root or no directory.  */
 145:Middlewares/ST/filex/common/src/fx_directory_search.c ****         last_dir_ptr -> fx_dir_entry_name[0] =  0;
  90              		.loc 1 145 9 is_stmt 1 view .LVU27
  91              		.loc 1 145 22 is_stmt 0 view .LVU28
  92 0024 1B68     		ldr	r3, [r3]
  93              	.LVL4:
  94              		.loc 1 145 46 view .LVU29
  95 0026 0022     		movs	r2, #0
  96              	.LVL5:
  97              		.loc 1 145 46 view .LVU30
  98 0028 1A70     		strb	r2, [r3]
  99              	.L2:
 146:Middlewares/ST/filex/common/src/fx_directory_search.c ****     }
 147:Middlewares/ST/filex/common/src/fx_directory_search.c **** 
 148:Middlewares/ST/filex/common/src/fx_directory_search.c ****     /* Determine if the file name has a full directory path.  */
 149:Middlewares/ST/filex/common/src/fx_directory_search.c ****     if ((*name_ptr == '\\') || (*name_ptr == '/'))
 100              		.loc 1 149 5 is_stmt 1 view .LVU31
 101              		.loc 1 149 10 is_stmt 0 view .LVU32
 102 002a 9BF80030 		ldrb	r3, [fp]	@ zero_extendqisi2
 103              		.loc 1 149 8 view .LVU33
 104 002e 5C2B     		cmp	r3, #92
 105 0030 22D0     		beq	.L77
 106              		.loc 1 149 29 discriminator 1 view .LVU34
 107 0032 2F2B     		cmp	r3, #47
 108 0034 32D0     		beq	.L78
 150:Middlewares/ST/filex/common/src/fx_directory_search.c ****     {
 151:Middlewares/ST/filex/common/src/fx_directory_search.c **** 
 152:Middlewares/ST/filex/common/src/fx_directory_search.c ****         /* Directory name has full path, set the search pointer to NULL.  */
 153:Middlewares/ST/filex/common/src/fx_directory_search.c ****         search_dir_ptr =  FX_NULL;
 154:Middlewares/ST/filex/common/src/fx_directory_search.c ****     }
 155:Middlewares/ST/filex/common/src/fx_directory_search.c ****     else
 156:Middlewares/ST/filex/common/src/fx_directory_search.c ****     {
 157:Middlewares/ST/filex/common/src/fx_directory_search.c **** 
 158:Middlewares/ST/filex/common/src/fx_directory_search.c ****         /* Set the initial search directory to the current working
 159:Middlewares/ST/filex/common/src/fx_directory_search.c ****            directory - if there is one.  */
 160:Middlewares/ST/filex/common/src/fx_directory_search.c **** 
 161:Middlewares/ST/filex/common/src/fx_directory_search.c ****         /* First check for a local path pointer stored in the thread control block.  This
 162:Middlewares/ST/filex/common/src/fx_directory_search.c ****            is only available in ThreadX Version 4 and above.  */
 163:Middlewares/ST/filex/common/src/fx_directory_search.c **** #ifndef FX_NO_LOCAL_PATH
 164:Middlewares/ST/filex/common/src/fx_directory_search.c ****         if (_tx_thread_current_ptr -> tx_thread_filex_ptr)
 109              		.loc 1 164 9 is_stmt 1 view .LVU35
 110              		.loc 1 164 36 is_stmt 0 view .LVU36
 111 0036 A24B     		ldr	r3, .L122
 112 0038 1B68     		ldr	r3, [r3]
 113 003a D3F89070 		ldr	r7, [r3, #144]
 114              		.loc 1 164 12 view .LVU37
 115 003e 67B1     		cbz	r7, .L4
 165:Middlewares/ST/filex/common/src/fx_directory_search.c ****         {
 166:Middlewares/ST/filex/common/src/fx_directory_search.c **** 
 167:Middlewares/ST/filex/common/src/fx_directory_search.c ****             /* Determine if the local directory is not the root directory.  */
 168:Middlewares/ST/filex/common/src/fx_directory_search.c ****             if (((FX_PATH *)_tx_thread_current_ptr -> tx_thread_filex_ptr) -> fx_path_directory.fx_
 116              		.loc 1 168 13 is_stmt 1 view .LVU38
 117              		.loc 1 168 96 is_stmt 0 view .LVU39
 118 0040 3B68     		ldr	r3, [r7]
ARM GAS  C:\Users\HP\AppData\Local\Temp\ccYVoi0M.s 			page 6


 119              		.loc 1 168 114 view .LVU40
 120 0042 1B78     		ldrb	r3, [r3]	@ zero_extendqisi2
 121              		.loc 1 168 16 view .LVU41
 122 0044 73B3     		cbz	r3, .L79
 169:Middlewares/ST/filex/common/src/fx_directory_search.c ****             {
 170:Middlewares/ST/filex/common/src/fx_directory_search.c **** 
 171:Middlewares/ST/filex/common/src/fx_directory_search.c ****                 /* Start at the current working directory of the media.  */
 172:Middlewares/ST/filex/common/src/fx_directory_search.c ****                 search_dir =   ((FX_PATH *)_tx_thread_current_ptr -> tx_thread_filex_ptr) -> fx_pat
 123              		.loc 1 172 17 is_stmt 1 view .LVU42
 124              		.loc 1 172 28 is_stmt 0 view .LVU43
 125 0046 7022     		movs	r2, #112
 126 0048 3946     		mov	r1, r7
 127              	.LVL6:
 128              		.loc 1 172 28 view .LVU44
 129 004a 06A8     		add	r0, sp, #24
 130              	.LVL7:
 131              		.loc 1 172 28 view .LVU45
 132 004c FFF7FEFF 		bl	memcpy
 133              	.LVL8:
 173:Middlewares/ST/filex/common/src/fx_directory_search.c **** 
 174:Middlewares/ST/filex/common/src/fx_directory_search.c **** #ifndef FX_MEDIA_DISABLE_SEARCH_CACHE
 175:Middlewares/ST/filex/common/src/fx_directory_search.c **** 
 176:Middlewares/ST/filex/common/src/fx_directory_search.c ****                 /* Setup pointer to the path.  */
 177:Middlewares/ST/filex/common/src/fx_directory_search.c ****                 path_ptr =  ((FX_PATH *)_tx_thread_current_ptr -> tx_thread_filex_ptr) -> fx_path_s
 134              		.loc 1 177 17 is_stmt 1 view .LVU46
 135              		.loc 1 177 26 is_stmt 0 view .LVU47
 136 0050 07F17003 		add	r3, r7, #112
 137 0054 0393     		str	r3, [sp, #12]
 138              	.LVL9:
 178:Middlewares/ST/filex/common/src/fx_directory_search.c **** #endif
 179:Middlewares/ST/filex/common/src/fx_directory_search.c **** 
 180:Middlewares/ST/filex/common/src/fx_directory_search.c ****                 /* Set the internal pointer to the search directory as well.  */
 181:Middlewares/ST/filex/common/src/fx_directory_search.c ****                 search_dir_ptr =  &search_dir;
 139              		.loc 1 181 17 is_stmt 1 view .LVU48
 140              		.loc 1 181 32 is_stmt 0 view .LVU49
 141 0056 06AF     		add	r7, sp, #24
 142              	.LVL10:
 143              		.loc 1 181 32 view .LVU50
 144 0058 11E0     		b	.L3
 145              	.LVL11:
 146              	.L4:
 182:Middlewares/ST/filex/common/src/fx_directory_search.c ****             }
 183:Middlewares/ST/filex/common/src/fx_directory_search.c ****             else
 184:Middlewares/ST/filex/common/src/fx_directory_search.c ****             {
 185:Middlewares/ST/filex/common/src/fx_directory_search.c **** 
 186:Middlewares/ST/filex/common/src/fx_directory_search.c ****                 /* We are searching in the root directory.  */
 187:Middlewares/ST/filex/common/src/fx_directory_search.c ****                 search_dir_ptr =  FX_NULL;
 188:Middlewares/ST/filex/common/src/fx_directory_search.c ****             }
 189:Middlewares/ST/filex/common/src/fx_directory_search.c ****         }
 190:Middlewares/ST/filex/common/src/fx_directory_search.c ****         else
 191:Middlewares/ST/filex/common/src/fx_directory_search.c **** #endif
 192:Middlewares/ST/filex/common/src/fx_directory_search.c ****         if (media_ptr -> fx_media_default_path.fx_path_directory.fx_dir_entry_name[0])
 147              		.loc 1 192 9 is_stmt 1 view .LVU51
 148              		.loc 1 192 65 is_stmt 0 view .LVU52
 149 005a D4F8E034 		ldr	r3, [r4, #1248]
 150              		.loc 1 192 83 view .LVU53
 151 005e 1B78     		ldrb	r3, [r3]	@ zero_extendqisi2
ARM GAS  C:\Users\HP\AppData\Local\Temp\ccYVoi0M.s 			page 7


 152              		.loc 1 192 12 view .LVU54
 153 0060 23B3     		cbz	r3, .L80
 193:Middlewares/ST/filex/common/src/fx_directory_search.c ****         {
 194:Middlewares/ST/filex/common/src/fx_directory_search.c **** 
 195:Middlewares/ST/filex/common/src/fx_directory_search.c ****             /* Start at the current working directory of the media.  */
 196:Middlewares/ST/filex/common/src/fx_directory_search.c ****             search_dir =  media_ptr -> fx_media_default_path.fx_path_directory;
 154              		.loc 1 196 13 is_stmt 1 view .LVU55
 155              		.loc 1 196 24 is_stmt 0 view .LVU56
 156 0062 7022     		movs	r2, #112
 157 0064 04F59C61 		add	r1, r4, #1248
 158              	.LVL12:
 159              		.loc 1 196 24 view .LVU57
 160 0068 06A8     		add	r0, sp, #24
 161              	.LVL13:
 162              		.loc 1 196 24 view .LVU58
 163 006a FFF7FEFF 		bl	memcpy
 164              	.LVL14:
 197:Middlewares/ST/filex/common/src/fx_directory_search.c **** 
 198:Middlewares/ST/filex/common/src/fx_directory_search.c **** #ifndef FX_MEDIA_DISABLE_SEARCH_CACHE
 199:Middlewares/ST/filex/common/src/fx_directory_search.c **** 
 200:Middlewares/ST/filex/common/src/fx_directory_search.c ****             /* Setup pointer to the path.  */
 201:Middlewares/ST/filex/common/src/fx_directory_search.c ****             path_ptr =  media_ptr -> fx_media_default_path.fx_path_string;
 165              		.loc 1 201 13 is_stmt 1 view .LVU59
 166              		.loc 1 201 22 is_stmt 0 view .LVU60
 167 006e 04F5AA63 		add	r3, r4, #1360
 168 0072 0393     		str	r3, [sp, #12]
 169              	.LVL15:
 202:Middlewares/ST/filex/common/src/fx_directory_search.c **** #endif
 203:Middlewares/ST/filex/common/src/fx_directory_search.c **** 
 204:Middlewares/ST/filex/common/src/fx_directory_search.c ****             /* Set the internal pointer to the search directory as well.  */
 205:Middlewares/ST/filex/common/src/fx_directory_search.c ****             search_dir_ptr =  &search_dir;
 170              		.loc 1 205 13 is_stmt 1 view .LVU61
 171              		.loc 1 205 28 is_stmt 0 view .LVU62
 172 0074 06AF     		add	r7, sp, #24
 173              	.LVL16:
 174              		.loc 1 205 28 view .LVU63
 175 0076 02E0     		b	.L3
 176              	.LVL17:
 177              	.L77:
 123:Middlewares/ST/filex/common/src/fx_directory_search.c **** CHAR         *original_name =  name_ptr;
 178              		.loc 1 123 15 view .LVU64
 179 0078 0023     		movs	r3, #0
 180 007a 0393     		str	r3, [sp, #12]
 153:Middlewares/ST/filex/common/src/fx_directory_search.c ****     }
 181              		.loc 1 153 24 view .LVU65
 182 007c 1F46     		mov	r7, r3
 183              	.LVL18:
 184              	.L3:
 206:Middlewares/ST/filex/common/src/fx_directory_search.c ****         }
 207:Middlewares/ST/filex/common/src/fx_directory_search.c ****         else
 208:Middlewares/ST/filex/common/src/fx_directory_search.c ****         {
 209:Middlewares/ST/filex/common/src/fx_directory_search.c **** 
 210:Middlewares/ST/filex/common/src/fx_directory_search.c ****             /* The current default directory is the root so just set the
 211:Middlewares/ST/filex/common/src/fx_directory_search.c ****                search directory pointer to NULL.  */
 212:Middlewares/ST/filex/common/src/fx_directory_search.c ****             search_dir_ptr =  FX_NULL;
 213:Middlewares/ST/filex/common/src/fx_directory_search.c ****         }
 214:Middlewares/ST/filex/common/src/fx_directory_search.c ****     }
ARM GAS  C:\Users\HP\AppData\Local\Temp\ccYVoi0M.s 			page 8


 215:Middlewares/ST/filex/common/src/fx_directory_search.c **** 
 216:Middlewares/ST/filex/common/src/fx_directory_search.c **** #ifndef FX_MEDIA_DISABLE_SEARCH_CACHE
 217:Middlewares/ST/filex/common/src/fx_directory_search.c **** 
 218:Middlewares/ST/filex/common/src/fx_directory_search.c ****     /* Determine if there is a previously found directory entry.  */
 219:Middlewares/ST/filex/common/src/fx_directory_search.c ****     if (media_ptr -> fx_media_last_found_name[0])
 185              		.loc 1 219 5 is_stmt 1 view .LVU66
 186              		.loc 1 219 46 is_stmt 0 view .LVU67
 187 007e 94F8E033 		ldrb	r3, [r4, #992]	@ zero_extendqisi2
 188              		.loc 1 219 8 view .LVU68
 189 0082 9BB3     		cbz	r3, .L5
 190              	.LBB2:
 220:Middlewares/ST/filex/common/src/fx_directory_search.c ****     {
 221:Middlewares/ST/filex/common/src/fx_directory_search.c **** 
 222:Middlewares/ST/filex/common/src/fx_directory_search.c ****     UINT  match;
 191              		.loc 1 222 5 is_stmt 1 view .LVU69
 223:Middlewares/ST/filex/common/src/fx_directory_search.c ****     CHAR *temp_ptr, beta;
 192              		.loc 1 223 5 view .LVU70
 224:Middlewares/ST/filex/common/src/fx_directory_search.c **** 
 225:Middlewares/ST/filex/common/src/fx_directory_search.c ****         /* Yes, there is a previously found directory in our cache.  */
 226:Middlewares/ST/filex/common/src/fx_directory_search.c **** 
 227:Middlewares/ST/filex/common/src/fx_directory_search.c ****         /* Initialize the index.  */
 228:Middlewares/ST/filex/common/src/fx_directory_search.c ****         v =  0;
 193              		.loc 1 228 9 view .LVU71
 194              	.LVL19:
 229:Middlewares/ST/filex/common/src/fx_directory_search.c **** 
 230:Middlewares/ST/filex/common/src/fx_directory_search.c ****         /* Determine if there is a full path.  */
 231:Middlewares/ST/filex/common/src/fx_directory_search.c ****         if ((*name_ptr == '\\') || (*name_ptr == '/'))
 195              		.loc 1 231 9 view .LVU72
 196              		.loc 1 231 14 is_stmt 0 view .LVU73
 197 0084 9BF80030 		ldrb	r3, [fp]	@ zero_extendqisi2
 198              		.loc 1 231 12 view .LVU74
 199 0088 5C2B     		cmp	r3, #92
 200 008a 24D0     		beq	.L81
 201              		.loc 1 231 33 discriminator 1 view .LVU75
 202 008c 2F2B     		cmp	r3, #47
 203 008e 24D0     		beq	.L111
 232:Middlewares/ST/filex/common/src/fx_directory_search.c ****         {
 233:Middlewares/ST/filex/common/src/fx_directory_search.c **** 
 234:Middlewares/ST/filex/common/src/fx_directory_search.c ****             /* Yes, the full path is in the name buffer. Simply compare with what is in
 235:Middlewares/ST/filex/common/src/fx_directory_search.c ****                the last search buffer.  */
 236:Middlewares/ST/filex/common/src/fx_directory_search.c ****             while ((v < (FX_MAX_LAST_NAME_LEN - 1)) && (name_ptr[v]))
 237:Middlewares/ST/filex/common/src/fx_directory_search.c ****             {
 238:Middlewares/ST/filex/common/src/fx_directory_search.c **** 
 239:Middlewares/ST/filex/common/src/fx_directory_search.c ****                 /* Pickup the respective name characters.  */
 240:Middlewares/ST/filex/common/src/fx_directory_search.c ****                 alpha =  name_ptr[v];
 241:Middlewares/ST/filex/common/src/fx_directory_search.c ****                 beta =   media_ptr -> fx_media_last_found_name[v];
 242:Middlewares/ST/filex/common/src/fx_directory_search.c **** 
 243:Middlewares/ST/filex/common/src/fx_directory_search.c ****                 /* Ensure directory markers are the same.  */
 244:Middlewares/ST/filex/common/src/fx_directory_search.c ****                 if (alpha == '\\')
 245:Middlewares/ST/filex/common/src/fx_directory_search.c ****                 {
 246:Middlewares/ST/filex/common/src/fx_directory_search.c ****                     alpha =  '/';
 247:Middlewares/ST/filex/common/src/fx_directory_search.c ****                 }
 248:Middlewares/ST/filex/common/src/fx_directory_search.c ****                 if (beta == '\\')
 249:Middlewares/ST/filex/common/src/fx_directory_search.c ****                 {
 250:Middlewares/ST/filex/common/src/fx_directory_search.c ****                     beta =  '/';
 251:Middlewares/ST/filex/common/src/fx_directory_search.c ****                 }
 252:Middlewares/ST/filex/common/src/fx_directory_search.c **** 
ARM GAS  C:\Users\HP\AppData\Local\Temp\ccYVoi0M.s 			page 9


 253:Middlewares/ST/filex/common/src/fx_directory_search.c ****                 /* Is the name the same?  */
 254:Middlewares/ST/filex/common/src/fx_directory_search.c ****                 if (alpha != beta)
 255:Middlewares/ST/filex/common/src/fx_directory_search.c ****                 {
 256:Middlewares/ST/filex/common/src/fx_directory_search.c **** 
 257:Middlewares/ST/filex/common/src/fx_directory_search.c ****                     /* Break out of loop!  */
 258:Middlewares/ST/filex/common/src/fx_directory_search.c ****                     break;
 259:Middlewares/ST/filex/common/src/fx_directory_search.c ****                 }
 260:Middlewares/ST/filex/common/src/fx_directory_search.c **** 
 261:Middlewares/ST/filex/common/src/fx_directory_search.c ****                 /* Move to next character.  */
 262:Middlewares/ST/filex/common/src/fx_directory_search.c ****                 v++;
 263:Middlewares/ST/filex/common/src/fx_directory_search.c ****             }
 264:Middlewares/ST/filex/common/src/fx_directory_search.c **** 
 265:Middlewares/ST/filex/common/src/fx_directory_search.c ****             /* Determine if we have a match.  */
 266:Middlewares/ST/filex/common/src/fx_directory_search.c ****             if (name_ptr[v] != media_ptr -> fx_media_last_found_name[v])
 267:Middlewares/ST/filex/common/src/fx_directory_search.c ****             {
 268:Middlewares/ST/filex/common/src/fx_directory_search.c ****                 match =  FX_FALSE;
 269:Middlewares/ST/filex/common/src/fx_directory_search.c ****             }
 270:Middlewares/ST/filex/common/src/fx_directory_search.c ****             else
 271:Middlewares/ST/filex/common/src/fx_directory_search.c ****             {
 272:Middlewares/ST/filex/common/src/fx_directory_search.c ****                 match =  FX_TRUE;
 273:Middlewares/ST/filex/common/src/fx_directory_search.c ****             }
 274:Middlewares/ST/filex/common/src/fx_directory_search.c ****         }
 275:Middlewares/ST/filex/common/src/fx_directory_search.c ****         else
 276:Middlewares/ST/filex/common/src/fx_directory_search.c ****         {
 277:Middlewares/ST/filex/common/src/fx_directory_search.c **** 
 278:Middlewares/ST/filex/common/src/fx_directory_search.c ****             /* Default to found.  */
 279:Middlewares/ST/filex/common/src/fx_directory_search.c ****             match =  FX_TRUE;
 204              		.loc 1 279 13 is_stmt 1 view .LVU76
 205              	.LVL20:
 280:Middlewares/ST/filex/common/src/fx_directory_search.c **** 
 281:Middlewares/ST/filex/common/src/fx_directory_search.c ****             /* Determine if there is a default path to compare with.  */
 282:Middlewares/ST/filex/common/src/fx_directory_search.c ****             if (path_ptr)
 206              		.loc 1 282 13 view .LVU77
 207              		.loc 1 282 16 is_stmt 0 view .LVU78
 208 0090 039B     		ldr	r3, [sp, #12]
 209 0092 002B     		cmp	r3, #0
 210 0094 59D0     		beq	.L15
 228:Middlewares/ST/filex/common/src/fx_directory_search.c **** 
 211              		.loc 1 228 11 view .LVU79
 212 0096 0023     		movs	r3, #0
 213 0098 0398     		ldr	r0, [sp, #12]
 214 009a 46E0     		b	.L14
 215              	.LVL21:
 216              	.L78:
 228:Middlewares/ST/filex/common/src/fx_directory_search.c **** 
 217              		.loc 1 228 11 view .LVU80
 218              	.LBE2:
 123:Middlewares/ST/filex/common/src/fx_directory_search.c **** CHAR         *original_name =  name_ptr;
 219              		.loc 1 123 15 view .LVU81
 220 009c 0023     		movs	r3, #0
 221 009e 0393     		str	r3, [sp, #12]
 153:Middlewares/ST/filex/common/src/fx_directory_search.c ****     }
 222              		.loc 1 153 24 view .LVU82
 223 00a0 1F46     		mov	r7, r3
 224 00a2 ECE7     		b	.L3
 225              	.L79:
 123:Middlewares/ST/filex/common/src/fx_directory_search.c **** CHAR         *original_name =  name_ptr;
ARM GAS  C:\Users\HP\AppData\Local\Temp\ccYVoi0M.s 			page 10


 226              		.loc 1 123 15 view .LVU83
 227 00a4 0023     		movs	r3, #0
 228 00a6 0393     		str	r3, [sp, #12]
 187:Middlewares/ST/filex/common/src/fx_directory_search.c ****             }
 229              		.loc 1 187 32 view .LVU84
 230 00a8 1F46     		mov	r7, r3
 231 00aa E8E7     		b	.L3
 232              	.L80:
 123:Middlewares/ST/filex/common/src/fx_directory_search.c **** CHAR         *original_name =  name_ptr;
 233              		.loc 1 123 15 view .LVU85
 234 00ac 0397     		str	r7, [sp, #12]
 235 00ae E6E7     		b	.L3
 236              	.LVL22:
 237              	.L112:
 238              	.LBB3:
 246:Middlewares/ST/filex/common/src/fx_directory_search.c ****                 }
 239              		.loc 1 246 27 view .LVU86
 240 00b0 2F22     		movs	r2, #47
 241              	.LVL23:
 246:Middlewares/ST/filex/common/src/fx_directory_search.c ****                 }
 242              		.loc 1 246 27 view .LVU87
 243 00b2 0CE0     		b	.L8
 244              	.LVL24:
 245              	.L9:
 254:Middlewares/ST/filex/common/src/fx_directory_search.c ****                 {
 246              		.loc 1 254 17 is_stmt 1 view .LVU88
 254:Middlewares/ST/filex/common/src/fx_directory_search.c ****                 {
 247              		.loc 1 254 20 is_stmt 0 view .LVU89
 248 00b4 8A42     		cmp	r2, r1
 249 00b6 12D1     		bne	.L10
 262:Middlewares/ST/filex/common/src/fx_directory_search.c ****             }
 250              		.loc 1 262 17 is_stmt 1 view .LVU90
 262:Middlewares/ST/filex/common/src/fx_directory_search.c ****             }
 251              		.loc 1 262 18 is_stmt 0 view .LVU91
 252 00b8 0133     		adds	r3, r3, #1
 253              	.LVL25:
 254              	.L11:
 236:Middlewares/ST/filex/common/src/fx_directory_search.c ****             {
 255              		.loc 1 236 19 is_stmt 1 view .LVU92
 256 00ba FE2B     		cmp	r3, #254
 257 00bc 0FD8     		bhi	.L10
 236:Middlewares/ST/filex/common/src/fx_directory_search.c ****             {
 258              		.loc 1 236 65 is_stmt 0 discriminator 1 view .LVU93
 259 00be 1BF80320 		ldrb	r2, [fp, r3]	@ zero_extendqisi2
 236:Middlewares/ST/filex/common/src/fx_directory_search.c ****             {
 260              		.loc 1 236 53 discriminator 1 view .LVU94
 261 00c2 62B1     		cbz	r2, .L10
 240:Middlewares/ST/filex/common/src/fx_directory_search.c ****                 beta =   media_ptr -> fx_media_last_found_name[v];
 262              		.loc 1 240 17 is_stmt 1 view .LVU95
 263              	.LVL26:
 241:Middlewares/ST/filex/common/src/fx_directory_search.c **** 
 264              		.loc 1 241 17 view .LVU96
 241:Middlewares/ST/filex/common/src/fx_directory_search.c **** 
 265              		.loc 1 241 22 is_stmt 0 view .LVU97
 266 00c4 E118     		adds	r1, r4, r3
 267 00c6 91F8E013 		ldrb	r1, [r1, #992]	@ zero_extendqisi2
 268              	.LVL27:
ARM GAS  C:\Users\HP\AppData\Local\Temp\ccYVoi0M.s 			page 11


 244:Middlewares/ST/filex/common/src/fx_directory_search.c ****                 {
 269              		.loc 1 244 17 is_stmt 1 view .LVU98
 244:Middlewares/ST/filex/common/src/fx_directory_search.c ****                 {
 270              		.loc 1 244 20 is_stmt 0 view .LVU99
 271 00ca 5C2A     		cmp	r2, #92
 272 00cc F0D0     		beq	.L112
 273              	.LVL28:
 274              	.L8:
 248:Middlewares/ST/filex/common/src/fx_directory_search.c ****                 {
 275              		.loc 1 248 17 is_stmt 1 view .LVU100
 248:Middlewares/ST/filex/common/src/fx_directory_search.c ****                 {
 276              		.loc 1 248 20 is_stmt 0 view .LVU101
 277 00ce 5C29     		cmp	r1, #92
 278 00d0 F0D1     		bne	.L9
 250:Middlewares/ST/filex/common/src/fx_directory_search.c ****                 }
 279              		.loc 1 250 26 view .LVU102
 280 00d2 2F21     		movs	r1, #47
 281              	.LVL29:
 250:Middlewares/ST/filex/common/src/fx_directory_search.c ****                 }
 282              		.loc 1 250 26 view .LVU103
 283 00d4 EEE7     		b	.L9
 284              	.LVL30:
 285              	.L81:
 250:Middlewares/ST/filex/common/src/fx_directory_search.c ****                 }
 286              		.loc 1 250 26 view .LVU104
 287 00d6 0023     		movs	r3, #0
 288 00d8 EFE7     		b	.L11
 289              	.L111:
 290 00da 0023     		movs	r3, #0
 291 00dc EDE7     		b	.L11
 292              	.LVL31:
 293              	.L10:
 266:Middlewares/ST/filex/common/src/fx_directory_search.c ****             {
 294              		.loc 1 266 13 is_stmt 1 view .LVU105
 266:Middlewares/ST/filex/common/src/fx_directory_search.c ****             {
 295              		.loc 1 266 25 is_stmt 0 view .LVU106
 296 00de 1BF80320 		ldrb	r2, [fp, r3]	@ zero_extendqisi2
 266:Middlewares/ST/filex/common/src/fx_directory_search.c ****             {
 297              		.loc 1 266 69 view .LVU107
 298 00e2 2344     		add	r3, r3, r4
 299              	.LVL32:
 266:Middlewares/ST/filex/common/src/fx_directory_search.c ****             {
 300              		.loc 1 266 69 view .LVU108
 301 00e4 93F8E033 		ldrb	r3, [r3, #992]	@ zero_extendqisi2
 266:Middlewares/ST/filex/common/src/fx_directory_search.c ****             {
 302              		.loc 1 266 16 view .LVU109
 303 00e8 9A42     		cmp	r2, r3
 304 00ea 5ED0     		beq	.L13
 305              	.L5:
 266:Middlewares/ST/filex/common/src/fx_directory_search.c ****             {
 306              		.loc 1 266 16 view .LVU110
 307              	.LBE3:
 283:Middlewares/ST/filex/common/src/fx_directory_search.c ****             {
 284:Middlewares/ST/filex/common/src/fx_directory_search.c **** 
 285:Middlewares/ST/filex/common/src/fx_directory_search.c ****                 /* Yes, compare the current path with what is contained in the last
 286:Middlewares/ST/filex/common/src/fx_directory_search.c ****                    found buffer. Note that the last found name must have at least one
 287:Middlewares/ST/filex/common/src/fx_directory_search.c ****                    path separator as well as room for at least one character for a name. */
ARM GAS  C:\Users\HP\AppData\Local\Temp\ccYVoi0M.s 			page 12


 288:Middlewares/ST/filex/common/src/fx_directory_search.c ****                 while ((v < (FX_MAX_LAST_NAME_LEN - 1)) && (path_ptr[v]))
 289:Middlewares/ST/filex/common/src/fx_directory_search.c ****                 {
 290:Middlewares/ST/filex/common/src/fx_directory_search.c **** 
 291:Middlewares/ST/filex/common/src/fx_directory_search.c ****                     /* Pickup the respective name characters.  */
 292:Middlewares/ST/filex/common/src/fx_directory_search.c ****                     alpha =  media_ptr -> fx_media_last_found_name[v];
 293:Middlewares/ST/filex/common/src/fx_directory_search.c ****                     beta =   path_ptr[v];
 294:Middlewares/ST/filex/common/src/fx_directory_search.c **** 
 295:Middlewares/ST/filex/common/src/fx_directory_search.c ****                     /* Ensure directory markers are the same.  */
 296:Middlewares/ST/filex/common/src/fx_directory_search.c ****                     if (alpha == '\\')
 297:Middlewares/ST/filex/common/src/fx_directory_search.c ****                     {
 298:Middlewares/ST/filex/common/src/fx_directory_search.c ****                         alpha =  '/';
 299:Middlewares/ST/filex/common/src/fx_directory_search.c ****                     }
 300:Middlewares/ST/filex/common/src/fx_directory_search.c ****                     if (beta == '\\')
 301:Middlewares/ST/filex/common/src/fx_directory_search.c ****                     {
 302:Middlewares/ST/filex/common/src/fx_directory_search.c ****                         beta =  '/';
 303:Middlewares/ST/filex/common/src/fx_directory_search.c ****                     }
 304:Middlewares/ST/filex/common/src/fx_directory_search.c **** 
 305:Middlewares/ST/filex/common/src/fx_directory_search.c ****                     /* Is the name the same?  */
 306:Middlewares/ST/filex/common/src/fx_directory_search.c ****                     if (alpha != beta)
 307:Middlewares/ST/filex/common/src/fx_directory_search.c ****                     {
 308:Middlewares/ST/filex/common/src/fx_directory_search.c **** 
 309:Middlewares/ST/filex/common/src/fx_directory_search.c ****                         /* Break out of loop!  */
 310:Middlewares/ST/filex/common/src/fx_directory_search.c ****                         break;
 311:Middlewares/ST/filex/common/src/fx_directory_search.c ****                     }
 312:Middlewares/ST/filex/common/src/fx_directory_search.c **** 
 313:Middlewares/ST/filex/common/src/fx_directory_search.c ****                     /* Move to next character.  */
 314:Middlewares/ST/filex/common/src/fx_directory_search.c ****                     v++;
 315:Middlewares/ST/filex/common/src/fx_directory_search.c ****                 }
 316:Middlewares/ST/filex/common/src/fx_directory_search.c **** 
 317:Middlewares/ST/filex/common/src/fx_directory_search.c ****                 /* Determine if we don't have a match...  The relative path must be exhausted. */
 318:Middlewares/ST/filex/common/src/fx_directory_search.c ****                 if (path_ptr[v])
 319:Middlewares/ST/filex/common/src/fx_directory_search.c ****                 {
 320:Middlewares/ST/filex/common/src/fx_directory_search.c ****                     match =  FX_FALSE;
 321:Middlewares/ST/filex/common/src/fx_directory_search.c ****                 }
 322:Middlewares/ST/filex/common/src/fx_directory_search.c ****             }
 323:Middlewares/ST/filex/common/src/fx_directory_search.c **** 
 324:Middlewares/ST/filex/common/src/fx_directory_search.c ****             /* Determine if we still have a match.  */
 325:Middlewares/ST/filex/common/src/fx_directory_search.c ****             if (match)
 326:Middlewares/ST/filex/common/src/fx_directory_search.c ****             {
 327:Middlewares/ST/filex/common/src/fx_directory_search.c **** 
 328:Middlewares/ST/filex/common/src/fx_directory_search.c ****                 /* Now examine the rest of the last name and the newly supplied
 329:Middlewares/ST/filex/common/src/fx_directory_search.c ****                    input name.  */
 330:Middlewares/ST/filex/common/src/fx_directory_search.c **** 
 331:Middlewares/ST/filex/common/src/fx_directory_search.c ****                 /* Determine if a valid directory separator is present.  */
 332:Middlewares/ST/filex/common/src/fx_directory_search.c ****                 if ((media_ptr -> fx_media_last_found_name[v] != '\\') &&
 333:Middlewares/ST/filex/common/src/fx_directory_search.c ****                     (media_ptr -> fx_media_last_found_name[v] != '/'))
 334:Middlewares/ST/filex/common/src/fx_directory_search.c ****                 {
 335:Middlewares/ST/filex/common/src/fx_directory_search.c **** 
 336:Middlewares/ST/filex/common/src/fx_directory_search.c ****                     /* Set match to false - invalid directory path separator.  */
 337:Middlewares/ST/filex/common/src/fx_directory_search.c ****                     match =  FX_FALSE;
 338:Middlewares/ST/filex/common/src/fx_directory_search.c ****                 }
 339:Middlewares/ST/filex/common/src/fx_directory_search.c ****                 else
 340:Middlewares/ST/filex/common/src/fx_directory_search.c ****                 {
 341:Middlewares/ST/filex/common/src/fx_directory_search.c ****                     /* Position past the next directory separator in the
 342:Middlewares/ST/filex/common/src/fx_directory_search.c ****                        last name string.  */
 343:Middlewares/ST/filex/common/src/fx_directory_search.c ****                     v++;
 344:Middlewares/ST/filex/common/src/fx_directory_search.c ****                 }
ARM GAS  C:\Users\HP\AppData\Local\Temp\ccYVoi0M.s 			page 13


 345:Middlewares/ST/filex/common/src/fx_directory_search.c **** 
 346:Middlewares/ST/filex/common/src/fx_directory_search.c ****                 /* Yes, the full path is in the name buffer. Simply compare with what is in
 347:Middlewares/ST/filex/common/src/fx_directory_search.c ****                    the last search buffer.  */
 348:Middlewares/ST/filex/common/src/fx_directory_search.c ****                 j =  0;
 349:Middlewares/ST/filex/common/src/fx_directory_search.c ****                 while ((v < (FX_MAX_LAST_NAME_LEN - 1)) && (name_ptr[j]) && (match))
 350:Middlewares/ST/filex/common/src/fx_directory_search.c ****                 {
 351:Middlewares/ST/filex/common/src/fx_directory_search.c **** 
 352:Middlewares/ST/filex/common/src/fx_directory_search.c ****                     /* Pickup the respective name characters.  */
 353:Middlewares/ST/filex/common/src/fx_directory_search.c ****                     alpha =  name_ptr[j];
 354:Middlewares/ST/filex/common/src/fx_directory_search.c ****                     beta =   media_ptr -> fx_media_last_found_name[v];
 355:Middlewares/ST/filex/common/src/fx_directory_search.c **** 
 356:Middlewares/ST/filex/common/src/fx_directory_search.c ****                     /* Ensure directory markers are the same.  */
 357:Middlewares/ST/filex/common/src/fx_directory_search.c ****                     if (alpha == '\\')
 358:Middlewares/ST/filex/common/src/fx_directory_search.c ****                     {
 359:Middlewares/ST/filex/common/src/fx_directory_search.c ****                         alpha =  '/';
 360:Middlewares/ST/filex/common/src/fx_directory_search.c ****                     }
 361:Middlewares/ST/filex/common/src/fx_directory_search.c ****                     if (beta == '\\')
 362:Middlewares/ST/filex/common/src/fx_directory_search.c ****                     {
 363:Middlewares/ST/filex/common/src/fx_directory_search.c ****                         beta =  '/';
 364:Middlewares/ST/filex/common/src/fx_directory_search.c ****                     }
 365:Middlewares/ST/filex/common/src/fx_directory_search.c **** 
 366:Middlewares/ST/filex/common/src/fx_directory_search.c ****                     /* Is the name the same?  */
 367:Middlewares/ST/filex/common/src/fx_directory_search.c ****                     if (alpha != beta)
 368:Middlewares/ST/filex/common/src/fx_directory_search.c ****                     {
 369:Middlewares/ST/filex/common/src/fx_directory_search.c **** 
 370:Middlewares/ST/filex/common/src/fx_directory_search.c ****                         /* Break out of loop!  */
 371:Middlewares/ST/filex/common/src/fx_directory_search.c ****                         break;
 372:Middlewares/ST/filex/common/src/fx_directory_search.c ****                     }
 373:Middlewares/ST/filex/common/src/fx_directory_search.c **** 
 374:Middlewares/ST/filex/common/src/fx_directory_search.c ****                     /* Move to next character.  */
 375:Middlewares/ST/filex/common/src/fx_directory_search.c ****                     v++;
 376:Middlewares/ST/filex/common/src/fx_directory_search.c ****                     j++;
 377:Middlewares/ST/filex/common/src/fx_directory_search.c ****                 }
 378:Middlewares/ST/filex/common/src/fx_directory_search.c **** 
 379:Middlewares/ST/filex/common/src/fx_directory_search.c ****                 /* Avoid accessing fx_media_last_found_name out of bounds. */
 380:Middlewares/ST/filex/common/src/fx_directory_search.c ****                 if (v >= 256)
 381:Middlewares/ST/filex/common/src/fx_directory_search.c ****                 {
 382:Middlewares/ST/filex/common/src/fx_directory_search.c ****                     match = FX_FALSE;
 383:Middlewares/ST/filex/common/src/fx_directory_search.c ****                 }
 384:Middlewares/ST/filex/common/src/fx_directory_search.c ****                 else if ((match) && (name_ptr[j] != media_ptr -> fx_media_last_found_name[v]))
 385:Middlewares/ST/filex/common/src/fx_directory_search.c ****                 {
 386:Middlewares/ST/filex/common/src/fx_directory_search.c **** 
 387:Middlewares/ST/filex/common/src/fx_directory_search.c ****                     /* We don't have a match.  */
 388:Middlewares/ST/filex/common/src/fx_directory_search.c ****                     match =  FX_FALSE;
 389:Middlewares/ST/filex/common/src/fx_directory_search.c ****                 }
 390:Middlewares/ST/filex/common/src/fx_directory_search.c ****             }
 391:Middlewares/ST/filex/common/src/fx_directory_search.c ****         }
 392:Middlewares/ST/filex/common/src/fx_directory_search.c **** 
 393:Middlewares/ST/filex/common/src/fx_directory_search.c ****         /* Now determine if we actually found a match.  */
 394:Middlewares/ST/filex/common/src/fx_directory_search.c ****         if (match)
 395:Middlewares/ST/filex/common/src/fx_directory_search.c ****         {
 396:Middlewares/ST/filex/common/src/fx_directory_search.c **** 
 397:Middlewares/ST/filex/common/src/fx_directory_search.c ****             /* Save the directory entry name pointer.  */
 398:Middlewares/ST/filex/common/src/fx_directory_search.c ****             temp_ptr =  entry_ptr -> fx_dir_entry_name;
 399:Middlewares/ST/filex/common/src/fx_directory_search.c **** 
 400:Middlewares/ST/filex/common/src/fx_directory_search.c ****             /* Copy the saved directory entry.  */
 401:Middlewares/ST/filex/common/src/fx_directory_search.c ****             *entry_ptr =  media_ptr -> fx_media_last_found_entry;
ARM GAS  C:\Users\HP\AppData\Local\Temp\ccYVoi0M.s 			page 14


 402:Middlewares/ST/filex/common/src/fx_directory_search.c **** 
 403:Middlewares/ST/filex/common/src/fx_directory_search.c ****             /* Restore the directory entry name pointer.  */
 404:Middlewares/ST/filex/common/src/fx_directory_search.c ****             entry_ptr -> fx_dir_entry_name =  temp_ptr;
 405:Middlewares/ST/filex/common/src/fx_directory_search.c **** 
 406:Middlewares/ST/filex/common/src/fx_directory_search.c ****             /* Copy the directory name into the destination directory name.  */
 407:Middlewares/ST/filex/common/src/fx_directory_search.c ****             for (index = 0; index < FX_MAX_LONG_NAME_LEN; index++)
 408:Middlewares/ST/filex/common/src/fx_directory_search.c ****             {
 409:Middlewares/ST/filex/common/src/fx_directory_search.c **** 
 410:Middlewares/ST/filex/common/src/fx_directory_search.c ****                 /* Copy character into the destination.  */
 411:Middlewares/ST/filex/common/src/fx_directory_search.c ****                 temp_ptr[index] =  media_ptr -> fx_media_last_found_file_name[index];
 412:Middlewares/ST/filex/common/src/fx_directory_search.c **** 
 413:Middlewares/ST/filex/common/src/fx_directory_search.c ****                 /* See if we have copied the NULL termination character.  */
 414:Middlewares/ST/filex/common/src/fx_directory_search.c ****                 if (temp_ptr[index] == (CHAR)FX_NULL)
 415:Middlewares/ST/filex/common/src/fx_directory_search.c ****                 {
 416:Middlewares/ST/filex/common/src/fx_directory_search.c ****                 
 417:Middlewares/ST/filex/common/src/fx_directory_search.c ****                     /* Determine if we should break here or at the top of the loop.  */
 418:Middlewares/ST/filex/common/src/fx_directory_search.c ****                     if (index < (FX_MAX_LONG_NAME_LEN - 1))
 419:Middlewares/ST/filex/common/src/fx_directory_search.c ****                     {
 420:Middlewares/ST/filex/common/src/fx_directory_search.c ****                     
 421:Middlewares/ST/filex/common/src/fx_directory_search.c ****                         /* Yes, break out of the loop early.  */
 422:Middlewares/ST/filex/common/src/fx_directory_search.c ****                         break;
 423:Middlewares/ST/filex/common/src/fx_directory_search.c ****                     }
 424:Middlewares/ST/filex/common/src/fx_directory_search.c ****                 }
 425:Middlewares/ST/filex/common/src/fx_directory_search.c ****             }
 426:Middlewares/ST/filex/common/src/fx_directory_search.c **** 
 427:Middlewares/ST/filex/common/src/fx_directory_search.c ****             /* Determine if there is a search directory to copy.  */
 428:Middlewares/ST/filex/common/src/fx_directory_search.c ****             if ((last_dir_ptr) && (media_ptr -> fx_media_last_found_directory_valid))
 429:Middlewares/ST/filex/common/src/fx_directory_search.c ****             {
 430:Middlewares/ST/filex/common/src/fx_directory_search.c **** 
 431:Middlewares/ST/filex/common/src/fx_directory_search.c ****                 /* Yes, there was a search directory... and one is requested in this request as wel
 432:Middlewares/ST/filex/common/src/fx_directory_search.c ****                    Simply copy it into the destination.  */
 433:Middlewares/ST/filex/common/src/fx_directory_search.c **** 
 434:Middlewares/ST/filex/common/src/fx_directory_search.c ****                 /* First, save the name pointer from the list directory pointer.  */
 435:Middlewares/ST/filex/common/src/fx_directory_search.c ****                 destination_name_ptr =  last_dir_ptr -> fx_dir_entry_name;
 436:Middlewares/ST/filex/common/src/fx_directory_search.c **** 
 437:Middlewares/ST/filex/common/src/fx_directory_search.c ****                 /* Copy the entire directory entry structure.  */
 438:Middlewares/ST/filex/common/src/fx_directory_search.c ****                 *last_dir_ptr =  media_ptr -> fx_media_last_found_directory;
 439:Middlewares/ST/filex/common/src/fx_directory_search.c **** 
 440:Middlewares/ST/filex/common/src/fx_directory_search.c ****                 /* Restore the original name buffer pointer.  */
 441:Middlewares/ST/filex/common/src/fx_directory_search.c ****                 last_dir_ptr -> fx_dir_entry_name =  destination_name_ptr;
 442:Middlewares/ST/filex/common/src/fx_directory_search.c **** 
 443:Middlewares/ST/filex/common/src/fx_directory_search.c ****                 /* Pickup pointer to name to copy.  */
 444:Middlewares/ST/filex/common/src/fx_directory_search.c ****                 source_name_ptr =  media_ptr -> fx_media_last_found_directory.fx_dir_entry_name;
 445:Middlewares/ST/filex/common/src/fx_directory_search.c **** 
 446:Middlewares/ST/filex/common/src/fx_directory_search.c ****                 /* Loop to copy the name into the last directory name buffer.  */
 447:Middlewares/ST/filex/common/src/fx_directory_search.c ****                 for (n = 0; n < FX_MAX_LONG_NAME_LEN; n++)
 448:Middlewares/ST/filex/common/src/fx_directory_search.c ****                 {
 449:Middlewares/ST/filex/common/src/fx_directory_search.c ****                 
 450:Middlewares/ST/filex/common/src/fx_directory_search.c ****                     /* Copy a character.  */
 451:Middlewares/ST/filex/common/src/fx_directory_search.c ****                     destination_name_ptr[n] =  source_name_ptr[n];
 452:Middlewares/ST/filex/common/src/fx_directory_search.c ****                 
 453:Middlewares/ST/filex/common/src/fx_directory_search.c ****                     /* See if we have copied the NULL termination character.  */
 454:Middlewares/ST/filex/common/src/fx_directory_search.c ****                     if (source_name_ptr[n] == (CHAR)FX_NULL)
 455:Middlewares/ST/filex/common/src/fx_directory_search.c ****                     {
 456:Middlewares/ST/filex/common/src/fx_directory_search.c ****                 
 457:Middlewares/ST/filex/common/src/fx_directory_search.c ****                         /* Determine if we should break here or at the top of the loop.  */
 458:Middlewares/ST/filex/common/src/fx_directory_search.c ****                         if (n < (FX_MAX_LONG_NAME_LEN - 1))
ARM GAS  C:\Users\HP\AppData\Local\Temp\ccYVoi0M.s 			page 15


 459:Middlewares/ST/filex/common/src/fx_directory_search.c ****                         {
 460:Middlewares/ST/filex/common/src/fx_directory_search.c ****                     
 461:Middlewares/ST/filex/common/src/fx_directory_search.c ****                             /* Yes, break out of the loop early.  */
 462:Middlewares/ST/filex/common/src/fx_directory_search.c ****                             break;
 463:Middlewares/ST/filex/common/src/fx_directory_search.c ****                         }
 464:Middlewares/ST/filex/common/src/fx_directory_search.c ****                     }
 465:Middlewares/ST/filex/common/src/fx_directory_search.c ****                 }
 466:Middlewares/ST/filex/common/src/fx_directory_search.c ****             }
 467:Middlewares/ST/filex/common/src/fx_directory_search.c **** 
 468:Middlewares/ST/filex/common/src/fx_directory_search.c ****             /* Return the last name pointer, if required.  */
 469:Middlewares/ST/filex/common/src/fx_directory_search.c ****             if (last_name_ptr)
 470:Middlewares/ST/filex/common/src/fx_directory_search.c ****             {
 471:Middlewares/ST/filex/common/src/fx_directory_search.c **** 
 472:Middlewares/ST/filex/common/src/fx_directory_search.c ****                 /* Just set the last name to initial name string.  */
 473:Middlewares/ST/filex/common/src/fx_directory_search.c ****                 *last_name_ptr =  temp_ptr;
 474:Middlewares/ST/filex/common/src/fx_directory_search.c ****             }
 475:Middlewares/ST/filex/common/src/fx_directory_search.c **** 
 476:Middlewares/ST/filex/common/src/fx_directory_search.c **** #ifndef FX_MEDIA_STATISTICS_DISABLE
 477:Middlewares/ST/filex/common/src/fx_directory_search.c **** 
 478:Middlewares/ST/filex/common/src/fx_directory_search.c ****             /* Increment the number of directory search cache hits.  */
 479:Middlewares/ST/filex/common/src/fx_directory_search.c ****             media_ptr -> fx_media_directory_search_cache_hits++;
 480:Middlewares/ST/filex/common/src/fx_directory_search.c **** #endif
 481:Middlewares/ST/filex/common/src/fx_directory_search.c **** 
 482:Middlewares/ST/filex/common/src/fx_directory_search.c ****             /* Return success.  */
 483:Middlewares/ST/filex/common/src/fx_directory_search.c ****             return(FX_SUCCESS);
 484:Middlewares/ST/filex/common/src/fx_directory_search.c ****         }
 485:Middlewares/ST/filex/common/src/fx_directory_search.c ****     }
 486:Middlewares/ST/filex/common/src/fx_directory_search.c **** 
 487:Middlewares/ST/filex/common/src/fx_directory_search.c ****     /* Not a sequential search, invalidate the saved information.  */
 488:Middlewares/ST/filex/common/src/fx_directory_search.c ****     media_ptr -> fx_media_last_found_name[0] =  FX_NULL;
 308              		.loc 1 488 5 is_stmt 1 view .LVU111
 309              		.loc 1 488 46 is_stmt 0 view .LVU112
 310 00ec 0023     		movs	r3, #0
 311 00ee 84F8E033 		strb	r3, [r4, #992]
 312 00f2 B846     		mov	r8, r7
 313 00f4 CDF814B0 		str	fp, [sp, #20]
 314              	.LVL33:
 315              	.L62:
 489:Middlewares/ST/filex/common/src/fx_directory_search.c **** 
 490:Middlewares/ST/filex/common/src/fx_directory_search.c **** #ifndef FX_MEDIA_STATISTICS_DISABLE
 491:Middlewares/ST/filex/common/src/fx_directory_search.c **** 
 492:Middlewares/ST/filex/common/src/fx_directory_search.c ****     /* If trace is enabled, insert this event into the trace buffer.  */
 493:Middlewares/ST/filex/common/src/fx_directory_search.c ****     FX_TRACE_IN_LINE_INSERT(FX_TRACE_INTERNAL_DIR_CACHE_MISS, media_ptr, media_ptr -> fx_media_dire
 494:Middlewares/ST/filex/common/src/fx_directory_search.c **** #else
 495:Middlewares/ST/filex/common/src/fx_directory_search.c **** 
 496:Middlewares/ST/filex/common/src/fx_directory_search.c ****     /* If trace is enabled, insert this event into the trace buffer.  */
 497:Middlewares/ST/filex/common/src/fx_directory_search.c ****     FX_TRACE_IN_LINE_INSERT(FX_TRACE_INTERNAL_DIR_CACHE_MISS, media_ptr, 0, 0, 0, FX_TRACE_INTERNAL
 498:Middlewares/ST/filex/common/src/fx_directory_search.c **** #endif
 499:Middlewares/ST/filex/common/src/fx_directory_search.c **** #endif
 500:Middlewares/ST/filex/common/src/fx_directory_search.c **** 
 501:Middlewares/ST/filex/common/src/fx_directory_search.c ****     /* Loop to traverse the directory paths to find the specified file.  */
 502:Middlewares/ST/filex/common/src/fx_directory_search.c ****     do
 316              		.loc 1 502 5 is_stmt 1 view .LVU113
 503:Middlewares/ST/filex/common/src/fx_directory_search.c ****     {
 504:Middlewares/ST/filex/common/src/fx_directory_search.c **** 
 505:Middlewares/ST/filex/common/src/fx_directory_search.c ****         /* Remember the last name pointer, if required.  */
 506:Middlewares/ST/filex/common/src/fx_directory_search.c ****         if (last_name_ptr)
ARM GAS  C:\Users\HP\AppData\Local\Temp\ccYVoi0M.s 			page 16


 317              		.loc 1 506 9 view .LVU114
 318              		.loc 1 506 12 is_stmt 0 view .LVU115
 319 00f8 2E9B     		ldr	r3, [sp, #184]
 320 00fa 0BB1     		cbz	r3, .L38
 507:Middlewares/ST/filex/common/src/fx_directory_search.c ****         {
 508:Middlewares/ST/filex/common/src/fx_directory_search.c **** 
 509:Middlewares/ST/filex/common/src/fx_directory_search.c ****             /* Just set the last name to initial name string.  */
 510:Middlewares/ST/filex/common/src/fx_directory_search.c ****             *last_name_ptr =  name_ptr;
 321              		.loc 1 510 13 is_stmt 1 view .LVU116
 322              		.loc 1 510 28 is_stmt 0 view .LVU117
 323 00fc C3F800B0 		str	fp, [r3]
 324              	.L38:
 511:Middlewares/ST/filex/common/src/fx_directory_search.c ****         }
 512:Middlewares/ST/filex/common/src/fx_directory_search.c **** 
 513:Middlewares/ST/filex/common/src/fx_directory_search.c ****         /* Extract file name.  */
 514:Middlewares/ST/filex/common/src/fx_directory_search.c ****         name_ptr =  _fx_directory_name_extract(name_ptr, name);
 325              		.loc 1 514 9 is_stmt 1 view .LVU118
 326              		.loc 1 514 21 is_stmt 0 view .LVU119
 327 0100 0299     		ldr	r1, [sp, #8]
 328 0102 5846     		mov	r0, fp
 329 0104 FFF7FEFF 		bl	_fx_directory_name_extract
 330              	.LVL34:
 331 0108 8346     		mov	fp, r0
 332              	.LVL35:
 515:Middlewares/ST/filex/common/src/fx_directory_search.c **** 
 516:Middlewares/ST/filex/common/src/fx_directory_search.c ****         /* Calculate the directory size.  */
 517:Middlewares/ST/filex/common/src/fx_directory_search.c ****         if (search_dir_ptr)
 333              		.loc 1 517 9 is_stmt 1 view .LVU120
 334              		.loc 1 517 12 is_stmt 0 view .LVU121
 335 010a B8F1000F 		cmp	r8, #0
 336 010e 40F08580 		bne	.L113
 518:Middlewares/ST/filex/common/src/fx_directory_search.c ****         {
 519:Middlewares/ST/filex/common/src/fx_directory_search.c **** #ifdef FX_ENABLE_EXFAT
 520:Middlewares/ST/filex/common/src/fx_directory_search.c ****             if (media_ptr -> fx_media_FAT_type == FX_exFAT)
 521:Middlewares/ST/filex/common/src/fx_directory_search.c ****             {
 522:Middlewares/ST/filex/common/src/fx_directory_search.c ****                 directory_size = search_dir_ptr -> fx_dir_entry_file_size / FX_DIR_ENTRY_SIZE;
 523:Middlewares/ST/filex/common/src/fx_directory_search.c ****             }
 524:Middlewares/ST/filex/common/src/fx_directory_search.c ****             else
 525:Middlewares/ST/filex/common/src/fx_directory_search.c ****             {
 526:Middlewares/ST/filex/common/src/fx_directory_search.c **** #endif /* FX_ENABLE_EXFAT */
 527:Middlewares/ST/filex/common/src/fx_directory_search.c **** 
 528:Middlewares/ST/filex/common/src/fx_directory_search.c ****                 /* Ensure that the search directory's last search cluster is cleared.  */
 529:Middlewares/ST/filex/common/src/fx_directory_search.c ****                 search_dir_ptr -> fx_dir_entry_last_search_cluster =  0;
 530:Middlewares/ST/filex/common/src/fx_directory_search.c **** 
 531:Middlewares/ST/filex/common/src/fx_directory_search.c ****                 /* Calculate the directory size by counting the allocated
 532:Middlewares/ST/filex/common/src/fx_directory_search.c ****                 clusters for it.  */
 533:Middlewares/ST/filex/common/src/fx_directory_search.c ****                 i =        0;
 534:Middlewares/ST/filex/common/src/fx_directory_search.c ****                 cluster =  search_dir_ptr -> fx_dir_entry_cluster;
 535:Middlewares/ST/filex/common/src/fx_directory_search.c ****                 while (cluster < media_ptr -> fx_media_fat_reserved)
 536:Middlewares/ST/filex/common/src/fx_directory_search.c ****                 {
 537:Middlewares/ST/filex/common/src/fx_directory_search.c **** 
 538:Middlewares/ST/filex/common/src/fx_directory_search.c ****                     /* Increment the cluster count.  */
 539:Middlewares/ST/filex/common/src/fx_directory_search.c ****                     i++;
 540:Middlewares/ST/filex/common/src/fx_directory_search.c **** 
 541:Middlewares/ST/filex/common/src/fx_directory_search.c ****                     /* Read the next FAT entry.  */
 542:Middlewares/ST/filex/common/src/fx_directory_search.c ****                     status =  _fx_utility_FAT_entry_read(media_ptr, cluster, &next_cluster);
 543:Middlewares/ST/filex/common/src/fx_directory_search.c **** 
ARM GAS  C:\Users\HP\AppData\Local\Temp\ccYVoi0M.s 			page 17


 544:Middlewares/ST/filex/common/src/fx_directory_search.c ****                     /* Check the return status.  */
 545:Middlewares/ST/filex/common/src/fx_directory_search.c ****                     if (status != FX_SUCCESS)
 546:Middlewares/ST/filex/common/src/fx_directory_search.c ****                     {
 547:Middlewares/ST/filex/common/src/fx_directory_search.c **** 
 548:Middlewares/ST/filex/common/src/fx_directory_search.c ****                         /* Return the bad status.  */
 549:Middlewares/ST/filex/common/src/fx_directory_search.c ****                         return(status);
 550:Middlewares/ST/filex/common/src/fx_directory_search.c ****                     }
 551:Middlewares/ST/filex/common/src/fx_directory_search.c **** 
 552:Middlewares/ST/filex/common/src/fx_directory_search.c ****                     /* Check for error situation.  */
 553:Middlewares/ST/filex/common/src/fx_directory_search.c ****                     if ((cluster < FX_FAT_ENTRY_START) || (cluster == next_cluster) || (i > media_p
 554:Middlewares/ST/filex/common/src/fx_directory_search.c ****                     {
 555:Middlewares/ST/filex/common/src/fx_directory_search.c **** 
 556:Middlewares/ST/filex/common/src/fx_directory_search.c ****                         /* Return the bad status.  */
 557:Middlewares/ST/filex/common/src/fx_directory_search.c ****                         return(FX_FAT_READ_ERROR);
 558:Middlewares/ST/filex/common/src/fx_directory_search.c ****                     }
 559:Middlewares/ST/filex/common/src/fx_directory_search.c **** 
 560:Middlewares/ST/filex/common/src/fx_directory_search.c ****                     cluster = next_cluster;
 561:Middlewares/ST/filex/common/src/fx_directory_search.c ****                 }
 562:Middlewares/ST/filex/common/src/fx_directory_search.c **** 
 563:Middlewares/ST/filex/common/src/fx_directory_search.c ****                 /* Now we can calculate the directory size.  */
 564:Middlewares/ST/filex/common/src/fx_directory_search.c ****                 directory_size =  (((ULONG64) media_ptr -> fx_media_bytes_per_sector) *
 565:Middlewares/ST/filex/common/src/fx_directory_search.c ****                                    ((ULONG64) media_ptr -> fx_media_sectors_per_cluster) * i)
 566:Middlewares/ST/filex/common/src/fx_directory_search.c ****                                     / (ULONG64) FX_DIR_ENTRY_SIZE;
 567:Middlewares/ST/filex/common/src/fx_directory_search.c **** 
 568:Middlewares/ST/filex/common/src/fx_directory_search.c ****                 /* Also save this in the directory entry so we don't have to
 569:Middlewares/ST/filex/common/src/fx_directory_search.c ****                    calculate it later.  */
 570:Middlewares/ST/filex/common/src/fx_directory_search.c ****                 search_dir_ptr -> fx_dir_entry_file_size =  directory_size;
 571:Middlewares/ST/filex/common/src/fx_directory_search.c **** #ifdef FX_ENABLE_EXFAT
 572:Middlewares/ST/filex/common/src/fx_directory_search.c ****             }
 573:Middlewares/ST/filex/common/src/fx_directory_search.c **** #endif /* FX_ENABLE_EXFAT */
 574:Middlewares/ST/filex/common/src/fx_directory_search.c **** 
 575:Middlewares/ST/filex/common/src/fx_directory_search.c ****             /* If required, copy the last search directory entry into the
 576:Middlewares/ST/filex/common/src/fx_directory_search.c ****                destination.  */
 577:Middlewares/ST/filex/common/src/fx_directory_search.c ****             if (last_dir_ptr)
 578:Middlewares/ST/filex/common/src/fx_directory_search.c ****             {
 579:Middlewares/ST/filex/common/src/fx_directory_search.c **** 
 580:Middlewares/ST/filex/common/src/fx_directory_search.c ****                 /* Copy the last search directory into the destination.  */
 581:Middlewares/ST/filex/common/src/fx_directory_search.c **** 
 582:Middlewares/ST/filex/common/src/fx_directory_search.c ****                 /* First, save the name pointer from the list directory pointer.  */
 583:Middlewares/ST/filex/common/src/fx_directory_search.c ****                 destination_name_ptr =  last_dir_ptr -> fx_dir_entry_name;
 584:Middlewares/ST/filex/common/src/fx_directory_search.c **** 
 585:Middlewares/ST/filex/common/src/fx_directory_search.c ****                 /* Copy the entire directory entry structure.  */
 586:Middlewares/ST/filex/common/src/fx_directory_search.c ****                 *last_dir_ptr =  *search_dir_ptr;
 587:Middlewares/ST/filex/common/src/fx_directory_search.c **** 
 588:Middlewares/ST/filex/common/src/fx_directory_search.c ****                 /* Restore the original name buffer pointer.  */
 589:Middlewares/ST/filex/common/src/fx_directory_search.c ****                 last_dir_ptr -> fx_dir_entry_name =  destination_name_ptr;
 590:Middlewares/ST/filex/common/src/fx_directory_search.c **** 
 591:Middlewares/ST/filex/common/src/fx_directory_search.c ****                 /* Pickup pointer to name to copy.  */
 592:Middlewares/ST/filex/common/src/fx_directory_search.c ****                 source_name_ptr =  search_dir_ptr -> fx_dir_entry_name;
 593:Middlewares/ST/filex/common/src/fx_directory_search.c **** 
 594:Middlewares/ST/filex/common/src/fx_directory_search.c ****                 /* Loop to copy the name into the last directory name buffer.  */
 595:Middlewares/ST/filex/common/src/fx_directory_search.c ****                 for (n = 0; n < FX_MAX_LONG_NAME_LEN; n++)
 596:Middlewares/ST/filex/common/src/fx_directory_search.c ****                 {
 597:Middlewares/ST/filex/common/src/fx_directory_search.c **** 
 598:Middlewares/ST/filex/common/src/fx_directory_search.c ****                     /* Copy a character.  */
 599:Middlewares/ST/filex/common/src/fx_directory_search.c ****                     destination_name_ptr[n] =  source_name_ptr[n];
 600:Middlewares/ST/filex/common/src/fx_directory_search.c **** 
ARM GAS  C:\Users\HP\AppData\Local\Temp\ccYVoi0M.s 			page 18


 601:Middlewares/ST/filex/common/src/fx_directory_search.c ****                     /* See if we have copied the NULL termination character.  */
 602:Middlewares/ST/filex/common/src/fx_directory_search.c ****                     if (source_name_ptr[n] == (CHAR) FX_NULL)
 603:Middlewares/ST/filex/common/src/fx_directory_search.c ****                     {
 604:Middlewares/ST/filex/common/src/fx_directory_search.c ****                 
 605:Middlewares/ST/filex/common/src/fx_directory_search.c ****                         /* Determine if we should break here or at the top of the loop.  */
 606:Middlewares/ST/filex/common/src/fx_directory_search.c ****                         if (n < (FX_MAX_LONG_NAME_LEN - 1))
 607:Middlewares/ST/filex/common/src/fx_directory_search.c ****                         {
 608:Middlewares/ST/filex/common/src/fx_directory_search.c ****                     
 609:Middlewares/ST/filex/common/src/fx_directory_search.c ****                             /* Yes, break out of the loop early.  */
 610:Middlewares/ST/filex/common/src/fx_directory_search.c ****                             break;
 611:Middlewares/ST/filex/common/src/fx_directory_search.c ****                         }
 612:Middlewares/ST/filex/common/src/fx_directory_search.c ****                     }
 613:Middlewares/ST/filex/common/src/fx_directory_search.c ****                 }
 614:Middlewares/ST/filex/common/src/fx_directory_search.c ****             }
 615:Middlewares/ST/filex/common/src/fx_directory_search.c ****         }
 616:Middlewares/ST/filex/common/src/fx_directory_search.c ****         else
 617:Middlewares/ST/filex/common/src/fx_directory_search.c ****         {
 618:Middlewares/ST/filex/common/src/fx_directory_search.c **** 
 619:Middlewares/ST/filex/common/src/fx_directory_search.c ****             /* Directory size is the number of entries in the root directory.  */
 620:Middlewares/ST/filex/common/src/fx_directory_search.c ****             directory_size =  (ULONG)media_ptr -> fx_media_root_directory_entries;
 337              		.loc 1 620 13 is_stmt 1 view .LVU122
 338              		.loc 1 620 28 is_stmt 0 view .LVU123
 339 0112 D4F87890 		ldr	r9, [r4, #120]
 340 0116 4FF0000A 		mov	r10, #0
 341              	.LVL36:
 342              	.L42:
 621:Middlewares/ST/filex/common/src/fx_directory_search.c ****         }
 622:Middlewares/ST/filex/common/src/fx_directory_search.c **** 
 623:Middlewares/ST/filex/common/src/fx_directory_search.c ****         /* Loop through entries in the directory.  Yes, this is a
 624:Middlewares/ST/filex/common/src/fx_directory_search.c ****            linear search!  */
 625:Middlewares/ST/filex/common/src/fx_directory_search.c ****         i =      0;
 343              		.loc 1 625 9 is_stmt 1 view .LVU124
 344              		.loc 1 625 11 is_stmt 0 view .LVU125
 345 011a 0027     		movs	r7, #0
 346 011c 2397     		str	r7, [sp, #140]
 626:Middlewares/ST/filex/common/src/fx_directory_search.c ****         found =  FX_FALSE;
 347              		.loc 1 626 9 is_stmt 1 view .LVU126
 348              	.LVL37:
 349              		.loc 1 626 9 is_stmt 0 view .LVU127
 350 011e FEE0     		b	.L57
 351              	.LVL38:
 352              	.L114:
 353              	.LBB4:
 298:Middlewares/ST/filex/common/src/fx_directory_search.c ****                     }
 354              		.loc 1 298 31 view .LVU128
 355 0120 2F21     		movs	r1, #47
 356              	.LVL39:
 298:Middlewares/ST/filex/common/src/fx_directory_search.c ****                     }
 357              		.loc 1 298 31 view .LVU129
 358 0122 0BE0     		b	.L16
 359              	.LVL40:
 360              	.L17:
 306:Middlewares/ST/filex/common/src/fx_directory_search.c ****                     {
 361              		.loc 1 306 21 is_stmt 1 view .LVU130
 306:Middlewares/ST/filex/common/src/fx_directory_search.c ****                     {
 362              		.loc 1 306 24 is_stmt 0 view .LVU131
 363 0124 9142     		cmp	r1, r2
ARM GAS  C:\Users\HP\AppData\Local\Temp\ccYVoi0M.s 			page 19


 364 0126 0DD1     		bne	.L18
 314:Middlewares/ST/filex/common/src/fx_directory_search.c ****                 }
 365              		.loc 1 314 21 is_stmt 1 view .LVU132
 314:Middlewares/ST/filex/common/src/fx_directory_search.c ****                 }
 366              		.loc 1 314 22 is_stmt 0 view .LVU133
 367 0128 0133     		adds	r3, r3, #1
 368              	.LVL41:
 369              	.L14:
 288:Middlewares/ST/filex/common/src/fx_directory_search.c ****                 {
 370              		.loc 1 288 23 is_stmt 1 view .LVU134
 371 012a FE2B     		cmp	r3, #254
 372 012c 0AD8     		bhi	.L18
 288:Middlewares/ST/filex/common/src/fx_directory_search.c ****                 {
 373              		.loc 1 288 69 is_stmt 0 discriminator 1 view .LVU135
 374 012e C25C     		ldrb	r2, [r0, r3]	@ zero_extendqisi2
 288:Middlewares/ST/filex/common/src/fx_directory_search.c ****                 {
 375              		.loc 1 288 57 discriminator 1 view .LVU136
 376 0130 42B1     		cbz	r2, .L18
 292:Middlewares/ST/filex/common/src/fx_directory_search.c ****                     beta =   path_ptr[v];
 377              		.loc 1 292 21 is_stmt 1 view .LVU137
 292:Middlewares/ST/filex/common/src/fx_directory_search.c ****                     beta =   path_ptr[v];
 378              		.loc 1 292 27 is_stmt 0 view .LVU138
 379 0132 E118     		adds	r1, r4, r3
 380 0134 91F8E013 		ldrb	r1, [r1, #992]	@ zero_extendqisi2
 381              	.LVL42:
 293:Middlewares/ST/filex/common/src/fx_directory_search.c **** 
 382              		.loc 1 293 21 is_stmt 1 view .LVU139
 296:Middlewares/ST/filex/common/src/fx_directory_search.c ****                     {
 383              		.loc 1 296 21 view .LVU140
 296:Middlewares/ST/filex/common/src/fx_directory_search.c ****                     {
 384              		.loc 1 296 24 is_stmt 0 view .LVU141
 385 0138 5C29     		cmp	r1, #92
 386 013a F1D0     		beq	.L114
 387              	.LVL43:
 388              	.L16:
 300:Middlewares/ST/filex/common/src/fx_directory_search.c ****                     {
 389              		.loc 1 300 21 is_stmt 1 view .LVU142
 300:Middlewares/ST/filex/common/src/fx_directory_search.c ****                     {
 390              		.loc 1 300 24 is_stmt 0 view .LVU143
 391 013c 5C2A     		cmp	r2, #92
 392 013e F1D1     		bne	.L17
 302:Middlewares/ST/filex/common/src/fx_directory_search.c ****                     }
 393              		.loc 1 302 30 view .LVU144
 394 0140 2F22     		movs	r2, #47
 395              	.LVL44:
 302:Middlewares/ST/filex/common/src/fx_directory_search.c ****                     }
 396              		.loc 1 302 30 view .LVU145
 397 0142 EFE7     		b	.L17
 398              	.LVL45:
 399              	.L18:
 318:Middlewares/ST/filex/common/src/fx_directory_search.c ****                 {
 400              		.loc 1 318 17 is_stmt 1 view .LVU146
 318:Middlewares/ST/filex/common/src/fx_directory_search.c ****                 {
 401              		.loc 1 318 29 is_stmt 0 view .LVU147
 402 0144 039A     		ldr	r2, [sp, #12]
 403 0146 D25C     		ldrb	r2, [r2, r3]	@ zero_extendqisi2
 318:Middlewares/ST/filex/common/src/fx_directory_search.c ****                 {
ARM GAS  C:\Users\HP\AppData\Local\Temp\ccYVoi0M.s 			page 20


 404              		.loc 1 318 20 view .LVU148
 405 0148 62BB     		cbnz	r2, .L88
 406              	.LVL46:
 407              	.L15:
 332:Middlewares/ST/filex/common/src/fx_directory_search.c ****                     (media_ptr -> fx_media_last_found_name[v] != '/'))
 408              		.loc 1 332 17 is_stmt 1 view .LVU149
 332:Middlewares/ST/filex/common/src/fx_directory_search.c ****                     (media_ptr -> fx_media_last_found_name[v] != '/'))
 409              		.loc 1 332 59 is_stmt 0 view .LVU150
 410 014a E218     		adds	r2, r4, r3
 411 014c 92F8E023 		ldrb	r2, [r2, #992]	@ zero_extendqisi2
 332:Middlewares/ST/filex/common/src/fx_directory_search.c ****                     (media_ptr -> fx_media_last_found_name[v] != '/'))
 412              		.loc 1 332 20 view .LVU151
 413 0150 5C2A     		cmp	r2, #92
 414 0152 01D0     		beq	.L21
 332:Middlewares/ST/filex/common/src/fx_directory_search.c ****                     (media_ptr -> fx_media_last_found_name[v] != '/'))
 415              		.loc 1 332 72 discriminator 1 view .LVU152
 416 0154 2F2A     		cmp	r2, #47
 417 0156 03D1     		bne	.L89
 418              	.L21:
 343:Middlewares/ST/filex/common/src/fx_directory_search.c ****                 }
 419              		.loc 1 343 21 is_stmt 1 view .LVU153
 343:Middlewares/ST/filex/common/src/fx_directory_search.c ****                 }
 420              		.loc 1 343 22 is_stmt 0 view .LVU154
 421 0158 0133     		adds	r3, r3, #1
 422              	.LVL47:
 343:Middlewares/ST/filex/common/src/fx_directory_search.c ****                 }
 423              		.loc 1 343 22 view .LVU155
 424 015a 0126     		movs	r6, #1
 425              	.LVL48:
 426              	.L22:
 348:Middlewares/ST/filex/common/src/fx_directory_search.c ****                 while ((v < (FX_MAX_LAST_NAME_LEN - 1)) && (name_ptr[j]) && (match))
 427              		.loc 1 348 17 is_stmt 1 view .LVU156
 349:Middlewares/ST/filex/common/src/fx_directory_search.c ****                 {
 428              		.loc 1 349 17 view .LVU157
 348:Middlewares/ST/filex/common/src/fx_directory_search.c ****                 while ((v < (FX_MAX_LAST_NAME_LEN - 1)) && (name_ptr[j]) && (match))
 429              		.loc 1 348 19 is_stmt 0 view .LVU158
 430 015c 0020     		movs	r0, #0
 349:Middlewares/ST/filex/common/src/fx_directory_search.c ****                 {
 431              		.loc 1 349 23 view .LVU159
 432 015e 07E0     		b	.L23
 433              	.LVL49:
 434              	.L89:
 337:Middlewares/ST/filex/common/src/fx_directory_search.c ****                 }
 435              		.loc 1 337 27 view .LVU160
 436 0160 0026     		movs	r6, #0
 437 0162 FBE7     		b	.L22
 438              	.LVL50:
 439              	.L115:
 359:Middlewares/ST/filex/common/src/fx_directory_search.c ****                     }
 440              		.loc 1 359 31 view .LVU161
 441 0164 2F22     		movs	r2, #47
 442              	.LVL51:
 359:Middlewares/ST/filex/common/src/fx_directory_search.c ****                     }
 443              		.loc 1 359 31 view .LVU162
 444 0166 0EE0     		b	.L24
 445              	.LVL52:
 446              	.L25:
ARM GAS  C:\Users\HP\AppData\Local\Temp\ccYVoi0M.s 			page 21


 367:Middlewares/ST/filex/common/src/fx_directory_search.c ****                     {
 447              		.loc 1 367 21 is_stmt 1 view .LVU163
 367:Middlewares/ST/filex/common/src/fx_directory_search.c ****                     {
 448              		.loc 1 367 24 is_stmt 0 view .LVU164
 449 0168 8A42     		cmp	r2, r1
 450 016a 10D1     		bne	.L26
 375:Middlewares/ST/filex/common/src/fx_directory_search.c ****                     j++;
 451              		.loc 1 375 21 is_stmt 1 view .LVU165
 375:Middlewares/ST/filex/common/src/fx_directory_search.c ****                     j++;
 452              		.loc 1 375 22 is_stmt 0 view .LVU166
 453 016c 0133     		adds	r3, r3, #1
 454              	.LVL53:
 376:Middlewares/ST/filex/common/src/fx_directory_search.c ****                 }
 455              		.loc 1 376 21 is_stmt 1 view .LVU167
 376:Middlewares/ST/filex/common/src/fx_directory_search.c ****                 }
 456              		.loc 1 376 22 is_stmt 0 view .LVU168
 457 016e 0130     		adds	r0, r0, #1
 458              	.LVL54:
 459              	.L23:
 349:Middlewares/ST/filex/common/src/fx_directory_search.c ****                 {
 460              		.loc 1 349 23 is_stmt 1 view .LVU169
 461 0170 FE2B     		cmp	r3, #254
 462 0172 0CD8     		bhi	.L26
 349:Middlewares/ST/filex/common/src/fx_directory_search.c ****                 {
 463              		.loc 1 349 69 is_stmt 0 discriminator 1 view .LVU170
 464 0174 1BF80020 		ldrb	r2, [fp, r0]	@ zero_extendqisi2
 349:Middlewares/ST/filex/common/src/fx_directory_search.c ****                 {
 465              		.loc 1 349 57 discriminator 1 view .LVU171
 466 0178 4AB1     		cbz	r2, .L26
 349:Middlewares/ST/filex/common/src/fx_directory_search.c ****                 {
 467              		.loc 1 349 74 discriminator 2 view .LVU172
 468 017a 46B1     		cbz	r6, .L26
 353:Middlewares/ST/filex/common/src/fx_directory_search.c ****                     beta =   media_ptr -> fx_media_last_found_name[v];
 469              		.loc 1 353 21 is_stmt 1 view .LVU173
 470              	.LVL55:
 354:Middlewares/ST/filex/common/src/fx_directory_search.c **** 
 471              		.loc 1 354 21 view .LVU174
 354:Middlewares/ST/filex/common/src/fx_directory_search.c **** 
 472              		.loc 1 354 26 is_stmt 0 view .LVU175
 473 017c E118     		adds	r1, r4, r3
 474 017e 91F8E013 		ldrb	r1, [r1, #992]	@ zero_extendqisi2
 475              	.LVL56:
 357:Middlewares/ST/filex/common/src/fx_directory_search.c ****                     {
 476              		.loc 1 357 21 is_stmt 1 view .LVU176
 357:Middlewares/ST/filex/common/src/fx_directory_search.c ****                     {
 477              		.loc 1 357 24 is_stmt 0 view .LVU177
 478 0182 5C2A     		cmp	r2, #92
 479 0184 EED0     		beq	.L115
 480              	.LVL57:
 481              	.L24:
 361:Middlewares/ST/filex/common/src/fx_directory_search.c ****                     {
 482              		.loc 1 361 21 is_stmt 1 view .LVU178
 361:Middlewares/ST/filex/common/src/fx_directory_search.c ****                     {
 483              		.loc 1 361 24 is_stmt 0 view .LVU179
 484 0186 5C29     		cmp	r1, #92
 485 0188 EED1     		bne	.L25
 363:Middlewares/ST/filex/common/src/fx_directory_search.c ****                     }
ARM GAS  C:\Users\HP\AppData\Local\Temp\ccYVoi0M.s 			page 22


 486              		.loc 1 363 30 view .LVU180
 487 018a 2F21     		movs	r1, #47
 488              	.LVL58:
 363:Middlewares/ST/filex/common/src/fx_directory_search.c ****                     }
 489              		.loc 1 363 30 view .LVU181
 490 018c ECE7     		b	.L25
 491              	.LVL59:
 492              	.L26:
 380:Middlewares/ST/filex/common/src/fx_directory_search.c ****                 {
 493              		.loc 1 380 17 is_stmt 1 view .LVU182
 380:Middlewares/ST/filex/common/src/fx_directory_search.c ****                 {
 494              		.loc 1 380 20 is_stmt 0 view .LVU183
 495 018e FF2B     		cmp	r3, #255
 496 0190 ACD8     		bhi	.L5
 384:Middlewares/ST/filex/common/src/fx_directory_search.c ****                 {
 497              		.loc 1 384 22 is_stmt 1 view .LVU184
 384:Middlewares/ST/filex/common/src/fx_directory_search.c ****                 {
 498              		.loc 1 384 25 is_stmt 0 view .LVU185
 499 0192 46B1     		cbz	r6, .L20
 384:Middlewares/ST/filex/common/src/fx_directory_search.c ****                 {
 500              		.loc 1 384 46 discriminator 1 view .LVU186
 501 0194 1BF80020 		ldrb	r2, [fp, r0]	@ zero_extendqisi2
 384:Middlewares/ST/filex/common/src/fx_directory_search.c ****                 {
 502              		.loc 1 384 90 discriminator 1 view .LVU187
 503 0198 2344     		add	r3, r3, r4
 504              	.LVL60:
 384:Middlewares/ST/filex/common/src/fx_directory_search.c ****                 {
 505              		.loc 1 384 90 discriminator 1 view .LVU188
 506 019a 93F8E033 		ldrb	r3, [r3, #992]	@ zero_extendqisi2
 384:Middlewares/ST/filex/common/src/fx_directory_search.c ****                 {
 507              		.loc 1 384 34 discriminator 1 view .LVU189
 508 019e 9A42     		cmp	r2, r3
 509 01a0 A4D1     		bne	.L5
 510 01a2 00E0     		b	.L20
 511              	.LVL61:
 512              	.L88:
 320:Middlewares/ST/filex/common/src/fx_directory_search.c ****                 }
 513              		.loc 1 320 27 view .LVU190
 514 01a4 0026     		movs	r6, #0
 515              	.LVL62:
 516              	.L20:
 394:Middlewares/ST/filex/common/src/fx_directory_search.c ****         {
 517              		.loc 1 394 9 is_stmt 1 view .LVU191
 394:Middlewares/ST/filex/common/src/fx_directory_search.c ****         {
 518              		.loc 1 394 12 is_stmt 0 view .LVU192
 519 01a6 002E     		cmp	r6, #0
 520 01a8 A0D0     		beq	.L5
 521              	.LVL63:
 522              	.L13:
 398:Middlewares/ST/filex/common/src/fx_directory_search.c **** 
 523              		.loc 1 398 13 is_stmt 1 view .LVU193
 398:Middlewares/ST/filex/common/src/fx_directory_search.c **** 
 524              		.loc 1 398 22 is_stmt 0 view .LVU194
 525 01aa 2E68     		ldr	r6, [r5]
 526              	.LVL64:
 401:Middlewares/ST/filex/common/src/fx_directory_search.c **** 
 527              		.loc 1 401 13 is_stmt 1 view .LVU195
ARM GAS  C:\Users\HP\AppData\Local\Temp\ccYVoi0M.s 			page 23


 401:Middlewares/ST/filex/common/src/fx_directory_search.c **** 
 528              		.loc 1 401 24 is_stmt 0 view .LVU196
 529 01ac 7022     		movs	r2, #112
 530 01ae 04F51C71 		add	r1, r4, #624
 531 01b2 2846     		mov	r0, r5
 532 01b4 FFF7FEFF 		bl	memcpy
 533              	.LVL65:
 404:Middlewares/ST/filex/common/src/fx_directory_search.c **** 
 534              		.loc 1 404 13 is_stmt 1 view .LVU197
 404:Middlewares/ST/filex/common/src/fx_directory_search.c **** 
 535              		.loc 1 404 44 is_stmt 0 view .LVU198
 536 01b8 2E60     		str	r6, [r5]
 407:Middlewares/ST/filex/common/src/fx_directory_search.c ****             {
 537              		.loc 1 407 13 is_stmt 1 view .LVU199
 538              	.LVL66:
 407:Middlewares/ST/filex/common/src/fx_directory_search.c ****             {
 539              		.loc 1 407 24 is_stmt 0 view .LVU200
 540 01ba 0023     		movs	r3, #0
 541              	.LVL67:
 542              	.L28:
 407:Middlewares/ST/filex/common/src/fx_directory_search.c ****             {
 543              		.loc 1 407 29 is_stmt 1 discriminator 1 view .LVU201
 407:Middlewares/ST/filex/common/src/fx_directory_search.c ****             {
 544              		.loc 1 407 13 is_stmt 0 discriminator 1 view .LVU202
 545 01bc FF2B     		cmp	r3, #255
 546 01be 06D8     		bhi	.L30
 411:Middlewares/ST/filex/common/src/fx_directory_search.c **** 
 547              		.loc 1 411 17 is_stmt 1 view .LVU203
 411:Middlewares/ST/filex/common/src/fx_directory_search.c **** 
 548              		.loc 1 411 78 is_stmt 0 view .LVU204
 549 01c0 E218     		adds	r2, r4, r3
 550 01c2 92F8E022 		ldrb	r2, [r2, #736]	@ zero_extendqisi2
 411:Middlewares/ST/filex/common/src/fx_directory_search.c **** 
 551              		.loc 1 411 33 view .LVU205
 552 01c6 F254     		strb	r2, [r6, r3]
 414:Middlewares/ST/filex/common/src/fx_directory_search.c ****                 {
 553              		.loc 1 414 17 is_stmt 1 view .LVU206
 414:Middlewares/ST/filex/common/src/fx_directory_search.c ****                 {
 554              		.loc 1 414 20 is_stmt 0 view .LVU207
 555 01c8 22BB     		cbnz	r2, .L29
 418:Middlewares/ST/filex/common/src/fx_directory_search.c ****                     {
 556              		.loc 1 418 21 is_stmt 1 view .LVU208
 418:Middlewares/ST/filex/common/src/fx_directory_search.c ****                     {
 557              		.loc 1 418 24 is_stmt 0 view .LVU209
 558 01ca FE2B     		cmp	r3, #254
 559 01cc 22D8     		bhi	.L29
 560              	.L30:
 428:Middlewares/ST/filex/common/src/fx_directory_search.c ****             {
 561              		.loc 1 428 13 is_stmt 1 view .LVU210
 428:Middlewares/ST/filex/common/src/fx_directory_search.c ****             {
 562              		.loc 1 428 16 is_stmt 0 view .LVU211
 563 01ce 049F     		ldr	r7, [sp, #16]
 564              	.LVL68:
 428:Middlewares/ST/filex/common/src/fx_directory_search.c ****             {
 565              		.loc 1 428 16 view .LVU212
 566 01d0 AFB1     		cbz	r7, .L32
 428:Middlewares/ST/filex/common/src/fx_directory_search.c ****             {
ARM GAS  C:\Users\HP\AppData\Local\Temp\ccYVoi0M.s 			page 24


 567              		.loc 1 428 46 discriminator 1 view .LVU213
 568 01d2 D4F8FC31 		ldr	r3, [r4, #508]
 569              	.LVL69:
 428:Middlewares/ST/filex/common/src/fx_directory_search.c ****             {
 570              		.loc 1 428 32 discriminator 1 view .LVU214
 571 01d6 93B1     		cbz	r3, .L32
 435:Middlewares/ST/filex/common/src/fx_directory_search.c **** 
 572              		.loc 1 435 17 is_stmt 1 view .LVU215
 435:Middlewares/ST/filex/common/src/fx_directory_search.c **** 
 573              		.loc 1 435 38 is_stmt 0 view .LVU216
 574 01d8 3D68     		ldr	r5, [r7]
 575              	.LVL70:
 438:Middlewares/ST/filex/common/src/fx_directory_search.c **** 
 576              		.loc 1 438 17 is_stmt 1 view .LVU217
 438:Middlewares/ST/filex/common/src/fx_directory_search.c **** 
 577              		.loc 1 438 31 is_stmt 0 view .LVU218
 578 01da 7022     		movs	r2, #112
 579 01dc 04F50071 		add	r1, r4, #512
 580 01e0 3846     		mov	r0, r7
 581 01e2 FFF7FEFF 		bl	memcpy
 582              	.LVL71:
 441:Middlewares/ST/filex/common/src/fx_directory_search.c **** 
 583              		.loc 1 441 17 is_stmt 1 view .LVU219
 441:Middlewares/ST/filex/common/src/fx_directory_search.c **** 
 584              		.loc 1 441 51 is_stmt 0 view .LVU220
 585 01e6 3D60     		str	r5, [r7]
 444:Middlewares/ST/filex/common/src/fx_directory_search.c **** 
 586              		.loc 1 444 17 is_stmt 1 view .LVU221
 444:Middlewares/ST/filex/common/src/fx_directory_search.c **** 
 587              		.loc 1 444 33 is_stmt 0 view .LVU222
 588 01e8 D4F80022 		ldr	r2, [r4, #512]
 589              	.LVL72:
 447:Middlewares/ST/filex/common/src/fx_directory_search.c ****                 {
 590              		.loc 1 447 17 is_stmt 1 view .LVU223
 447:Middlewares/ST/filex/common/src/fx_directory_search.c ****                 {
 591              		.loc 1 447 24 is_stmt 0 view .LVU224
 592 01ec 0023     		movs	r3, #0
 593              	.LVL73:
 594              	.L33:
 447:Middlewares/ST/filex/common/src/fx_directory_search.c ****                 {
 595              		.loc 1 447 29 is_stmt 1 discriminator 1 view .LVU225
 447:Middlewares/ST/filex/common/src/fx_directory_search.c ****                 {
 596              		.loc 1 447 17 is_stmt 0 discriminator 1 view .LVU226
 597 01ee FF2B     		cmp	r3, #255
 598 01f0 05D8     		bhi	.L32
 451:Middlewares/ST/filex/common/src/fx_directory_search.c ****                 
 599              		.loc 1 451 21 is_stmt 1 view .LVU227
 451:Middlewares/ST/filex/common/src/fx_directory_search.c ****                 
 600              		.loc 1 451 63 is_stmt 0 view .LVU228
 601 01f2 D15C     		ldrb	r1, [r2, r3]	@ zero_extendqisi2
 451:Middlewares/ST/filex/common/src/fx_directory_search.c ****                 
 602              		.loc 1 451 45 view .LVU229
 603 01f4 E954     		strb	r1, [r5, r3]
 454:Middlewares/ST/filex/common/src/fx_directory_search.c ****                     {
 604              		.loc 1 454 21 is_stmt 1 view .LVU230
 454:Middlewares/ST/filex/common/src/fx_directory_search.c ****                     {
 605              		.loc 1 454 40 is_stmt 0 view .LVU231
ARM GAS  C:\Users\HP\AppData\Local\Temp\ccYVoi0M.s 			page 25


 606 01f6 D15C     		ldrb	r1, [r2, r3]	@ zero_extendqisi2
 454:Middlewares/ST/filex/common/src/fx_directory_search.c ****                     {
 607              		.loc 1 454 24 view .LVU232
 608 01f8 71B9     		cbnz	r1, .L34
 458:Middlewares/ST/filex/common/src/fx_directory_search.c ****                         {
 609              		.loc 1 458 25 is_stmt 1 view .LVU233
 458:Middlewares/ST/filex/common/src/fx_directory_search.c ****                         {
 610              		.loc 1 458 28 is_stmt 0 view .LVU234
 611 01fa FE2B     		cmp	r3, #254
 612 01fc 0CD8     		bhi	.L34
 613              	.LVL74:
 614              	.L32:
 469:Middlewares/ST/filex/common/src/fx_directory_search.c ****             {
 615              		.loc 1 469 13 is_stmt 1 view .LVU235
 469:Middlewares/ST/filex/common/src/fx_directory_search.c ****             {
 616              		.loc 1 469 16 is_stmt 0 view .LVU236
 617 01fe 2E9B     		ldr	r3, [sp, #184]
 618 0200 03B1     		cbz	r3, .L36
 473:Middlewares/ST/filex/common/src/fx_directory_search.c ****             }
 619              		.loc 1 473 17 is_stmt 1 view .LVU237
 473:Middlewares/ST/filex/common/src/fx_directory_search.c ****             }
 620              		.loc 1 473 32 is_stmt 0 view .LVU238
 621 0202 1E60     		str	r6, [r3]
 622              	.L36:
 479:Middlewares/ST/filex/common/src/fx_directory_search.c **** #endif
 623              		.loc 1 479 13 is_stmt 1 view .LVU239
 479:Middlewares/ST/filex/common/src/fx_directory_search.c **** #endif
 624              		.loc 1 479 23 is_stmt 0 view .LVU240
 625 0204 D4F8C431 		ldr	r3, [r4, #452]
 479:Middlewares/ST/filex/common/src/fx_directory_search.c **** #endif
 626              		.loc 1 479 62 view .LVU241
 627 0208 0133     		adds	r3, r3, #1
 628 020a C4F8C431 		str	r3, [r4, #452]
 483:Middlewares/ST/filex/common/src/fx_directory_search.c ****         }
 629              		.loc 1 483 13 is_stmt 1 view .LVU242
 483:Middlewares/ST/filex/common/src/fx_directory_search.c ****         }
 630              		.loc 1 483 19 is_stmt 0 view .LVU243
 631 020e 0023     		movs	r3, #0
 632 0210 0193     		str	r3, [sp, #4]
 633 0212 6DE1     		b	.L1
 634              	.LVL75:
 635              	.L29:
 407:Middlewares/ST/filex/common/src/fx_directory_search.c ****             {
 636              		.loc 1 407 59 is_stmt 1 discriminator 2 view .LVU244
 407:Middlewares/ST/filex/common/src/fx_directory_search.c ****             {
 637              		.loc 1 407 64 is_stmt 0 discriminator 2 view .LVU245
 638 0214 0133     		adds	r3, r3, #1
 639              	.LVL76:
 407:Middlewares/ST/filex/common/src/fx_directory_search.c ****             {
 640              		.loc 1 407 64 discriminator 2 view .LVU246
 641 0216 D1E7     		b	.L28
 642              	.LVL77:
 643              	.L34:
 447:Middlewares/ST/filex/common/src/fx_directory_search.c ****                 {
 644              		.loc 1 447 55 is_stmt 1 discriminator 2 view .LVU247
 447:Middlewares/ST/filex/common/src/fx_directory_search.c ****                 {
 645              		.loc 1 447 56 is_stmt 0 discriminator 2 view .LVU248
ARM GAS  C:\Users\HP\AppData\Local\Temp\ccYVoi0M.s 			page 26


 646 0218 0133     		adds	r3, r3, #1
 647              	.LVL78:
 447:Middlewares/ST/filex/common/src/fx_directory_search.c ****                 {
 648              		.loc 1 447 56 discriminator 2 view .LVU249
 649 021a E8E7     		b	.L33
 650              	.LVL79:
 651              	.L113:
 447:Middlewares/ST/filex/common/src/fx_directory_search.c ****                 {
 652              		.loc 1 447 56 discriminator 2 view .LVU250
 653              	.LBE4:
 529:Middlewares/ST/filex/common/src/fx_directory_search.c **** 
 654              		.loc 1 529 17 is_stmt 1 view .LVU251
 529:Middlewares/ST/filex/common/src/fx_directory_search.c **** 
 655              		.loc 1 529 68 is_stmt 0 view .LVU252
 656 021c 0023     		movs	r3, #0
 657 021e C8F85030 		str	r3, [r8, #80]
 533:Middlewares/ST/filex/common/src/fx_directory_search.c ****                 cluster =  search_dir_ptr -> fx_dir_entry_cluster;
 658              		.loc 1 533 17 is_stmt 1 view .LVU253
 533:Middlewares/ST/filex/common/src/fx_directory_search.c ****                 cluster =  search_dir_ptr -> fx_dir_entry_cluster;
 659              		.loc 1 533 19 is_stmt 0 view .LVU254
 660 0222 2393     		str	r3, [sp, #140]
 534:Middlewares/ST/filex/common/src/fx_directory_search.c ****                 while (cluster < media_ptr -> fx_media_fat_reserved)
 661              		.loc 1 534 17 is_stmt 1 view .LVU255
 534:Middlewares/ST/filex/common/src/fx_directory_search.c ****                 while (cluster < media_ptr -> fx_media_fat_reserved)
 662              		.loc 1 534 25 is_stmt 0 view .LVU256
 663 0224 D8F83460 		ldr	r6, [r8, #52]
 664              	.LVL80:
 535:Middlewares/ST/filex/common/src/fx_directory_search.c ****                 {
 665              		.loc 1 535 17 is_stmt 1 view .LVU257
 666              	.L40:
 535:Middlewares/ST/filex/common/src/fx_directory_search.c ****                 {
 667              		.loc 1 535 23 view .LVU258
 535:Middlewares/ST/filex/common/src/fx_directory_search.c ****                 {
 668              		.loc 1 535 44 is_stmt 0 view .LVU259
 669 0228 04F50053 		add	r3, r4, #8192
 670 022c D3F8A834 		ldr	r3, [r3, #1192]
 535:Middlewares/ST/filex/common/src/fx_directory_search.c ****                 {
 671              		.loc 1 535 23 view .LVU260
 672 0230 B342     		cmp	r3, r6
 673 0232 18D9     		bls	.L116
 539:Middlewares/ST/filex/common/src/fx_directory_search.c **** 
 674              		.loc 1 539 21 is_stmt 1 view .LVU261
 539:Middlewares/ST/filex/common/src/fx_directory_search.c **** 
 675              		.loc 1 539 22 is_stmt 0 view .LVU262
 676 0234 239B     		ldr	r3, [sp, #140]
 677 0236 0133     		adds	r3, r3, #1
 678 0238 2393     		str	r3, [sp, #140]
 542:Middlewares/ST/filex/common/src/fx_directory_search.c **** 
 679              		.loc 1 542 21 is_stmt 1 view .LVU263
 542:Middlewares/ST/filex/common/src/fx_directory_search.c **** 
 680              		.loc 1 542 31 is_stmt 0 view .LVU264
 681 023a 22AA     		add	r2, sp, #136
 682 023c 3146     		mov	r1, r6
 683 023e 2046     		mov	r0, r4
 684 0240 FFF7FEFF 		bl	_fx_utility_FAT_entry_read
 685              	.LVL81:
 545:Middlewares/ST/filex/common/src/fx_directory_search.c ****                     {
ARM GAS  C:\Users\HP\AppData\Local\Temp\ccYVoi0M.s 			page 27


 686              		.loc 1 545 21 is_stmt 1 view .LVU265
 545:Middlewares/ST/filex/common/src/fx_directory_search.c ****                     {
 687              		.loc 1 545 24 is_stmt 0 view .LVU266
 688 0244 0028     		cmp	r0, #0
 689 0246 40F05281 		bne	.L107
 553:Middlewares/ST/filex/common/src/fx_directory_search.c ****                     {
 690              		.loc 1 553 21 is_stmt 1 view .LVU267
 553:Middlewares/ST/filex/common/src/fx_directory_search.c ****                     {
 691              		.loc 1 553 24 is_stmt 0 view .LVU268
 692 024a 012E     		cmp	r6, #1
 693 024c 40F24081 		bls	.L92
 553:Middlewares/ST/filex/common/src/fx_directory_search.c ****                     {
 694              		.loc 1 553 68 discriminator 1 view .LVU269
 695 0250 229B     		ldr	r3, [sp, #136]
 553:Middlewares/ST/filex/common/src/fx_directory_search.c ****                     {
 696              		.loc 1 553 56 discriminator 1 view .LVU270
 697 0252 B342     		cmp	r3, r6
 698 0254 00F03F81 		beq	.L93
 553:Middlewares/ST/filex/common/src/fx_directory_search.c ****                     {
 699              		.loc 1 553 103 discriminator 2 view .LVU271
 700 0258 216C     		ldr	r1, [r4, #64]
 553:Middlewares/ST/filex/common/src/fx_directory_search.c ****                     {
 701              		.loc 1 553 91 discriminator 2 view .LVU272
 702 025a 239A     		ldr	r2, [sp, #140]
 553:Middlewares/ST/filex/common/src/fx_directory_search.c ****                     {
 703              		.loc 1 553 85 discriminator 2 view .LVU273
 704 025c 9142     		cmp	r1, r2
 705 025e C0F03D81 		bcc	.L94
 560:Middlewares/ST/filex/common/src/fx_directory_search.c ****                 }
 706              		.loc 1 560 29 view .LVU274
 707 0262 1E46     		mov	r6, r3
 708              	.LVL82:
 560:Middlewares/ST/filex/common/src/fx_directory_search.c ****                 }
 709              		.loc 1 560 29 view .LVU275
 710 0264 E0E7     		b	.L40
 711              	.LVL83:
 712              	.L116:
 564:Middlewares/ST/filex/common/src/fx_directory_search.c ****                                    ((ULONG64) media_ptr -> fx_media_sectors_per_cluster) * i)
 713              		.loc 1 564 17 is_stmt 1 view .LVU276
 564:Middlewares/ST/filex/common/src/fx_directory_search.c ****                                    ((ULONG64) media_ptr -> fx_media_sectors_per_cluster) * i)
 714              		.loc 1 564 57 is_stmt 0 view .LVU277
 715 0266 A36A     		ldr	r3, [r4, #40]
 565:Middlewares/ST/filex/common/src/fx_directory_search.c ****                                     / (ULONG64) FX_DIR_ENTRY_SIZE;
 716              		.loc 1 565 57 view .LVU278
 717 0268 626D     		ldr	r2, [r4, #84]
 564:Middlewares/ST/filex/common/src/fx_directory_search.c ****                                    ((ULONG64) media_ptr -> fx_media_sectors_per_cluster) * i)
 718              		.loc 1 564 87 view .LVU279
 719 026a A3FB0232 		umull	r3, r2, r3, r2
 565:Middlewares/ST/filex/common/src/fx_directory_search.c ****                                     / (ULONG64) FX_DIR_ENTRY_SIZE;
 720              		.loc 1 565 90 view .LVU280
 721 026e 2399     		ldr	r1, [sp, #140]
 722 0270 A1FB033A 		umull	r3, r10, r1, r3
 723 0274 01FB02AA 		mla	r10, r1, r2, r10
 564:Middlewares/ST/filex/common/src/fx_directory_search.c ****                                    ((ULONG64) media_ptr -> fx_media_sectors_per_cluster) * i)
 724              		.loc 1 564 32 view .LVU281
 725 0278 4FEA5319 		lsr	r9, r3, #5
 726 027c 49EACA69 		orr	r9, r9, r10, lsl #27
ARM GAS  C:\Users\HP\AppData\Local\Temp\ccYVoi0M.s 			page 28


 727 0280 4FEA5A1A 		lsr	r10, r10, #5
 728              	.LVL84:
 570:Middlewares/ST/filex/common/src/fx_directory_search.c **** #ifdef FX_ENABLE_EXFAT
 729              		.loc 1 570 17 is_stmt 1 view .LVU282
 570:Middlewares/ST/filex/common/src/fx_directory_search.c **** #ifdef FX_ENABLE_EXFAT
 730              		.loc 1 570 58 is_stmt 0 view .LVU283
 731 0284 C8F83890 		str	r9, [r8, #56]
 732 0288 C8F83CA0 		str	r10, [r8, #60]
 577:Middlewares/ST/filex/common/src/fx_directory_search.c ****             {
 733              		.loc 1 577 13 is_stmt 1 view .LVU284
 577:Middlewares/ST/filex/common/src/fx_directory_search.c ****             {
 734              		.loc 1 577 16 is_stmt 0 view .LVU285
 735 028c 049F     		ldr	r7, [sp, #16]
 736 028e 002F     		cmp	r7, #0
 737 0290 3FF443AF 		beq	.L42
 583:Middlewares/ST/filex/common/src/fx_directory_search.c **** 
 738              		.loc 1 583 17 is_stmt 1 view .LVU286
 583:Middlewares/ST/filex/common/src/fx_directory_search.c **** 
 739              		.loc 1 583 38 is_stmt 0 view .LVU287
 740 0294 3E68     		ldr	r6, [r7]
 741              	.LVL85:
 586:Middlewares/ST/filex/common/src/fx_directory_search.c **** 
 742              		.loc 1 586 17 is_stmt 1 view .LVU288
 586:Middlewares/ST/filex/common/src/fx_directory_search.c **** 
 743              		.loc 1 586 31 is_stmt 0 view .LVU289
 744 0296 7022     		movs	r2, #112
 745 0298 4146     		mov	r1, r8
 746 029a 3846     		mov	r0, r7
 747 029c FFF7FEFF 		bl	memcpy
 748              	.LVL86:
 589:Middlewares/ST/filex/common/src/fx_directory_search.c **** 
 749              		.loc 1 589 17 is_stmt 1 view .LVU290
 589:Middlewares/ST/filex/common/src/fx_directory_search.c **** 
 750              		.loc 1 589 51 is_stmt 0 view .LVU291
 751 02a0 3E60     		str	r6, [r7]
 592:Middlewares/ST/filex/common/src/fx_directory_search.c **** 
 752              		.loc 1 592 17 is_stmt 1 view .LVU292
 592:Middlewares/ST/filex/common/src/fx_directory_search.c **** 
 753              		.loc 1 592 33 is_stmt 0 view .LVU293
 754 02a2 D8F80020 		ldr	r2, [r8]
 755              	.LVL87:
 595:Middlewares/ST/filex/common/src/fx_directory_search.c ****                 {
 756              		.loc 1 595 17 is_stmt 1 view .LVU294
 595:Middlewares/ST/filex/common/src/fx_directory_search.c ****                 {
 757              		.loc 1 595 24 is_stmt 0 view .LVU295
 758 02a6 0023     		movs	r3, #0
 759              	.LVL88:
 760              	.L43:
 595:Middlewares/ST/filex/common/src/fx_directory_search.c ****                 {
 761              		.loc 1 595 29 is_stmt 1 discriminator 1 view .LVU296
 595:Middlewares/ST/filex/common/src/fx_directory_search.c ****                 {
 762              		.loc 1 595 17 is_stmt 0 discriminator 1 view .LVU297
 763 02a8 FF2B     		cmp	r3, #255
 764 02aa 3FF636AF 		bhi	.L42
 599:Middlewares/ST/filex/common/src/fx_directory_search.c **** 
 765              		.loc 1 599 21 is_stmt 1 view .LVU298
 599:Middlewares/ST/filex/common/src/fx_directory_search.c **** 
ARM GAS  C:\Users\HP\AppData\Local\Temp\ccYVoi0M.s 			page 29


 766              		.loc 1 599 63 is_stmt 0 view .LVU299
 767 02ae D15C     		ldrb	r1, [r2, r3]	@ zero_extendqisi2
 599:Middlewares/ST/filex/common/src/fx_directory_search.c **** 
 768              		.loc 1 599 45 view .LVU300
 769 02b0 F154     		strb	r1, [r6, r3]
 602:Middlewares/ST/filex/common/src/fx_directory_search.c ****                     {
 770              		.loc 1 602 21 is_stmt 1 view .LVU301
 602:Middlewares/ST/filex/common/src/fx_directory_search.c ****                     {
 771              		.loc 1 602 40 is_stmt 0 view .LVU302
 772 02b2 D15C     		ldrb	r1, [r2, r3]	@ zero_extendqisi2
 602:Middlewares/ST/filex/common/src/fx_directory_search.c ****                     {
 773              		.loc 1 602 24 view .LVU303
 774 02b4 11B9     		cbnz	r1, .L44
 606:Middlewares/ST/filex/common/src/fx_directory_search.c ****                         {
 775              		.loc 1 606 25 is_stmt 1 view .LVU304
 606:Middlewares/ST/filex/common/src/fx_directory_search.c ****                         {
 776              		.loc 1 606 28 is_stmt 0 view .LVU305
 777 02b6 FE2B     		cmp	r3, #254
 778 02b8 7FF62FAF 		bls	.L42
 779              	.L44:
 595:Middlewares/ST/filex/common/src/fx_directory_search.c ****                 {
 780              		.loc 1 595 55 is_stmt 1 discriminator 2 view .LVU306
 595:Middlewares/ST/filex/common/src/fx_directory_search.c ****                 {
 781              		.loc 1 595 56 is_stmt 0 discriminator 2 view .LVU307
 782 02bc 0133     		adds	r3, r3, #1
 783              	.LVL89:
 595:Middlewares/ST/filex/common/src/fx_directory_search.c ****                 {
 784              		.loc 1 595 56 discriminator 2 view .LVU308
 785 02be F3E7     		b	.L43
 786              	.L123:
 787              		.align	2
 788              	.L122:
 789 02c0 00000000 		.word	_tx_thread_current_ptr
 790              	.LVL90:
 791              	.L95:
 595:Middlewares/ST/filex/common/src/fx_directory_search.c ****                 {
 792              		.loc 1 595 56 discriminator 2 view .LVU309
 793 02c4 DDF808C0 		ldr	ip, [sp, #8]
 794 02c8 7046     		mov	r0, lr
 795              	.LVL91:
 595:Middlewares/ST/filex/common/src/fx_directory_search.c ****                 {
 796              		.loc 1 595 56 discriminator 2 view .LVU310
 797 02ca 08E0     		b	.L52
 798              	.LVL92:
 799              	.L117:
 627:Middlewares/ST/filex/common/src/fx_directory_search.c **** 
 628:Middlewares/ST/filex/common/src/fx_directory_search.c **** #ifdef FX_ENABLE_EXFAT
 629:Middlewares/ST/filex/common/src/fx_directory_search.c ****         if (media_ptr -> fx_media_FAT_type == FX_exFAT)
 630:Middlewares/ST/filex/common/src/fx_directory_search.c ****         {
 631:Middlewares/ST/filex/common/src/fx_directory_search.c **** 
 632:Middlewares/ST/filex/common/src/fx_directory_search.c ****             /* Get name hash.  */
 633:Middlewares/ST/filex/common/src/fx_directory_search.c ****             hash =  _fx_utility_exFAT_name_hash_get(name);
 634:Middlewares/ST/filex/common/src/fx_directory_search.c ****         }
 635:Middlewares/ST/filex/common/src/fx_directory_search.c **** #endif /* FX_ENABLE_EXFAT */
 636:Middlewares/ST/filex/common/src/fx_directory_search.c **** 
 637:Middlewares/ST/filex/common/src/fx_directory_search.c ****         do
 638:Middlewares/ST/filex/common/src/fx_directory_search.c ****         {
ARM GAS  C:\Users\HP\AppData\Local\Temp\ccYVoi0M.s 			page 30


 639:Middlewares/ST/filex/common/src/fx_directory_search.c **** 
 640:Middlewares/ST/filex/common/src/fx_directory_search.c ****             /* Read an entry from the directory.  */
 641:Middlewares/ST/filex/common/src/fx_directory_search.c **** #ifdef FX_ENABLE_EXFAT
 642:Middlewares/ST/filex/common/src/fx_directory_search.c ****             status =  _fx_directory_entry_read_ex(media_ptr, search_dir_ptr, &i, entry_ptr, hash);
 643:Middlewares/ST/filex/common/src/fx_directory_search.c **** #else
 644:Middlewares/ST/filex/common/src/fx_directory_search.c ****             status =  _fx_directory_entry_read(media_ptr, search_dir_ptr, &i, entry_ptr);
 645:Middlewares/ST/filex/common/src/fx_directory_search.c **** #endif /* FX_ENABLE_EXFAT */
 646:Middlewares/ST/filex/common/src/fx_directory_search.c **** 
 647:Middlewares/ST/filex/common/src/fx_directory_search.c ****             i++;
 648:Middlewares/ST/filex/common/src/fx_directory_search.c **** 
 649:Middlewares/ST/filex/common/src/fx_directory_search.c ****             /* Check for error status.  */
 650:Middlewares/ST/filex/common/src/fx_directory_search.c ****             if (status != FX_SUCCESS)
 651:Middlewares/ST/filex/common/src/fx_directory_search.c ****             {
 652:Middlewares/ST/filex/common/src/fx_directory_search.c ****                 return(status);
 653:Middlewares/ST/filex/common/src/fx_directory_search.c ****             }
 654:Middlewares/ST/filex/common/src/fx_directory_search.c **** 
 655:Middlewares/ST/filex/common/src/fx_directory_search.c ****             /* Determine if this is the last directory entry.  */
 656:Middlewares/ST/filex/common/src/fx_directory_search.c **** #ifdef FX_ENABLE_EXFAT
 657:Middlewares/ST/filex/common/src/fx_directory_search.c ****             if (entry_ptr -> fx_dir_entry_type == FX_EXFAT_DIR_ENTRY_TYPE_END_MARKER)
 658:Middlewares/ST/filex/common/src/fx_directory_search.c **** #else
 659:Middlewares/ST/filex/common/src/fx_directory_search.c ****             if ((UCHAR)entry_ptr -> fx_dir_entry_name[0] == (UCHAR)FX_DIR_ENTRY_DONE)
 660:Middlewares/ST/filex/common/src/fx_directory_search.c **** #endif /* FX_ENABLE_EXFAT */
 661:Middlewares/ST/filex/common/src/fx_directory_search.c ****             {
 662:Middlewares/ST/filex/common/src/fx_directory_search.c ****                 break;
 663:Middlewares/ST/filex/common/src/fx_directory_search.c ****             }
 664:Middlewares/ST/filex/common/src/fx_directory_search.c **** 
 665:Middlewares/ST/filex/common/src/fx_directory_search.c ****             /* Determine if the entry is a volume label entry */
 666:Middlewares/ST/filex/common/src/fx_directory_search.c ****             if ((entry_ptr -> fx_dir_entry_attributes & FX_VOLUME))
 667:Middlewares/ST/filex/common/src/fx_directory_search.c ****             {
 668:Middlewares/ST/filex/common/src/fx_directory_search.c ****                 continue;
 669:Middlewares/ST/filex/common/src/fx_directory_search.c ****             }
 670:Middlewares/ST/filex/common/src/fx_directory_search.c **** 
 671:Middlewares/ST/filex/common/src/fx_directory_search.c ****             /* Determine if this is an empty entry.  */
 672:Middlewares/ST/filex/common/src/fx_directory_search.c **** #ifdef FX_ENABLE_EXFAT
 673:Middlewares/ST/filex/common/src/fx_directory_search.c ****             if (entry_ptr -> fx_dir_entry_type != FX_EXFAT_DIR_ENTRY_TYPE_FILE_DIRECTORY)
 674:Middlewares/ST/filex/common/src/fx_directory_search.c **** #else
 675:Middlewares/ST/filex/common/src/fx_directory_search.c ****             if (((UCHAR)entry_ptr -> fx_dir_entry_name[0] == (UCHAR)FX_DIR_ENTRY_FREE) && (entry_pt
 676:Middlewares/ST/filex/common/src/fx_directory_search.c **** #endif /* FX_ENABLE_EXFAT */
 677:Middlewares/ST/filex/common/src/fx_directory_search.c ****             {
 678:Middlewares/ST/filex/common/src/fx_directory_search.c ****                 continue;
 679:Middlewares/ST/filex/common/src/fx_directory_search.c ****             }
 680:Middlewares/ST/filex/common/src/fx_directory_search.c **** 
 681:Middlewares/ST/filex/common/src/fx_directory_search.c ****             /* Compare the input name and extension with the directory
 682:Middlewares/ST/filex/common/src/fx_directory_search.c ****                entry.  */
 683:Middlewares/ST/filex/common/src/fx_directory_search.c ****             work_ptr =      &name[0];
 684:Middlewares/ST/filex/common/src/fx_directory_search.c ****             dir_name_ptr =  &(entry_ptr -> fx_dir_entry_name[0]);
 685:Middlewares/ST/filex/common/src/fx_directory_search.c **** 
 686:Middlewares/ST/filex/common/src/fx_directory_search.c ****             /* Loop to compare names.  */
 687:Middlewares/ST/filex/common/src/fx_directory_search.c ****             do
 688:Middlewares/ST/filex/common/src/fx_directory_search.c ****             {
 689:Middlewares/ST/filex/common/src/fx_directory_search.c **** 
 690:Middlewares/ST/filex/common/src/fx_directory_search.c ****                 /* Pickup character of directory name.  */
 691:Middlewares/ST/filex/common/src/fx_directory_search.c ****                 alpha =  *dir_name_ptr;
 692:Middlewares/ST/filex/common/src/fx_directory_search.c **** 
 693:Middlewares/ST/filex/common/src/fx_directory_search.c ****                 /* Pickup character of name.  */
 694:Middlewares/ST/filex/common/src/fx_directory_search.c ****                 name_alpha =  *work_ptr;
 695:Middlewares/ST/filex/common/src/fx_directory_search.c **** 
ARM GAS  C:\Users\HP\AppData\Local\Temp\ccYVoi0M.s 			page 31


 696:Middlewares/ST/filex/common/src/fx_directory_search.c ****                 /* Determine if its case needs to be changed.  */
 697:Middlewares/ST/filex/common/src/fx_directory_search.c ****                 if ((alpha >= 'a') && (alpha <= 'z'))
 698:Middlewares/ST/filex/common/src/fx_directory_search.c ****                 {
 699:Middlewares/ST/filex/common/src/fx_directory_search.c **** 
 700:Middlewares/ST/filex/common/src/fx_directory_search.c ****                     /* Yes, make upper case.  */
 701:Middlewares/ST/filex/common/src/fx_directory_search.c ****                     alpha =  (CHAR)((INT)alpha - 0x20);
 702:Middlewares/ST/filex/common/src/fx_directory_search.c ****                 }
 703:Middlewares/ST/filex/common/src/fx_directory_search.c **** 
 704:Middlewares/ST/filex/common/src/fx_directory_search.c ****                 /* Determine if its case needs to be changed.  */
 705:Middlewares/ST/filex/common/src/fx_directory_search.c ****                 if ((name_alpha >= 'a') && (name_alpha <= 'z'))
 706:Middlewares/ST/filex/common/src/fx_directory_search.c ****                 {
 707:Middlewares/ST/filex/common/src/fx_directory_search.c **** 
 708:Middlewares/ST/filex/common/src/fx_directory_search.c ****                     /* Yes, make upper case.  */
 709:Middlewares/ST/filex/common/src/fx_directory_search.c ****                     name_alpha =  (CHAR)((INT)name_alpha - 0x20);
 800              		.loc 1 709 21 is_stmt 1 view .LVU311
 801              		.loc 1 709 32 is_stmt 0 view .LVU312
 802 02cc 203B     		subs	r3, r3, #32
 803              	.LVL93:
 804              		.loc 1 709 32 view .LVU313
 805 02ce DBB2     		uxtb	r3, r3
 806              	.LVL94:
 807              	.L50:
 710:Middlewares/ST/filex/common/src/fx_directory_search.c ****                 }
 711:Middlewares/ST/filex/common/src/fx_directory_search.c **** 
 712:Middlewares/ST/filex/common/src/fx_directory_search.c ****                 /* Compare name with directory name.  */
 713:Middlewares/ST/filex/common/src/fx_directory_search.c ****                 if (alpha != name_alpha)
 808              		.loc 1 713 17 is_stmt 1 view .LVU314
 809              		.loc 1 713 20 is_stmt 0 view .LVU315
 810 02d0 9A42     		cmp	r2, r3
 811 02d2 14D1     		bne	.L51
 714:Middlewares/ST/filex/common/src/fx_directory_search.c ****                 {
 715:Middlewares/ST/filex/common/src/fx_directory_search.c **** 
 716:Middlewares/ST/filex/common/src/fx_directory_search.c ****                     /* The names don't match, get out of the loop. */
 717:Middlewares/ST/filex/common/src/fx_directory_search.c ****                     break;
 718:Middlewares/ST/filex/common/src/fx_directory_search.c ****                 }
 719:Middlewares/ST/filex/common/src/fx_directory_search.c **** 
 720:Middlewares/ST/filex/common/src/fx_directory_search.c ****                 /* Otherwise, increment the name pointers.  */
 721:Middlewares/ST/filex/common/src/fx_directory_search.c ****                 work_ptr++;
 812              		.loc 1 721 17 is_stmt 1 view .LVU316
 813              		.loc 1 721 25 is_stmt 0 view .LVU317
 814 02d4 0CF1010C 		add	ip, ip, #1
 815              	.LVL95:
 722:Middlewares/ST/filex/common/src/fx_directory_search.c ****                 dir_name_ptr++;
 816              		.loc 1 722 17 is_stmt 1 view .LVU318
 723:Middlewares/ST/filex/common/src/fx_directory_search.c ****             } while (*dir_name_ptr);
 817              		.loc 1 723 21 view .LVU319
 818              		.loc 1 723 22 is_stmt 0 view .LVU320
 819 02d8 10F8013F 		ldrb	r3, [r0, #1]!	@ zero_extendqisi2
 820              	.LVL96:
 821              		.loc 1 723 13 view .LVU321
 822 02dc 7BB1     		cbz	r3, .L51
 823              	.LVL97:
 824              	.L52:
 687:Middlewares/ST/filex/common/src/fx_directory_search.c ****             {
 825              		.loc 1 687 13 is_stmt 1 view .LVU322
 691:Middlewares/ST/filex/common/src/fx_directory_search.c **** 
 826              		.loc 1 691 17 view .LVU323
ARM GAS  C:\Users\HP\AppData\Local\Temp\ccYVoi0M.s 			page 32


 691:Middlewares/ST/filex/common/src/fx_directory_search.c **** 
 827              		.loc 1 691 23 is_stmt 0 view .LVU324
 828 02de 0278     		ldrb	r2, [r0]	@ zero_extendqisi2
 829              	.LVL98:
 694:Middlewares/ST/filex/common/src/fx_directory_search.c **** 
 830              		.loc 1 694 17 is_stmt 1 view .LVU325
 694:Middlewares/ST/filex/common/src/fx_directory_search.c **** 
 831              		.loc 1 694 28 is_stmt 0 view .LVU326
 832 02e0 9CF80030 		ldrb	r3, [ip]	@ zero_extendqisi2
 833              	.LVL99:
 697:Middlewares/ST/filex/common/src/fx_directory_search.c ****                 {
 834              		.loc 1 697 17 is_stmt 1 view .LVU327
 697:Middlewares/ST/filex/common/src/fx_directory_search.c ****                 {
 835              		.loc 1 697 36 is_stmt 0 view .LVU328
 836 02e4 A2F16101 		sub	r1, r2, #97
 837 02e8 C9B2     		uxtb	r1, r1
 697:Middlewares/ST/filex/common/src/fx_directory_search.c ****                 {
 838              		.loc 1 697 20 view .LVU329
 839 02ea 1929     		cmp	r1, #25
 840 02ec 01D8     		bhi	.L49
 701:Middlewares/ST/filex/common/src/fx_directory_search.c ****                 }
 841              		.loc 1 701 21 is_stmt 1 view .LVU330
 701:Middlewares/ST/filex/common/src/fx_directory_search.c ****                 }
 842              		.loc 1 701 27 is_stmt 0 view .LVU331
 843 02ee 203A     		subs	r2, r2, #32
 844              	.LVL100:
 701:Middlewares/ST/filex/common/src/fx_directory_search.c ****                 }
 845              		.loc 1 701 27 view .LVU332
 846 02f0 D2B2     		uxtb	r2, r2
 847              	.LVL101:
 848              	.L49:
 705:Middlewares/ST/filex/common/src/fx_directory_search.c ****                 {
 849              		.loc 1 705 17 is_stmt 1 view .LVU333
 705:Middlewares/ST/filex/common/src/fx_directory_search.c ****                 {
 850              		.loc 1 705 41 is_stmt 0 view .LVU334
 851 02f2 A3F16101 		sub	r1, r3, #97
 852 02f6 C9B2     		uxtb	r1, r1
 705:Middlewares/ST/filex/common/src/fx_directory_search.c ****                 {
 853              		.loc 1 705 20 view .LVU335
 854 02f8 1929     		cmp	r1, #25
 855 02fa E9D8     		bhi	.L50
 705:Middlewares/ST/filex/common/src/fx_directory_search.c ****                 {
 856              		.loc 1 705 20 view .LVU336
 857 02fc E6E7     		b	.L117
 858              	.LVL102:
 859              	.L51:
 724:Middlewares/ST/filex/common/src/fx_directory_search.c **** 
 725:Middlewares/ST/filex/common/src/fx_directory_search.c ****             /* Determine if the requested name has been found.  If so,
 726:Middlewares/ST/filex/common/src/fx_directory_search.c ****                return success to the caller.  */
 727:Middlewares/ST/filex/common/src/fx_directory_search.c ****             if ((*dir_name_ptr == 0) && (*work_ptr == *dir_name_ptr))
 860              		.loc 1 727 13 is_stmt 1 view .LVU337
 861              		.loc 1 727 18 is_stmt 0 view .LVU338
 862 02fe 0378     		ldrb	r3, [r0]	@ zero_extendqisi2
 863              		.loc 1 727 16 view .LVU339
 864 0300 1BB9     		cbnz	r3, .L53
 865              		.loc 1 727 42 discriminator 1 view .LVU340
 866 0302 9CF80020 		ldrb	r2, [ip]	@ zero_extendqisi2
ARM GAS  C:\Users\HP\AppData\Local\Temp\ccYVoi0M.s 			page 33


 867              	.LVL103:
 868              		.loc 1 727 38 discriminator 1 view .LVU341
 869 0306 9342     		cmp	r3, r2
 870 0308 44D0     		beq	.L96
 871              	.L53:
 728:Middlewares/ST/filex/common/src/fx_directory_search.c ****             {
 729:Middlewares/ST/filex/common/src/fx_directory_search.c **** 
 730:Middlewares/ST/filex/common/src/fx_directory_search.c ****                 /* Yes, the name was located.  All pertinent directory
 731:Middlewares/ST/filex/common/src/fx_directory_search.c ****                    information is in the directory entry field.  */
 732:Middlewares/ST/filex/common/src/fx_directory_search.c ****                 found =  FX_TRUE;
 733:Middlewares/ST/filex/common/src/fx_directory_search.c ****             }
 734:Middlewares/ST/filex/common/src/fx_directory_search.c ****             /* Determine if there is a short name to check.  */
 735:Middlewares/ST/filex/common/src/fx_directory_search.c **** #ifdef FX_ENABLE_EXFAT
 736:Middlewares/ST/filex/common/src/fx_directory_search.c ****             else if ((media_ptr -> fx_media_FAT_type != FX_exFAT) &&
 737:Middlewares/ST/filex/common/src/fx_directory_search.c ****                      (entry_ptr -> fx_dir_entry_short_name[0] != 0))
 738:Middlewares/ST/filex/common/src/fx_directory_search.c **** #else
 739:Middlewares/ST/filex/common/src/fx_directory_search.c ****             else if (entry_ptr -> fx_dir_entry_short_name[0] != 0)
 872              		.loc 1 739 18 is_stmt 1 view .LVU342
 873              		.loc 1 739 58 is_stmt 0 view .LVU343
 874 030a 2B79     		ldrb	r3, [r5, #4]	@ zero_extendqisi2
 875              		.loc 1 739 21 view .LVU344
 876 030c 33BB     		cbnz	r3, .L118
 877              	.LVL104:
 878              	.L47:
 740:Middlewares/ST/filex/common/src/fx_directory_search.c **** #endif /* FX_ENABLE_EXFAT */
 741:Middlewares/ST/filex/common/src/fx_directory_search.c ****             {
 742:Middlewares/ST/filex/common/src/fx_directory_search.c **** 
 743:Middlewares/ST/filex/common/src/fx_directory_search.c ****                 /* Yes, check for the short part of the name.  */
 744:Middlewares/ST/filex/common/src/fx_directory_search.c **** 
 745:Middlewares/ST/filex/common/src/fx_directory_search.c ****                 /* Compare the input name and extension with the directory entry.  */
 746:Middlewares/ST/filex/common/src/fx_directory_search.c ****                 work_ptr =      &name[0];
 747:Middlewares/ST/filex/common/src/fx_directory_search.c ****                 dir_name_ptr =  &(entry_ptr -> fx_dir_entry_short_name[0]);
 748:Middlewares/ST/filex/common/src/fx_directory_search.c **** 
 749:Middlewares/ST/filex/common/src/fx_directory_search.c ****                 /* Loop to compare names.  */
 750:Middlewares/ST/filex/common/src/fx_directory_search.c ****                 do
 751:Middlewares/ST/filex/common/src/fx_directory_search.c ****                 {
 752:Middlewares/ST/filex/common/src/fx_directory_search.c **** 
 753:Middlewares/ST/filex/common/src/fx_directory_search.c ****                     /* Pickup character of directory name.  */
 754:Middlewares/ST/filex/common/src/fx_directory_search.c ****                     alpha =  *dir_name_ptr;
 755:Middlewares/ST/filex/common/src/fx_directory_search.c **** 
 756:Middlewares/ST/filex/common/src/fx_directory_search.c ****                     /* Pickup character of name.  */
 757:Middlewares/ST/filex/common/src/fx_directory_search.c ****                     name_alpha =  *work_ptr;
 758:Middlewares/ST/filex/common/src/fx_directory_search.c **** 
 759:Middlewares/ST/filex/common/src/fx_directory_search.c ****                     /* Determine if its case needs to be changed.  */
 760:Middlewares/ST/filex/common/src/fx_directory_search.c ****                     if ((name_alpha >= 'a') && (name_alpha <= 'z'))
 761:Middlewares/ST/filex/common/src/fx_directory_search.c ****                     {
 762:Middlewares/ST/filex/common/src/fx_directory_search.c **** 
 763:Middlewares/ST/filex/common/src/fx_directory_search.c ****                         /* Yes, make upper case.  */
 764:Middlewares/ST/filex/common/src/fx_directory_search.c ****                         name_alpha =  (CHAR)((INT)name_alpha - 0x20);
 765:Middlewares/ST/filex/common/src/fx_directory_search.c ****                     }
 766:Middlewares/ST/filex/common/src/fx_directory_search.c **** 
 767:Middlewares/ST/filex/common/src/fx_directory_search.c ****                     /* Compare name with directory name.  */
 768:Middlewares/ST/filex/common/src/fx_directory_search.c ****                     if (alpha != name_alpha)
 769:Middlewares/ST/filex/common/src/fx_directory_search.c ****                     {
 770:Middlewares/ST/filex/common/src/fx_directory_search.c **** 
 771:Middlewares/ST/filex/common/src/fx_directory_search.c ****                         /* The names don't match, get out of the loop. */
 772:Middlewares/ST/filex/common/src/fx_directory_search.c ****                         break;
ARM GAS  C:\Users\HP\AppData\Local\Temp\ccYVoi0M.s 			page 34


 773:Middlewares/ST/filex/common/src/fx_directory_search.c ****                     }
 774:Middlewares/ST/filex/common/src/fx_directory_search.c **** 
 775:Middlewares/ST/filex/common/src/fx_directory_search.c ****                     /* Otherwise, move the name pointers and increment the
 776:Middlewares/ST/filex/common/src/fx_directory_search.c ****                        count.  */
 777:Middlewares/ST/filex/common/src/fx_directory_search.c ****                     work_ptr++;
 778:Middlewares/ST/filex/common/src/fx_directory_search.c ****                     dir_name_ptr++;
 779:Middlewares/ST/filex/common/src/fx_directory_search.c ****                 } while (*dir_name_ptr);
 780:Middlewares/ST/filex/common/src/fx_directory_search.c **** 
 781:Middlewares/ST/filex/common/src/fx_directory_search.c ****                 /* Determine if the names match.  */
 782:Middlewares/ST/filex/common/src/fx_directory_search.c ****                 if ((*dir_name_ptr == 0) && (*work_ptr == *dir_name_ptr))
 783:Middlewares/ST/filex/common/src/fx_directory_search.c ****                 {
 784:Middlewares/ST/filex/common/src/fx_directory_search.c **** 
 785:Middlewares/ST/filex/common/src/fx_directory_search.c ****                     /* Yes, the name was located.  All pertinent directory
 786:Middlewares/ST/filex/common/src/fx_directory_search.c ****                         information is in the directory entry field.  */
 787:Middlewares/ST/filex/common/src/fx_directory_search.c ****                     found =  FX_TRUE;
 788:Middlewares/ST/filex/common/src/fx_directory_search.c ****                 }
 789:Middlewares/ST/filex/common/src/fx_directory_search.c ****             }
 790:Middlewares/ST/filex/common/src/fx_directory_search.c ****         } while ((i < directory_size) && (!found));
 879              		.loc 1 790 17 is_stmt 1 view .LVU345
 880              		.loc 1 790 9 is_stmt 0 view .LVU346
 881 030e 4E45     		cmp	r6, r9
 882 0310 4FF00003 		mov	r3, #0
 883 0314 73EB0A03 		sbcs	r3, r3, r10
 884 0318 3ED2     		bcs	.L46
 885              		.loc 1 790 39 discriminator 1 view .LVU347
 886 031a 002F     		cmp	r7, #0
 887 031c 3CD1     		bne	.L46
 888              	.LVL105:
 889              	.L57:
 637:Middlewares/ST/filex/common/src/fx_directory_search.c ****         {
 890              		.loc 1 637 9 is_stmt 1 view .LVU348
 644:Middlewares/ST/filex/common/src/fx_directory_search.c **** #endif /* FX_ENABLE_EXFAT */
 891              		.loc 1 644 13 view .LVU349
 644:Middlewares/ST/filex/common/src/fx_directory_search.c **** #endif /* FX_ENABLE_EXFAT */
 892              		.loc 1 644 23 is_stmt 0 view .LVU350
 893 031e 2B46     		mov	r3, r5
 894 0320 23AA     		add	r2, sp, #140
 895 0322 4146     		mov	r1, r8
 896 0324 2046     		mov	r0, r4
 897 0326 FFF7FEFF 		bl	_fx_directory_entry_read
 898              	.LVL106:
 647:Middlewares/ST/filex/common/src/fx_directory_search.c **** 
 899              		.loc 1 647 13 is_stmt 1 view .LVU351
 647:Middlewares/ST/filex/common/src/fx_directory_search.c **** 
 900              		.loc 1 647 14 is_stmt 0 view .LVU352
 901 032a 239E     		ldr	r6, [sp, #140]
 902 032c 0136     		adds	r6, r6, #1
 903 032e 2396     		str	r6, [sp, #140]
 650:Middlewares/ST/filex/common/src/fx_directory_search.c ****             {
 904              		.loc 1 650 13 is_stmt 1 view .LVU353
 650:Middlewares/ST/filex/common/src/fx_directory_search.c ****             {
 905              		.loc 1 650 16 is_stmt 0 view .LVU354
 906 0330 0190     		str	r0, [sp, #4]
 907 0332 0028     		cmp	r0, #0
 908 0334 40F0DC80 		bne	.L1
 659:Middlewares/ST/filex/common/src/fx_directory_search.c **** #endif /* FX_ENABLE_EXFAT */
 909              		.loc 1 659 13 is_stmt 1 view .LVU355
ARM GAS  C:\Users\HP\AppData\Local\Temp\ccYVoi0M.s 			page 35


 659:Middlewares/ST/filex/common/src/fx_directory_search.c **** #endif /* FX_ENABLE_EXFAT */
 910              		.loc 1 659 34 is_stmt 0 view .LVU356
 911 0338 D5F800E0 		ldr	lr, [r5]
 659:Middlewares/ST/filex/common/src/fx_directory_search.c **** #endif /* FX_ENABLE_EXFAT */
 912              		.loc 1 659 54 view .LVU357
 913 033c 9EF80030 		ldrb	r3, [lr]	@ zero_extendqisi2
 659:Middlewares/ST/filex/common/src/fx_directory_search.c **** #endif /* FX_ENABLE_EXFAT */
 914              		.loc 1 659 16 view .LVU358
 915 0340 53B3     		cbz	r3, .L46
 666:Middlewares/ST/filex/common/src/fx_directory_search.c ****             {
 916              		.loc 1 666 13 is_stmt 1 view .LVU359
 666:Middlewares/ST/filex/common/src/fx_directory_search.c ****             {
 917              		.loc 1 666 28 is_stmt 0 view .LVU360
 918 0342 2A7F     		ldrb	r2, [r5, #28]	@ zero_extendqisi2
 666:Middlewares/ST/filex/common/src/fx_directory_search.c ****             {
 919              		.loc 1 666 16 view .LVU361
 920 0344 12F0080F 		tst	r2, #8
 921 0348 E1D1     		bne	.L47
 675:Middlewares/ST/filex/common/src/fx_directory_search.c **** #endif /* FX_ENABLE_EXFAT */
 922              		.loc 1 675 13 is_stmt 1 view .LVU362
 675:Middlewares/ST/filex/common/src/fx_directory_search.c **** #endif /* FX_ENABLE_EXFAT */
 923              		.loc 1 675 16 is_stmt 0 view .LVU363
 924 034a E52B     		cmp	r3, #229
 925 034c BAD1     		bne	.L95
 675:Middlewares/ST/filex/common/src/fx_directory_search.c **** #endif /* FX_ENABLE_EXFAT */
 926              		.loc 1 675 128 discriminator 1 view .LVU364
 927 034e 2B79     		ldrb	r3, [r5, #4]	@ zero_extendqisi2
 675:Middlewares/ST/filex/common/src/fx_directory_search.c **** #endif /* FX_ENABLE_EXFAT */
 928              		.loc 1 675 88 discriminator 1 view .LVU365
 929 0350 002B     		cmp	r3, #0
 930 0352 DCD0     		beq	.L47
 931 0354 DDF808C0 		ldr	ip, [sp, #8]
 932 0358 7046     		mov	r0, lr
 933              	.LVL107:
 675:Middlewares/ST/filex/common/src/fx_directory_search.c **** #endif /* FX_ENABLE_EXFAT */
 934              		.loc 1 675 88 discriminator 1 view .LVU366
 935 035a C0E7     		b	.L52
 936              	.LVL108:
 937              	.L118:
 746:Middlewares/ST/filex/common/src/fx_directory_search.c ****                 dir_name_ptr =  &(entry_ptr -> fx_dir_entry_short_name[0]);
 938              		.loc 1 746 17 is_stmt 1 view .LVU367
 747:Middlewares/ST/filex/common/src/fx_directory_search.c **** 
 939              		.loc 1 747 17 view .LVU368
 747:Middlewares/ST/filex/common/src/fx_directory_search.c **** 
 940              		.loc 1 747 30 is_stmt 0 view .LVU369
 941 035c 291D     		adds	r1, r5, #4
 942              	.LVL109:
 746:Middlewares/ST/filex/common/src/fx_directory_search.c ****                 dir_name_ptr =  &(entry_ptr -> fx_dir_entry_short_name[0]);
 943              		.loc 1 746 26 view .LVU370
 944 035e 0298     		ldr	r0, [sp, #8]
 945 0360 05E0     		b	.L56
 946              	.LVL110:
 947              	.L54:
 768:Middlewares/ST/filex/common/src/fx_directory_search.c ****                     {
 948              		.loc 1 768 21 is_stmt 1 view .LVU371
 768:Middlewares/ST/filex/common/src/fx_directory_search.c ****                     {
 949              		.loc 1 768 24 is_stmt 0 view .LVU372
ARM GAS  C:\Users\HP\AppData\Local\Temp\ccYVoi0M.s 			page 36


 950 0362 6345     		cmp	r3, ip
 951 0364 0ED1     		bne	.L55
 777:Middlewares/ST/filex/common/src/fx_directory_search.c ****                     dir_name_ptr++;
 952              		.loc 1 777 21 is_stmt 1 view .LVU373
 777:Middlewares/ST/filex/common/src/fx_directory_search.c ****                     dir_name_ptr++;
 953              		.loc 1 777 29 is_stmt 0 view .LVU374
 954 0366 0130     		adds	r0, r0, #1
 955              	.LVL111:
 778:Middlewares/ST/filex/common/src/fx_directory_search.c ****                 } while (*dir_name_ptr);
 956              		.loc 1 778 21 is_stmt 1 view .LVU375
 779:Middlewares/ST/filex/common/src/fx_directory_search.c **** 
 957              		.loc 1 779 25 view .LVU376
 779:Middlewares/ST/filex/common/src/fx_directory_search.c **** 
 958              		.loc 1 779 26 is_stmt 0 view .LVU377
 959 0368 11F8013F 		ldrb	r3, [r1, #1]!	@ zero_extendqisi2
 960              	.LVL112:
 779:Middlewares/ST/filex/common/src/fx_directory_search.c **** 
 961              		.loc 1 779 17 view .LVU378
 962 036c 53B1     		cbz	r3, .L55
 963              	.LVL113:
 964              	.L56:
 750:Middlewares/ST/filex/common/src/fx_directory_search.c ****                 {
 965              		.loc 1 750 17 is_stmt 1 view .LVU379
 754:Middlewares/ST/filex/common/src/fx_directory_search.c **** 
 966              		.loc 1 754 21 view .LVU380
 754:Middlewares/ST/filex/common/src/fx_directory_search.c **** 
 967              		.loc 1 754 27 is_stmt 0 view .LVU381
 968 036e 91F800C0 		ldrb	ip, [r1]	@ zero_extendqisi2
 969              	.LVL114:
 757:Middlewares/ST/filex/common/src/fx_directory_search.c **** 
 970              		.loc 1 757 21 is_stmt 1 view .LVU382
 757:Middlewares/ST/filex/common/src/fx_directory_search.c **** 
 971              		.loc 1 757 32 is_stmt 0 view .LVU383
 972 0372 0378     		ldrb	r3, [r0]	@ zero_extendqisi2
 973              	.LVL115:
 760:Middlewares/ST/filex/common/src/fx_directory_search.c ****                     {
 974              		.loc 1 760 21 is_stmt 1 view .LVU384
 760:Middlewares/ST/filex/common/src/fx_directory_search.c ****                     {
 975              		.loc 1 760 45 is_stmt 0 view .LVU385
 976 0374 A3F16102 		sub	r2, r3, #97
 977 0378 D2B2     		uxtb	r2, r2
 760:Middlewares/ST/filex/common/src/fx_directory_search.c ****                     {
 978              		.loc 1 760 24 view .LVU386
 979 037a 192A     		cmp	r2, #25
 980 037c F1D8     		bhi	.L54
 764:Middlewares/ST/filex/common/src/fx_directory_search.c ****                     }
 981              		.loc 1 764 25 is_stmt 1 view .LVU387
 764:Middlewares/ST/filex/common/src/fx_directory_search.c ****                     }
 982              		.loc 1 764 36 is_stmt 0 view .LVU388
 983 037e 203B     		subs	r3, r3, #32
 984              	.LVL116:
 764:Middlewares/ST/filex/common/src/fx_directory_search.c ****                     }
 985              		.loc 1 764 36 view .LVU389
 986 0380 DBB2     		uxtb	r3, r3
 987              	.LVL117:
 764:Middlewares/ST/filex/common/src/fx_directory_search.c ****                     }
 988              		.loc 1 764 36 view .LVU390
ARM GAS  C:\Users\HP\AppData\Local\Temp\ccYVoi0M.s 			page 37


 989 0382 EEE7     		b	.L54
 990              	.LVL118:
 991              	.L55:
 782:Middlewares/ST/filex/common/src/fx_directory_search.c ****                 {
 992              		.loc 1 782 17 is_stmt 1 view .LVU391
 782:Middlewares/ST/filex/common/src/fx_directory_search.c ****                 {
 993              		.loc 1 782 22 is_stmt 0 view .LVU392
 994 0384 0B78     		ldrb	r3, [r1]	@ zero_extendqisi2
 782:Middlewares/ST/filex/common/src/fx_directory_search.c ****                 {
 995              		.loc 1 782 20 view .LVU393
 996 0386 002B     		cmp	r3, #0
 997 0388 C1D1     		bne	.L47
 782:Middlewares/ST/filex/common/src/fx_directory_search.c ****                 {
 998              		.loc 1 782 46 discriminator 1 view .LVU394
 999 038a 0278     		ldrb	r2, [r0]	@ zero_extendqisi2
 782:Middlewares/ST/filex/common/src/fx_directory_search.c ****                 {
 1000              		.loc 1 782 42 discriminator 1 view .LVU395
 1001 038c 9342     		cmp	r3, r2
 1002 038e BED1     		bne	.L47
 787:Middlewares/ST/filex/common/src/fx_directory_search.c ****                 }
 1003              		.loc 1 787 27 view .LVU396
 1004 0390 0127     		movs	r7, #1
 1005              	.LVL119:
 787:Middlewares/ST/filex/common/src/fx_directory_search.c ****                 }
 1006              		.loc 1 787 27 view .LVU397
 1007 0392 BCE7     		b	.L47
 1008              	.LVL120:
 1009              	.L96:
 732:Middlewares/ST/filex/common/src/fx_directory_search.c ****             }
 1010              		.loc 1 732 23 view .LVU398
 1011 0394 0127     		movs	r7, #1
 1012              	.LVL121:
 732:Middlewares/ST/filex/common/src/fx_directory_search.c ****             }
 1013              		.loc 1 732 23 view .LVU399
 1014 0396 BAE7     		b	.L47
 1015              	.LVL122:
 1016              	.L46:
 791:Middlewares/ST/filex/common/src/fx_directory_search.c **** 
 792:Middlewares/ST/filex/common/src/fx_directory_search.c ****         /* Now determine if we have a match.  */
 793:Middlewares/ST/filex/common/src/fx_directory_search.c ****         if (!found)
 1017              		.loc 1 793 12 view .LVU400
 1018 0398 7646     		mov	r6, lr
 1019              		.loc 1 793 9 is_stmt 1 view .LVU401
 1020              		.loc 1 793 12 is_stmt 0 view .LVU402
 1021 039a 002F     		cmp	r7, #0
 1022 039c 00F0A180 		beq	.L98
 794:Middlewares/ST/filex/common/src/fx_directory_search.c ****         {
 795:Middlewares/ST/filex/common/src/fx_directory_search.c **** 
 796:Middlewares/ST/filex/common/src/fx_directory_search.c ****             /* Return a "not found" status to the caller.  */
 797:Middlewares/ST/filex/common/src/fx_directory_search.c ****             return(FX_NOT_FOUND);
 798:Middlewares/ST/filex/common/src/fx_directory_search.c ****         }
 799:Middlewares/ST/filex/common/src/fx_directory_search.c **** 
 800:Middlewares/ST/filex/common/src/fx_directory_search.c ****         /* Determine if the found entry is indeed a sub-directory.  */
 801:Middlewares/ST/filex/common/src/fx_directory_search.c ****         if (entry_ptr -> fx_dir_entry_attributes & FX_DIRECTORY)
 1023              		.loc 1 801 9 is_stmt 1 view .LVU403
 1024              		.loc 1 801 23 is_stmt 0 view .LVU404
 1025 03a0 2B7F     		ldrb	r3, [r5, #28]	@ zero_extendqisi2
ARM GAS  C:\Users\HP\AppData\Local\Temp\ccYVoi0M.s 			page 38


 1026              		.loc 1 801 12 view .LVU405
 1027 03a2 13F0100F 		tst	r3, #16
 1028 03a6 21D0     		beq	.L58
 802:Middlewares/ST/filex/common/src/fx_directory_search.c ****         {
 803:Middlewares/ST/filex/common/src/fx_directory_search.c **** 
 804:Middlewares/ST/filex/common/src/fx_directory_search.c ****             /* Move the directory search pointer to this entry.  */
 805:Middlewares/ST/filex/common/src/fx_directory_search.c ****             search_dir =      *entry_ptr;
 1029              		.loc 1 805 13 is_stmt 1 view .LVU406
 1030              		.loc 1 805 24 is_stmt 0 view .LVU407
 1031 03a8 7022     		movs	r2, #112
 1032 03aa 2946     		mov	r1, r5
 1033 03ac 06A8     		add	r0, sp, #24
 1034 03ae FFF7FEFF 		bl	memcpy
 1035              	.LVL123:
 806:Middlewares/ST/filex/common/src/fx_directory_search.c ****             search_dir_ptr =  &search_dir;
 1036              		.loc 1 806 13 is_stmt 1 view .LVU408
 807:Middlewares/ST/filex/common/src/fx_directory_search.c **** 
 808:Middlewares/ST/filex/common/src/fx_directory_search.c ****             /* Ensure that the search directory's last search cluster is cleared.  */
 809:Middlewares/ST/filex/common/src/fx_directory_search.c ****             search_dir_ptr -> fx_dir_entry_last_search_cluster =  0;
 1037              		.loc 1 809 13 view .LVU409
 1038              		.loc 1 809 64 is_stmt 0 view .LVU410
 1039 03b2 0023     		movs	r3, #0
 1040 03b4 1A93     		str	r3, [sp, #104]
 810:Middlewares/ST/filex/common/src/fx_directory_search.c **** 
 811:Middlewares/ST/filex/common/src/fx_directory_search.c ****             /* Now determine if the new search directory is the root
 812:Middlewares/ST/filex/common/src/fx_directory_search.c ****                directory.  */
 813:Middlewares/ST/filex/common/src/fx_directory_search.c **** #ifdef FX_ENABLE_EXFAT
 814:Middlewares/ST/filex/common/src/fx_directory_search.c ****             if ((!search_dir_ptr -> fx_dir_entry_cluster)
 815:Middlewares/ST/filex/common/src/fx_directory_search.c ****                 && (media_ptr -> fx_media_FAT_type != FX_exFAT))
 816:Middlewares/ST/filex/common/src/fx_directory_search.c **** #else
 817:Middlewares/ST/filex/common/src/fx_directory_search.c ****             if (!search_dir_ptr -> fx_dir_entry_cluster)
 1041              		.loc 1 817 13 is_stmt 1 view .LVU411
 1042              		.loc 1 817 33 is_stmt 0 view .LVU412
 1043 03b6 139F     		ldr	r7, [sp, #76]
 1044              	.LVL124:
 1045              		.loc 1 817 16 view .LVU413
 1046 03b8 67BB     		cbnz	r7, .L99
 818:Middlewares/ST/filex/common/src/fx_directory_search.c **** #endif /* FX_ENABLE_EXFAT */
 819:Middlewares/ST/filex/common/src/fx_directory_search.c ****             {
 820:Middlewares/ST/filex/common/src/fx_directory_search.c **** 
 821:Middlewares/ST/filex/common/src/fx_directory_search.c ****                 /* This is a backward link to the root directory.  Make
 822:Middlewares/ST/filex/common/src/fx_directory_search.c ****                    sure this is indicated in the search directory
 823:Middlewares/ST/filex/common/src/fx_directory_search.c ****                    information.  */
 824:Middlewares/ST/filex/common/src/fx_directory_search.c ****                 search_dir_ptr -> fx_dir_entry_name[0] =  0;
 1047              		.loc 1 824 17 is_stmt 1 view .LVU414
 1048              		.loc 1 824 56 is_stmt 0 view .LVU415
 1049 03ba 3370     		strb	r3, [r6]
 825:Middlewares/ST/filex/common/src/fx_directory_search.c **** 
 826:Middlewares/ST/filex/common/src/fx_directory_search.c ****                 /* Determine if we need to remember this in the last
 827:Middlewares/ST/filex/common/src/fx_directory_search.c ****                    directory searched return area.  */
 828:Middlewares/ST/filex/common/src/fx_directory_search.c ****                 if (last_dir_ptr)
 1050              		.loc 1 828 17 is_stmt 1 view .LVU416
 1051              		.loc 1 828 20 is_stmt 0 view .LVU417
 1052 03bc 049B     		ldr	r3, [sp, #16]
 1053 03be 13B9     		cbnz	r3, .L119
 829:Middlewares/ST/filex/common/src/fx_directory_search.c ****                 {
 830:Middlewares/ST/filex/common/src/fx_directory_search.c **** 
ARM GAS  C:\Users\HP\AppData\Local\Temp\ccYVoi0M.s 			page 39


 831:Middlewares/ST/filex/common/src/fx_directory_search.c ****                     /* Yes, return this value to the caller.  */
 832:Middlewares/ST/filex/common/src/fx_directory_search.c **** 
 833:Middlewares/ST/filex/common/src/fx_directory_search.c ****                     /* First, save the name pointer from the list directory pointer.  */
 834:Middlewares/ST/filex/common/src/fx_directory_search.c ****                     destination_name_ptr =  last_dir_ptr -> fx_dir_entry_name;
 835:Middlewares/ST/filex/common/src/fx_directory_search.c **** 
 836:Middlewares/ST/filex/common/src/fx_directory_search.c ****                     /* Copy the entire directory entry structure.  */
 837:Middlewares/ST/filex/common/src/fx_directory_search.c ****                     *last_dir_ptr =  *search_dir_ptr;
 838:Middlewares/ST/filex/common/src/fx_directory_search.c **** 
 839:Middlewares/ST/filex/common/src/fx_directory_search.c ****                     /* Restore the original name buffer pointer.  */
 840:Middlewares/ST/filex/common/src/fx_directory_search.c ****                     last_dir_ptr -> fx_dir_entry_name =  destination_name_ptr;
 841:Middlewares/ST/filex/common/src/fx_directory_search.c **** 
 842:Middlewares/ST/filex/common/src/fx_directory_search.c ****                     /* Pickup pointer to name to copy.  */
 843:Middlewares/ST/filex/common/src/fx_directory_search.c ****                     source_name_ptr =  search_dir_ptr -> fx_dir_entry_name;
 844:Middlewares/ST/filex/common/src/fx_directory_search.c **** 
 845:Middlewares/ST/filex/common/src/fx_directory_search.c ****                     /* Loop to copy the name into the last directory name buffer.  */
 846:Middlewares/ST/filex/common/src/fx_directory_search.c ****                     for (n = 0; n < FX_MAX_LONG_NAME_LEN; n++)
 847:Middlewares/ST/filex/common/src/fx_directory_search.c ****                     {
 848:Middlewares/ST/filex/common/src/fx_directory_search.c **** 
 849:Middlewares/ST/filex/common/src/fx_directory_search.c ****                         /* Copy a character.  */
 850:Middlewares/ST/filex/common/src/fx_directory_search.c ****                         destination_name_ptr[n] =  source_name_ptr[n];
 851:Middlewares/ST/filex/common/src/fx_directory_search.c ****                     }
 852:Middlewares/ST/filex/common/src/fx_directory_search.c ****                 }
 853:Middlewares/ST/filex/common/src/fx_directory_search.c **** 
 854:Middlewares/ST/filex/common/src/fx_directory_search.c ****                 /* Set the search directory pointer to NULL to indicate
 855:Middlewares/ST/filex/common/src/fx_directory_search.c ****                    we are at the root directory.  */
 856:Middlewares/ST/filex/common/src/fx_directory_search.c ****                 search_dir_ptr =  FX_NULL;
 1054              		.loc 1 856 32 view .LVU418
 1055 03c0 DDF81080 		ldr	r8, [sp, #16]
 1056 03c4 15E0     		b	.L59
 1057              	.L119:
 834:Middlewares/ST/filex/common/src/fx_directory_search.c **** 
 1058              		.loc 1 834 21 is_stmt 1 view .LVU419
 834:Middlewares/ST/filex/common/src/fx_directory_search.c **** 
 1059              		.loc 1 834 42 is_stmt 0 view .LVU420
 1060 03c6 1E68     		ldr	r6, [r3]
 1061              	.LVL125:
 837:Middlewares/ST/filex/common/src/fx_directory_search.c **** 
 1062              		.loc 1 837 21 is_stmt 1 view .LVU421
 837:Middlewares/ST/filex/common/src/fx_directory_search.c **** 
 1063              		.loc 1 837 35 is_stmt 0 view .LVU422
 1064 03c8 7022     		movs	r2, #112
 1065 03ca 06A9     		add	r1, sp, #24
 1066              	.LVL126:
 837:Middlewares/ST/filex/common/src/fx_directory_search.c **** 
 1067              		.loc 1 837 35 view .LVU423
 1068 03cc 9846     		mov	r8, r3
 1069 03ce 1846     		mov	r0, r3
 1070 03d0 FFF7FEFF 		bl	memcpy
 1071              	.LVL127:
 840:Middlewares/ST/filex/common/src/fx_directory_search.c **** 
 1072              		.loc 1 840 21 is_stmt 1 view .LVU424
 840:Middlewares/ST/filex/common/src/fx_directory_search.c **** 
 1073              		.loc 1 840 55 is_stmt 0 view .LVU425
 1074 03d4 C8F80060 		str	r6, [r8]
 843:Middlewares/ST/filex/common/src/fx_directory_search.c **** 
 1075              		.loc 1 843 21 is_stmt 1 view .LVU426
 843:Middlewares/ST/filex/common/src/fx_directory_search.c **** 
ARM GAS  C:\Users\HP\AppData\Local\Temp\ccYVoi0M.s 			page 40


 1076              		.loc 1 843 37 is_stmt 0 view .LVU427
 1077 03d8 069A     		ldr	r2, [sp, #24]
 1078              	.LVL128:
 846:Middlewares/ST/filex/common/src/fx_directory_search.c ****                     {
 1079              		.loc 1 846 21 is_stmt 1 view .LVU428
 846:Middlewares/ST/filex/common/src/fx_directory_search.c ****                     {
 1080              		.loc 1 846 21 is_stmt 0 view .LVU429
 1081 03da 02E0     		b	.L60
 1082              	.LVL129:
 1083              	.L61:
 850:Middlewares/ST/filex/common/src/fx_directory_search.c ****                     }
 1084              		.loc 1 850 25 is_stmt 1 discriminator 3 view .LVU430
 850:Middlewares/ST/filex/common/src/fx_directory_search.c ****                     }
 1085              		.loc 1 850 67 is_stmt 0 discriminator 3 view .LVU431
 1086 03dc D35D     		ldrb	r3, [r2, r7]	@ zero_extendqisi2
 850:Middlewares/ST/filex/common/src/fx_directory_search.c ****                     }
 1087              		.loc 1 850 49 discriminator 3 view .LVU432
 1088 03de F355     		strb	r3, [r6, r7]
 846:Middlewares/ST/filex/common/src/fx_directory_search.c ****                     {
 1089              		.loc 1 846 59 is_stmt 1 discriminator 3 view .LVU433
 846:Middlewares/ST/filex/common/src/fx_directory_search.c ****                     {
 1090              		.loc 1 846 60 is_stmt 0 discriminator 3 view .LVU434
 1091 03e0 0137     		adds	r7, r7, #1
 1092              	.LVL130:
 1093              	.L60:
 846:Middlewares/ST/filex/common/src/fx_directory_search.c ****                     {
 1094              		.loc 1 846 33 is_stmt 1 discriminator 1 view .LVU435
 846:Middlewares/ST/filex/common/src/fx_directory_search.c ****                     {
 1095              		.loc 1 846 21 is_stmt 0 discriminator 1 view .LVU436
 1096 03e2 FF2F     		cmp	r7, #255
 1097 03e4 FAD9     		bls	.L61
 1098              		.loc 1 856 32 view .LVU437
 1099 03e6 4FF00008 		mov	r8, #0
 1100 03ea 02E0     		b	.L59
 1101              	.LVL131:
 1102              	.L58:
 857:Middlewares/ST/filex/common/src/fx_directory_search.c ****             }
 858:Middlewares/ST/filex/common/src/fx_directory_search.c ****         }
 859:Middlewares/ST/filex/common/src/fx_directory_search.c ****         else
 860:Middlewares/ST/filex/common/src/fx_directory_search.c ****         {
 861:Middlewares/ST/filex/common/src/fx_directory_search.c **** 
 862:Middlewares/ST/filex/common/src/fx_directory_search.c ****             /* This is not a directory, we better return not found
 863:Middlewares/ST/filex/common/src/fx_directory_search.c ****                since we can't continue the search.  */
 864:Middlewares/ST/filex/common/src/fx_directory_search.c ****             if (name_ptr)
 1103              		.loc 1 864 13 is_stmt 1 view .LVU438
 1104              		.loc 1 864 16 is_stmt 0 view .LVU439
 1105 03ec BBF1000F 		cmp	fp, #0
 1106 03f0 7AD1     		bne	.L120
 1107              	.LVL132:
 1108              	.L59:
 865:Middlewares/ST/filex/common/src/fx_directory_search.c ****             {
 866:Middlewares/ST/filex/common/src/fx_directory_search.c **** 
 867:Middlewares/ST/filex/common/src/fx_directory_search.c ****                 /* Return not-found status to caller.  */
 868:Middlewares/ST/filex/common/src/fx_directory_search.c ****                 return(FX_NOT_FOUND);
 869:Middlewares/ST/filex/common/src/fx_directory_search.c ****             }
 870:Middlewares/ST/filex/common/src/fx_directory_search.c ****         }
 871:Middlewares/ST/filex/common/src/fx_directory_search.c ****     } while (name_ptr);
ARM GAS  C:\Users\HP\AppData\Local\Temp\ccYVoi0M.s 			page 41


 1109              		.loc 1 871 13 is_stmt 1 view .LVU440
 1110              		.loc 1 871 5 is_stmt 0 view .LVU441
 1111 03f2 BBF1000F 		cmp	fp, #0
 1112 03f6 7FF47FAE 		bne	.L62
 872:Middlewares/ST/filex/common/src/fx_directory_search.c **** 
 873:Middlewares/ST/filex/common/src/fx_directory_search.c ****     /* If you reach this point, the directory is found absolutely, since !found will return directl
 874:Middlewares/ST/filex/common/src/fx_directory_search.c **** #ifndef FX_MEDIA_DISABLE_SEARCH_CACHE
 875:Middlewares/ST/filex/common/src/fx_directory_search.c **** 
 876:Middlewares/ST/filex/common/src/fx_directory_search.c **** 
 877:Middlewares/ST/filex/common/src/fx_directory_search.c ****     /* At this point, cache the found information.  If a subsequent search for the same name is don
 878:Middlewares/ST/filex/common/src/fx_directory_search.c ****        it will return immediately.  */
 879:Middlewares/ST/filex/common/src/fx_directory_search.c **** 
 880:Middlewares/ST/filex/common/src/fx_directory_search.c ****     /* Set the index of the saved name string.  */
 881:Middlewares/ST/filex/common/src/fx_directory_search.c ****     v=  0;
 882:Middlewares/ST/filex/common/src/fx_directory_search.c **** 
 883:Middlewares/ST/filex/common/src/fx_directory_search.c ****     /* First, build the full path and name.  */
 884:Middlewares/ST/filex/common/src/fx_directory_search.c ****     if ((*original_name != '\\') && (*original_name != '/') && (path_ptr))
 1113              		.loc 1 884 10 view .LVU442
 1114 03fa 4746     		mov	r7, r8
 1115 03fc DDF814B0 		ldr	fp, [sp, #20]
 1116              	.LVL133:
 881:Middlewares/ST/filex/common/src/fx_directory_search.c **** 
 1117              		.loc 1 881 5 is_stmt 1 view .LVU443
 1118              		.loc 1 884 5 view .LVU444
 1119              		.loc 1 884 10 is_stmt 0 view .LVU445
 1120 0400 9BF80030 		ldrb	r3, [fp]	@ zero_extendqisi2
 1121              		.loc 1 884 8 view .LVU446
 1122 0404 5C2B     		cmp	r3, #92
 1123 0406 15D0     		beq	.L102
 1124              		.loc 1 884 34 discriminator 1 view .LVU447
 1125 0408 2F2B     		cmp	r3, #47
 1126 040a 23D0     		beq	.L103
 1127              		.loc 1 884 61 discriminator 2 view .LVU448
 1128 040c 039B     		ldr	r3, [sp, #12]
 1129 040e 23B1     		cbz	r3, .L121
 881:Middlewares/ST/filex/common/src/fx_directory_search.c **** 
 1130              		.loc 1 881 6 view .LVU449
 1131 0410 019B     		ldr	r3, [sp, #4]
 1132 0412 08E0     		b	.L64
 1133              	.LVL134:
 1134              	.L99:
 806:Middlewares/ST/filex/common/src/fx_directory_search.c **** 
 1135              		.loc 1 806 28 view .LVU450
 1136 0414 0DF11808 		add	r8, sp, #24
 1137              	.LVL135:
 806:Middlewares/ST/filex/common/src/fx_directory_search.c **** 
 1138              		.loc 1 806 28 view .LVU451
 1139 0418 EBE7     		b	.L59
 1140              	.LVL136:
 1141              	.L121:
 881:Middlewares/ST/filex/common/src/fx_directory_search.c **** 
 1142              		.loc 1 881 6 view .LVU452
 1143 041a 019B     		ldr	r3, [sp, #4]
 1144 041c 0BE0     		b	.L63
 1145              	.LVL137:
 1146              	.L65:
 885:Middlewares/ST/filex/common/src/fx_directory_search.c ****     {
ARM GAS  C:\Users\HP\AppData\Local\Temp\ccYVoi0M.s 			page 42


 886:Middlewares/ST/filex/common/src/fx_directory_search.c **** 
 887:Middlewares/ST/filex/common/src/fx_directory_search.c ****         /* Copy the path into the destination.  */
 888:Middlewares/ST/filex/common/src/fx_directory_search.c ****         while ((v< (FX_MAX_LAST_NAME_LEN - 1)) && (path_ptr[v]))
 889:Middlewares/ST/filex/common/src/fx_directory_search.c ****         {
 890:Middlewares/ST/filex/common/src/fx_directory_search.c **** 
 891:Middlewares/ST/filex/common/src/fx_directory_search.c ****             /* Copy one character.   */
 892:Middlewares/ST/filex/common/src/fx_directory_search.c ****             media_ptr -> fx_media_last_found_name[v] =  path_ptr[v];
 1147              		.loc 1 892 13 is_stmt 1 view .LVU453
 1148              		.loc 1 892 54 is_stmt 0 view .LVU454
 1149 041e E118     		adds	r1, r4, r3
 1150 0420 81F8E023 		strb	r2, [r1, #992]
 893:Middlewares/ST/filex/common/src/fx_directory_search.c **** 
 894:Middlewares/ST/filex/common/src/fx_directory_search.c ****             /* Move to next character.  */
 895:Middlewares/ST/filex/common/src/fx_directory_search.c ****             v++;
 1151              		.loc 1 895 13 is_stmt 1 view .LVU455
 1152              		.loc 1 895 14 is_stmt 0 view .LVU456
 1153 0424 0133     		adds	r3, r3, #1
 1154              	.LVL138:
 1155              	.L64:
 888:Middlewares/ST/filex/common/src/fx_directory_search.c ****         {
 1156              		.loc 1 888 15 is_stmt 1 view .LVU457
 1157 0426 FE2B     		cmp	r3, #254
 1158 0428 05D8     		bhi	.L63
 888:Middlewares/ST/filex/common/src/fx_directory_search.c ****         {
 1159              		.loc 1 888 60 is_stmt 0 discriminator 1 view .LVU458
 1160 042a 039A     		ldr	r2, [sp, #12]
 1161 042c D25C     		ldrb	r2, [r2, r3]	@ zero_extendqisi2
 888:Middlewares/ST/filex/common/src/fx_directory_search.c ****         {
 1162              		.loc 1 888 48 discriminator 1 view .LVU459
 1163 042e 002A     		cmp	r2, #0
 1164 0430 F5D1     		bne	.L65
 1165 0432 00E0     		b	.L63
 1166              	.LVL139:
 1167              	.L102:
 881:Middlewares/ST/filex/common/src/fx_directory_search.c **** 
 1168              		.loc 1 881 6 view .LVU460
 1169 0434 019B     		ldr	r3, [sp, #4]
 1170              	.LVL140:
 1171              	.L63:
 896:Middlewares/ST/filex/common/src/fx_directory_search.c ****         }
 897:Middlewares/ST/filex/common/src/fx_directory_search.c ****     }
 898:Middlewares/ST/filex/common/src/fx_directory_search.c **** 
 899:Middlewares/ST/filex/common/src/fx_directory_search.c ****     /* Now see if there is no directory path symbol in the name itself.  */
 900:Middlewares/ST/filex/common/src/fx_directory_search.c ****     if ((*original_name != '\\') && (*original_name != '/'))
 1172              		.loc 1 900 5 is_stmt 1 view .LVU461
 1173              		.loc 1 900 10 is_stmt 0 view .LVU462
 1174 0436 9BF80020 		ldrb	r2, [fp]	@ zero_extendqisi2
 1175              		.loc 1 900 8 view .LVU463
 1176 043a 5C2A     		cmp	r2, #92
 1177 043c 08D0     		beq	.L66
 1178              		.loc 1 900 34 discriminator 1 view .LVU464
 1179 043e 2F2A     		cmp	r2, #47
 1180 0440 06D0     		beq	.L66
 901:Middlewares/ST/filex/common/src/fx_directory_search.c ****     {
 902:Middlewares/ST/filex/common/src/fx_directory_search.c **** 
 903:Middlewares/ST/filex/common/src/fx_directory_search.c ****         /* If there is room, place a directory separator character.  */
 904:Middlewares/ST/filex/common/src/fx_directory_search.c ****         if (v < (FX_MAX_LAST_NAME_LEN - 1))
ARM GAS  C:\Users\HP\AppData\Local\Temp\ccYVoi0M.s 			page 43


 1181              		.loc 1 904 9 is_stmt 1 view .LVU465
 1182              		.loc 1 904 12 is_stmt 0 view .LVU466
 1183 0442 FE2B     		cmp	r3, #254
 1184 0444 04D8     		bhi	.L66
 905:Middlewares/ST/filex/common/src/fx_directory_search.c ****         {
 906:Middlewares/ST/filex/common/src/fx_directory_search.c ****             media_ptr -> fx_media_last_found_name[v++] =  '/';
 1185              		.loc 1 906 13 is_stmt 1 view .LVU467
 1186              	.LVL141:
 1187              		.loc 1 906 56 is_stmt 0 view .LVU468
 1188 0446 E218     		adds	r2, r4, r3
 1189 0448 2F21     		movs	r1, #47
 1190 044a 82F8E013 		strb	r1, [r2, #992]
 1191              		.loc 1 906 52 view .LVU469
 1192 044e 0133     		adds	r3, r3, #1
 1193              	.LVL142:
 1194              	.L66:
 1195              		.loc 1 906 52 view .LVU470
 1196 0450 019A     		ldr	r2, [sp, #4]
 1197 0452 06E0     		b	.L67
 1198              	.LVL143:
 1199              	.L103:
 881:Middlewares/ST/filex/common/src/fx_directory_search.c **** 
 1200              		.loc 1 881 6 view .LVU471
 1201 0454 019B     		ldr	r3, [sp, #4]
 1202 0456 EEE7     		b	.L63
 1203              	.LVL144:
 1204              	.L69:
 907:Middlewares/ST/filex/common/src/fx_directory_search.c ****         }
 908:Middlewares/ST/filex/common/src/fx_directory_search.c ****     }
 909:Middlewares/ST/filex/common/src/fx_directory_search.c **** 
 910:Middlewares/ST/filex/common/src/fx_directory_search.c ****     /* Now append the name to the path.  */
 911:Middlewares/ST/filex/common/src/fx_directory_search.c ****     j =  0;
 912:Middlewares/ST/filex/common/src/fx_directory_search.c ****     while ((v < FX_MAX_LAST_NAME_LEN) && (original_name[j]))
 913:Middlewares/ST/filex/common/src/fx_directory_search.c ****     {
 914:Middlewares/ST/filex/common/src/fx_directory_search.c **** 
 915:Middlewares/ST/filex/common/src/fx_directory_search.c ****         /* Copy one character.   */
 916:Middlewares/ST/filex/common/src/fx_directory_search.c ****         media_ptr -> fx_media_last_found_name[v] =  original_name[j];
 1205              		.loc 1 916 9 is_stmt 1 view .LVU472
 1206              		.loc 1 916 50 is_stmt 0 view .LVU473
 1207 0458 E018     		adds	r0, r4, r3
 1208 045a 80F8E013 		strb	r1, [r0, #992]
 917:Middlewares/ST/filex/common/src/fx_directory_search.c **** 
 918:Middlewares/ST/filex/common/src/fx_directory_search.c ****         /* Move to next character.  */
 919:Middlewares/ST/filex/common/src/fx_directory_search.c ****         v++;
 1209              		.loc 1 919 9 is_stmt 1 view .LVU474
 1210              		.loc 1 919 10 is_stmt 0 view .LVU475
 1211 045e 0133     		adds	r3, r3, #1
 1212              	.LVL145:
 920:Middlewares/ST/filex/common/src/fx_directory_search.c ****         j++;
 1213              		.loc 1 920 9 is_stmt 1 view .LVU476
 1214              		.loc 1 920 10 is_stmt 0 view .LVU477
 1215 0460 0132     		adds	r2, r2, #1
 1216              	.LVL146:
 1217              	.L67:
 912:Middlewares/ST/filex/common/src/fx_directory_search.c ****     {
 1218              		.loc 1 912 11 is_stmt 1 view .LVU478
 1219 0462 FF2B     		cmp	r3, #255
ARM GAS  C:\Users\HP\AppData\Local\Temp\ccYVoi0M.s 			page 44


 1220 0464 03D8     		bhi	.L68
 912:Middlewares/ST/filex/common/src/fx_directory_search.c ****     {
 1221              		.loc 1 912 56 is_stmt 0 discriminator 1 view .LVU479
 1222 0466 1BF80210 		ldrb	r1, [fp, r2]	@ zero_extendqisi2
 912:Middlewares/ST/filex/common/src/fx_directory_search.c ****     {
 1223              		.loc 1 912 39 discriminator 1 view .LVU480
 1224 046a 0029     		cmp	r1, #0
 1225 046c F4D1     		bne	.L69
 1226              	.L68:
 921:Middlewares/ST/filex/common/src/fx_directory_search.c ****     }
 922:Middlewares/ST/filex/common/src/fx_directory_search.c **** 
 923:Middlewares/ST/filex/common/src/fx_directory_search.c ****     /* Null terminate the last name string.   */
 924:Middlewares/ST/filex/common/src/fx_directory_search.c ****     if (v< FX_MAX_LAST_NAME_LEN)
 1227              		.loc 1 924 5 is_stmt 1 view .LVU481
 1228              		.loc 1 924 8 is_stmt 0 view .LVU482
 1229 046e FF2B     		cmp	r3, #255
 1230 0470 26D8     		bhi	.L70
 925:Middlewares/ST/filex/common/src/fx_directory_search.c ****     {
 926:Middlewares/ST/filex/common/src/fx_directory_search.c **** 
 927:Middlewares/ST/filex/common/src/fx_directory_search.c ****         /* Null terminate.  */
 928:Middlewares/ST/filex/common/src/fx_directory_search.c ****         media_ptr -> fx_media_last_found_name[v] =  FX_NULL;
 1231              		.loc 1 928 9 is_stmt 1 view .LVU483
 1232              		.loc 1 928 50 is_stmt 0 view .LVU484
 1233 0472 2344     		add	r3, r3, r4
 1234              	.LVL147:
 1235              		.loc 1 928 50 view .LVU485
 1236 0474 0022     		movs	r2, #0
 1237              	.LVL148:
 1238              		.loc 1 928 50 view .LVU486
 1239 0476 83F8E023 		strb	r2, [r3, #992]
 1240              	.L71:
 929:Middlewares/ST/filex/common/src/fx_directory_search.c ****     }
 930:Middlewares/ST/filex/common/src/fx_directory_search.c ****     else
 931:Middlewares/ST/filex/common/src/fx_directory_search.c ****     {
 932:Middlewares/ST/filex/common/src/fx_directory_search.c **** 
 933:Middlewares/ST/filex/common/src/fx_directory_search.c ****         /* The string is too big, NULL the string so it won't be used in searching.  */
 934:Middlewares/ST/filex/common/src/fx_directory_search.c ****         media_ptr -> fx_media_last_found_name[0] =  FX_NULL;
 935:Middlewares/ST/filex/common/src/fx_directory_search.c ****     }
 936:Middlewares/ST/filex/common/src/fx_directory_search.c **** 
 937:Middlewares/ST/filex/common/src/fx_directory_search.c ****     /* Determine if there is a search pointer.  */
 938:Middlewares/ST/filex/common/src/fx_directory_search.c ****     if (search_dir_ptr)
 1241              		.loc 1 938 5 is_stmt 1 view .LVU487
 1242              		.loc 1 938 8 is_stmt 0 view .LVU488
 1243 047a 2FB3     		cbz	r7, .L72
 939:Middlewares/ST/filex/common/src/fx_directory_search.c ****     {
 940:Middlewares/ST/filex/common/src/fx_directory_search.c **** 
 941:Middlewares/ST/filex/common/src/fx_directory_search.c ****         /* Yes, there is a search directory pointer so save it!   */
 942:Middlewares/ST/filex/common/src/fx_directory_search.c ****         media_ptr -> fx_media_last_found_directory =  *search_dir_ptr;
 1244              		.loc 1 942 9 is_stmt 1 view .LVU489
 1245              		.loc 1 942 52 is_stmt 0 view .LVU490
 1246 047c 7022     		movs	r2, #112
 1247 047e 3946     		mov	r1, r7
 1248 0480 04F50070 		add	r0, r4, #512
 1249 0484 FFF7FEFF 		bl	memcpy
 1250              	.LVL149:
 943:Middlewares/ST/filex/common/src/fx_directory_search.c **** 
 944:Middlewares/ST/filex/common/src/fx_directory_search.c ****         /* Indicate the search directory is valid.  */
ARM GAS  C:\Users\HP\AppData\Local\Temp\ccYVoi0M.s 			page 45


 945:Middlewares/ST/filex/common/src/fx_directory_search.c ****         media_ptr -> fx_media_last_found_directory_valid =  FX_TRUE;
 1251              		.loc 1 945 9 is_stmt 1 view .LVU491
 1252              		.loc 1 945 58 is_stmt 0 view .LVU492
 1253 0488 0123     		movs	r3, #1
 1254 048a C4F8FC31 		str	r3, [r4, #508]
 1255              	.L73:
 946:Middlewares/ST/filex/common/src/fx_directory_search.c ****     }
 947:Middlewares/ST/filex/common/src/fx_directory_search.c ****     else
 948:Middlewares/ST/filex/common/src/fx_directory_search.c ****     {
 949:Middlewares/ST/filex/common/src/fx_directory_search.c **** 
 950:Middlewares/ST/filex/common/src/fx_directory_search.c ****         /* Indicate the search directory is not valid.  */
 951:Middlewares/ST/filex/common/src/fx_directory_search.c ****         media_ptr -> fx_media_last_found_directory_valid =  FX_FALSE;
 952:Middlewares/ST/filex/common/src/fx_directory_search.c ****     }
 953:Middlewares/ST/filex/common/src/fx_directory_search.c **** 
 954:Middlewares/ST/filex/common/src/fx_directory_search.c ****     /* Copy the directory entry.  */
 955:Middlewares/ST/filex/common/src/fx_directory_search.c ****     media_ptr -> fx_media_last_found_entry =  *entry_ptr;
 1256              		.loc 1 955 5 is_stmt 1 view .LVU493
 1257              		.loc 1 955 44 is_stmt 0 view .LVU494
 1258 048e 7022     		movs	r2, #112
 1259 0490 2946     		mov	r1, r5
 1260 0492 04F51C70 		add	r0, r4, #624
 1261 0496 FFF7FEFF 		bl	memcpy
 1262              	.LVL150:
 956:Middlewares/ST/filex/common/src/fx_directory_search.c **** 
 957:Middlewares/ST/filex/common/src/fx_directory_search.c ****     /* Setup the directory entry for the last found internal file name.  */
 958:Middlewares/ST/filex/common/src/fx_directory_search.c ****     media_ptr -> fx_media_last_found_entry.fx_dir_entry_name =  media_ptr -> fx_media_last_found_fi
 1263              		.loc 1 958 5 is_stmt 1 view .LVU495
 1264              		.loc 1 958 65 is_stmt 0 view .LVU496
 1265 049a 04F53873 		add	r3, r4, #736
 1266              		.loc 1 958 62 view .LVU497
 1267 049e C4F87032 		str	r3, [r4, #624]
 959:Middlewares/ST/filex/common/src/fx_directory_search.c **** 
 960:Middlewares/ST/filex/common/src/fx_directory_search.c ****     /* Copy the actual directory name into the cached directory name.  */
 961:Middlewares/ST/filex/common/src/fx_directory_search.c ****     for (index = 0; index < FX_MAX_LONG_NAME_LEN; index++)
 1268              		.loc 1 961 5 is_stmt 1 view .LVU498
 1269              	.LVL151:
 1270              		.loc 1 961 16 is_stmt 0 view .LVU499
 1271 04a2 019B     		ldr	r3, [sp, #4]
 1272              	.LVL152:
 1273              	.L74:
 1274              		.loc 1 961 21 is_stmt 1 discriminator 1 view .LVU500
 1275              		.loc 1 961 5 is_stmt 0 discriminator 1 view .LVU501
 1276 04a4 FF2B     		cmp	r3, #255
 1277 04a6 23D8     		bhi	.L1
 962:Middlewares/ST/filex/common/src/fx_directory_search.c ****     {
 963:Middlewares/ST/filex/common/src/fx_directory_search.c **** 
 964:Middlewares/ST/filex/common/src/fx_directory_search.c ****         /* Copy character into the cached directory name.  */
 965:Middlewares/ST/filex/common/src/fx_directory_search.c ****         media_ptr -> fx_media_last_found_file_name[index] =  entry_ptr ->  fx_dir_entry_name[index]
 1278              		.loc 1 965 9 is_stmt 1 view .LVU502
 1279              		.loc 1 965 72 is_stmt 0 view .LVU503
 1280 04a8 2A68     		ldr	r2, [r5]
 1281              		.loc 1 965 93 view .LVU504
 1282 04aa D15C     		ldrb	r1, [r2, r3]	@ zero_extendqisi2
 1283              		.loc 1 965 59 view .LVU505
 1284 04ac E218     		adds	r2, r4, r3
 1285 04ae 82F8E012 		strb	r1, [r2, #736]
 966:Middlewares/ST/filex/common/src/fx_directory_search.c **** 
ARM GAS  C:\Users\HP\AppData\Local\Temp\ccYVoi0M.s 			page 46


 967:Middlewares/ST/filex/common/src/fx_directory_search.c ****         /* See if we have copied the NULL termination character.  */
 968:Middlewares/ST/filex/common/src/fx_directory_search.c ****         if (entry_ptr -> fx_dir_entry_name[index] == (CHAR)FX_NULL)
 1286              		.loc 1 968 9 is_stmt 1 view .LVU506
 1287              		.loc 1 968 23 is_stmt 0 view .LVU507
 1288 04b2 2A68     		ldr	r2, [r5]
 1289              		.loc 1 968 43 view .LVU508
 1290 04b4 D25C     		ldrb	r2, [r2, r3]	@ zero_extendqisi2
 1291              		.loc 1 968 12 view .LVU509
 1292 04b6 0AB9     		cbnz	r2, .L75
 969:Middlewares/ST/filex/common/src/fx_directory_search.c ****         {
 970:Middlewares/ST/filex/common/src/fx_directory_search.c ****                 
 971:Middlewares/ST/filex/common/src/fx_directory_search.c ****             /* Check to see if we use the break to get out of the loop.  */
 972:Middlewares/ST/filex/common/src/fx_directory_search.c ****             if (index < (FX_MAX_LONG_NAME_LEN - 1))
 1293              		.loc 1 972 13 is_stmt 1 view .LVU510
 1294              		.loc 1 972 16 is_stmt 0 view .LVU511
 1295 04b8 FE2B     		cmp	r3, #254
 1296 04ba 19D9     		bls	.L1
 1297              	.L75:
 961:Middlewares/ST/filex/common/src/fx_directory_search.c ****     {
 1298              		.loc 1 961 51 is_stmt 1 discriminator 2 view .LVU512
 961:Middlewares/ST/filex/common/src/fx_directory_search.c ****     {
 1299              		.loc 1 961 56 is_stmt 0 discriminator 2 view .LVU513
 1300 04bc 0133     		adds	r3, r3, #1
 1301              	.LVL153:
 961:Middlewares/ST/filex/common/src/fx_directory_search.c ****     {
 1302              		.loc 1 961 56 discriminator 2 view .LVU514
 1303 04be F1E7     		b	.L74
 1304              	.LVL154:
 1305              	.L70:
 934:Middlewares/ST/filex/common/src/fx_directory_search.c ****     }
 1306              		.loc 1 934 9 is_stmt 1 view .LVU515
 934:Middlewares/ST/filex/common/src/fx_directory_search.c ****     }
 1307              		.loc 1 934 50 is_stmt 0 view .LVU516
 1308 04c0 0023     		movs	r3, #0
 1309              	.LVL155:
 934:Middlewares/ST/filex/common/src/fx_directory_search.c ****     }
 1310              		.loc 1 934 50 view .LVU517
 1311 04c2 84F8E033 		strb	r3, [r4, #992]
 1312 04c6 D8E7     		b	.L71
 1313              	.LVL156:
 1314              	.L72:
 951:Middlewares/ST/filex/common/src/fx_directory_search.c ****     }
 1315              		.loc 1 951 9 is_stmt 1 view .LVU518
 951:Middlewares/ST/filex/common/src/fx_directory_search.c ****     }
 1316              		.loc 1 951 58 is_stmt 0 view .LVU519
 1317 04c8 0023     		movs	r3, #0
 1318 04ca C4F8FC31 		str	r3, [r4, #508]
 1319 04ce DEE7     		b	.L73
 1320              	.LVL157:
 1321              	.L92:
 557:Middlewares/ST/filex/common/src/fx_directory_search.c ****                     }
 1322              		.loc 1 557 31 view .LVU520
 1323 04d0 0323     		movs	r3, #3
 1324 04d2 0193     		str	r3, [sp, #4]
 1325 04d4 0CE0     		b	.L1
 1326              	.L93:
 1327 04d6 0323     		movs	r3, #3
ARM GAS  C:\Users\HP\AppData\Local\Temp\ccYVoi0M.s 			page 47


 1328 04d8 0193     		str	r3, [sp, #4]
 1329 04da 09E0     		b	.L1
 1330              	.L94:
 1331 04dc 0323     		movs	r3, #3
 1332 04de 0193     		str	r3, [sp, #4]
 1333 04e0 06E0     		b	.L1
 1334              	.LVL158:
 1335              	.L98:
 797:Middlewares/ST/filex/common/src/fx_directory_search.c ****         }
 1336              		.loc 1 797 19 view .LVU521
 1337 04e2 0423     		movs	r3, #4
 1338 04e4 0193     		str	r3, [sp, #4]
 1339              	.LVL159:
 797:Middlewares/ST/filex/common/src/fx_directory_search.c ****         }
 1340              		.loc 1 797 19 view .LVU522
 1341 04e6 03E0     		b	.L1
 1342              	.LVL160:
 1343              	.L120:
 868:Middlewares/ST/filex/common/src/fx_directory_search.c ****             }
 1344              		.loc 1 868 23 view .LVU523
 1345 04e8 0423     		movs	r3, #4
 1346 04ea 0193     		str	r3, [sp, #4]
 1347              	.LVL161:
 868:Middlewares/ST/filex/common/src/fx_directory_search.c ****             }
 1348              		.loc 1 868 23 view .LVU524
 1349 04ec 00E0     		b	.L1
 1350              	.LVL162:
 1351              	.L107:
 868:Middlewares/ST/filex/common/src/fx_directory_search.c ****             }
 1352              		.loc 1 868 23 view .LVU525
 1353 04ee 0190     		str	r0, [sp, #4]
 1354              	.LVL163:
 1355              	.L1:
 973:Middlewares/ST/filex/common/src/fx_directory_search.c ****             {
 974:Middlewares/ST/filex/common/src/fx_directory_search.c ****                     
 975:Middlewares/ST/filex/common/src/fx_directory_search.c ****                 /* Yes, not at the end of the string, break.  */
 976:Middlewares/ST/filex/common/src/fx_directory_search.c ****                 break;
 977:Middlewares/ST/filex/common/src/fx_directory_search.c ****             }
 978:Middlewares/ST/filex/common/src/fx_directory_search.c ****         }
 979:Middlewares/ST/filex/common/src/fx_directory_search.c ****     }
 980:Middlewares/ST/filex/common/src/fx_directory_search.c **** #endif
 981:Middlewares/ST/filex/common/src/fx_directory_search.c **** 
 982:Middlewares/ST/filex/common/src/fx_directory_search.c ****     return(FX_SUCCESS);
 983:Middlewares/ST/filex/common/src/fx_directory_search.c **** }
 1356              		.loc 1 983 1 view .LVU526
 1357 04f0 0198     		ldr	r0, [sp, #4]
 1358 04f2 25B0     		add	sp, sp, #148
 1359              	.LCFI2:
 1360              		.cfi_def_cfa_offset 36
 1361              		@ sp needed
 1362 04f4 BDE8F08F 		pop	{r4, r5, r6, r7, r8, r9, r10, fp, pc}
 1363              		.loc 1 983 1 view .LVU527
 1364              		.cfi_endproc
 1365              	.LFE8:
 1367              		.text
 1368              	.Letext0:
 1369              		.file 2 "Middlewares/ST/threadx/ports/cortex_m4/gnu/inc/tx_port.h"
ARM GAS  C:\Users\HP\AppData\Local\Temp\ccYVoi0M.s 			page 48


 1370              		.file 3 "Middlewares/ST/threadx/common/inc/tx_api.h"
 1371              		.file 4 "Middlewares/ST/filex/common/inc/fx_api.h"
 1372              		.file 5 "Middlewares/ST/filex/common/inc/fx_directory.h"
 1373              		.file 6 "Middlewares/ST/filex/common/inc/fx_utility.h"
 1374              		.file 7 "<built-in>"
ARM GAS  C:\Users\HP\AppData\Local\Temp\ccYVoi0M.s 			page 49

