ARM GAS  C:\Users\HP\AppData\Local\Temp\cc6zmzy4.s 			page 1


   1              		.cpu cortex-m4
   2              		.arch armv7e-m
   3              		.fpu fpv4-sp-d16
   4              		.eabi_attribute 27, 1
   5              		.eabi_attribute 28, 1
   6              		.eabi_attribute 20, 1
   7              		.eabi_attribute 21, 1
   8              		.eabi_attribute 23, 3
   9              		.eabi_attribute 24, 1
  10              		.eabi_attribute 25, 1
  11              		.eabi_attribute 26, 1
  12              		.eabi_attribute 30, 1
  13              		.eabi_attribute 34, 1
  14              		.eabi_attribute 18, 4
  15              		.file	"fx_directory_create.c"
  16              		.text
  17              	.Ltext0:
  18              		.cfi_sections	.debug_frame
  19              		.section	.text._fx_directory_create,"ax",%progbits
  20              		.align	1
  21              		.global	_fx_directory_create
  22              		.syntax unified
  23              		.thumb
  24              		.thumb_func
  26              	_fx_directory_create:
  27              	.LVL0:
  28              	.LFB8:
  29              		.file 1 "Middlewares/ST/filex/common/src/fx_directory_create.c"
   1:Middlewares/ST/filex/common/src/fx_directory_create.c **** /**************************************************************************/
   2:Middlewares/ST/filex/common/src/fx_directory_create.c **** /*                                                                        */
   3:Middlewares/ST/filex/common/src/fx_directory_create.c **** /*       Copyright (c) Microsoft Corporation. All rights reserved.        */
   4:Middlewares/ST/filex/common/src/fx_directory_create.c **** /*                                                                        */
   5:Middlewares/ST/filex/common/src/fx_directory_create.c **** /*       This software is licensed under the Microsoft Software License   */
   6:Middlewares/ST/filex/common/src/fx_directory_create.c **** /*       Terms for Microsoft Azure RTOS. Full text of the license can be  */
   7:Middlewares/ST/filex/common/src/fx_directory_create.c **** /*       found in the LICENSE file at https://aka.ms/AzureRTOS_EULA       */
   8:Middlewares/ST/filex/common/src/fx_directory_create.c **** /*       and in the root directory of this software.                      */
   9:Middlewares/ST/filex/common/src/fx_directory_create.c **** /*                                                                        */
  10:Middlewares/ST/filex/common/src/fx_directory_create.c **** /**************************************************************************/
  11:Middlewares/ST/filex/common/src/fx_directory_create.c **** 
  12:Middlewares/ST/filex/common/src/fx_directory_create.c **** 
  13:Middlewares/ST/filex/common/src/fx_directory_create.c **** /**************************************************************************/
  14:Middlewares/ST/filex/common/src/fx_directory_create.c **** /**************************************************************************/
  15:Middlewares/ST/filex/common/src/fx_directory_create.c **** /**                                                                       */
  16:Middlewares/ST/filex/common/src/fx_directory_create.c **** /** FileX Component                                                       */
  17:Middlewares/ST/filex/common/src/fx_directory_create.c **** /**                                                                       */
  18:Middlewares/ST/filex/common/src/fx_directory_create.c **** /**   Directory                                                           */
  19:Middlewares/ST/filex/common/src/fx_directory_create.c **** /**                                                                       */
  20:Middlewares/ST/filex/common/src/fx_directory_create.c **** /**************************************************************************/
  21:Middlewares/ST/filex/common/src/fx_directory_create.c **** /**************************************************************************/
  22:Middlewares/ST/filex/common/src/fx_directory_create.c **** 
  23:Middlewares/ST/filex/common/src/fx_directory_create.c **** #define FX_SOURCE_CODE
  24:Middlewares/ST/filex/common/src/fx_directory_create.c **** 
  25:Middlewares/ST/filex/common/src/fx_directory_create.c **** 
  26:Middlewares/ST/filex/common/src/fx_directory_create.c **** /* Include necessary system files.  */
  27:Middlewares/ST/filex/common/src/fx_directory_create.c **** 
  28:Middlewares/ST/filex/common/src/fx_directory_create.c **** #include "fx_api.h"
  29:Middlewares/ST/filex/common/src/fx_directory_create.c **** #include "fx_system.h"
ARM GAS  C:\Users\HP\AppData\Local\Temp\cc6zmzy4.s 			page 2


  30:Middlewares/ST/filex/common/src/fx_directory_create.c **** #include "fx_directory.h"
  31:Middlewares/ST/filex/common/src/fx_directory_create.c **** #include "fx_file.h"
  32:Middlewares/ST/filex/common/src/fx_directory_create.c **** #include "fx_utility.h"
  33:Middlewares/ST/filex/common/src/fx_directory_create.c **** #ifdef FX_ENABLE_FAULT_TOLERANT
  34:Middlewares/ST/filex/common/src/fx_directory_create.c **** #include "fx_fault_tolerant.h"
  35:Middlewares/ST/filex/common/src/fx_directory_create.c **** #endif /* FX_ENABLE_FAULT_TOLERANT */
  36:Middlewares/ST/filex/common/src/fx_directory_create.c **** 
  37:Middlewares/ST/filex/common/src/fx_directory_create.c **** 
  38:Middlewares/ST/filex/common/src/fx_directory_create.c **** /**************************************************************************/
  39:Middlewares/ST/filex/common/src/fx_directory_create.c **** /*                                                                        */
  40:Middlewares/ST/filex/common/src/fx_directory_create.c **** /*  FUNCTION                                               RELEASE        */
  41:Middlewares/ST/filex/common/src/fx_directory_create.c **** /*                                                                        */
  42:Middlewares/ST/filex/common/src/fx_directory_create.c **** /*    _fx_directory_create                                PORTABLE C      */
  43:Middlewares/ST/filex/common/src/fx_directory_create.c **** /*                                                           6.1          */
  44:Middlewares/ST/filex/common/src/fx_directory_create.c **** /*  AUTHOR                                                                */
  45:Middlewares/ST/filex/common/src/fx_directory_create.c **** /*                                                                        */
  46:Middlewares/ST/filex/common/src/fx_directory_create.c **** /*    William E. Lamie, Microsoft Corporation                             */
  47:Middlewares/ST/filex/common/src/fx_directory_create.c **** /*                                                                        */
  48:Middlewares/ST/filex/common/src/fx_directory_create.c **** /*  DESCRIPTION                                                           */
  49:Middlewares/ST/filex/common/src/fx_directory_create.c **** /*                                                                        */
  50:Middlewares/ST/filex/common/src/fx_directory_create.c **** /*    This function first attempts to find the specified directory.       */
  51:Middlewares/ST/filex/common/src/fx_directory_create.c **** /*    If found, the create request is invalid and an error is returned    */
  52:Middlewares/ST/filex/common/src/fx_directory_create.c **** /*    to the caller.  After the file name verification is made, a search  */
  53:Middlewares/ST/filex/common/src/fx_directory_create.c **** /*    for a free directory entry will be made.  If nothing is available,  */
  54:Middlewares/ST/filex/common/src/fx_directory_create.c **** /*    an error will be returned to the caller.  Otherwise, if all is      */
  55:Middlewares/ST/filex/common/src/fx_directory_create.c **** /*    okay, an empty directory will be created.                           */
  56:Middlewares/ST/filex/common/src/fx_directory_create.c **** /*                                                                        */
  57:Middlewares/ST/filex/common/src/fx_directory_create.c **** /*  INPUT                                                                 */
  58:Middlewares/ST/filex/common/src/fx_directory_create.c **** /*                                                                        */
  59:Middlewares/ST/filex/common/src/fx_directory_create.c **** /*    media_ptr                             Media control block pointer   */
  60:Middlewares/ST/filex/common/src/fx_directory_create.c **** /*    directory_name                        Directory name                */
  61:Middlewares/ST/filex/common/src/fx_directory_create.c **** /*                                                                        */
  62:Middlewares/ST/filex/common/src/fx_directory_create.c **** /*  OUTPUT                                                                */
  63:Middlewares/ST/filex/common/src/fx_directory_create.c **** /*                                                                        */
  64:Middlewares/ST/filex/common/src/fx_directory_create.c **** /*    return status                                                       */
  65:Middlewares/ST/filex/common/src/fx_directory_create.c **** /*                                                                        */
  66:Middlewares/ST/filex/common/src/fx_directory_create.c **** /*  CALLS                                                                 */
  67:Middlewares/ST/filex/common/src/fx_directory_create.c **** /*                                                                        */
  68:Middlewares/ST/filex/common/src/fx_directory_create.c **** /*    _fx_directory_entry_write             Write the new directory entry */
  69:Middlewares/ST/filex/common/src/fx_directory_create.c **** /*    _fx_directory_name_extract            Pickup next part of name      */
  70:Middlewares/ST/filex/common/src/fx_directory_create.c **** /*    _fx_directory_search                  Search for the file name in   */
  71:Middlewares/ST/filex/common/src/fx_directory_create.c **** /*                                          the directory structure       */
  72:Middlewares/ST/filex/common/src/fx_directory_create.c **** /*    _fx_directory_free_search             Search for a free directory   */
  73:Middlewares/ST/filex/common/src/fx_directory_create.c **** /*                                            entry                       */
  74:Middlewares/ST/filex/common/src/fx_directory_create.c **** /*    _fx_utility_exFAT_bitmap_free_cluster_find                          */
  75:Middlewares/ST/filex/common/src/fx_directory_create.c **** /*                                            Find exFAT free cluster     */
  76:Middlewares/ST/filex/common/src/fx_directory_create.c **** /*    _fx_utility_exFAT_cluster_state_set   Set cluster state             */
  77:Middlewares/ST/filex/common/src/fx_directory_create.c **** /*    _fx_utility_FAT_flush                 Flush written FAT entries     */
  78:Middlewares/ST/filex/common/src/fx_directory_create.c **** /*    _fx_utility_FAT_entry_read            Read a FAT entry              */
  79:Middlewares/ST/filex/common/src/fx_directory_create.c **** /*    _fx_utility_FAT_entry_write           Write a FAT entry             */
  80:Middlewares/ST/filex/common/src/fx_directory_create.c **** /*    _fx_utility_logical_sector_flush      Flush the written log sector  */
  81:Middlewares/ST/filex/common/src/fx_directory_create.c **** /*    _fx_utility_logical_sector_read       Read logical sector           */
  82:Middlewares/ST/filex/common/src/fx_directory_create.c **** /*    _fx_fault_tolerant_transaction_start  Start fault tolerant          */
  83:Middlewares/ST/filex/common/src/fx_directory_create.c **** /*                                            transaction                 */
  84:Middlewares/ST/filex/common/src/fx_directory_create.c **** /*    _fx_fault_tolerant_transaction_end    End fault tolerant transaction*/
  85:Middlewares/ST/filex/common/src/fx_directory_create.c **** /*    _fx_fault_tolerant_recover            Recover FAT chain             */
  86:Middlewares/ST/filex/common/src/fx_directory_create.c **** /*    _fx_fault_tolerant_reset_log_file     Reset the log file            */
ARM GAS  C:\Users\HP\AppData\Local\Temp\cc6zmzy4.s 			page 3


  87:Middlewares/ST/filex/common/src/fx_directory_create.c **** /*                                                                        */
  88:Middlewares/ST/filex/common/src/fx_directory_create.c **** /*  CALLED BY                                                             */
  89:Middlewares/ST/filex/common/src/fx_directory_create.c **** /*                                                                        */
  90:Middlewares/ST/filex/common/src/fx_directory_create.c **** /*    Application Code                                                    */
  91:Middlewares/ST/filex/common/src/fx_directory_create.c **** /*                                                                        */
  92:Middlewares/ST/filex/common/src/fx_directory_create.c **** /*  RELEASE HISTORY                                                       */
  93:Middlewares/ST/filex/common/src/fx_directory_create.c **** /*                                                                        */
  94:Middlewares/ST/filex/common/src/fx_directory_create.c **** /*    DATE              NAME                      DESCRIPTION             */
  95:Middlewares/ST/filex/common/src/fx_directory_create.c **** /*                                                                        */
  96:Middlewares/ST/filex/common/src/fx_directory_create.c **** /*  05-19-2020     William E. Lamie         Initial Version 6.0           */
  97:Middlewares/ST/filex/common/src/fx_directory_create.c **** /*  09-30-2020     William E. Lamie         Modified comment(s),          */
  98:Middlewares/ST/filex/common/src/fx_directory_create.c **** /*                                            resulting in version 6.1    */
  99:Middlewares/ST/filex/common/src/fx_directory_create.c **** /*                                                                        */
 100:Middlewares/ST/filex/common/src/fx_directory_create.c **** /**************************************************************************/
 101:Middlewares/ST/filex/common/src/fx_directory_create.c **** UINT  _fx_directory_create(FX_MEDIA *media_ptr, CHAR *directory_name)
 102:Middlewares/ST/filex/common/src/fx_directory_create.c **** {
  30              		.loc 1 102 1 view -0
  31              		.cfi_startproc
  32              		@ args = 0, pretend = 0, frame = 344
  33              		@ frame_needed = 0, uses_anonymous_args = 0
  34              		.loc 1 102 1 is_stmt 0 view .LVU1
  35 0000 2DE9F04F 		push	{r4, r5, r6, r7, r8, r9, r10, fp, lr}
  36              	.LCFI0:
  37              		.cfi_def_cfa_offset 36
  38              		.cfi_offset 4, -36
  39              		.cfi_offset 5, -32
  40              		.cfi_offset 6, -28
  41              		.cfi_offset 7, -24
  42              		.cfi_offset 8, -20
  43              		.cfi_offset 9, -16
  44              		.cfi_offset 10, -12
  45              		.cfi_offset 11, -8
  46              		.cfi_offset 14, -4
  47 0004 DBB0     		sub	sp, sp, #364
  48              	.LCFI1:
  49              		.cfi_def_cfa_offset 400
  50 0006 0546     		mov	r5, r0
  51 0008 0E46     		mov	r6, r1
 103:Middlewares/ST/filex/common/src/fx_directory_create.c **** 
 104:Middlewares/ST/filex/common/src/fx_directory_create.c **** UINT         status;
  52              		.loc 1 104 1 is_stmt 1 view .LVU2
 105:Middlewares/ST/filex/common/src/fx_directory_create.c **** ULONG        FAT_index;
  53              		.loc 1 105 1 view .LVU3
 106:Middlewares/ST/filex/common/src/fx_directory_create.c **** ULONG        FAT_value;
  54              		.loc 1 106 1 view .LVU4
 107:Middlewares/ST/filex/common/src/fx_directory_create.c **** UINT         sectors;
  55              		.loc 1 107 1 view .LVU5
 108:Middlewares/ST/filex/common/src/fx_directory_create.c **** ULONG        total_clusters;
  56              		.loc 1 108 1 view .LVU6
 109:Middlewares/ST/filex/common/src/fx_directory_create.c **** CHAR        *work_ptr;
  57              		.loc 1 109 1 view .LVU7
 110:Middlewares/ST/filex/common/src/fx_directory_create.c **** ULONG64      logical_sector;
  58              		.loc 1 110 1 view .LVU8
 111:Middlewares/ST/filex/common/src/fx_directory_create.c **** ULONG        i;
  59              		.loc 1 111 1 view .LVU9
 112:Middlewares/ST/filex/common/src/fx_directory_create.c **** FX_DIR_ENTRY dir_entry;
  60              		.loc 1 112 1 view .LVU10
ARM GAS  C:\Users\HP\AppData\Local\Temp\cc6zmzy4.s 			page 4


 113:Middlewares/ST/filex/common/src/fx_directory_create.c **** FX_DIR_ENTRY sub_dir_entry;
  61              		.loc 1 113 1 view .LVU11
 114:Middlewares/ST/filex/common/src/fx_directory_create.c **** FX_DIR_ENTRY search_directory;
  62              		.loc 1 114 1 view .LVU12
 115:Middlewares/ST/filex/common/src/fx_directory_create.c **** 
 116:Middlewares/ST/filex/common/src/fx_directory_create.c **** #ifdef FX_ENABLE_EXFAT
 117:Middlewares/ST/filex/common/src/fx_directory_create.c **** ULONG64      dir_size;
 118:Middlewares/ST/filex/common/src/fx_directory_create.c **** #endif /* FX_ENABLE_EXFAT */
 119:Middlewares/ST/filex/common/src/fx_directory_create.c **** FX_INT_SAVE_AREA
  63              		.loc 1 119 1 view .LVU13
 120:Middlewares/ST/filex/common/src/fx_directory_create.c **** 
 121:Middlewares/ST/filex/common/src/fx_directory_create.c **** 
 122:Middlewares/ST/filex/common/src/fx_directory_create.c **** #ifndef FX_MEDIA_STATISTICS_DISABLE
 123:Middlewares/ST/filex/common/src/fx_directory_create.c **** 
 124:Middlewares/ST/filex/common/src/fx_directory_create.c ****     /* Increment the number of times this service has been called.  */
 125:Middlewares/ST/filex/common/src/fx_directory_create.c ****     media_ptr -> fx_media_directory_creates++;
  64              		.loc 1 125 5 view .LVU14
  65              		.loc 1 125 15 is_stmt 0 view .LVU15
  66 000a D0F8E030 		ldr	r3, [r0, #224]
  67              		.loc 1 125 44 view .LVU16
  68 000e 0133     		adds	r3, r3, #1
  69 0010 C0F8E030 		str	r3, [r0, #224]
 126:Middlewares/ST/filex/common/src/fx_directory_create.c **** #endif
 127:Middlewares/ST/filex/common/src/fx_directory_create.c **** 
 128:Middlewares/ST/filex/common/src/fx_directory_create.c ****     /* Determine if the supplied name is less than the maximum supported name size. The
 129:Middlewares/ST/filex/common/src/fx_directory_create.c ****        maximum name (FX_MAX_LONG_NAME_LEN) is defined in fx_api.h.  */
 130:Middlewares/ST/filex/common/src/fx_directory_create.c ****     i =  0;
  70              		.loc 1 130 5 is_stmt 1 view .LVU17
  71              	.LVL1:
 131:Middlewares/ST/filex/common/src/fx_directory_create.c ****     work_ptr =  (CHAR *)directory_name;
  72              		.loc 1 131 5 view .LVU18
  73              		.loc 1 131 14 is_stmt 0 view .LVU19
  74 0014 5891     		str	r1, [sp, #352]
 132:Middlewares/ST/filex/common/src/fx_directory_create.c ****     while (*work_ptr && (i < FX_MAX_LONG_NAME_LEN))
  75              		.loc 1 132 5 is_stmt 1 view .LVU20
 130:Middlewares/ST/filex/common/src/fx_directory_create.c ****     work_ptr =  (CHAR *)directory_name;
  76              		.loc 1 130 7 is_stmt 0 view .LVU21
  77 0016 0024     		movs	r4, #0
  78              		.loc 1 132 11 view .LVU22
  79 0018 02E0     		b	.L2
  80              	.LVL2:
  81              	.L4:
 133:Middlewares/ST/filex/common/src/fx_directory_create.c ****     {
 134:Middlewares/ST/filex/common/src/fx_directory_create.c **** 
 135:Middlewares/ST/filex/common/src/fx_directory_create.c ****         /* Determine if the character designates a new path.  */
 136:Middlewares/ST/filex/common/src/fx_directory_create.c ****         if ((*work_ptr == '\\') || (*work_ptr == '/'))
 137:Middlewares/ST/filex/common/src/fx_directory_create.c ****         {
 138:Middlewares/ST/filex/common/src/fx_directory_create.c ****             /* Yes, reset the name size.  */
 139:Middlewares/ST/filex/common/src/fx_directory_create.c ****             i =  0;
 140:Middlewares/ST/filex/common/src/fx_directory_create.c ****         }
 141:Middlewares/ST/filex/common/src/fx_directory_create.c ****         /* Check for leading spaces.  */
 142:Middlewares/ST/filex/common/src/fx_directory_create.c ****         else if ((*work_ptr != ' ') || (i != 0))
 143:Middlewares/ST/filex/common/src/fx_directory_create.c ****         {
 144:Middlewares/ST/filex/common/src/fx_directory_create.c **** 
 145:Middlewares/ST/filex/common/src/fx_directory_create.c ****             /* No leading spaces, increment the name size.  */
 146:Middlewares/ST/filex/common/src/fx_directory_create.c ****             i++;
  82              		.loc 1 146 13 is_stmt 1 view .LVU23
ARM GAS  C:\Users\HP\AppData\Local\Temp\cc6zmzy4.s 			page 5


  83              		.loc 1 146 14 is_stmt 0 view .LVU24
  84 001a 0134     		adds	r4, r4, #1
  85              	.LVL3:
  86              	.L3:
 147:Middlewares/ST/filex/common/src/fx_directory_create.c ****         }
 148:Middlewares/ST/filex/common/src/fx_directory_create.c **** 
 149:Middlewares/ST/filex/common/src/fx_directory_create.c ****         /* Move to the next character.  */
 150:Middlewares/ST/filex/common/src/fx_directory_create.c ****         work_ptr++;
  87              		.loc 1 150 9 is_stmt 1 view .LVU25
  88              		.loc 1 150 17 is_stmt 0 view .LVU26
  89 001c 0133     		adds	r3, r3, #1
  90 001e 5893     		str	r3, [sp, #352]
  91              	.LVL4:
  92              	.L2:
 132:Middlewares/ST/filex/common/src/fx_directory_create.c ****     {
  93              		.loc 1 132 11 is_stmt 1 view .LVU27
 132:Middlewares/ST/filex/common/src/fx_directory_create.c ****     {
  94              		.loc 1 132 12 is_stmt 0 view .LVU28
  95 0020 589B     		ldr	r3, [sp, #352]
  96 0022 1A78     		ldrb	r2, [r3]	@ zero_extendqisi2
 132:Middlewares/ST/filex/common/src/fx_directory_create.c ****     {
  97              		.loc 1 132 11 view .LVU29
  98 0024 72B1     		cbz	r2, .L5
 132:Middlewares/ST/filex/common/src/fx_directory_create.c ****     {
  99              		.loc 1 132 22 discriminator 1 view .LVU30
 100 0026 FF2C     		cmp	r4, #255
 101 0028 0CD8     		bhi	.L5
 136:Middlewares/ST/filex/common/src/fx_directory_create.c ****         {
 102              		.loc 1 136 9 is_stmt 1 view .LVU31
 136:Middlewares/ST/filex/common/src/fx_directory_create.c ****         {
 103              		.loc 1 136 12 is_stmt 0 view .LVU32
 104 002a 5C2A     		cmp	r2, #92
 105 002c 06D0     		beq	.L37
 136:Middlewares/ST/filex/common/src/fx_directory_create.c ****         {
 106              		.loc 1 136 33 discriminator 1 view .LVU33
 107 002e 2F2A     		cmp	r2, #47
 108 0030 06D0     		beq	.L38
 142:Middlewares/ST/filex/common/src/fx_directory_create.c ****         {
 109              		.loc 1 142 14 is_stmt 1 view .LVU34
 142:Middlewares/ST/filex/common/src/fx_directory_create.c ****         {
 110              		.loc 1 142 17 is_stmt 0 view .LVU35
 111 0032 202A     		cmp	r2, #32
 112 0034 F1D1     		bne	.L4
 142:Middlewares/ST/filex/common/src/fx_directory_create.c ****         {
 113              		.loc 1 142 37 discriminator 1 view .LVU36
 114 0036 002C     		cmp	r4, #0
 115 0038 F0D0     		beq	.L3
 116 003a EEE7     		b	.L4
 117              	.L37:
 139:Middlewares/ST/filex/common/src/fx_directory_create.c ****         }
 118              		.loc 1 139 15 view .LVU37
 119 003c 0024     		movs	r4, #0
 120              	.LVL5:
 139:Middlewares/ST/filex/common/src/fx_directory_create.c ****         }
 121              		.loc 1 139 15 view .LVU38
 122 003e EDE7     		b	.L3
 123              	.LVL6:
ARM GAS  C:\Users\HP\AppData\Local\Temp\cc6zmzy4.s 			page 6


 124              	.L38:
 139:Middlewares/ST/filex/common/src/fx_directory_create.c ****         }
 125              		.loc 1 139 15 view .LVU39
 126 0040 0024     		movs	r4, #0
 127              	.LVL7:
 139:Middlewares/ST/filex/common/src/fx_directory_create.c ****         }
 128              		.loc 1 139 15 view .LVU40
 129 0042 EBE7     		b	.L3
 130              	.LVL8:
 131              	.L5:
 151:Middlewares/ST/filex/common/src/fx_directory_create.c ****     }
 152:Middlewares/ST/filex/common/src/fx_directory_create.c **** 
 153:Middlewares/ST/filex/common/src/fx_directory_create.c ****     /* Determine if the supplied name is valid.  */
 154:Middlewares/ST/filex/common/src/fx_directory_create.c ****     if ((i == 0) || (i >= FX_MAX_LONG_NAME_LEN))
 132              		.loc 1 154 5 is_stmt 1 view .LVU41
 133              		.loc 1 154 18 is_stmt 0 view .LVU42
 134 0044 013C     		subs	r4, r4, #1
 135              	.LVL9:
 136              		.loc 1 154 8 view .LVU43
 137 0046 FE2C     		cmp	r4, #254
 138 0048 00F29081 		bhi	.L39
 155:Middlewares/ST/filex/common/src/fx_directory_create.c ****     {
 156:Middlewares/ST/filex/common/src/fx_directory_create.c **** 
 157:Middlewares/ST/filex/common/src/fx_directory_create.c ****         /* Return an invalid name value.  */
 158:Middlewares/ST/filex/common/src/fx_directory_create.c ****         return(FX_INVALID_NAME);
 159:Middlewares/ST/filex/common/src/fx_directory_create.c ****     }
 160:Middlewares/ST/filex/common/src/fx_directory_create.c **** 
 161:Middlewares/ST/filex/common/src/fx_directory_create.c ****     /* Setup pointer to media name buffer.  */
 162:Middlewares/ST/filex/common/src/fx_directory_create.c ****     dir_entry.fx_dir_entry_name = media_ptr -> fx_media_name_buffer + FX_MAX_LONG_NAME_LEN;
 139              		.loc 1 162 5 is_stmt 1 view .LVU44
 140              		.loc 1 162 69 is_stmt 0 view .LVU45
 141 004c 05F69C13 		addw	r3, r5, #2460
 142              		.loc 1 162 33 view .LVU46
 143 0050 3C93     		str	r3, [sp, #240]
 163:Middlewares/ST/filex/common/src/fx_directory_create.c **** 
 164:Middlewares/ST/filex/common/src/fx_directory_create.c ****     /* Setup search directory pointer to another media name buffer.  */
 165:Middlewares/ST/filex/common/src/fx_directory_create.c ****     search_directory.fx_dir_entry_name = media_ptr -> fx_media_name_buffer + FX_MAX_LONG_NAME_LEN *
 144              		.loc 1 165 5 is_stmt 1 view .LVU47
 145              		.loc 1 165 76 is_stmt 0 view .LVU48
 146 0052 05F69C23 		addw	r3, r5, #2716
 147              		.loc 1 165 40 view .LVU49
 148 0056 0493     		str	r3, [sp, #16]
 166:Middlewares/ST/filex/common/src/fx_directory_create.c **** 
 167:Middlewares/ST/filex/common/src/fx_directory_create.c ****     /* Clear the short name string.  */
 168:Middlewares/ST/filex/common/src/fx_directory_create.c ****     dir_entry.fx_dir_entry_short_name[0] =  0;
 149              		.loc 1 168 5 is_stmt 1 view .LVU50
 150              		.loc 1 168 42 is_stmt 0 view .LVU51
 151 0058 0023     		movs	r3, #0
 152 005a 8DF8F430 		strb	r3, [sp, #244]
 169:Middlewares/ST/filex/common/src/fx_directory_create.c **** 
 170:Middlewares/ST/filex/common/src/fx_directory_create.c ****     /* Clear the search short name string.  */
 171:Middlewares/ST/filex/common/src/fx_directory_create.c ****     search_directory.fx_dir_entry_short_name[0] =  0;
 153              		.loc 1 171 5 is_stmt 1 view .LVU52
 154              		.loc 1 171 49 is_stmt 0 view .LVU53
 155 005e 8DF81430 		strb	r3, [sp, #20]
 172:Middlewares/ST/filex/common/src/fx_directory_create.c **** 
 173:Middlewares/ST/filex/common/src/fx_directory_create.c ****     /* Check the media to make sure it is open.  */
ARM GAS  C:\Users\HP\AppData\Local\Temp\cc6zmzy4.s 			page 7


 174:Middlewares/ST/filex/common/src/fx_directory_create.c ****     if (media_ptr -> fx_media_id != FX_MEDIA_ID)
 156              		.loc 1 174 5 is_stmt 1 view .LVU54
 157              		.loc 1 174 19 is_stmt 0 view .LVU55
 158 0062 2A68     		ldr	r2, [r5]
 159              		.loc 1 174 8 view .LVU56
 160 0064 9C4B     		ldr	r3, .L62
 161 0066 9A42     		cmp	r2, r3
 162 0068 04D0     		beq	.L44
 175:Middlewares/ST/filex/common/src/fx_directory_create.c ****     {
 176:Middlewares/ST/filex/common/src/fx_directory_create.c **** 
 177:Middlewares/ST/filex/common/src/fx_directory_create.c ****         /* Return the media not opened error.  */
 178:Middlewares/ST/filex/common/src/fx_directory_create.c ****         return(FX_MEDIA_NOT_OPEN);
 163              		.loc 1 178 15 view .LVU57
 164 006a 1124     		movs	r4, #17
 165              	.LVL10:
 166              	.L1:
 179:Middlewares/ST/filex/common/src/fx_directory_create.c ****     }
 180:Middlewares/ST/filex/common/src/fx_directory_create.c **** 
 181:Middlewares/ST/filex/common/src/fx_directory_create.c ****     /* If trace is enabled, insert this event into the trace buffer.  */
 182:Middlewares/ST/filex/common/src/fx_directory_create.c ****     FX_TRACE_IN_LINE_INSERT(FX_TRACE_DIRECTORY_CREATE, media_ptr, directory_name, 0, 0, FX_TRACE_DI
 183:Middlewares/ST/filex/common/src/fx_directory_create.c **** 
 184:Middlewares/ST/filex/common/src/fx_directory_create.c ****     /* Protect against other threads accessing the media.  */
 185:Middlewares/ST/filex/common/src/fx_directory_create.c ****     FX_PROTECT
 186:Middlewares/ST/filex/common/src/fx_directory_create.c **** 
 187:Middlewares/ST/filex/common/src/fx_directory_create.c ****     /* Check for write protect at the media level (set by driver).  */
 188:Middlewares/ST/filex/common/src/fx_directory_create.c ****     if (media_ptr -> fx_media_driver_write_protect)
 189:Middlewares/ST/filex/common/src/fx_directory_create.c ****     {
 190:Middlewares/ST/filex/common/src/fx_directory_create.c **** 
 191:Middlewares/ST/filex/common/src/fx_directory_create.c ****         /* Release media protection.  */
 192:Middlewares/ST/filex/common/src/fx_directory_create.c ****         FX_UNPROTECT
 193:Middlewares/ST/filex/common/src/fx_directory_create.c **** 
 194:Middlewares/ST/filex/common/src/fx_directory_create.c ****         /* Return write protect error.  */
 195:Middlewares/ST/filex/common/src/fx_directory_create.c ****         return(FX_WRITE_PROTECT);
 196:Middlewares/ST/filex/common/src/fx_directory_create.c ****     }
 197:Middlewares/ST/filex/common/src/fx_directory_create.c **** 
 198:Middlewares/ST/filex/common/src/fx_directory_create.c ****     /* Make sure there is at least one cluster remaining for the new file.  */
 199:Middlewares/ST/filex/common/src/fx_directory_create.c ****     if (!media_ptr -> fx_media_available_clusters)
 200:Middlewares/ST/filex/common/src/fx_directory_create.c ****     {
 201:Middlewares/ST/filex/common/src/fx_directory_create.c **** 
 202:Middlewares/ST/filex/common/src/fx_directory_create.c ****         /* Release media protection.  */
 203:Middlewares/ST/filex/common/src/fx_directory_create.c ****         FX_UNPROTECT
 204:Middlewares/ST/filex/common/src/fx_directory_create.c **** 
 205:Middlewares/ST/filex/common/src/fx_directory_create.c ****         /* Return a no-space error.  */
 206:Middlewares/ST/filex/common/src/fx_directory_create.c ****         return(FX_NO_MORE_SPACE);
 207:Middlewares/ST/filex/common/src/fx_directory_create.c ****     }
 208:Middlewares/ST/filex/common/src/fx_directory_create.c **** 
 209:Middlewares/ST/filex/common/src/fx_directory_create.c ****     /* Search the system for the supplied directory name.  */
 210:Middlewares/ST/filex/common/src/fx_directory_create.c ****     status =  _fx_directory_search(media_ptr, directory_name, &dir_entry, &search_directory, &work_
 211:Middlewares/ST/filex/common/src/fx_directory_create.c **** 
 212:Middlewares/ST/filex/common/src/fx_directory_create.c ****     /* Determine if the search was successful.  */
 213:Middlewares/ST/filex/common/src/fx_directory_create.c ****     if (status == FX_SUCCESS)
 214:Middlewares/ST/filex/common/src/fx_directory_create.c ****     {
 215:Middlewares/ST/filex/common/src/fx_directory_create.c **** 
 216:Middlewares/ST/filex/common/src/fx_directory_create.c ****         /* Release media protection.  */
 217:Middlewares/ST/filex/common/src/fx_directory_create.c ****         FX_UNPROTECT
 218:Middlewares/ST/filex/common/src/fx_directory_create.c **** 
 219:Middlewares/ST/filex/common/src/fx_directory_create.c ****         /* Directory found - Return the error code.  */
ARM GAS  C:\Users\HP\AppData\Local\Temp\cc6zmzy4.s 			page 8


 220:Middlewares/ST/filex/common/src/fx_directory_create.c ****         return(FX_ALREADY_CREATED);
 221:Middlewares/ST/filex/common/src/fx_directory_create.c ****     }
 222:Middlewares/ST/filex/common/src/fx_directory_create.c **** 
 223:Middlewares/ST/filex/common/src/fx_directory_create.c ****     /* Determine if there is anything left after the name.  */
 224:Middlewares/ST/filex/common/src/fx_directory_create.c ****     if (_fx_directory_name_extract(work_ptr, &dir_entry.fx_dir_entry_name[0]))
 225:Middlewares/ST/filex/common/src/fx_directory_create.c ****     {
 226:Middlewares/ST/filex/common/src/fx_directory_create.c **** 
 227:Middlewares/ST/filex/common/src/fx_directory_create.c ****         /* Release media protection.  */
 228:Middlewares/ST/filex/common/src/fx_directory_create.c ****         FX_UNPROTECT
 229:Middlewares/ST/filex/common/src/fx_directory_create.c **** 
 230:Middlewares/ST/filex/common/src/fx_directory_create.c ****         /* Extra information after the file name, return an invalid name
 231:Middlewares/ST/filex/common/src/fx_directory_create.c ****            error.  */
 232:Middlewares/ST/filex/common/src/fx_directory_create.c ****         return(FX_INVALID_PATH);
 233:Middlewares/ST/filex/common/src/fx_directory_create.c ****     }
 234:Middlewares/ST/filex/common/src/fx_directory_create.c **** 
 235:Middlewares/ST/filex/common/src/fx_directory_create.c **** #ifdef FX_ENABLE_EXFAT
 236:Middlewares/ST/filex/common/src/fx_directory_create.c ****     if (media_ptr -> fx_media_FAT_type == FX_exFAT)
 237:Middlewares/ST/filex/common/src/fx_directory_create.c ****     {
 238:Middlewares/ST/filex/common/src/fx_directory_create.c ****         if (((dir_entry.fx_dir_entry_name[0] == '.') && (dir_entry.fx_dir_entry_name[1] == 0)) ||
 239:Middlewares/ST/filex/common/src/fx_directory_create.c ****             ((dir_entry.fx_dir_entry_name[0] == '.') && (dir_entry.fx_dir_entry_name[1] == '.') && 
 240:Middlewares/ST/filex/common/src/fx_directory_create.c ****         {
 241:Middlewares/ST/filex/common/src/fx_directory_create.c **** 
 242:Middlewares/ST/filex/common/src/fx_directory_create.c ****             /* Release media protection.  */
 243:Middlewares/ST/filex/common/src/fx_directory_create.c ****             FX_UNPROTECT
 244:Middlewares/ST/filex/common/src/fx_directory_create.c **** 
 245:Middlewares/ST/filex/common/src/fx_directory_create.c ****             /* We don't need '.' or '..' dirs for exFAT.  */
 246:Middlewares/ST/filex/common/src/fx_directory_create.c ****             return(FX_ALREADY_CREATED);
 247:Middlewares/ST/filex/common/src/fx_directory_create.c ****         }
 248:Middlewares/ST/filex/common/src/fx_directory_create.c ****     }
 249:Middlewares/ST/filex/common/src/fx_directory_create.c **** 
 250:Middlewares/ST/filex/common/src/fx_directory_create.c ****     /* Save the directory entry size.  */
 251:Middlewares/ST/filex/common/src/fx_directory_create.c ****     dir_size = search_directory.fx_dir_entry_file_size;
 252:Middlewares/ST/filex/common/src/fx_directory_create.c **** #endif /* FX_ENABLE_EXFAT */
 253:Middlewares/ST/filex/common/src/fx_directory_create.c **** 
 254:Middlewares/ST/filex/common/src/fx_directory_create.c **** #ifdef FX_ENABLE_FAULT_TOLERANT
 255:Middlewares/ST/filex/common/src/fx_directory_create.c ****     /* Start transaction. */
 256:Middlewares/ST/filex/common/src/fx_directory_create.c ****     _fx_fault_tolerant_transaction_start(media_ptr);
 257:Middlewares/ST/filex/common/src/fx_directory_create.c **** #endif /* FX_ENABLE_FAULT_TOLERANT */
 258:Middlewares/ST/filex/common/src/fx_directory_create.c **** 
 259:Middlewares/ST/filex/common/src/fx_directory_create.c ****     /* Find a free slot for the new directory.  */
 260:Middlewares/ST/filex/common/src/fx_directory_create.c ****     status =  _fx_directory_free_search(media_ptr, &search_directory, &dir_entry);
 261:Middlewares/ST/filex/common/src/fx_directory_create.c **** 
 262:Middlewares/ST/filex/common/src/fx_directory_create.c ****     /* Determine if the search was successful.  */
 263:Middlewares/ST/filex/common/src/fx_directory_create.c ****     if (status != FX_SUCCESS)
 264:Middlewares/ST/filex/common/src/fx_directory_create.c ****     {
 265:Middlewares/ST/filex/common/src/fx_directory_create.c **** 
 266:Middlewares/ST/filex/common/src/fx_directory_create.c **** #ifdef FX_ENABLE_FAULT_TOLERANT
 267:Middlewares/ST/filex/common/src/fx_directory_create.c ****         FX_FAULT_TOLERANT_TRANSACTION_FAIL(media_ptr);
 268:Middlewares/ST/filex/common/src/fx_directory_create.c **** #endif /* FX_ENABLE_FAULT_TOLERANT */
 269:Middlewares/ST/filex/common/src/fx_directory_create.c **** 
 270:Middlewares/ST/filex/common/src/fx_directory_create.c ****         /* Release media protection.  */
 271:Middlewares/ST/filex/common/src/fx_directory_create.c ****         FX_UNPROTECT
 272:Middlewares/ST/filex/common/src/fx_directory_create.c **** 
 273:Middlewares/ST/filex/common/src/fx_directory_create.c ****         /* Return the error code.  */
 274:Middlewares/ST/filex/common/src/fx_directory_create.c ****         return(status);
 275:Middlewares/ST/filex/common/src/fx_directory_create.c ****     }
 276:Middlewares/ST/filex/common/src/fx_directory_create.c **** 
ARM GAS  C:\Users\HP\AppData\Local\Temp\cc6zmzy4.s 			page 9


 277:Middlewares/ST/filex/common/src/fx_directory_create.c ****     /* Now allocate a cluster for our new sub-directory entry.  */
 278:Middlewares/ST/filex/common/src/fx_directory_create.c **** #ifdef FX_ENABLE_EXFAT
 279:Middlewares/ST/filex/common/src/fx_directory_create.c ****     if (media_ptr -> fx_media_FAT_type == FX_exFAT)
 280:Middlewares/ST/filex/common/src/fx_directory_create.c ****     {
 281:Middlewares/ST/filex/common/src/fx_directory_create.c **** 
 282:Middlewares/ST/filex/common/src/fx_directory_create.c ****         /* Find free cluster from exFAT media.  */
 283:Middlewares/ST/filex/common/src/fx_directory_create.c ****         status = _fx_utility_exFAT_bitmap_free_cluster_find(media_ptr,
 284:Middlewares/ST/filex/common/src/fx_directory_create.c ****                                                             media_ptr -> fx_media_cluster_search_st
 285:Middlewares/ST/filex/common/src/fx_directory_create.c ****                                                             &FAT_index);
 286:Middlewares/ST/filex/common/src/fx_directory_create.c **** 
 287:Middlewares/ST/filex/common/src/fx_directory_create.c ****         /* Check for a bad status.  */
 288:Middlewares/ST/filex/common/src/fx_directory_create.c ****         if (status != FX_SUCCESS)
 289:Middlewares/ST/filex/common/src/fx_directory_create.c ****         {
 290:Middlewares/ST/filex/common/src/fx_directory_create.c **** 
 291:Middlewares/ST/filex/common/src/fx_directory_create.c **** #ifdef FX_ENABLE_FAULT_TOLERANT
 292:Middlewares/ST/filex/common/src/fx_directory_create.c ****             FX_FAULT_TOLERANT_TRANSACTION_FAIL(media_ptr);
 293:Middlewares/ST/filex/common/src/fx_directory_create.c **** #endif /* FX_ENABLE_FAULT_TOLERANT */
 294:Middlewares/ST/filex/common/src/fx_directory_create.c **** 
 295:Middlewares/ST/filex/common/src/fx_directory_create.c ****             /* Release media protection.  */
 296:Middlewares/ST/filex/common/src/fx_directory_create.c ****             FX_UNPROTECT
 297:Middlewares/ST/filex/common/src/fx_directory_create.c **** 
 298:Middlewares/ST/filex/common/src/fx_directory_create.c ****             /* Return the bad status.  */
 299:Middlewares/ST/filex/common/src/fx_directory_create.c ****             return(status);
 300:Middlewares/ST/filex/common/src/fx_directory_create.c ****         }
 301:Middlewares/ST/filex/common/src/fx_directory_create.c ****     }
 302:Middlewares/ST/filex/common/src/fx_directory_create.c ****     else
 303:Middlewares/ST/filex/common/src/fx_directory_create.c ****     {
 304:Middlewares/ST/filex/common/src/fx_directory_create.c **** #endif /* FX_ENABLE_EXFAT */
 305:Middlewares/ST/filex/common/src/fx_directory_create.c **** 
 306:Middlewares/ST/filex/common/src/fx_directory_create.c ****         FAT_index    =      media_ptr -> fx_media_cluster_search_start;
 307:Middlewares/ST/filex/common/src/fx_directory_create.c ****         total_clusters =    media_ptr -> fx_media_total_clusters;
 308:Middlewares/ST/filex/common/src/fx_directory_create.c **** 
 309:Middlewares/ST/filex/common/src/fx_directory_create.c ****         /* Loop to find the first available cluster.  */
 310:Middlewares/ST/filex/common/src/fx_directory_create.c ****         do
 311:Middlewares/ST/filex/common/src/fx_directory_create.c ****         {
 312:Middlewares/ST/filex/common/src/fx_directory_create.c **** 
 313:Middlewares/ST/filex/common/src/fx_directory_create.c ****             /* Make sure we don't go past the FAT table.  */
 314:Middlewares/ST/filex/common/src/fx_directory_create.c ****             if (!total_clusters)
 315:Middlewares/ST/filex/common/src/fx_directory_create.c ****             {
 316:Middlewares/ST/filex/common/src/fx_directory_create.c **** 
 317:Middlewares/ST/filex/common/src/fx_directory_create.c **** #ifdef FX_ENABLE_FAULT_TOLERANT
 318:Middlewares/ST/filex/common/src/fx_directory_create.c ****                 FX_FAULT_TOLERANT_TRANSACTION_FAIL(media_ptr);
 319:Middlewares/ST/filex/common/src/fx_directory_create.c **** #endif /* FX_ENABLE_FAULT_TOLERANT */
 320:Middlewares/ST/filex/common/src/fx_directory_create.c **** 
 321:Middlewares/ST/filex/common/src/fx_directory_create.c ****                 /* Release media protection.  */
 322:Middlewares/ST/filex/common/src/fx_directory_create.c ****                 FX_UNPROTECT
 323:Middlewares/ST/filex/common/src/fx_directory_create.c **** 
 324:Middlewares/ST/filex/common/src/fx_directory_create.c ****                 /* Something is wrong with the media - the desired clusters were
 325:Middlewares/ST/filex/common/src/fx_directory_create.c ****                    not found in the FAT table.  */
 326:Middlewares/ST/filex/common/src/fx_directory_create.c ****                 return(FX_NO_MORE_SPACE);
 327:Middlewares/ST/filex/common/src/fx_directory_create.c ****             }
 328:Middlewares/ST/filex/common/src/fx_directory_create.c **** 
 329:Middlewares/ST/filex/common/src/fx_directory_create.c ****             /* Read FAT entry.  */
 330:Middlewares/ST/filex/common/src/fx_directory_create.c ****             status =  _fx_utility_FAT_entry_read(media_ptr, FAT_index, &FAT_value);
 331:Middlewares/ST/filex/common/src/fx_directory_create.c **** 
 332:Middlewares/ST/filex/common/src/fx_directory_create.c ****             /* Check for a bad status.  */
 333:Middlewares/ST/filex/common/src/fx_directory_create.c ****             if (status != FX_SUCCESS)
ARM GAS  C:\Users\HP\AppData\Local\Temp\cc6zmzy4.s 			page 10


 334:Middlewares/ST/filex/common/src/fx_directory_create.c ****             {
 335:Middlewares/ST/filex/common/src/fx_directory_create.c **** 
 336:Middlewares/ST/filex/common/src/fx_directory_create.c **** #ifdef FX_ENABLE_FAULT_TOLERANT
 337:Middlewares/ST/filex/common/src/fx_directory_create.c ****                 FX_FAULT_TOLERANT_TRANSACTION_FAIL(media_ptr);
 338:Middlewares/ST/filex/common/src/fx_directory_create.c **** #endif /* FX_ENABLE_FAULT_TOLERANT */
 339:Middlewares/ST/filex/common/src/fx_directory_create.c **** 
 340:Middlewares/ST/filex/common/src/fx_directory_create.c ****                 /* Release media protection.  */
 341:Middlewares/ST/filex/common/src/fx_directory_create.c ****                 FX_UNPROTECT
 342:Middlewares/ST/filex/common/src/fx_directory_create.c **** 
 343:Middlewares/ST/filex/common/src/fx_directory_create.c ****                 /* Return the bad status.  */
 344:Middlewares/ST/filex/common/src/fx_directory_create.c ****                 return(status);
 345:Middlewares/ST/filex/common/src/fx_directory_create.c ****             }
 346:Middlewares/ST/filex/common/src/fx_directory_create.c **** 
 347:Middlewares/ST/filex/common/src/fx_directory_create.c ****             /* Decrement the total cluster count.  */
 348:Middlewares/ST/filex/common/src/fx_directory_create.c ****             total_clusters--;
 349:Middlewares/ST/filex/common/src/fx_directory_create.c **** 
 350:Middlewares/ST/filex/common/src/fx_directory_create.c ****             /* Determine if the FAT entry is free.  */
 351:Middlewares/ST/filex/common/src/fx_directory_create.c ****             if (FAT_value == FX_FREE_CLUSTER)
 352:Middlewares/ST/filex/common/src/fx_directory_create.c ****             {
 353:Middlewares/ST/filex/common/src/fx_directory_create.c **** 
 354:Middlewares/ST/filex/common/src/fx_directory_create.c ****                 /* Move cluster search pointer forward.  */
 355:Middlewares/ST/filex/common/src/fx_directory_create.c ****                 media_ptr -> fx_media_cluster_search_start =  FAT_index + 1;
 356:Middlewares/ST/filex/common/src/fx_directory_create.c **** 
 357:Middlewares/ST/filex/common/src/fx_directory_create.c ****                 /* Determine if this needs to be wrapped.  */
 358:Middlewares/ST/filex/common/src/fx_directory_create.c ****                 if (media_ptr -> fx_media_cluster_search_start >= (media_ptr -> fx_media_total_clus
 359:Middlewares/ST/filex/common/src/fx_directory_create.c ****                 {
 360:Middlewares/ST/filex/common/src/fx_directory_create.c **** 
 361:Middlewares/ST/filex/common/src/fx_directory_create.c ****                     /* Wrap the search to the beginning FAT entry.  */
 362:Middlewares/ST/filex/common/src/fx_directory_create.c ****                     media_ptr -> fx_media_cluster_search_start =  FX_FAT_ENTRY_START;
 363:Middlewares/ST/filex/common/src/fx_directory_create.c ****                 }
 364:Middlewares/ST/filex/common/src/fx_directory_create.c **** 
 365:Middlewares/ST/filex/common/src/fx_directory_create.c ****                 /* Break this loop.  */
 366:Middlewares/ST/filex/common/src/fx_directory_create.c ****                 break;
 367:Middlewares/ST/filex/common/src/fx_directory_create.c ****             }
 368:Middlewares/ST/filex/common/src/fx_directory_create.c ****             else
 369:Middlewares/ST/filex/common/src/fx_directory_create.c ****             {
 370:Middlewares/ST/filex/common/src/fx_directory_create.c **** 
 371:Middlewares/ST/filex/common/src/fx_directory_create.c ****                 /* FAT entry is not free... Advance the FAT index.  */
 372:Middlewares/ST/filex/common/src/fx_directory_create.c ****                 FAT_index++;
 373:Middlewares/ST/filex/common/src/fx_directory_create.c **** 
 374:Middlewares/ST/filex/common/src/fx_directory_create.c ****                 /* Determine if we need to wrap the FAT index around.  */
 375:Middlewares/ST/filex/common/src/fx_directory_create.c ****                 if (FAT_index >= (media_ptr -> fx_media_total_clusters + FX_FAT_ENTRY_START))
 376:Middlewares/ST/filex/common/src/fx_directory_create.c ****                 {
 377:Middlewares/ST/filex/common/src/fx_directory_create.c **** 
 378:Middlewares/ST/filex/common/src/fx_directory_create.c ****                     /* Wrap the search to the beginning FAT entry.  */
 379:Middlewares/ST/filex/common/src/fx_directory_create.c ****                     FAT_index =  FX_FAT_ENTRY_START;
 380:Middlewares/ST/filex/common/src/fx_directory_create.c ****                 }
 381:Middlewares/ST/filex/common/src/fx_directory_create.c ****             }
 382:Middlewares/ST/filex/common/src/fx_directory_create.c ****         } while (FX_TRUE);
 383:Middlewares/ST/filex/common/src/fx_directory_create.c **** #ifdef FX_ENABLE_EXFAT
 384:Middlewares/ST/filex/common/src/fx_directory_create.c ****     }
 385:Middlewares/ST/filex/common/src/fx_directory_create.c **** #endif /* FX_ENABLE_EXFAT */
 386:Middlewares/ST/filex/common/src/fx_directory_create.c **** 
 387:Middlewares/ST/filex/common/src/fx_directory_create.c ****     /* Decrease the number of available clusters for the media.  */
 388:Middlewares/ST/filex/common/src/fx_directory_create.c ****     media_ptr -> fx_media_available_clusters--;
 389:Middlewares/ST/filex/common/src/fx_directory_create.c **** 
 390:Middlewares/ST/filex/common/src/fx_directory_create.c ****     /* Defer the writing of the FAT entry until the directory's first sector
ARM GAS  C:\Users\HP\AppData\Local\Temp\cc6zmzy4.s 			page 11


 391:Middlewares/ST/filex/common/src/fx_directory_create.c ****        has been properly written. If a power loss occurs prior to writing
 392:Middlewares/ST/filex/common/src/fx_directory_create.c ****        the FAT entry, it will not result in a lost cluster.  */
 393:Middlewares/ST/filex/common/src/fx_directory_create.c **** 
 394:Middlewares/ST/filex/common/src/fx_directory_create.c ****     /* Populate the directory entry.  */
 395:Middlewares/ST/filex/common/src/fx_directory_create.c **** 
 396:Middlewares/ST/filex/common/src/fx_directory_create.c ****     /* Isolate the file name.  */
 397:Middlewares/ST/filex/common/src/fx_directory_create.c ****     _fx_directory_name_extract(work_ptr, &dir_entry.fx_dir_entry_name[0]);
 398:Middlewares/ST/filex/common/src/fx_directory_create.c **** 
 399:Middlewares/ST/filex/common/src/fx_directory_create.c ****     /* Lockout interrupts for time/date access.  */
 400:Middlewares/ST/filex/common/src/fx_directory_create.c ****     FX_DISABLE_INTS
 401:Middlewares/ST/filex/common/src/fx_directory_create.c **** 
 402:Middlewares/ST/filex/common/src/fx_directory_create.c ****     /* Set time and date stamps.  */
 403:Middlewares/ST/filex/common/src/fx_directory_create.c ****     dir_entry.fx_dir_entry_time =  _fx_system_time;
 404:Middlewares/ST/filex/common/src/fx_directory_create.c ****     dir_entry.fx_dir_entry_date =  _fx_system_date;
 405:Middlewares/ST/filex/common/src/fx_directory_create.c **** 
 406:Middlewares/ST/filex/common/src/fx_directory_create.c ****     /* Restore interrupts.  */
 407:Middlewares/ST/filex/common/src/fx_directory_create.c ****     FX_RESTORE_INTS
 408:Middlewares/ST/filex/common/src/fx_directory_create.c **** 
 409:Middlewares/ST/filex/common/src/fx_directory_create.c ****     /* Set the attributes for the file.  */
 410:Middlewares/ST/filex/common/src/fx_directory_create.c ****     dir_entry.fx_dir_entry_attributes =  FX_DIRECTORY;
 411:Middlewares/ST/filex/common/src/fx_directory_create.c **** 
 412:Middlewares/ST/filex/common/src/fx_directory_create.c **** #ifdef FX_ENABLE_EXFAT
 413:Middlewares/ST/filex/common/src/fx_directory_create.c ****     if (media_ptr -> fx_media_FAT_type == FX_exFAT)
 414:Middlewares/ST/filex/common/src/fx_directory_create.c ****     {
 415:Middlewares/ST/filex/common/src/fx_directory_create.c ****         dir_entry.fx_dir_entry_file_size =
 416:Middlewares/ST/filex/common/src/fx_directory_create.c ****             media_ptr -> fx_media_sectors_per_cluster * media_ptr -> fx_media_bytes_per_sector;
 417:Middlewares/ST/filex/common/src/fx_directory_create.c ****         dir_entry.fx_dir_entry_available_file_size = dir_entry.fx_dir_entry_file_size;
 418:Middlewares/ST/filex/common/src/fx_directory_create.c **** 
 419:Middlewares/ST/filex/common/src/fx_directory_create.c ****         /* Don't use FAT by default.  */
 420:Middlewares/ST/filex/common/src/fx_directory_create.c ****         dir_entry.fx_dir_entry_dont_use_fat = (CHAR)((INT)((search_directory.fx_dir_entry_dont_use_
 421:Middlewares/ST/filex/common/src/fx_directory_create.c ****     }
 422:Middlewares/ST/filex/common/src/fx_directory_create.c ****     else
 423:Middlewares/ST/filex/common/src/fx_directory_create.c ****     {
 424:Middlewares/ST/filex/common/src/fx_directory_create.c **** #endif /* FX_ENABLE_EXFAT */
 425:Middlewares/ST/filex/common/src/fx_directory_create.c **** 
 426:Middlewares/ST/filex/common/src/fx_directory_create.c ****         /* Set file size to 0. */
 427:Middlewares/ST/filex/common/src/fx_directory_create.c ****         dir_entry.fx_dir_entry_file_size =  0;
 428:Middlewares/ST/filex/common/src/fx_directory_create.c **** 
 429:Middlewares/ST/filex/common/src/fx_directory_create.c **** #ifdef FX_ENABLE_EXFAT
 430:Middlewares/ST/filex/common/src/fx_directory_create.c ****     }
 431:Middlewares/ST/filex/common/src/fx_directory_create.c **** #endif /* FX_ENABLE_EXFAT */
 432:Middlewares/ST/filex/common/src/fx_directory_create.c **** 
 433:Middlewares/ST/filex/common/src/fx_directory_create.c ****     /* Set the cluster to EOF.  */
 434:Middlewares/ST/filex/common/src/fx_directory_create.c ****     dir_entry.fx_dir_entry_cluster =    FAT_index;
 435:Middlewares/ST/filex/common/src/fx_directory_create.c **** 
 436:Middlewares/ST/filex/common/src/fx_directory_create.c ****     /* Is there a leading dot?  */
 437:Middlewares/ST/filex/common/src/fx_directory_create.c ****     if (dir_entry.fx_dir_entry_name[0] == '.')
 438:Middlewares/ST/filex/common/src/fx_directory_create.c ****     {
 439:Middlewares/ST/filex/common/src/fx_directory_create.c **** 
 440:Middlewares/ST/filex/common/src/fx_directory_create.c ****         /* Yes, toggle the hidden attribute bit.  */
 441:Middlewares/ST/filex/common/src/fx_directory_create.c ****         dir_entry.fx_dir_entry_attributes |=  FX_HIDDEN;
 442:Middlewares/ST/filex/common/src/fx_directory_create.c ****     }
 443:Middlewares/ST/filex/common/src/fx_directory_create.c **** 
 444:Middlewares/ST/filex/common/src/fx_directory_create.c ****     /* In previous versions, the new directory was written here.  It
 445:Middlewares/ST/filex/common/src/fx_directory_create.c ****        is now at the bottom of the file - after the FAT and the initial
 446:Middlewares/ST/filex/common/src/fx_directory_create.c ****        sub-directory is written out.  This makes the directory create
 447:Middlewares/ST/filex/common/src/fx_directory_create.c ****        more fault tolerant.  */
ARM GAS  C:\Users\HP\AppData\Local\Temp\cc6zmzy4.s 			page 12


 448:Middlewares/ST/filex/common/src/fx_directory_create.c **** 
 449:Middlewares/ST/filex/common/src/fx_directory_create.c ****     /* Calculate the first sector of the sub-directory file.  */
 450:Middlewares/ST/filex/common/src/fx_directory_create.c ****     logical_sector =    ((ULONG) media_ptr -> fx_media_data_sector_start) +
 451:Middlewares/ST/filex/common/src/fx_directory_create.c ****                          (((ULONG64) FAT_index - FX_FAT_ENTRY_START) *
 452:Middlewares/ST/filex/common/src/fx_directory_create.c ****                          ((ULONG) media_ptr -> fx_media_sectors_per_cluster));
 453:Middlewares/ST/filex/common/src/fx_directory_create.c **** 
 454:Middlewares/ST/filex/common/src/fx_directory_create.c ****     /* Pickup the number of sectors for the initial sub-directory cluster.  */
 455:Middlewares/ST/filex/common/src/fx_directory_create.c ****     sectors =  media_ptr -> fx_media_sectors_per_cluster;
 456:Middlewares/ST/filex/common/src/fx_directory_create.c **** 
 457:Middlewares/ST/filex/common/src/fx_directory_create.c ****     /* Read the first logical sector associated with the allocated
 458:Middlewares/ST/filex/common/src/fx_directory_create.c ****        cluster.  */
 459:Middlewares/ST/filex/common/src/fx_directory_create.c ****     status =  _fx_utility_logical_sector_read(media_ptr, logical_sector,
 460:Middlewares/ST/filex/common/src/fx_directory_create.c ****                                               media_ptr -> fx_media_memory_buffer, ((ULONG) 1), FX_
 461:Middlewares/ST/filex/common/src/fx_directory_create.c **** 
 462:Middlewares/ST/filex/common/src/fx_directory_create.c ****     /* Determine if an error occurred.  */
 463:Middlewares/ST/filex/common/src/fx_directory_create.c ****     if (status != FX_SUCCESS)
 464:Middlewares/ST/filex/common/src/fx_directory_create.c ****     {
 465:Middlewares/ST/filex/common/src/fx_directory_create.c **** 
 466:Middlewares/ST/filex/common/src/fx_directory_create.c **** #ifdef FX_ENABLE_FAULT_TOLERANT
 467:Middlewares/ST/filex/common/src/fx_directory_create.c ****         FX_FAULT_TOLERANT_TRANSACTION_FAIL(media_ptr);
 468:Middlewares/ST/filex/common/src/fx_directory_create.c **** #endif /* FX_ENABLE_FAULT_TOLERANT */
 469:Middlewares/ST/filex/common/src/fx_directory_create.c **** 
 470:Middlewares/ST/filex/common/src/fx_directory_create.c ****         /* Release media protection.  */
 471:Middlewares/ST/filex/common/src/fx_directory_create.c ****         FX_UNPROTECT
 472:Middlewares/ST/filex/common/src/fx_directory_create.c **** 
 473:Middlewares/ST/filex/common/src/fx_directory_create.c ****         /* Return error code.  */
 474:Middlewares/ST/filex/common/src/fx_directory_create.c ****         return(status);
 475:Middlewares/ST/filex/common/src/fx_directory_create.c ****     }
 476:Middlewares/ST/filex/common/src/fx_directory_create.c **** 
 477:Middlewares/ST/filex/common/src/fx_directory_create.c ****     /* Clear the entire first sector of the new sub-directory cluster.  */
 478:Middlewares/ST/filex/common/src/fx_directory_create.c ****     work_ptr =  (CHAR *)media_ptr -> fx_media_memory_buffer;
 479:Middlewares/ST/filex/common/src/fx_directory_create.c ****     i =  0;
 480:Middlewares/ST/filex/common/src/fx_directory_create.c ****     while (i < media_ptr -> fx_media_bytes_per_sector)
 481:Middlewares/ST/filex/common/src/fx_directory_create.c ****     {
 482:Middlewares/ST/filex/common/src/fx_directory_create.c **** 
 483:Middlewares/ST/filex/common/src/fx_directory_create.c ****         /* Clear 4 bytes.  */
 484:Middlewares/ST/filex/common/src/fx_directory_create.c ****         *((ULONG *)work_ptr) =  (ULONG)0;
 485:Middlewares/ST/filex/common/src/fx_directory_create.c **** 
 486:Middlewares/ST/filex/common/src/fx_directory_create.c ****         /* Increment pointer.  */
 487:Middlewares/ST/filex/common/src/fx_directory_create.c ****         work_ptr =  work_ptr + sizeof(ULONG);
 488:Middlewares/ST/filex/common/src/fx_directory_create.c **** 
 489:Middlewares/ST/filex/common/src/fx_directory_create.c ****         /* Increment counter.  */
 490:Middlewares/ST/filex/common/src/fx_directory_create.c ****         i =  i + (ULONG)sizeof(ULONG);
 491:Middlewares/ST/filex/common/src/fx_directory_create.c ****     }
 492:Middlewares/ST/filex/common/src/fx_directory_create.c **** 
 493:Middlewares/ST/filex/common/src/fx_directory_create.c **** #ifdef FX_ENABLE_FAULT_TOLERANT
 494:Middlewares/ST/filex/common/src/fx_directory_create.c ****     if (media_ptr -> fx_media_fault_tolerant_enabled == FX_TRUE)
 495:Middlewares/ST/filex/common/src/fx_directory_create.c ****     {
 496:Middlewares/ST/filex/common/src/fx_directory_create.c **** 
 497:Middlewares/ST/filex/common/src/fx_directory_create.c ****         /* Write back. */
 498:Middlewares/ST/filex/common/src/fx_directory_create.c ****         status =  _fx_utility_logical_sector_write(media_ptr, logical_sector,
 499:Middlewares/ST/filex/common/src/fx_directory_create.c ****                                                    media_ptr -> fx_media_memory_buffer, (ULONG)1, F
 500:Middlewares/ST/filex/common/src/fx_directory_create.c **** 
 501:Middlewares/ST/filex/common/src/fx_directory_create.c ****         /* Determine if an error occurred.  */
 502:Middlewares/ST/filex/common/src/fx_directory_create.c ****         if (status != FX_SUCCESS)
 503:Middlewares/ST/filex/common/src/fx_directory_create.c ****         {
 504:Middlewares/ST/filex/common/src/fx_directory_create.c ****             FX_FAULT_TOLERANT_TRANSACTION_FAIL(media_ptr);
ARM GAS  C:\Users\HP\AppData\Local\Temp\cc6zmzy4.s 			page 13


 505:Middlewares/ST/filex/common/src/fx_directory_create.c **** 
 506:Middlewares/ST/filex/common/src/fx_directory_create.c ****             /* Release media protection.  */
 507:Middlewares/ST/filex/common/src/fx_directory_create.c ****             FX_UNPROTECT
 508:Middlewares/ST/filex/common/src/fx_directory_create.c **** 
 509:Middlewares/ST/filex/common/src/fx_directory_create.c ****             /* Return error code.  */
 510:Middlewares/ST/filex/common/src/fx_directory_create.c ****             return(status);
 511:Middlewares/ST/filex/common/src/fx_directory_create.c ****         }
 512:Middlewares/ST/filex/common/src/fx_directory_create.c **** 
 513:Middlewares/ST/filex/common/src/fx_directory_create.c ****         /* Force flush the internal logical sector cache.  */
 514:Middlewares/ST/filex/common/src/fx_directory_create.c ****         status =  _fx_utility_logical_sector_flush(media_ptr, logical_sector, sectors, FX_TRUE);
 515:Middlewares/ST/filex/common/src/fx_directory_create.c **** 
 516:Middlewares/ST/filex/common/src/fx_directory_create.c ****         /* Determine if the write was successful.  */
 517:Middlewares/ST/filex/common/src/fx_directory_create.c ****         if (status != FX_SUCCESS)
 518:Middlewares/ST/filex/common/src/fx_directory_create.c ****         {
 519:Middlewares/ST/filex/common/src/fx_directory_create.c ****             FX_FAULT_TOLERANT_TRANSACTION_FAIL(media_ptr);
 520:Middlewares/ST/filex/common/src/fx_directory_create.c **** 
 521:Middlewares/ST/filex/common/src/fx_directory_create.c ****             /* Release media protection.  */
 522:Middlewares/ST/filex/common/src/fx_directory_create.c ****             FX_UNPROTECT
 523:Middlewares/ST/filex/common/src/fx_directory_create.c **** 
 524:Middlewares/ST/filex/common/src/fx_directory_create.c ****             /* Return the error code.  */
 525:Middlewares/ST/filex/common/src/fx_directory_create.c ****             return(status);
 526:Middlewares/ST/filex/common/src/fx_directory_create.c ****         }
 527:Middlewares/ST/filex/common/src/fx_directory_create.c ****     }
 528:Middlewares/ST/filex/common/src/fx_directory_create.c **** #endif /* FX_ENABLE_FAULT_TOLERANT */
 529:Middlewares/ST/filex/common/src/fx_directory_create.c **** 
 530:Middlewares/ST/filex/common/src/fx_directory_create.c ****     /* Determine if there are more sectors to clear in the first cluster of the new
 531:Middlewares/ST/filex/common/src/fx_directory_create.c ****        sub-directory.  */
 532:Middlewares/ST/filex/common/src/fx_directory_create.c ****     if (sectors > 1)
 533:Middlewares/ST/filex/common/src/fx_directory_create.c ****     {
 534:Middlewares/ST/filex/common/src/fx_directory_create.c **** 
 535:Middlewares/ST/filex/common/src/fx_directory_create.c ****         /* Yes, invalidate all cached sectors that are contained in the newly allocated first
 536:Middlewares/ST/filex/common/src/fx_directory_create.c ****            cluster of the directory.  */
 537:Middlewares/ST/filex/common/src/fx_directory_create.c **** 
 538:Middlewares/ST/filex/common/src/fx_directory_create.c **** #ifdef FX_ENABLE_FAULT_TOLERANT
 539:Middlewares/ST/filex/common/src/fx_directory_create.c ****         if (media_ptr -> fx_media_fault_tolerant_enabled == FX_FALSE)
 540:Middlewares/ST/filex/common/src/fx_directory_create.c **** #endif /* FX_ENABLE_FAULT_TOLERANT */
 541:Middlewares/ST/filex/common/src/fx_directory_create.c ****         {
 542:Middlewares/ST/filex/common/src/fx_directory_create.c **** 
 543:Middlewares/ST/filex/common/src/fx_directory_create.c ****             /* Flush the internal logical sector cache.  */
 544:Middlewares/ST/filex/common/src/fx_directory_create.c ****             status =  _fx_utility_logical_sector_flush(media_ptr, logical_sector + 1, ((ULONG64)(se
 545:Middlewares/ST/filex/common/src/fx_directory_create.c **** 
 546:Middlewares/ST/filex/common/src/fx_directory_create.c ****             /* Determine if the write was successful.  */
 547:Middlewares/ST/filex/common/src/fx_directory_create.c ****             if (status != FX_SUCCESS)
 548:Middlewares/ST/filex/common/src/fx_directory_create.c ****             {
 549:Middlewares/ST/filex/common/src/fx_directory_create.c **** 
 550:Middlewares/ST/filex/common/src/fx_directory_create.c **** #ifdef FX_ENABLE_FAULT_TOLERANT
 551:Middlewares/ST/filex/common/src/fx_directory_create.c ****                 FX_FAULT_TOLERANT_TRANSACTION_FAIL(media_ptr);
 552:Middlewares/ST/filex/common/src/fx_directory_create.c **** #endif /* FX_ENABLE_FAULT_TOLERANT */
 553:Middlewares/ST/filex/common/src/fx_directory_create.c **** 
 554:Middlewares/ST/filex/common/src/fx_directory_create.c ****                 /* Release media protection.  */
 555:Middlewares/ST/filex/common/src/fx_directory_create.c ****                 FX_UNPROTECT
 556:Middlewares/ST/filex/common/src/fx_directory_create.c **** 
 557:Middlewares/ST/filex/common/src/fx_directory_create.c ****                 /* Return the error code.  */
 558:Middlewares/ST/filex/common/src/fx_directory_create.c ****                 return(status);
 559:Middlewares/ST/filex/common/src/fx_directory_create.c ****             }
 560:Middlewares/ST/filex/common/src/fx_directory_create.c ****         }
 561:Middlewares/ST/filex/common/src/fx_directory_create.c **** 
ARM GAS  C:\Users\HP\AppData\Local\Temp\cc6zmzy4.s 			page 14


 562:Middlewares/ST/filex/common/src/fx_directory_create.c ****         /* Clear all additional sectors of new sub-directory.  */
 563:Middlewares/ST/filex/common/src/fx_directory_create.c ****         sectors--;
 564:Middlewares/ST/filex/common/src/fx_directory_create.c ****         while (sectors)
 565:Middlewares/ST/filex/common/src/fx_directory_create.c ****         {
 566:Middlewares/ST/filex/common/src/fx_directory_create.c **** 
 567:Middlewares/ST/filex/common/src/fx_directory_create.c **** #ifndef FX_MEDIA_STATISTICS_DISABLE
 568:Middlewares/ST/filex/common/src/fx_directory_create.c **** 
 569:Middlewares/ST/filex/common/src/fx_directory_create.c ****             /* Increment the number of driver write sector(s) requests.  */
 570:Middlewares/ST/filex/common/src/fx_directory_create.c ****             media_ptr -> fx_media_driver_write_requests++;
 571:Middlewares/ST/filex/common/src/fx_directory_create.c **** #endif
 572:Middlewares/ST/filex/common/src/fx_directory_create.c **** 
 573:Middlewares/ST/filex/common/src/fx_directory_create.c ****             /* Build Write request to the driver.  */
 574:Middlewares/ST/filex/common/src/fx_directory_create.c ****             media_ptr -> fx_media_driver_request =          FX_DRIVER_WRITE;
 575:Middlewares/ST/filex/common/src/fx_directory_create.c ****             media_ptr -> fx_media_driver_status =           FX_IO_ERROR;
 576:Middlewares/ST/filex/common/src/fx_directory_create.c ****             media_ptr -> fx_media_driver_buffer =           media_ptr -> fx_media_memory_buffer;
 577:Middlewares/ST/filex/common/src/fx_directory_create.c **** #ifdef FX_DRIVER_USE_64BIT_LBA
 578:Middlewares/ST/filex/common/src/fx_directory_create.c ****             media_ptr -> fx_media_driver_logical_sector =   logical_sector + ((ULONG)sectors);
 579:Middlewares/ST/filex/common/src/fx_directory_create.c **** #else
 580:Middlewares/ST/filex/common/src/fx_directory_create.c ****             media_ptr -> fx_media_driver_logical_sector =   (ULONG)logical_sector + ((ULONG)sectors
 581:Middlewares/ST/filex/common/src/fx_directory_create.c **** #endif
 582:Middlewares/ST/filex/common/src/fx_directory_create.c ****             media_ptr -> fx_media_driver_sectors =          1;
 583:Middlewares/ST/filex/common/src/fx_directory_create.c ****             media_ptr -> fx_media_driver_sector_type =      FX_DIRECTORY_SECTOR;
 584:Middlewares/ST/filex/common/src/fx_directory_create.c **** 
 585:Middlewares/ST/filex/common/src/fx_directory_create.c ****             /* Set the system write flag since we are writing a directory sector.  */
 586:Middlewares/ST/filex/common/src/fx_directory_create.c ****             media_ptr -> fx_media_driver_system_write =  FX_TRUE;
 587:Middlewares/ST/filex/common/src/fx_directory_create.c **** 
 588:Middlewares/ST/filex/common/src/fx_directory_create.c ****             /* If trace is enabled, insert this event into the trace buffer.  */
 589:Middlewares/ST/filex/common/src/fx_directory_create.c ****             FX_TRACE_IN_LINE_INSERT(FX_TRACE_INTERNAL_IO_DRIVER_WRITE, media_ptr, ((ULONG)logical_s
 590:Middlewares/ST/filex/common/src/fx_directory_create.c **** 
 591:Middlewares/ST/filex/common/src/fx_directory_create.c ****             /* Invoke the driver to write the sector.  */
 592:Middlewares/ST/filex/common/src/fx_directory_create.c ****                 (media_ptr -> fx_media_driver_entry) (media_ptr);
 593:Middlewares/ST/filex/common/src/fx_directory_create.c **** 
 594:Middlewares/ST/filex/common/src/fx_directory_create.c ****             /* Clear the system write flag.  */
 595:Middlewares/ST/filex/common/src/fx_directory_create.c ****             media_ptr -> fx_media_driver_system_write =  FX_FALSE;
 596:Middlewares/ST/filex/common/src/fx_directory_create.c **** 
 597:Middlewares/ST/filex/common/src/fx_directory_create.c ****             /* Determine if an error occurred.  */
 598:Middlewares/ST/filex/common/src/fx_directory_create.c ****             if (media_ptr -> fx_media_driver_status != FX_SUCCESS)
 599:Middlewares/ST/filex/common/src/fx_directory_create.c ****             {
 600:Middlewares/ST/filex/common/src/fx_directory_create.c **** 
 601:Middlewares/ST/filex/common/src/fx_directory_create.c **** #ifdef FX_ENABLE_FAULT_TOLERANT
 602:Middlewares/ST/filex/common/src/fx_directory_create.c ****                 FX_FAULT_TOLERANT_TRANSACTION_FAIL(media_ptr);
 603:Middlewares/ST/filex/common/src/fx_directory_create.c **** #endif /* FX_ENABLE_FAULT_TOLERANT */
 604:Middlewares/ST/filex/common/src/fx_directory_create.c **** 
 605:Middlewares/ST/filex/common/src/fx_directory_create.c ****                 /* Release media protection.  */
 606:Middlewares/ST/filex/common/src/fx_directory_create.c ****                 FX_UNPROTECT
 607:Middlewares/ST/filex/common/src/fx_directory_create.c **** 
 608:Middlewares/ST/filex/common/src/fx_directory_create.c ****                 /* Return error code.  */
 609:Middlewares/ST/filex/common/src/fx_directory_create.c ****                 return(media_ptr -> fx_media_driver_status);
 610:Middlewares/ST/filex/common/src/fx_directory_create.c ****             }
 611:Middlewares/ST/filex/common/src/fx_directory_create.c **** 
 612:Middlewares/ST/filex/common/src/fx_directory_create.c ****             /* Decrease the number of sectors to clear.  */
 613:Middlewares/ST/filex/common/src/fx_directory_create.c ****             sectors--;
 614:Middlewares/ST/filex/common/src/fx_directory_create.c ****         }
 615:Middlewares/ST/filex/common/src/fx_directory_create.c ****     }
 616:Middlewares/ST/filex/common/src/fx_directory_create.c **** 
 617:Middlewares/ST/filex/common/src/fx_directory_create.c **** #ifdef FX_ENABLE_EXFAT
 618:Middlewares/ST/filex/common/src/fx_directory_create.c ****     if (media_ptr -> fx_media_FAT_type == FX_exFAT)
ARM GAS  C:\Users\HP\AppData\Local\Temp\cc6zmzy4.s 			page 15


 619:Middlewares/ST/filex/common/src/fx_directory_create.c ****     {
 620:Middlewares/ST/filex/common/src/fx_directory_create.c **** 
 621:Middlewares/ST/filex/common/src/fx_directory_create.c ****         /* Build Write request to the driver.  */
 622:Middlewares/ST/filex/common/src/fx_directory_create.c ****         media_ptr -> fx_media_driver_request =          FX_DRIVER_WRITE;
 623:Middlewares/ST/filex/common/src/fx_directory_create.c ****         media_ptr -> fx_media_driver_status =           FX_IO_ERROR;
 624:Middlewares/ST/filex/common/src/fx_directory_create.c ****         media_ptr -> fx_media_driver_buffer =           media_ptr -> fx_media_memory_buffer;
 625:Middlewares/ST/filex/common/src/fx_directory_create.c ****         media_ptr -> fx_media_driver_logical_sector =   (ULONG)logical_sector;
 626:Middlewares/ST/filex/common/src/fx_directory_create.c ****         media_ptr -> fx_media_driver_sectors =          1;
 627:Middlewares/ST/filex/common/src/fx_directory_create.c ****         media_ptr -> fx_media_driver_sector_type =      FX_DIRECTORY_SECTOR;
 628:Middlewares/ST/filex/common/src/fx_directory_create.c **** 
 629:Middlewares/ST/filex/common/src/fx_directory_create.c ****         /* Set the system write flag since we are writing a directory sector.  */
 630:Middlewares/ST/filex/common/src/fx_directory_create.c ****         media_ptr -> fx_media_driver_system_write =  FX_TRUE;
 631:Middlewares/ST/filex/common/src/fx_directory_create.c **** 
 632:Middlewares/ST/filex/common/src/fx_directory_create.c ****         /* If trace is enabled, insert this event into the trace buffer.  */
 633:Middlewares/ST/filex/common/src/fx_directory_create.c ****         FX_TRACE_IN_LINE_INSERT(FX_TRACE_INTERNAL_IO_DRIVER_WRITE, media_ptr, ((ULONG)logical_secto
 634:Middlewares/ST/filex/common/src/fx_directory_create.c **** 
 635:Middlewares/ST/filex/common/src/fx_directory_create.c ****         /* Invoke the driver to write the sector.  */
 636:Middlewares/ST/filex/common/src/fx_directory_create.c ****             (media_ptr -> fx_media_driver_entry) (media_ptr);
 637:Middlewares/ST/filex/common/src/fx_directory_create.c **** 
 638:Middlewares/ST/filex/common/src/fx_directory_create.c ****         /* Clear the system write flag.  */
 639:Middlewares/ST/filex/common/src/fx_directory_create.c ****         media_ptr -> fx_media_driver_system_write =  FX_FALSE;
 640:Middlewares/ST/filex/common/src/fx_directory_create.c **** 
 641:Middlewares/ST/filex/common/src/fx_directory_create.c ****         /* Determine if an error occurred.  */
 642:Middlewares/ST/filex/common/src/fx_directory_create.c ****         if (media_ptr -> fx_media_driver_status != FX_SUCCESS)
 643:Middlewares/ST/filex/common/src/fx_directory_create.c ****         {
 644:Middlewares/ST/filex/common/src/fx_directory_create.c **** 
 645:Middlewares/ST/filex/common/src/fx_directory_create.c **** #ifdef FX_ENABLE_FAULT_TOLERANT
 646:Middlewares/ST/filex/common/src/fx_directory_create.c ****             FX_FAULT_TOLERANT_TRANSACTION_FAIL(media_ptr);
 647:Middlewares/ST/filex/common/src/fx_directory_create.c **** #endif /* FX_ENABLE_FAULT_TOLERANT */
 648:Middlewares/ST/filex/common/src/fx_directory_create.c **** 
 649:Middlewares/ST/filex/common/src/fx_directory_create.c ****             /* Release media protection.  */
 650:Middlewares/ST/filex/common/src/fx_directory_create.c ****             FX_UNPROTECT
 651:Middlewares/ST/filex/common/src/fx_directory_create.c **** 
 652:Middlewares/ST/filex/common/src/fx_directory_create.c ****             /* Return error code.  */
 653:Middlewares/ST/filex/common/src/fx_directory_create.c ****             return(media_ptr -> fx_media_driver_status);
 654:Middlewares/ST/filex/common/src/fx_directory_create.c ****         }
 655:Middlewares/ST/filex/common/src/fx_directory_create.c **** 
 656:Middlewares/ST/filex/common/src/fx_directory_create.c ****         /* Mark the cluster as used.  */
 657:Middlewares/ST/filex/common/src/fx_directory_create.c ****         status = _fx_utility_exFAT_cluster_state_set(media_ptr, FAT_index, FX_EXFAT_BITMAP_CLUSTER_
 658:Middlewares/ST/filex/common/src/fx_directory_create.c **** 
 659:Middlewares/ST/filex/common/src/fx_directory_create.c ****         /* Check for a bad status.  */
 660:Middlewares/ST/filex/common/src/fx_directory_create.c ****         if (status != FX_SUCCESS)
 661:Middlewares/ST/filex/common/src/fx_directory_create.c ****         {
 662:Middlewares/ST/filex/common/src/fx_directory_create.c **** 
 663:Middlewares/ST/filex/common/src/fx_directory_create.c **** #ifdef FX_ENABLE_FAULT_TOLERANT
 664:Middlewares/ST/filex/common/src/fx_directory_create.c ****             FX_FAULT_TOLERANT_TRANSACTION_FAIL(media_ptr);
 665:Middlewares/ST/filex/common/src/fx_directory_create.c **** #endif /* FX_ENABLE_FAULT_TOLERANT */
 666:Middlewares/ST/filex/common/src/fx_directory_create.c **** 
 667:Middlewares/ST/filex/common/src/fx_directory_create.c ****             /* Release media protection.  */
 668:Middlewares/ST/filex/common/src/fx_directory_create.c ****             FX_UNPROTECT
 669:Middlewares/ST/filex/common/src/fx_directory_create.c **** 
 670:Middlewares/ST/filex/common/src/fx_directory_create.c ****             /* Return the bad status.  */
 671:Middlewares/ST/filex/common/src/fx_directory_create.c ****             return(status);
 672:Middlewares/ST/filex/common/src/fx_directory_create.c ****         }
 673:Middlewares/ST/filex/common/src/fx_directory_create.c **** 
 674:Middlewares/ST/filex/common/src/fx_directory_create.c ****         /* Move cluster search pointer forward. */
 675:Middlewares/ST/filex/common/src/fx_directory_create.c ****         media_ptr -> fx_media_cluster_search_start = FAT_index + 1;
ARM GAS  C:\Users\HP\AppData\Local\Temp\cc6zmzy4.s 			page 16


 676:Middlewares/ST/filex/common/src/fx_directory_create.c **** 
 677:Middlewares/ST/filex/common/src/fx_directory_create.c ****         /* Determine if this needs to be wrapped. */
 678:Middlewares/ST/filex/common/src/fx_directory_create.c ****         if (media_ptr -> fx_media_cluster_search_start >= media_ptr -> fx_media_total_clusters + FX
 679:Middlewares/ST/filex/common/src/fx_directory_create.c ****         {
 680:Middlewares/ST/filex/common/src/fx_directory_create.c **** 
 681:Middlewares/ST/filex/common/src/fx_directory_create.c ****             /* Wrap the search to the beginning FAT entry. */
 682:Middlewares/ST/filex/common/src/fx_directory_create.c ****             media_ptr -> fx_media_cluster_search_start = FX_FAT_ENTRY_START;
 683:Middlewares/ST/filex/common/src/fx_directory_create.c ****         }
 684:Middlewares/ST/filex/common/src/fx_directory_create.c **** 
 685:Middlewares/ST/filex/common/src/fx_directory_create.c ****         if (search_directory.fx_dir_entry_name[0])
 686:Middlewares/ST/filex/common/src/fx_directory_create.c ****         {
 687:Middlewares/ST/filex/common/src/fx_directory_create.c **** 
 688:Middlewares/ST/filex/common/src/fx_directory_create.c ****             /* Not root directory.  */
 689:Middlewares/ST/filex/common/src/fx_directory_create.c ****             /* Copy the date and time from the actual sub-directory.  */
 690:Middlewares/ST/filex/common/src/fx_directory_create.c ****             search_directory.fx_dir_entry_time = dir_entry.fx_dir_entry_time;
 691:Middlewares/ST/filex/common/src/fx_directory_create.c ****             search_directory.fx_dir_entry_date = dir_entry.fx_dir_entry_date;
 692:Middlewares/ST/filex/common/src/fx_directory_create.c **** 
 693:Middlewares/ST/filex/common/src/fx_directory_create.c ****             /* Check if the directory size has changed.  */
 694:Middlewares/ST/filex/common/src/fx_directory_create.c ****             if (search_directory.fx_dir_entry_file_size == dir_size)
 695:Middlewares/ST/filex/common/src/fx_directory_create.c ****             {
 696:Middlewares/ST/filex/common/src/fx_directory_create.c **** 
 697:Middlewares/ST/filex/common/src/fx_directory_create.c ****                 /* Not changed, we need only update time stamps.  */
 698:Middlewares/ST/filex/common/src/fx_directory_create.c ****                 status = _fx_directory_exFAT_entry_write(media_ptr, &search_directory, UPDATE_FILE)
 699:Middlewares/ST/filex/common/src/fx_directory_create.c ****             }
 700:Middlewares/ST/filex/common/src/fx_directory_create.c ****             else
 701:Middlewares/ST/filex/common/src/fx_directory_create.c ****             {
 702:Middlewares/ST/filex/common/src/fx_directory_create.c **** 
 703:Middlewares/ST/filex/common/src/fx_directory_create.c ****                 /* Directory size changed, update time stamps and the stream size.  */
 704:Middlewares/ST/filex/common/src/fx_directory_create.c ****                 status = _fx_directory_exFAT_entry_write(media_ptr, &search_directory, UPDATE_STREA
 705:Middlewares/ST/filex/common/src/fx_directory_create.c ****             }
 706:Middlewares/ST/filex/common/src/fx_directory_create.c **** 
 707:Middlewares/ST/filex/common/src/fx_directory_create.c ****             /* Check for a bad status.  */
 708:Middlewares/ST/filex/common/src/fx_directory_create.c ****             if (status != FX_SUCCESS)
 709:Middlewares/ST/filex/common/src/fx_directory_create.c ****             {
 710:Middlewares/ST/filex/common/src/fx_directory_create.c **** 
 711:Middlewares/ST/filex/common/src/fx_directory_create.c **** #ifdef FX_ENABLE_FAULT_TOLERANT
 712:Middlewares/ST/filex/common/src/fx_directory_create.c ****                 FX_FAULT_TOLERANT_TRANSACTION_FAIL(media_ptr);
 713:Middlewares/ST/filex/common/src/fx_directory_create.c **** #endif /* FX_ENABLE_FAULT_TOLERANT */
 714:Middlewares/ST/filex/common/src/fx_directory_create.c **** 
 715:Middlewares/ST/filex/common/src/fx_directory_create.c ****                 /* Release media protection.  */
 716:Middlewares/ST/filex/common/src/fx_directory_create.c ****                 FX_UNPROTECT
 717:Middlewares/ST/filex/common/src/fx_directory_create.c **** 
 718:Middlewares/ST/filex/common/src/fx_directory_create.c ****                 /* Return the bad status.  */
 719:Middlewares/ST/filex/common/src/fx_directory_create.c ****                 return(status);
 720:Middlewares/ST/filex/common/src/fx_directory_create.c ****             }
 721:Middlewares/ST/filex/common/src/fx_directory_create.c ****         }
 722:Middlewares/ST/filex/common/src/fx_directory_create.c ****     }
 723:Middlewares/ST/filex/common/src/fx_directory_create.c ****     else
 724:Middlewares/ST/filex/common/src/fx_directory_create.c ****     {
 725:Middlewares/ST/filex/common/src/fx_directory_create.c **** #endif /* FX_ENABLE_EXFAT */
 726:Middlewares/ST/filex/common/src/fx_directory_create.c **** 
 727:Middlewares/ST/filex/common/src/fx_directory_create.c ****         /* Now setup the first sector with the initial sub-directory information.  */
 728:Middlewares/ST/filex/common/src/fx_directory_create.c **** 
 729:Middlewares/ST/filex/common/src/fx_directory_create.c ****         /* Copy the base directory entry to the sub-directory entry.  */
 730:Middlewares/ST/filex/common/src/fx_directory_create.c ****         sub_dir_entry =  dir_entry;
 731:Middlewares/ST/filex/common/src/fx_directory_create.c **** 
 732:Middlewares/ST/filex/common/src/fx_directory_create.c ****         /* Setup pointer to media name buffer.  */
ARM GAS  C:\Users\HP\AppData\Local\Temp\cc6zmzy4.s 			page 17


 733:Middlewares/ST/filex/common/src/fx_directory_create.c ****         sub_dir_entry.fx_dir_entry_name =  media_ptr -> fx_media_name_buffer + (FX_MAX_LONG_NAME_LE
 734:Middlewares/ST/filex/common/src/fx_directory_create.c **** 
 735:Middlewares/ST/filex/common/src/fx_directory_create.c ****         /* Set the directory entry name to all blanks.  */
 736:Middlewares/ST/filex/common/src/fx_directory_create.c ****         work_ptr =  &sub_dir_entry.fx_dir_entry_name[0];
 737:Middlewares/ST/filex/common/src/fx_directory_create.c ****         for (i = 0; i < (FX_DIR_NAME_SIZE + FX_DIR_EXT_SIZE); i++)
 738:Middlewares/ST/filex/common/src/fx_directory_create.c ****         {
 739:Middlewares/ST/filex/common/src/fx_directory_create.c ****             *work_ptr++ = ' ';
 740:Middlewares/ST/filex/common/src/fx_directory_create.c ****         }
 741:Middlewares/ST/filex/common/src/fx_directory_create.c **** 
 742:Middlewares/ST/filex/common/src/fx_directory_create.c ****         sub_dir_entry.fx_dir_entry_long_name_present = 0;
 743:Middlewares/ST/filex/common/src/fx_directory_create.c **** 
 744:Middlewares/ST/filex/common/src/fx_directory_create.c ****         /* Now build the "." directory entry.  */
 745:Middlewares/ST/filex/common/src/fx_directory_create.c ****         sub_dir_entry.fx_dir_entry_name[0] =        '.';
 746:Middlewares/ST/filex/common/src/fx_directory_create.c ****         sub_dir_entry.fx_dir_entry_name[1] =        0;
 747:Middlewares/ST/filex/common/src/fx_directory_create.c ****         sub_dir_entry.fx_dir_entry_log_sector =     logical_sector;
 748:Middlewares/ST/filex/common/src/fx_directory_create.c ****         sub_dir_entry.fx_dir_entry_byte_offset =    0;
 749:Middlewares/ST/filex/common/src/fx_directory_create.c **** 
 750:Middlewares/ST/filex/common/src/fx_directory_create.c ****         /* Write the directory's first entry.  */
 751:Middlewares/ST/filex/common/src/fx_directory_create.c ****         status =  _fx_directory_entry_write(media_ptr, &sub_dir_entry);
 752:Middlewares/ST/filex/common/src/fx_directory_create.c **** 
 753:Middlewares/ST/filex/common/src/fx_directory_create.c ****         /* Check for error condition.  */
 754:Middlewares/ST/filex/common/src/fx_directory_create.c ****         if (status != FX_SUCCESS)
 755:Middlewares/ST/filex/common/src/fx_directory_create.c ****         {
 756:Middlewares/ST/filex/common/src/fx_directory_create.c **** 
 757:Middlewares/ST/filex/common/src/fx_directory_create.c **** #ifdef FX_ENABLE_FAULT_TOLERANT
 758:Middlewares/ST/filex/common/src/fx_directory_create.c ****             FX_FAULT_TOLERANT_TRANSACTION_FAIL(media_ptr);
 759:Middlewares/ST/filex/common/src/fx_directory_create.c **** #endif /* FX_ENABLE_FAULT_TOLERANT */
 760:Middlewares/ST/filex/common/src/fx_directory_create.c **** 
 761:Middlewares/ST/filex/common/src/fx_directory_create.c ****             /* Release media protection.  */
 762:Middlewares/ST/filex/common/src/fx_directory_create.c ****             FX_UNPROTECT
 763:Middlewares/ST/filex/common/src/fx_directory_create.c **** 
 764:Middlewares/ST/filex/common/src/fx_directory_create.c ****             /* Return error status.  */
 765:Middlewares/ST/filex/common/src/fx_directory_create.c ****             return(status);
 766:Middlewares/ST/filex/common/src/fx_directory_create.c ****         }
 767:Middlewares/ST/filex/common/src/fx_directory_create.c **** 
 768:Middlewares/ST/filex/common/src/fx_directory_create.c ****         /* Now build the ".." directory entry.  */
 769:Middlewares/ST/filex/common/src/fx_directory_create.c **** 
 770:Middlewares/ST/filex/common/src/fx_directory_create.c ****         /* Determine if the search directory is the root.  */
 771:Middlewares/ST/filex/common/src/fx_directory_create.c ****         if (search_directory.fx_dir_entry_name[0])
 772:Middlewares/ST/filex/common/src/fx_directory_create.c ****         {
 773:Middlewares/ST/filex/common/src/fx_directory_create.c **** 
 774:Middlewares/ST/filex/common/src/fx_directory_create.c ****             /* Previous directory is not the root directory.  */
 775:Middlewares/ST/filex/common/src/fx_directory_create.c **** 
 776:Middlewares/ST/filex/common/src/fx_directory_create.c ****             /* Copy into the working directory entry.  */
 777:Middlewares/ST/filex/common/src/fx_directory_create.c ****             sub_dir_entry =  search_directory;
 778:Middlewares/ST/filex/common/src/fx_directory_create.c **** 
 779:Middlewares/ST/filex/common/src/fx_directory_create.c ****             /* Copy the date and time from the actual sub-directory.  */
 780:Middlewares/ST/filex/common/src/fx_directory_create.c ****             sub_dir_entry.fx_dir_entry_time =  dir_entry.fx_dir_entry_time;
 781:Middlewares/ST/filex/common/src/fx_directory_create.c ****             sub_dir_entry.fx_dir_entry_date =  dir_entry.fx_dir_entry_date;
 782:Middlewares/ST/filex/common/src/fx_directory_create.c **** 
 783:Middlewares/ST/filex/common/src/fx_directory_create.c ****             /* Adjust pointer to media name buffer.  */
 784:Middlewares/ST/filex/common/src/fx_directory_create.c ****             sub_dir_entry.fx_dir_entry_name =  media_ptr -> fx_media_name_buffer + (FX_MAX_LONG_NAM
 785:Middlewares/ST/filex/common/src/fx_directory_create.c **** 
 786:Middlewares/ST/filex/common/src/fx_directory_create.c ****             /* Change the name to ".."  */
 787:Middlewares/ST/filex/common/src/fx_directory_create.c ****             work_ptr =  &sub_dir_entry.fx_dir_entry_name[0];
 788:Middlewares/ST/filex/common/src/fx_directory_create.c ****             for (i = 0; i < (FX_DIR_NAME_SIZE + FX_DIR_EXT_SIZE); i++)
 789:Middlewares/ST/filex/common/src/fx_directory_create.c ****             {
ARM GAS  C:\Users\HP\AppData\Local\Temp\cc6zmzy4.s 			page 18


 790:Middlewares/ST/filex/common/src/fx_directory_create.c ****                 *work_ptr++ = ' ';
 791:Middlewares/ST/filex/common/src/fx_directory_create.c ****             }
 792:Middlewares/ST/filex/common/src/fx_directory_create.c **** 
 793:Middlewares/ST/filex/common/src/fx_directory_create.c ****             sub_dir_entry.fx_dir_entry_name[0] =  '.';
 794:Middlewares/ST/filex/common/src/fx_directory_create.c ****             sub_dir_entry.fx_dir_entry_name[1] =  '.';
 795:Middlewares/ST/filex/common/src/fx_directory_create.c ****             sub_dir_entry.fx_dir_entry_name[2] =   0;
 796:Middlewares/ST/filex/common/src/fx_directory_create.c **** 
 797:Middlewares/ST/filex/common/src/fx_directory_create.c ****             sub_dir_entry.fx_dir_entry_long_name_present = 0;
 798:Middlewares/ST/filex/common/src/fx_directory_create.c **** 
 799:Middlewares/ST/filex/common/src/fx_directory_create.c ****             /* Set file size to 0. */
 800:Middlewares/ST/filex/common/src/fx_directory_create.c ****             sub_dir_entry.fx_dir_entry_file_size =  0;
 801:Middlewares/ST/filex/common/src/fx_directory_create.c **** 
 802:Middlewares/ST/filex/common/src/fx_directory_create.c ****             /* Change the logical sector for this entry.  */
 803:Middlewares/ST/filex/common/src/fx_directory_create.c ****             sub_dir_entry.fx_dir_entry_log_sector =  logical_sector;
 804:Middlewares/ST/filex/common/src/fx_directory_create.c ****         }
 805:Middlewares/ST/filex/common/src/fx_directory_create.c ****         else
 806:Middlewares/ST/filex/common/src/fx_directory_create.c ****         {
 807:Middlewares/ST/filex/common/src/fx_directory_create.c **** 
 808:Middlewares/ST/filex/common/src/fx_directory_create.c ****             /* Just modify the current directory since the parent
 809:Middlewares/ST/filex/common/src/fx_directory_create.c ****                directory is the root.  */
 810:Middlewares/ST/filex/common/src/fx_directory_create.c ****             sub_dir_entry.fx_dir_entry_name[1] =  '.';
 811:Middlewares/ST/filex/common/src/fx_directory_create.c ****             sub_dir_entry.fx_dir_entry_name[2] =   0;
 812:Middlewares/ST/filex/common/src/fx_directory_create.c **** 
 813:Middlewares/ST/filex/common/src/fx_directory_create.c ****             /* Clear the cluster to indicate the root directory.  */
 814:Middlewares/ST/filex/common/src/fx_directory_create.c ****             sub_dir_entry.fx_dir_entry_cluster =  0;
 815:Middlewares/ST/filex/common/src/fx_directory_create.c ****         }
 816:Middlewares/ST/filex/common/src/fx_directory_create.c **** 
 817:Middlewares/ST/filex/common/src/fx_directory_create.c ****         /* Setup the byte offset.  */
 818:Middlewares/ST/filex/common/src/fx_directory_create.c ****         sub_dir_entry.fx_dir_entry_byte_offset =  FX_DIR_ENTRY_SIZE;
 819:Middlewares/ST/filex/common/src/fx_directory_create.c **** 
 820:Middlewares/ST/filex/common/src/fx_directory_create.c ****         /* Write the directory's second entry.  */
 821:Middlewares/ST/filex/common/src/fx_directory_create.c ****         status =  _fx_directory_entry_write(media_ptr, &sub_dir_entry);
 822:Middlewares/ST/filex/common/src/fx_directory_create.c **** 
 823:Middlewares/ST/filex/common/src/fx_directory_create.c ****         /* Check for error condition.  */
 824:Middlewares/ST/filex/common/src/fx_directory_create.c ****         if (status != FX_SUCCESS)
 825:Middlewares/ST/filex/common/src/fx_directory_create.c ****         {
 826:Middlewares/ST/filex/common/src/fx_directory_create.c **** 
 827:Middlewares/ST/filex/common/src/fx_directory_create.c **** #ifdef FX_ENABLE_FAULT_TOLERANT
 828:Middlewares/ST/filex/common/src/fx_directory_create.c ****             FX_FAULT_TOLERANT_TRANSACTION_FAIL(media_ptr);
 829:Middlewares/ST/filex/common/src/fx_directory_create.c **** #endif /* FX_ENABLE_FAULT_TOLERANT */
 830:Middlewares/ST/filex/common/src/fx_directory_create.c **** 
 831:Middlewares/ST/filex/common/src/fx_directory_create.c ****             /* Release media protection.  */
 832:Middlewares/ST/filex/common/src/fx_directory_create.c ****             FX_UNPROTECT
 833:Middlewares/ST/filex/common/src/fx_directory_create.c **** 
 834:Middlewares/ST/filex/common/src/fx_directory_create.c ****             /* Return error status.  */
 835:Middlewares/ST/filex/common/src/fx_directory_create.c ****             return(status);
 836:Middlewares/ST/filex/common/src/fx_directory_create.c ****         }
 837:Middlewares/ST/filex/common/src/fx_directory_create.c **** 
 838:Middlewares/ST/filex/common/src/fx_directory_create.c ****         /* Write an EOF in the found FAT entry.  */
 839:Middlewares/ST/filex/common/src/fx_directory_create.c ****         status =  _fx_utility_FAT_entry_write(media_ptr, FAT_index, media_ptr -> fx_media_fat_last)
 840:Middlewares/ST/filex/common/src/fx_directory_create.c **** 
 841:Middlewares/ST/filex/common/src/fx_directory_create.c ****         /* Check for a bad status.  */
 842:Middlewares/ST/filex/common/src/fx_directory_create.c ****         if (status != FX_SUCCESS)
 843:Middlewares/ST/filex/common/src/fx_directory_create.c ****         {
 844:Middlewares/ST/filex/common/src/fx_directory_create.c **** 
 845:Middlewares/ST/filex/common/src/fx_directory_create.c **** #ifdef FX_ENABLE_FAULT_TOLERANT
 846:Middlewares/ST/filex/common/src/fx_directory_create.c ****             FX_FAULT_TOLERANT_TRANSACTION_FAIL(media_ptr);
ARM GAS  C:\Users\HP\AppData\Local\Temp\cc6zmzy4.s 			page 19


 847:Middlewares/ST/filex/common/src/fx_directory_create.c **** #endif /* FX_ENABLE_FAULT_TOLERANT */
 848:Middlewares/ST/filex/common/src/fx_directory_create.c **** 
 849:Middlewares/ST/filex/common/src/fx_directory_create.c ****             /* Release media protection.  */
 850:Middlewares/ST/filex/common/src/fx_directory_create.c ****             FX_UNPROTECT
 851:Middlewares/ST/filex/common/src/fx_directory_create.c **** 
 852:Middlewares/ST/filex/common/src/fx_directory_create.c ****             /* Return the bad status.  */
 853:Middlewares/ST/filex/common/src/fx_directory_create.c ****             return(status);
 854:Middlewares/ST/filex/common/src/fx_directory_create.c ****         }
 855:Middlewares/ST/filex/common/src/fx_directory_create.c **** 
 856:Middlewares/ST/filex/common/src/fx_directory_create.c **** #ifdef FX_ENABLE_EXFAT
 857:Middlewares/ST/filex/common/src/fx_directory_create.c ****     }
 858:Middlewares/ST/filex/common/src/fx_directory_create.c **** #endif /* FX_ENABLE_EXFAT */
 859:Middlewares/ST/filex/common/src/fx_directory_create.c **** 
 860:Middlewares/ST/filex/common/src/fx_directory_create.c **** #ifdef FX_FAULT_TOLERANT
 861:Middlewares/ST/filex/common/src/fx_directory_create.c **** 
 862:Middlewares/ST/filex/common/src/fx_directory_create.c ****     /* Flush the cached individual FAT entries */
 863:Middlewares/ST/filex/common/src/fx_directory_create.c ****     _fx_utility_FAT_flush(media_ptr);
 864:Middlewares/ST/filex/common/src/fx_directory_create.c **** #endif
 865:Middlewares/ST/filex/common/src/fx_directory_create.c **** 
 866:Middlewares/ST/filex/common/src/fx_directory_create.c ****     /* Now write out the new directory entry.  */
 867:Middlewares/ST/filex/common/src/fx_directory_create.c **** #ifdef FX_ENABLE_EXFAT
 868:Middlewares/ST/filex/common/src/fx_directory_create.c ****     if (media_ptr -> fx_media_FAT_type == FX_exFAT)
 869:Middlewares/ST/filex/common/src/fx_directory_create.c ****     {
 870:Middlewares/ST/filex/common/src/fx_directory_create.c ****         status = _fx_directory_exFAT_entry_write(media_ptr, &dir_entry, UPDATE_FULL);
 871:Middlewares/ST/filex/common/src/fx_directory_create.c ****     }
 872:Middlewares/ST/filex/common/src/fx_directory_create.c ****     else
 873:Middlewares/ST/filex/common/src/fx_directory_create.c ****     {
 874:Middlewares/ST/filex/common/src/fx_directory_create.c **** #endif /* FX_ENABLE_EXFAT */
 875:Middlewares/ST/filex/common/src/fx_directory_create.c **** 
 876:Middlewares/ST/filex/common/src/fx_directory_create.c ****         status = _fx_directory_entry_write(media_ptr, &dir_entry);
 877:Middlewares/ST/filex/common/src/fx_directory_create.c **** #ifdef FX_ENABLE_EXFAT
 878:Middlewares/ST/filex/common/src/fx_directory_create.c ****     }
 879:Middlewares/ST/filex/common/src/fx_directory_create.c **** #endif /* FX_ENABLE_EXFAT */
 880:Middlewares/ST/filex/common/src/fx_directory_create.c **** 
 881:Middlewares/ST/filex/common/src/fx_directory_create.c **** #ifdef FX_ENABLE_FAULT_TOLERANT
 882:Middlewares/ST/filex/common/src/fx_directory_create.c ****     /* Check for a bad status.  */
 883:Middlewares/ST/filex/common/src/fx_directory_create.c ****     if (status != FX_SUCCESS)
 884:Middlewares/ST/filex/common/src/fx_directory_create.c ****     {
 885:Middlewares/ST/filex/common/src/fx_directory_create.c ****         FX_FAULT_TOLERANT_TRANSACTION_FAIL(media_ptr);
 886:Middlewares/ST/filex/common/src/fx_directory_create.c **** 
 887:Middlewares/ST/filex/common/src/fx_directory_create.c ****         /* Release media protection.  */
 888:Middlewares/ST/filex/common/src/fx_directory_create.c ****         FX_UNPROTECT
 889:Middlewares/ST/filex/common/src/fx_directory_create.c **** 
 890:Middlewares/ST/filex/common/src/fx_directory_create.c ****         /* Return the bad status.  */
 891:Middlewares/ST/filex/common/src/fx_directory_create.c ****         return(status);
 892:Middlewares/ST/filex/common/src/fx_directory_create.c ****     }
 893:Middlewares/ST/filex/common/src/fx_directory_create.c **** 
 894:Middlewares/ST/filex/common/src/fx_directory_create.c ****     /* End transaction. */
 895:Middlewares/ST/filex/common/src/fx_directory_create.c ****     status = _fx_fault_tolerant_transaction_end(media_ptr);
 896:Middlewares/ST/filex/common/src/fx_directory_create.c **** #endif /* FX_ENABLE_FAULT_TOLERANT */
 897:Middlewares/ST/filex/common/src/fx_directory_create.c **** 
 898:Middlewares/ST/filex/common/src/fx_directory_create.c ****     /* Release media protection.  */
 899:Middlewares/ST/filex/common/src/fx_directory_create.c ****     FX_UNPROTECT
 900:Middlewares/ST/filex/common/src/fx_directory_create.c **** 
 901:Middlewares/ST/filex/common/src/fx_directory_create.c ****     /* Directory create is complete, return status.  */
 902:Middlewares/ST/filex/common/src/fx_directory_create.c ****     return(status);
 903:Middlewares/ST/filex/common/src/fx_directory_create.c **** }
ARM GAS  C:\Users\HP\AppData\Local\Temp\cc6zmzy4.s 			page 20


 167              		.loc 1 903 1 view .LVU58
 168 006c 2046     		mov	r0, r4
 169 006e 5BB0     		add	sp, sp, #364
 170              	.LCFI2:
 171              		.cfi_remember_state
 172              		.cfi_def_cfa_offset 36
 173              		@ sp needed
 174 0070 BDE8F08F 		pop	{r4, r5, r6, r7, r8, r9, r10, fp, pc}
 175              	.LVL11:
 176              	.L44:
 177              	.LCFI3:
 178              		.cfi_restore_state
 185:Middlewares/ST/filex/common/src/fx_directory_create.c **** 
 179              		.loc 1 185 5 is_stmt 1 discriminator 2 view .LVU59
 185:Middlewares/ST/filex/common/src/fx_directory_create.c **** 
 180              		.loc 1 185 5 discriminator 2 view .LVU60
 181 0074 05F5E478 		add	r8, r5, #456
 182 0078 4FF0FF31 		mov	r1, #-1
 183              	.LVL12:
 185:Middlewares/ST/filex/common/src/fx_directory_create.c **** 
 184              		.loc 1 185 5 is_stmt 0 discriminator 2 view .LVU61
 185 007c 4046     		mov	r0, r8
 186              	.LVL13:
 185:Middlewares/ST/filex/common/src/fx_directory_create.c **** 
 187              		.loc 1 185 5 discriminator 2 view .LVU62
 188 007e FFF7FEFF 		bl	_tx_mutex_get
 189              	.LVL14:
 190 0082 0028     		cmp	r0, #0
 191 0084 40F07481 		bne	.L41
 188:Middlewares/ST/filex/common/src/fx_directory_create.c ****     {
 192              		.loc 1 188 5 is_stmt 1 view .LVU63
 188:Middlewares/ST/filex/common/src/fx_directory_create.c ****     {
 193              		.loc 1 188 19 is_stmt 0 view .LVU64
 194 0088 D5F8A830 		ldr	r3, [r5, #168]
 188:Middlewares/ST/filex/common/src/fx_directory_create.c ****     {
 195              		.loc 1 188 8 view .LVU65
 196 008c D3B9     		cbnz	r3, .L45
 199:Middlewares/ST/filex/common/src/fx_directory_create.c ****     {
 197              		.loc 1 199 5 is_stmt 1 view .LVU66
 199:Middlewares/ST/filex/common/src/fx_directory_create.c ****     {
 198              		.loc 1 199 20 is_stmt 0 view .LVU67
 199 008e EB6F     		ldr	r3, [r5, #124]
 199:Middlewares/ST/filex/common/src/fx_directory_create.c ****     {
 200              		.loc 1 199 8 view .LVU68
 201 0090 EBB1     		cbz	r3, .L46
 210:Middlewares/ST/filex/common/src/fx_directory_create.c **** 
 202              		.loc 1 210 5 is_stmt 1 view .LVU69
 210:Middlewares/ST/filex/common/src/fx_directory_create.c **** 
 203              		.loc 1 210 15 is_stmt 0 view .LVU70
 204 0092 58AB     		add	r3, sp, #352
 205 0094 0093     		str	r3, [sp]
 206 0096 04AB     		add	r3, sp, #16
 207 0098 3CAA     		add	r2, sp, #240
 208 009a 3146     		mov	r1, r6
 209 009c 2846     		mov	r0, r5
 210 009e FFF7FEFF 		bl	_fx_directory_search
 211              	.LVL15:
ARM GAS  C:\Users\HP\AppData\Local\Temp\cc6zmzy4.s 			page 21


 213:Middlewares/ST/filex/common/src/fx_directory_create.c ****     {
 212              		.loc 1 213 5 is_stmt 1 view .LVU71
 213:Middlewares/ST/filex/common/src/fx_directory_create.c ****     {
 213              		.loc 1 213 8 is_stmt 0 view .LVU72
 214 00a2 C8B1     		cbz	r0, .L47
 224:Middlewares/ST/filex/common/src/fx_directory_create.c ****     {
 215              		.loc 1 224 5 is_stmt 1 view .LVU73
 224:Middlewares/ST/filex/common/src/fx_directory_create.c ****     {
 216              		.loc 1 224 9 is_stmt 0 view .LVU74
 217 00a4 3C99     		ldr	r1, [sp, #240]
 218 00a6 5898     		ldr	r0, [sp, #352]
 219              	.LVL16:
 224:Middlewares/ST/filex/common/src/fx_directory_create.c ****     {
 220              		.loc 1 224 9 view .LVU75
 221 00a8 FFF7FEFF 		bl	_fx_directory_name_extract
 222              	.LVL17:
 224:Middlewares/ST/filex/common/src/fx_directory_create.c ****     {
 223              		.loc 1 224 8 view .LVU76
 224 00ac C8B9     		cbnz	r0, .L48
 260:Middlewares/ST/filex/common/src/fx_directory_create.c **** 
 225              		.loc 1 260 5 is_stmt 1 view .LVU77
 260:Middlewares/ST/filex/common/src/fx_directory_create.c **** 
 226              		.loc 1 260 15 is_stmt 0 view .LVU78
 227 00ae 3CAA     		add	r2, sp, #240
 228 00b0 04A9     		add	r1, sp, #16
 229 00b2 2846     		mov	r0, r5
 230 00b4 FFF7FEFF 		bl	_fx_directory_free_search
 231              	.LVL18:
 263:Middlewares/ST/filex/common/src/fx_directory_create.c ****     {
 232              		.loc 1 263 5 is_stmt 1 view .LVU79
 263:Middlewares/ST/filex/common/src/fx_directory_create.c ****     {
 233              		.loc 1 263 8 is_stmt 0 view .LVU80
 234 00b8 0446     		mov	r4, r0
 235              	.LVL19:
 263:Middlewares/ST/filex/common/src/fx_directory_create.c ****     {
 236              		.loc 1 263 8 view .LVU81
 237 00ba B8B9     		cbnz	r0, .L49
 306:Middlewares/ST/filex/common/src/fx_directory_create.c ****         total_clusters =    media_ptr -> fx_media_total_clusters;
 238              		.loc 1 306 9 is_stmt 1 view .LVU82
 306:Middlewares/ST/filex/common/src/fx_directory_create.c ****         total_clusters =    media_ptr -> fx_media_total_clusters;
 239              		.loc 1 306 22 is_stmt 0 view .LVU83
 240 00bc D5F88060 		ldr	r6, [r5, #128]
 241              	.LVL20:
 307:Middlewares/ST/filex/common/src/fx_directory_create.c **** 
 242              		.loc 1 307 9 is_stmt 1 view .LVU84
 307:Middlewares/ST/filex/common/src/fx_directory_create.c **** 
 243              		.loc 1 307 24 is_stmt 0 view .LVU85
 244 00c0 2F6C     		ldr	r7, [r5, #64]
 245              	.LVL21:
 307:Middlewares/ST/filex/common/src/fx_directory_create.c **** 
 246              		.loc 1 307 24 view .LVU86
 247 00c2 18E0     		b	.L13
 248              	.LVL22:
 249              	.L45:
 192:Middlewares/ST/filex/common/src/fx_directory_create.c **** 
 250              		.loc 1 192 9 is_stmt 1 view .LVU87
 251 00c4 4046     		mov	r0, r8
ARM GAS  C:\Users\HP\AppData\Local\Temp\cc6zmzy4.s 			page 22


 252 00c6 FFF7FEFF 		bl	_tx_mutex_put
 253              	.LVL23:
 195:Middlewares/ST/filex/common/src/fx_directory_create.c ****     }
 254              		.loc 1 195 9 view .LVU88
 195:Middlewares/ST/filex/common/src/fx_directory_create.c ****     }
 255              		.loc 1 195 15 is_stmt 0 view .LVU89
 256 00ca 2324     		movs	r4, #35
 257              	.LVL24:
 195:Middlewares/ST/filex/common/src/fx_directory_create.c ****     }
 258              		.loc 1 195 15 view .LVU90
 259 00cc CEE7     		b	.L1
 260              	.LVL25:
 261              	.L46:
 203:Middlewares/ST/filex/common/src/fx_directory_create.c **** 
 262              		.loc 1 203 9 is_stmt 1 view .LVU91
 263 00ce 4046     		mov	r0, r8
 264 00d0 FFF7FEFF 		bl	_tx_mutex_put
 265              	.LVL26:
 206:Middlewares/ST/filex/common/src/fx_directory_create.c ****     }
 266              		.loc 1 206 9 view .LVU92
 206:Middlewares/ST/filex/common/src/fx_directory_create.c ****     }
 267              		.loc 1 206 15 is_stmt 0 view .LVU93
 268 00d4 0A24     		movs	r4, #10
 269              	.LVL27:
 206:Middlewares/ST/filex/common/src/fx_directory_create.c ****     }
 270              		.loc 1 206 15 view .LVU94
 271 00d6 C9E7     		b	.L1
 272              	.LVL28:
 273              	.L47:
 217:Middlewares/ST/filex/common/src/fx_directory_create.c **** 
 274              		.loc 1 217 9 is_stmt 1 view .LVU95
 275 00d8 4046     		mov	r0, r8
 276              	.LVL29:
 217:Middlewares/ST/filex/common/src/fx_directory_create.c **** 
 277              		.loc 1 217 9 is_stmt 0 view .LVU96
 278 00da FFF7FEFF 		bl	_tx_mutex_put
 279              	.LVL30:
 220:Middlewares/ST/filex/common/src/fx_directory_create.c ****     }
 280              		.loc 1 220 9 is_stmt 1 view .LVU97
 220:Middlewares/ST/filex/common/src/fx_directory_create.c ****     }
 281              		.loc 1 220 15 is_stmt 0 view .LVU98
 282 00de 0B24     		movs	r4, #11
 283              	.LVL31:
 220:Middlewares/ST/filex/common/src/fx_directory_create.c ****     }
 284              		.loc 1 220 15 view .LVU99
 285 00e0 C4E7     		b	.L1
 286              	.LVL32:
 287              	.L48:
 228:Middlewares/ST/filex/common/src/fx_directory_create.c **** 
 288              		.loc 1 228 9 is_stmt 1 view .LVU100
 289 00e2 4046     		mov	r0, r8
 290 00e4 FFF7FEFF 		bl	_tx_mutex_put
 291              	.LVL33:
 232:Middlewares/ST/filex/common/src/fx_directory_create.c ****     }
 292              		.loc 1 232 9 view .LVU101
 232:Middlewares/ST/filex/common/src/fx_directory_create.c ****     }
 293              		.loc 1 232 15 is_stmt 0 view .LVU102
ARM GAS  C:\Users\HP\AppData\Local\Temp\cc6zmzy4.s 			page 23


 294 00e8 0D24     		movs	r4, #13
 295              	.LVL34:
 232:Middlewares/ST/filex/common/src/fx_directory_create.c ****     }
 296              		.loc 1 232 15 view .LVU103
 297 00ea BFE7     		b	.L1
 298              	.LVL35:
 299              	.L49:
 271:Middlewares/ST/filex/common/src/fx_directory_create.c **** 
 300              		.loc 1 271 9 is_stmt 1 view .LVU104
 301 00ec 4046     		mov	r0, r8
 302              	.LVL36:
 271:Middlewares/ST/filex/common/src/fx_directory_create.c **** 
 303              		.loc 1 271 9 is_stmt 0 view .LVU105
 304 00ee FFF7FEFF 		bl	_tx_mutex_put
 305              	.LVL37:
 274:Middlewares/ST/filex/common/src/fx_directory_create.c ****     }
 306              		.loc 1 274 9 is_stmt 1 view .LVU106
 274:Middlewares/ST/filex/common/src/fx_directory_create.c ****     }
 307              		.loc 1 274 15 is_stmt 0 view .LVU107
 308 00f2 BBE7     		b	.L1
 309              	.LVL38:
 310              	.L42:
 379:Middlewares/ST/filex/common/src/fx_directory_create.c ****                 }
 311              		.loc 1 379 31 view .LVU108
 312 00f4 0226     		movs	r6, #2
 313              	.LVL39:
 314              	.L13:
 310:Middlewares/ST/filex/common/src/fx_directory_create.c ****         {
 315              		.loc 1 310 9 is_stmt 1 view .LVU109
 314:Middlewares/ST/filex/common/src/fx_directory_create.c ****             {
 316              		.loc 1 314 13 view .LVU110
 314:Middlewares/ST/filex/common/src/fx_directory_create.c ****             {
 317              		.loc 1 314 16 is_stmt 0 view .LVU111
 318 00f6 7FB1     		cbz	r7, .L50
 330:Middlewares/ST/filex/common/src/fx_directory_create.c **** 
 319              		.loc 1 330 13 is_stmt 1 view .LVU112
 330:Middlewares/ST/filex/common/src/fx_directory_create.c **** 
 320              		.loc 1 330 23 is_stmt 0 view .LVU113
 321 00f8 59AA     		add	r2, sp, #356
 322 00fa 3146     		mov	r1, r6
 323 00fc 2846     		mov	r0, r5
 324              	.LVL40:
 330:Middlewares/ST/filex/common/src/fx_directory_create.c **** 
 325              		.loc 1 330 23 view .LVU114
 326 00fe FFF7FEFF 		bl	_fx_utility_FAT_entry_read
 327              	.LVL41:
 333:Middlewares/ST/filex/common/src/fx_directory_create.c ****             {
 328              		.loc 1 333 13 is_stmt 1 view .LVU115
 333:Middlewares/ST/filex/common/src/fx_directory_create.c ****             {
 329              		.loc 1 333 16 is_stmt 0 view .LVU116
 330 0102 0446     		mov	r4, r0
 331 0104 68B9     		cbnz	r0, .L51
 348:Middlewares/ST/filex/common/src/fx_directory_create.c **** 
 332              		.loc 1 348 13 is_stmt 1 view .LVU117
 348:Middlewares/ST/filex/common/src/fx_directory_create.c **** 
 333              		.loc 1 348 27 is_stmt 0 view .LVU118
 334 0106 013F     		subs	r7, r7, #1
ARM GAS  C:\Users\HP\AppData\Local\Temp\cc6zmzy4.s 			page 24


 335              	.LVL42:
 351:Middlewares/ST/filex/common/src/fx_directory_create.c ****             {
 336              		.loc 1 351 13 is_stmt 1 view .LVU119
 351:Middlewares/ST/filex/common/src/fx_directory_create.c ****             {
 337              		.loc 1 351 27 is_stmt 0 view .LVU120
 338 0108 599B     		ldr	r3, [sp, #356]
 351:Middlewares/ST/filex/common/src/fx_directory_create.c ****             {
 339              		.loc 1 351 16 view .LVU121
 340 010a 73B1     		cbz	r3, .L52
 372:Middlewares/ST/filex/common/src/fx_directory_create.c **** 
 341              		.loc 1 372 17 is_stmt 1 view .LVU122
 372:Middlewares/ST/filex/common/src/fx_directory_create.c **** 
 342              		.loc 1 372 26 is_stmt 0 view .LVU123
 343 010c 0136     		adds	r6, r6, #1
 344              	.LVL43:
 375:Middlewares/ST/filex/common/src/fx_directory_create.c ****                 {
 345              		.loc 1 375 17 is_stmt 1 view .LVU124
 375:Middlewares/ST/filex/common/src/fx_directory_create.c ****                 {
 346              		.loc 1 375 45 is_stmt 0 view .LVU125
 347 010e 2B6C     		ldr	r3, [r5, #64]
 375:Middlewares/ST/filex/common/src/fx_directory_create.c ****                 {
 348              		.loc 1 375 72 view .LVU126
 349 0110 0233     		adds	r3, r3, #2
 375:Middlewares/ST/filex/common/src/fx_directory_create.c ****                 {
 350              		.loc 1 375 20 view .LVU127
 351 0112 B342     		cmp	r3, r6
 352 0114 EED9     		bls	.L42
 353 0116 EEE7     		b	.L13
 354              	.L50:
 322:Middlewares/ST/filex/common/src/fx_directory_create.c **** 
 355              		.loc 1 322 17 is_stmt 1 view .LVU128
 356 0118 4046     		mov	r0, r8
 357              	.LVL44:
 322:Middlewares/ST/filex/common/src/fx_directory_create.c **** 
 358              		.loc 1 322 17 is_stmt 0 view .LVU129
 359 011a FFF7FEFF 		bl	_tx_mutex_put
 360              	.LVL45:
 326:Middlewares/ST/filex/common/src/fx_directory_create.c ****             }
 361              		.loc 1 326 17 is_stmt 1 view .LVU130
 326:Middlewares/ST/filex/common/src/fx_directory_create.c ****             }
 362              		.loc 1 326 23 is_stmt 0 view .LVU131
 363 011e 0A24     		movs	r4, #10
 364              	.LVL46:
 326:Middlewares/ST/filex/common/src/fx_directory_create.c ****             }
 365              		.loc 1 326 23 view .LVU132
 366 0120 A4E7     		b	.L1
 367              	.LVL47:
 368              	.L51:
 341:Middlewares/ST/filex/common/src/fx_directory_create.c **** 
 369              		.loc 1 341 17 is_stmt 1 view .LVU133
 370 0122 4046     		mov	r0, r8
 371              	.LVL48:
 341:Middlewares/ST/filex/common/src/fx_directory_create.c **** 
 372              		.loc 1 341 17 is_stmt 0 view .LVU134
 373 0124 FFF7FEFF 		bl	_tx_mutex_put
 374              	.LVL49:
 344:Middlewares/ST/filex/common/src/fx_directory_create.c ****             }
ARM GAS  C:\Users\HP\AppData\Local\Temp\cc6zmzy4.s 			page 25


 375              		.loc 1 344 17 is_stmt 1 view .LVU135
 344:Middlewares/ST/filex/common/src/fx_directory_create.c ****             }
 376              		.loc 1 344 23 is_stmt 0 view .LVU136
 377 0128 A0E7     		b	.L1
 378              	.LVL50:
 379              	.L52:
 355:Middlewares/ST/filex/common/src/fx_directory_create.c **** 
 380              		.loc 1 355 17 is_stmt 1 view .LVU137
 355:Middlewares/ST/filex/common/src/fx_directory_create.c **** 
 381              		.loc 1 355 73 is_stmt 0 view .LVU138
 382 012a 721C     		adds	r2, r6, #1
 355:Middlewares/ST/filex/common/src/fx_directory_create.c **** 
 383              		.loc 1 355 60 view .LVU139
 384 012c C5F88020 		str	r2, [r5, #128]
 358:Middlewares/ST/filex/common/src/fx_directory_create.c ****                 {
 385              		.loc 1 358 17 is_stmt 1 view .LVU140
 358:Middlewares/ST/filex/common/src/fx_directory_create.c ****                 {
 386              		.loc 1 358 78 is_stmt 0 view .LVU141
 387 0130 2B6C     		ldr	r3, [r5, #64]
 358:Middlewares/ST/filex/common/src/fx_directory_create.c ****                 {
 388              		.loc 1 358 105 view .LVU142
 389 0132 0233     		adds	r3, r3, #2
 358:Middlewares/ST/filex/common/src/fx_directory_create.c ****                 {
 390              		.loc 1 358 20 view .LVU143
 391 0134 9A42     		cmp	r2, r3
 392 0136 02D3     		bcc	.L17
 362:Middlewares/ST/filex/common/src/fx_directory_create.c ****                 }
 393              		.loc 1 362 21 is_stmt 1 view .LVU144
 362:Middlewares/ST/filex/common/src/fx_directory_create.c ****                 }
 394              		.loc 1 362 64 is_stmt 0 view .LVU145
 395 0138 0223     		movs	r3, #2
 396 013a C5F88030 		str	r3, [r5, #128]
 397              	.L17:
 366:Middlewares/ST/filex/common/src/fx_directory_create.c ****             }
 398              		.loc 1 366 17 is_stmt 1 view .LVU146
 388:Middlewares/ST/filex/common/src/fx_directory_create.c **** 
 399              		.loc 1 388 5 view .LVU147
 388:Middlewares/ST/filex/common/src/fx_directory_create.c **** 
 400              		.loc 1 388 15 is_stmt 0 view .LVU148
 401 013e EB6F     		ldr	r3, [r5, #124]
 388:Middlewares/ST/filex/common/src/fx_directory_create.c **** 
 402              		.loc 1 388 45 view .LVU149
 403 0140 013B     		subs	r3, r3, #1
 404 0142 EB67     		str	r3, [r5, #124]
 397:Middlewares/ST/filex/common/src/fx_directory_create.c **** 
 405              		.loc 1 397 5 is_stmt 1 view .LVU150
 406 0144 3C99     		ldr	r1, [sp, #240]
 407 0146 5898     		ldr	r0, [sp, #352]
 408              	.LVL51:
 397:Middlewares/ST/filex/common/src/fx_directory_create.c **** 
 409              		.loc 1 397 5 is_stmt 0 view .LVU151
 410 0148 FFF7FEFF 		bl	_fx_directory_name_extract
 411              	.LVL52:
 400:Middlewares/ST/filex/common/src/fx_directory_create.c **** 
 412              		.loc 1 400 5 is_stmt 1 view .LVU152
 413              	.LBB10:
 414              	.LBI10:
ARM GAS  C:\Users\HP\AppData\Local\Temp\cc6zmzy4.s 			page 26


 415              		.file 2 "Middlewares/ST/threadx/ports/cortex_m4/gnu/inc/tx_port.h"
   1:Middlewares/ST/threadx/ports/cortex_m4/gnu/inc/tx_port.h **** /**************************************************************************/
   2:Middlewares/ST/threadx/ports/cortex_m4/gnu/inc/tx_port.h **** /*                                                                        */
   3:Middlewares/ST/threadx/ports/cortex_m4/gnu/inc/tx_port.h **** /*       Copyright (c) Microsoft Corporation. All rights reserved.        */
   4:Middlewares/ST/threadx/ports/cortex_m4/gnu/inc/tx_port.h **** /*                                                                        */
   5:Middlewares/ST/threadx/ports/cortex_m4/gnu/inc/tx_port.h **** /*       This software is licensed under the Microsoft Software License   */
   6:Middlewares/ST/threadx/ports/cortex_m4/gnu/inc/tx_port.h **** /*       Terms for Microsoft Azure RTOS. Full text of the license can be  */
   7:Middlewares/ST/threadx/ports/cortex_m4/gnu/inc/tx_port.h **** /*       found in the LICENSE file at https://aka.ms/AzureRTOS_EULA       */
   8:Middlewares/ST/threadx/ports/cortex_m4/gnu/inc/tx_port.h **** /*       and in the root directory of this software.                      */
   9:Middlewares/ST/threadx/ports/cortex_m4/gnu/inc/tx_port.h **** /*                                                                        */
  10:Middlewares/ST/threadx/ports/cortex_m4/gnu/inc/tx_port.h **** /**************************************************************************/
  11:Middlewares/ST/threadx/ports/cortex_m4/gnu/inc/tx_port.h **** 
  12:Middlewares/ST/threadx/ports/cortex_m4/gnu/inc/tx_port.h **** 
  13:Middlewares/ST/threadx/ports/cortex_m4/gnu/inc/tx_port.h **** /**************************************************************************/
  14:Middlewares/ST/threadx/ports/cortex_m4/gnu/inc/tx_port.h **** /**************************************************************************/
  15:Middlewares/ST/threadx/ports/cortex_m4/gnu/inc/tx_port.h **** /**                                                                       */
  16:Middlewares/ST/threadx/ports/cortex_m4/gnu/inc/tx_port.h **** /** ThreadX Component                                                     */
  17:Middlewares/ST/threadx/ports/cortex_m4/gnu/inc/tx_port.h **** /**                                                                       */
  18:Middlewares/ST/threadx/ports/cortex_m4/gnu/inc/tx_port.h **** /**   Port Specific                                                       */
  19:Middlewares/ST/threadx/ports/cortex_m4/gnu/inc/tx_port.h **** /**                                                                       */
  20:Middlewares/ST/threadx/ports/cortex_m4/gnu/inc/tx_port.h **** /**************************************************************************/
  21:Middlewares/ST/threadx/ports/cortex_m4/gnu/inc/tx_port.h **** /**************************************************************************/
  22:Middlewares/ST/threadx/ports/cortex_m4/gnu/inc/tx_port.h **** 
  23:Middlewares/ST/threadx/ports/cortex_m4/gnu/inc/tx_port.h **** 
  24:Middlewares/ST/threadx/ports/cortex_m4/gnu/inc/tx_port.h **** /**************************************************************************/
  25:Middlewares/ST/threadx/ports/cortex_m4/gnu/inc/tx_port.h **** /*                                                                        */
  26:Middlewares/ST/threadx/ports/cortex_m4/gnu/inc/tx_port.h **** /*  PORT SPECIFIC C INFORMATION                            RELEASE        */
  27:Middlewares/ST/threadx/ports/cortex_m4/gnu/inc/tx_port.h **** /*                                                                        */
  28:Middlewares/ST/threadx/ports/cortex_m4/gnu/inc/tx_port.h **** /*    tx_port.h                                         Cortex-M4/GNU     */
  29:Middlewares/ST/threadx/ports/cortex_m4/gnu/inc/tx_port.h **** /*                                                           6.1.12       */
  30:Middlewares/ST/threadx/ports/cortex_m4/gnu/inc/tx_port.h **** /*                                                                        */
  31:Middlewares/ST/threadx/ports/cortex_m4/gnu/inc/tx_port.h **** /*  AUTHOR                                                                */
  32:Middlewares/ST/threadx/ports/cortex_m4/gnu/inc/tx_port.h **** /*                                                                        */
  33:Middlewares/ST/threadx/ports/cortex_m4/gnu/inc/tx_port.h **** /*    Scott Larson, Microsoft Corporation                                 */
  34:Middlewares/ST/threadx/ports/cortex_m4/gnu/inc/tx_port.h **** /*                                                                        */
  35:Middlewares/ST/threadx/ports/cortex_m4/gnu/inc/tx_port.h **** /*  DESCRIPTION                                                           */
  36:Middlewares/ST/threadx/ports/cortex_m4/gnu/inc/tx_port.h **** /*                                                                        */
  37:Middlewares/ST/threadx/ports/cortex_m4/gnu/inc/tx_port.h **** /*    This file contains data type definitions that make the ThreadX      */
  38:Middlewares/ST/threadx/ports/cortex_m4/gnu/inc/tx_port.h **** /*    real-time kernel function identically on a variety of different     */
  39:Middlewares/ST/threadx/ports/cortex_m4/gnu/inc/tx_port.h **** /*    processor architectures.  For example, the size or number of bits   */
  40:Middlewares/ST/threadx/ports/cortex_m4/gnu/inc/tx_port.h **** /*    in an "int" data type vary between microprocessor architectures and */
  41:Middlewares/ST/threadx/ports/cortex_m4/gnu/inc/tx_port.h **** /*    even C compilers for the same microprocessor.  ThreadX does not     */
  42:Middlewares/ST/threadx/ports/cortex_m4/gnu/inc/tx_port.h **** /*    directly use native C data types.  Instead, ThreadX creates its     */
  43:Middlewares/ST/threadx/ports/cortex_m4/gnu/inc/tx_port.h **** /*    own special types that can be mapped to actual data types by this   */
  44:Middlewares/ST/threadx/ports/cortex_m4/gnu/inc/tx_port.h **** /*    file to guarantee consistency in the interface and functionality.   */
  45:Middlewares/ST/threadx/ports/cortex_m4/gnu/inc/tx_port.h **** /*                                                                        */
  46:Middlewares/ST/threadx/ports/cortex_m4/gnu/inc/tx_port.h **** /*    This file replaces the previous Cortex-M3/M4/M7 files. It unifies   */
  47:Middlewares/ST/threadx/ports/cortex_m4/gnu/inc/tx_port.h **** /*    the ARMv7-M architecture and compilers into one common file.        */
  48:Middlewares/ST/threadx/ports/cortex_m4/gnu/inc/tx_port.h **** /*                                                                        */
  49:Middlewares/ST/threadx/ports/cortex_m4/gnu/inc/tx_port.h **** /*  RELEASE HISTORY                                                       */
  50:Middlewares/ST/threadx/ports/cortex_m4/gnu/inc/tx_port.h **** /*                                                                        */
  51:Middlewares/ST/threadx/ports/cortex_m4/gnu/inc/tx_port.h **** /*    DATE              NAME                      DESCRIPTION             */
  52:Middlewares/ST/threadx/ports/cortex_m4/gnu/inc/tx_port.h **** /*                                                                        */
  53:Middlewares/ST/threadx/ports/cortex_m4/gnu/inc/tx_port.h **** /*  06-02-2021      Scott Larson            Initial Version 6.1.7         */
  54:Middlewares/ST/threadx/ports/cortex_m4/gnu/inc/tx_port.h **** /*  01-31-2022      Scott Larson            Modified comments, updated    */
  55:Middlewares/ST/threadx/ports/cortex_m4/gnu/inc/tx_port.h **** /*                                            typedef to fix misra        */
  56:Middlewares/ST/threadx/ports/cortex_m4/gnu/inc/tx_port.h **** /*                                            violation,                  */
ARM GAS  C:\Users\HP\AppData\Local\Temp\cc6zmzy4.s 			page 27


  57:Middlewares/ST/threadx/ports/cortex_m4/gnu/inc/tx_port.h **** /*                                            fixed predefined macro,     */
  58:Middlewares/ST/threadx/ports/cortex_m4/gnu/inc/tx_port.h **** /*                                            resulting in version 6.1.10 */
  59:Middlewares/ST/threadx/ports/cortex_m4/gnu/inc/tx_port.h **** /*  04-25-2022      Scott Larson            Modified comments and added   */
  60:Middlewares/ST/threadx/ports/cortex_m4/gnu/inc/tx_port.h **** /*                                            volatile to registers,      */
  61:Middlewares/ST/threadx/ports/cortex_m4/gnu/inc/tx_port.h **** /*                                            resulting in version 6.1.11 */
  62:Middlewares/ST/threadx/ports/cortex_m4/gnu/inc/tx_port.h **** /*  07-29-2022      Scott Larson            Modified comments and         */
  63:Middlewares/ST/threadx/ports/cortex_m4/gnu/inc/tx_port.h **** /*                                            described BASEPRI usage,    */
  64:Middlewares/ST/threadx/ports/cortex_m4/gnu/inc/tx_port.h **** /*                                            resulting in version 6.1.12 */
  65:Middlewares/ST/threadx/ports/cortex_m4/gnu/inc/tx_port.h **** /*                                                                        */
  66:Middlewares/ST/threadx/ports/cortex_m4/gnu/inc/tx_port.h **** /**************************************************************************/
  67:Middlewares/ST/threadx/ports/cortex_m4/gnu/inc/tx_port.h **** 
  68:Middlewares/ST/threadx/ports/cortex_m4/gnu/inc/tx_port.h **** #ifndef TX_PORT_H
  69:Middlewares/ST/threadx/ports/cortex_m4/gnu/inc/tx_port.h **** #define TX_PORT_H
  70:Middlewares/ST/threadx/ports/cortex_m4/gnu/inc/tx_port.h **** 
  71:Middlewares/ST/threadx/ports/cortex_m4/gnu/inc/tx_port.h **** 
  72:Middlewares/ST/threadx/ports/cortex_m4/gnu/inc/tx_port.h **** /* Determine if the optional ThreadX user define file should be used.  */
  73:Middlewares/ST/threadx/ports/cortex_m4/gnu/inc/tx_port.h **** 
  74:Middlewares/ST/threadx/ports/cortex_m4/gnu/inc/tx_port.h **** #ifdef TX_INCLUDE_USER_DEFINE_FILE
  75:Middlewares/ST/threadx/ports/cortex_m4/gnu/inc/tx_port.h **** 
  76:Middlewares/ST/threadx/ports/cortex_m4/gnu/inc/tx_port.h **** /* Yes, include the user defines in tx_user.h. The defines in this file may
  77:Middlewares/ST/threadx/ports/cortex_m4/gnu/inc/tx_port.h ****    alternately be defined on the command line.  */
  78:Middlewares/ST/threadx/ports/cortex_m4/gnu/inc/tx_port.h **** 
  79:Middlewares/ST/threadx/ports/cortex_m4/gnu/inc/tx_port.h **** #include "tx_user.h"
  80:Middlewares/ST/threadx/ports/cortex_m4/gnu/inc/tx_port.h **** #endif
  81:Middlewares/ST/threadx/ports/cortex_m4/gnu/inc/tx_port.h **** 
  82:Middlewares/ST/threadx/ports/cortex_m4/gnu/inc/tx_port.h **** 
  83:Middlewares/ST/threadx/ports/cortex_m4/gnu/inc/tx_port.h **** /* Define compiler library include files.  */
  84:Middlewares/ST/threadx/ports/cortex_m4/gnu/inc/tx_port.h **** 
  85:Middlewares/ST/threadx/ports/cortex_m4/gnu/inc/tx_port.h **** #include <stdlib.h>
  86:Middlewares/ST/threadx/ports/cortex_m4/gnu/inc/tx_port.h **** #include <string.h>
  87:Middlewares/ST/threadx/ports/cortex_m4/gnu/inc/tx_port.h **** 
  88:Middlewares/ST/threadx/ports/cortex_m4/gnu/inc/tx_port.h **** #ifdef __ICCARM__
  89:Middlewares/ST/threadx/ports/cortex_m4/gnu/inc/tx_port.h **** #include <intrinsics.h>                     /* IAR Intrinsics */
  90:Middlewares/ST/threadx/ports/cortex_m4/gnu/inc/tx_port.h **** #define __asm__ __asm                       /* Define to make all inline asm look similar */
  91:Middlewares/ST/threadx/ports/cortex_m4/gnu/inc/tx_port.h **** #ifdef  TX_ENABLE_IAR_LIBRARY_SUPPORT
  92:Middlewares/ST/threadx/ports/cortex_m4/gnu/inc/tx_port.h **** #include <yvals.h>
  93:Middlewares/ST/threadx/ports/cortex_m4/gnu/inc/tx_port.h **** #endif
  94:Middlewares/ST/threadx/ports/cortex_m4/gnu/inc/tx_port.h **** #endif /* __ICCARM__ */
  95:Middlewares/ST/threadx/ports/cortex_m4/gnu/inc/tx_port.h **** 
  96:Middlewares/ST/threadx/ports/cortex_m4/gnu/inc/tx_port.h **** #ifdef __ghs__
  97:Middlewares/ST/threadx/ports/cortex_m4/gnu/inc/tx_port.h **** #include <arm_ghs.h>
  98:Middlewares/ST/threadx/ports/cortex_m4/gnu/inc/tx_port.h **** #include "tx_ghs.h"
  99:Middlewares/ST/threadx/ports/cortex_m4/gnu/inc/tx_port.h **** #endif  /* __ghs__ */
 100:Middlewares/ST/threadx/ports/cortex_m4/gnu/inc/tx_port.h **** 
 101:Middlewares/ST/threadx/ports/cortex_m4/gnu/inc/tx_port.h **** 
 102:Middlewares/ST/threadx/ports/cortex_m4/gnu/inc/tx_port.h **** #if !defined(__GNUC__) && !defined(__CC_ARM)
 103:Middlewares/ST/threadx/ports/cortex_m4/gnu/inc/tx_port.h **** #define __get_control_value __get_CONTROL
 104:Middlewares/ST/threadx/ports/cortex_m4/gnu/inc/tx_port.h **** #define __set_control_value __set_CONTROL
 105:Middlewares/ST/threadx/ports/cortex_m4/gnu/inc/tx_port.h **** #endif
 106:Middlewares/ST/threadx/ports/cortex_m4/gnu/inc/tx_port.h **** 
 107:Middlewares/ST/threadx/ports/cortex_m4/gnu/inc/tx_port.h **** #ifndef __GNUC__
 108:Middlewares/ST/threadx/ports/cortex_m4/gnu/inc/tx_port.h **** #define __get_ipsr_value __get_IPSR
 109:Middlewares/ST/threadx/ports/cortex_m4/gnu/inc/tx_port.h **** #endif
 110:Middlewares/ST/threadx/ports/cortex_m4/gnu/inc/tx_port.h **** 
 111:Middlewares/ST/threadx/ports/cortex_m4/gnu/inc/tx_port.h **** /* Define ThreadX basic types for this port.  */
 112:Middlewares/ST/threadx/ports/cortex_m4/gnu/inc/tx_port.h **** 
 113:Middlewares/ST/threadx/ports/cortex_m4/gnu/inc/tx_port.h **** #define VOID                                    void
ARM GAS  C:\Users\HP\AppData\Local\Temp\cc6zmzy4.s 			page 28


 114:Middlewares/ST/threadx/ports/cortex_m4/gnu/inc/tx_port.h **** typedef char                                    CHAR;
 115:Middlewares/ST/threadx/ports/cortex_m4/gnu/inc/tx_port.h **** typedef unsigned char                           UCHAR;
 116:Middlewares/ST/threadx/ports/cortex_m4/gnu/inc/tx_port.h **** typedef int                                     INT;
 117:Middlewares/ST/threadx/ports/cortex_m4/gnu/inc/tx_port.h **** typedef unsigned int                            UINT;
 118:Middlewares/ST/threadx/ports/cortex_m4/gnu/inc/tx_port.h **** typedef long                                    LONG;
 119:Middlewares/ST/threadx/ports/cortex_m4/gnu/inc/tx_port.h **** typedef unsigned long                           ULONG;
 120:Middlewares/ST/threadx/ports/cortex_m4/gnu/inc/tx_port.h **** typedef unsigned long long                      ULONG64;
 121:Middlewares/ST/threadx/ports/cortex_m4/gnu/inc/tx_port.h **** typedef short                                   SHORT;
 122:Middlewares/ST/threadx/ports/cortex_m4/gnu/inc/tx_port.h **** typedef unsigned short                          USHORT;
 123:Middlewares/ST/threadx/ports/cortex_m4/gnu/inc/tx_port.h **** #define ULONG64_DEFINED
 124:Middlewares/ST/threadx/ports/cortex_m4/gnu/inc/tx_port.h **** 
 125:Middlewares/ST/threadx/ports/cortex_m4/gnu/inc/tx_port.h **** /* Define the priority levels for ThreadX.  Legal values range
 126:Middlewares/ST/threadx/ports/cortex_m4/gnu/inc/tx_port.h ****    from 32 to 1024 and MUST be evenly divisible by 32.  */
 127:Middlewares/ST/threadx/ports/cortex_m4/gnu/inc/tx_port.h **** 
 128:Middlewares/ST/threadx/ports/cortex_m4/gnu/inc/tx_port.h **** #ifndef TX_MAX_PRIORITIES
 129:Middlewares/ST/threadx/ports/cortex_m4/gnu/inc/tx_port.h **** #define TX_MAX_PRIORITIES                       32
 130:Middlewares/ST/threadx/ports/cortex_m4/gnu/inc/tx_port.h **** #endif
 131:Middlewares/ST/threadx/ports/cortex_m4/gnu/inc/tx_port.h **** 
 132:Middlewares/ST/threadx/ports/cortex_m4/gnu/inc/tx_port.h **** 
 133:Middlewares/ST/threadx/ports/cortex_m4/gnu/inc/tx_port.h **** /* Define the minimum stack for a ThreadX thread on this processor. If the size supplied during
 134:Middlewares/ST/threadx/ports/cortex_m4/gnu/inc/tx_port.h ****    thread creation is less than this value, the thread create call will return an error.  */
 135:Middlewares/ST/threadx/ports/cortex_m4/gnu/inc/tx_port.h **** 
 136:Middlewares/ST/threadx/ports/cortex_m4/gnu/inc/tx_port.h **** #ifndef TX_MINIMUM_STACK
 137:Middlewares/ST/threadx/ports/cortex_m4/gnu/inc/tx_port.h **** #define TX_MINIMUM_STACK                        200         /* Minimum stack size for this port  */
 138:Middlewares/ST/threadx/ports/cortex_m4/gnu/inc/tx_port.h **** #endif
 139:Middlewares/ST/threadx/ports/cortex_m4/gnu/inc/tx_port.h **** 
 140:Middlewares/ST/threadx/ports/cortex_m4/gnu/inc/tx_port.h **** 
 141:Middlewares/ST/threadx/ports/cortex_m4/gnu/inc/tx_port.h **** /* Define the system timer thread's default stack size and priority.  These are only applicable
 142:Middlewares/ST/threadx/ports/cortex_m4/gnu/inc/tx_port.h ****    if TX_TIMER_PROCESS_IN_ISR is not defined.  */
 143:Middlewares/ST/threadx/ports/cortex_m4/gnu/inc/tx_port.h **** 
 144:Middlewares/ST/threadx/ports/cortex_m4/gnu/inc/tx_port.h **** #ifndef TX_TIMER_THREAD_STACK_SIZE
 145:Middlewares/ST/threadx/ports/cortex_m4/gnu/inc/tx_port.h **** #define TX_TIMER_THREAD_STACK_SIZE              1024        /* Default timer thread stack size  */
 146:Middlewares/ST/threadx/ports/cortex_m4/gnu/inc/tx_port.h **** #endif
 147:Middlewares/ST/threadx/ports/cortex_m4/gnu/inc/tx_port.h **** 
 148:Middlewares/ST/threadx/ports/cortex_m4/gnu/inc/tx_port.h **** #ifndef TX_TIMER_THREAD_PRIORITY
 149:Middlewares/ST/threadx/ports/cortex_m4/gnu/inc/tx_port.h **** #define TX_TIMER_THREAD_PRIORITY                0           /* Default timer thread priority    */
 150:Middlewares/ST/threadx/ports/cortex_m4/gnu/inc/tx_port.h **** #endif
 151:Middlewares/ST/threadx/ports/cortex_m4/gnu/inc/tx_port.h **** 
 152:Middlewares/ST/threadx/ports/cortex_m4/gnu/inc/tx_port.h **** /* By default, ThreadX for Cortex-M uses the PRIMASK register to enable/disable interrupts.
 153:Middlewares/ST/threadx/ports/cortex_m4/gnu/inc/tx_port.h **** If using BASEPRI is desired, define the following two symbols for both c and assembly files:
 154:Middlewares/ST/threadx/ports/cortex_m4/gnu/inc/tx_port.h **** TX_PORT_USE_BASEPRI - This tells ThreadX to use BASEPRI instead of PRIMASK.
 155:Middlewares/ST/threadx/ports/cortex_m4/gnu/inc/tx_port.h **** TX_PORT_BASEPRI = (priority_mask << (8 - number_priority_bits)) - this defines the maximum priority
 156:Middlewares/ST/threadx/ports/cortex_m4/gnu/inc/tx_port.h **** Any interrupt with a higher priority than priority_mask will not be masked, thus the interrupt will
 157:Middlewares/ST/threadx/ports/cortex_m4/gnu/inc/tx_port.h **** */
 158:Middlewares/ST/threadx/ports/cortex_m4/gnu/inc/tx_port.h **** 
 159:Middlewares/ST/threadx/ports/cortex_m4/gnu/inc/tx_port.h **** /* Define various constants for the ThreadX Cortex-M port.  */
 160:Middlewares/ST/threadx/ports/cortex_m4/gnu/inc/tx_port.h **** 
 161:Middlewares/ST/threadx/ports/cortex_m4/gnu/inc/tx_port.h **** #define TX_INT_DISABLE                          1           /* Disable interrupts               */
 162:Middlewares/ST/threadx/ports/cortex_m4/gnu/inc/tx_port.h **** #define TX_INT_ENABLE                           0           /* Enable interrupts                */
 163:Middlewares/ST/threadx/ports/cortex_m4/gnu/inc/tx_port.h **** 
 164:Middlewares/ST/threadx/ports/cortex_m4/gnu/inc/tx_port.h **** 
 165:Middlewares/ST/threadx/ports/cortex_m4/gnu/inc/tx_port.h **** /* Define the clock source for trace event entry time stamp. The following two item are port specif
 166:Middlewares/ST/threadx/ports/cortex_m4/gnu/inc/tx_port.h ****    For example, if the time source is at the address 0x0a800024 and is 16-bits in size, the clock
 167:Middlewares/ST/threadx/ports/cortex_m4/gnu/inc/tx_port.h ****    source constants would be:
 168:Middlewares/ST/threadx/ports/cortex_m4/gnu/inc/tx_port.h **** 
 169:Middlewares/ST/threadx/ports/cortex_m4/gnu/inc/tx_port.h **** #define TX_TRACE_TIME_SOURCE                    *((volatile ULONG *) 0x0a800024)
 170:Middlewares/ST/threadx/ports/cortex_m4/gnu/inc/tx_port.h **** #define TX_TRACE_TIME_MASK                      0x0000FFFFUL
ARM GAS  C:\Users\HP\AppData\Local\Temp\cc6zmzy4.s 			page 29


 171:Middlewares/ST/threadx/ports/cortex_m4/gnu/inc/tx_port.h **** 
 172:Middlewares/ST/threadx/ports/cortex_m4/gnu/inc/tx_port.h **** */
 173:Middlewares/ST/threadx/ports/cortex_m4/gnu/inc/tx_port.h **** 
 174:Middlewares/ST/threadx/ports/cortex_m4/gnu/inc/tx_port.h **** #ifndef TX_MISRA_ENABLE
 175:Middlewares/ST/threadx/ports/cortex_m4/gnu/inc/tx_port.h **** #ifndef TX_TRACE_TIME_SOURCE
 176:Middlewares/ST/threadx/ports/cortex_m4/gnu/inc/tx_port.h **** #define TX_TRACE_TIME_SOURCE                    *((volatile ULONG *) 0xE0001004)
 177:Middlewares/ST/threadx/ports/cortex_m4/gnu/inc/tx_port.h **** #endif
 178:Middlewares/ST/threadx/ports/cortex_m4/gnu/inc/tx_port.h **** #else
 179:Middlewares/ST/threadx/ports/cortex_m4/gnu/inc/tx_port.h **** ULONG   _tx_misra_time_stamp_get(VOID);
 180:Middlewares/ST/threadx/ports/cortex_m4/gnu/inc/tx_port.h **** #define TX_TRACE_TIME_SOURCE                    _tx_misra_time_stamp_get()
 181:Middlewares/ST/threadx/ports/cortex_m4/gnu/inc/tx_port.h **** #endif
 182:Middlewares/ST/threadx/ports/cortex_m4/gnu/inc/tx_port.h **** 
 183:Middlewares/ST/threadx/ports/cortex_m4/gnu/inc/tx_port.h **** #ifndef TX_TRACE_TIME_MASK
 184:Middlewares/ST/threadx/ports/cortex_m4/gnu/inc/tx_port.h **** #define TX_TRACE_TIME_MASK                      0xFFFFFFFFUL
 185:Middlewares/ST/threadx/ports/cortex_m4/gnu/inc/tx_port.h **** #endif
 186:Middlewares/ST/threadx/ports/cortex_m4/gnu/inc/tx_port.h **** 
 187:Middlewares/ST/threadx/ports/cortex_m4/gnu/inc/tx_port.h **** #ifdef __ghs__
 188:Middlewares/ST/threadx/ports/cortex_m4/gnu/inc/tx_port.h **** /* Define constants for Green Hills EventAnalyzer.  */
 189:Middlewares/ST/threadx/ports/cortex_m4/gnu/inc/tx_port.h **** 
 190:Middlewares/ST/threadx/ports/cortex_m4/gnu/inc/tx_port.h **** /* Define the number of ticks per second. This informs the EventAnalyzer what the timestamps
 191:Middlewares/ST/threadx/ports/cortex_m4/gnu/inc/tx_port.h ****    represent.  By default, this is set to 1,000,000 i.e., one tick every microsecond. */
 192:Middlewares/ST/threadx/ports/cortex_m4/gnu/inc/tx_port.h **** 
 193:Middlewares/ST/threadx/ports/cortex_m4/gnu/inc/tx_port.h **** #define TX_EL_TICKS_PER_SECOND                  1000000
 194:Middlewares/ST/threadx/ports/cortex_m4/gnu/inc/tx_port.h **** 
 195:Middlewares/ST/threadx/ports/cortex_m4/gnu/inc/tx_port.h **** /* Define the method of how to get the upper and lower 32-bits of the time stamp. By default, simpl
 196:Middlewares/ST/threadx/ports/cortex_m4/gnu/inc/tx_port.h ****    simulate the time-stamp source with a counter.  */
 197:Middlewares/ST/threadx/ports/cortex_m4/gnu/inc/tx_port.h **** 
 198:Middlewares/ST/threadx/ports/cortex_m4/gnu/inc/tx_port.h **** #define read_tbu()                              _tx_el_time_base_upper
 199:Middlewares/ST/threadx/ports/cortex_m4/gnu/inc/tx_port.h **** #define read_tbl()                              ++_tx_el_time_base_lower
 200:Middlewares/ST/threadx/ports/cortex_m4/gnu/inc/tx_port.h **** #endif  /* __ghs__ */
 201:Middlewares/ST/threadx/ports/cortex_m4/gnu/inc/tx_port.h **** 
 202:Middlewares/ST/threadx/ports/cortex_m4/gnu/inc/tx_port.h **** /* Define the port specific options for the _tx_build_options variable. This variable indicates
 203:Middlewares/ST/threadx/ports/cortex_m4/gnu/inc/tx_port.h ****    how the ThreadX library was built.  */
 204:Middlewares/ST/threadx/ports/cortex_m4/gnu/inc/tx_port.h **** 
 205:Middlewares/ST/threadx/ports/cortex_m4/gnu/inc/tx_port.h **** #define TX_PORT_SPECIFIC_BUILD_OPTIONS          (0)
 206:Middlewares/ST/threadx/ports/cortex_m4/gnu/inc/tx_port.h **** 
 207:Middlewares/ST/threadx/ports/cortex_m4/gnu/inc/tx_port.h **** 
 208:Middlewares/ST/threadx/ports/cortex_m4/gnu/inc/tx_port.h **** /* Define the in-line initialization constant so that modules with in-line
 209:Middlewares/ST/threadx/ports/cortex_m4/gnu/inc/tx_port.h ****    initialization capabilities can prevent their initialization from being
 210:Middlewares/ST/threadx/ports/cortex_m4/gnu/inc/tx_port.h ****    a function call.  */
 211:Middlewares/ST/threadx/ports/cortex_m4/gnu/inc/tx_port.h **** 
 212:Middlewares/ST/threadx/ports/cortex_m4/gnu/inc/tx_port.h **** #ifdef TX_MISRA_ENABLE
 213:Middlewares/ST/threadx/ports/cortex_m4/gnu/inc/tx_port.h **** #define TX_DISABLE_INLINE
 214:Middlewares/ST/threadx/ports/cortex_m4/gnu/inc/tx_port.h **** #else
 215:Middlewares/ST/threadx/ports/cortex_m4/gnu/inc/tx_port.h **** #define TX_INLINE_INITIALIZATION
 216:Middlewares/ST/threadx/ports/cortex_m4/gnu/inc/tx_port.h **** #endif
 217:Middlewares/ST/threadx/ports/cortex_m4/gnu/inc/tx_port.h **** 
 218:Middlewares/ST/threadx/ports/cortex_m4/gnu/inc/tx_port.h **** 
 219:Middlewares/ST/threadx/ports/cortex_m4/gnu/inc/tx_port.h **** /* Determine whether or not stack checking is enabled. By default, ThreadX stack checking is
 220:Middlewares/ST/threadx/ports/cortex_m4/gnu/inc/tx_port.h ****    disabled. When the following is defined, ThreadX thread stack checking is enabled.  If stack
 221:Middlewares/ST/threadx/ports/cortex_m4/gnu/inc/tx_port.h ****    checking is enabled (TX_ENABLE_STACK_CHECKING is defined), the TX_DISABLE_STACK_FILLING
 222:Middlewares/ST/threadx/ports/cortex_m4/gnu/inc/tx_port.h ****    define is negated, thereby forcing the stack fill which is necessary for the stack checking
 223:Middlewares/ST/threadx/ports/cortex_m4/gnu/inc/tx_port.h ****    logic.  */
 224:Middlewares/ST/threadx/ports/cortex_m4/gnu/inc/tx_port.h **** 
 225:Middlewares/ST/threadx/ports/cortex_m4/gnu/inc/tx_port.h **** #ifndef TX_MISRA_ENABLE
 226:Middlewares/ST/threadx/ports/cortex_m4/gnu/inc/tx_port.h **** #ifdef TX_ENABLE_STACK_CHECKING
 227:Middlewares/ST/threadx/ports/cortex_m4/gnu/inc/tx_port.h **** #undef TX_DISABLE_STACK_FILLING
ARM GAS  C:\Users\HP\AppData\Local\Temp\cc6zmzy4.s 			page 30


 228:Middlewares/ST/threadx/ports/cortex_m4/gnu/inc/tx_port.h **** #endif
 229:Middlewares/ST/threadx/ports/cortex_m4/gnu/inc/tx_port.h **** #endif
 230:Middlewares/ST/threadx/ports/cortex_m4/gnu/inc/tx_port.h **** 
 231:Middlewares/ST/threadx/ports/cortex_m4/gnu/inc/tx_port.h **** 
 232:Middlewares/ST/threadx/ports/cortex_m4/gnu/inc/tx_port.h **** /* Define the TX_THREAD control block extensions for this port. The main reason
 233:Middlewares/ST/threadx/ports/cortex_m4/gnu/inc/tx_port.h ****    for the multiple macros is so that backward compatibility can be maintained with
 234:Middlewares/ST/threadx/ports/cortex_m4/gnu/inc/tx_port.h ****    existing ThreadX kernel awareness modules.  */
 235:Middlewares/ST/threadx/ports/cortex_m4/gnu/inc/tx_port.h **** 
 236:Middlewares/ST/threadx/ports/cortex_m4/gnu/inc/tx_port.h **** #define TX_THREAD_EXTENSION_0
 237:Middlewares/ST/threadx/ports/cortex_m4/gnu/inc/tx_port.h **** #define TX_THREAD_EXTENSION_1
 238:Middlewares/ST/threadx/ports/cortex_m4/gnu/inc/tx_port.h **** #ifdef  TX_ENABLE_IAR_LIBRARY_SUPPORT
 239:Middlewares/ST/threadx/ports/cortex_m4/gnu/inc/tx_port.h **** #define TX_THREAD_EXTENSION_2           VOID    *tx_thread_iar_tls_pointer;
 240:Middlewares/ST/threadx/ports/cortex_m4/gnu/inc/tx_port.h **** #elif defined(__ghs__)
 241:Middlewares/ST/threadx/ports/cortex_m4/gnu/inc/tx_port.h **** #define TX_THREAD_EXTENSION_2           VOID *  tx_thread_eh_globals;                           \
 242:Middlewares/ST/threadx/ports/cortex_m4/gnu/inc/tx_port.h ****                                         int     Errno;             /* errno.  */                \
 243:Middlewares/ST/threadx/ports/cortex_m4/gnu/inc/tx_port.h ****                                         char *  strtok_saved_pos;  /* strtok() position.  */
 244:Middlewares/ST/threadx/ports/cortex_m4/gnu/inc/tx_port.h **** #else
 245:Middlewares/ST/threadx/ports/cortex_m4/gnu/inc/tx_port.h **** #define TX_THREAD_EXTENSION_2
 246:Middlewares/ST/threadx/ports/cortex_m4/gnu/inc/tx_port.h **** #endif
 247:Middlewares/ST/threadx/ports/cortex_m4/gnu/inc/tx_port.h **** 
 248:Middlewares/ST/threadx/ports/cortex_m4/gnu/inc/tx_port.h **** 
 249:Middlewares/ST/threadx/ports/cortex_m4/gnu/inc/tx_port.h **** #define TX_THREAD_EXTENSION_3
 250:Middlewares/ST/threadx/ports/cortex_m4/gnu/inc/tx_port.h **** 
 251:Middlewares/ST/threadx/ports/cortex_m4/gnu/inc/tx_port.h **** 
 252:Middlewares/ST/threadx/ports/cortex_m4/gnu/inc/tx_port.h **** 
 253:Middlewares/ST/threadx/ports/cortex_m4/gnu/inc/tx_port.h **** /* Define the port extensions of the remaining ThreadX objects.  */
 254:Middlewares/ST/threadx/ports/cortex_m4/gnu/inc/tx_port.h **** 
 255:Middlewares/ST/threadx/ports/cortex_m4/gnu/inc/tx_port.h **** #define TX_BLOCK_POOL_EXTENSION
 256:Middlewares/ST/threadx/ports/cortex_m4/gnu/inc/tx_port.h **** #define TX_BYTE_POOL_EXTENSION
 257:Middlewares/ST/threadx/ports/cortex_m4/gnu/inc/tx_port.h **** #define TX_EVENT_FLAGS_GROUP_EXTENSION
 258:Middlewares/ST/threadx/ports/cortex_m4/gnu/inc/tx_port.h **** #define TX_MUTEX_EXTENSION
 259:Middlewares/ST/threadx/ports/cortex_m4/gnu/inc/tx_port.h **** #define TX_QUEUE_EXTENSION
 260:Middlewares/ST/threadx/ports/cortex_m4/gnu/inc/tx_port.h **** #define TX_SEMAPHORE_EXTENSION
 261:Middlewares/ST/threadx/ports/cortex_m4/gnu/inc/tx_port.h **** #define TX_TIMER_EXTENSION
 262:Middlewares/ST/threadx/ports/cortex_m4/gnu/inc/tx_port.h **** 
 263:Middlewares/ST/threadx/ports/cortex_m4/gnu/inc/tx_port.h **** 
 264:Middlewares/ST/threadx/ports/cortex_m4/gnu/inc/tx_port.h **** /* Define the user extension field of the thread control block.  Nothing
 265:Middlewares/ST/threadx/ports/cortex_m4/gnu/inc/tx_port.h ****    additional is needed for this port so it is defined as white space.  */
 266:Middlewares/ST/threadx/ports/cortex_m4/gnu/inc/tx_port.h **** 
 267:Middlewares/ST/threadx/ports/cortex_m4/gnu/inc/tx_port.h **** #ifndef TX_THREAD_USER_EXTENSION
 268:Middlewares/ST/threadx/ports/cortex_m4/gnu/inc/tx_port.h **** #define TX_THREAD_USER_EXTENSION
 269:Middlewares/ST/threadx/ports/cortex_m4/gnu/inc/tx_port.h **** #endif
 270:Middlewares/ST/threadx/ports/cortex_m4/gnu/inc/tx_port.h **** 
 271:Middlewares/ST/threadx/ports/cortex_m4/gnu/inc/tx_port.h **** 
 272:Middlewares/ST/threadx/ports/cortex_m4/gnu/inc/tx_port.h **** /* Define the macros for processing extensions in tx_thread_create, tx_thread_delete,
 273:Middlewares/ST/threadx/ports/cortex_m4/gnu/inc/tx_port.h ****    tx_thread_shell_entry, and tx_thread_terminate.  */
 274:Middlewares/ST/threadx/ports/cortex_m4/gnu/inc/tx_port.h **** 
 275:Middlewares/ST/threadx/ports/cortex_m4/gnu/inc/tx_port.h **** 
 276:Middlewares/ST/threadx/ports/cortex_m4/gnu/inc/tx_port.h **** #ifdef  TX_ENABLE_IAR_LIBRARY_SUPPORT
 277:Middlewares/ST/threadx/ports/cortex_m4/gnu/inc/tx_port.h **** #if (__VER__ < 8000000)
 278:Middlewares/ST/threadx/ports/cortex_m4/gnu/inc/tx_port.h **** #define TX_THREAD_CREATE_EXTENSION(thread_ptr)                      thread_ptr -> tx_thread_iar_tls
 279:Middlewares/ST/threadx/ports/cortex_m4/gnu/inc/tx_port.h **** #define TX_THREAD_DELETE_EXTENSION(thread_ptr)                      __iar_dlib_perthread_deallocate
 280:Middlewares/ST/threadx/ports/cortex_m4/gnu/inc/tx_port.h ****                                                                     thread_ptr -> tx_thread_iar_tls
 281:Middlewares/ST/threadx/ports/cortex_m4/gnu/inc/tx_port.h **** #define TX_PORT_SPECIFIC_PRE_SCHEDULER_INITIALIZATION               __iar_dlib_perthread_access(0);
 282:Middlewares/ST/threadx/ports/cortex_m4/gnu/inc/tx_port.h **** #else
 283:Middlewares/ST/threadx/ports/cortex_m4/gnu/inc/tx_port.h **** void    *_tx_iar_create_per_thread_tls_area(void);
 284:Middlewares/ST/threadx/ports/cortex_m4/gnu/inc/tx_port.h **** void    _tx_iar_destroy_per_thread_tls_area(void *tls_ptr);
ARM GAS  C:\Users\HP\AppData\Local\Temp\cc6zmzy4.s 			page 31


 285:Middlewares/ST/threadx/ports/cortex_m4/gnu/inc/tx_port.h **** void    __iar_Initlocks(void);
 286:Middlewares/ST/threadx/ports/cortex_m4/gnu/inc/tx_port.h **** 
 287:Middlewares/ST/threadx/ports/cortex_m4/gnu/inc/tx_port.h **** #define TX_THREAD_CREATE_EXTENSION(thread_ptr)                      thread_ptr -> tx_thread_iar_tls
 288:Middlewares/ST/threadx/ports/cortex_m4/gnu/inc/tx_port.h **** #define TX_THREAD_DELETE_EXTENSION(thread_ptr)                      do {_tx_iar_destroy_per_thread_
 289:Middlewares/ST/threadx/ports/cortex_m4/gnu/inc/tx_port.h ****                                                                         thread_ptr -> tx_thread_iar
 290:Middlewares/ST/threadx/ports/cortex_m4/gnu/inc/tx_port.h **** #define TX_PORT_SPECIFIC_PRE_SCHEDULER_INITIALIZATION               do {__iar_Initlocks();} while(0
 291:Middlewares/ST/threadx/ports/cortex_m4/gnu/inc/tx_port.h **** #endif
 292:Middlewares/ST/threadx/ports/cortex_m4/gnu/inc/tx_port.h **** #else
 293:Middlewares/ST/threadx/ports/cortex_m4/gnu/inc/tx_port.h **** #define TX_THREAD_CREATE_EXTENSION(thread_ptr)
 294:Middlewares/ST/threadx/ports/cortex_m4/gnu/inc/tx_port.h **** #define TX_THREAD_DELETE_EXTENSION(thread_ptr)
 295:Middlewares/ST/threadx/ports/cortex_m4/gnu/inc/tx_port.h **** #endif
 296:Middlewares/ST/threadx/ports/cortex_m4/gnu/inc/tx_port.h **** 
 297:Middlewares/ST/threadx/ports/cortex_m4/gnu/inc/tx_port.h **** #if defined(__ARMVFP__) || defined(__ARM_PCS_VFP) || defined(__ARM_FP) || defined(__TARGET_FPU_VFP)
 298:Middlewares/ST/threadx/ports/cortex_m4/gnu/inc/tx_port.h **** 
 299:Middlewares/ST/threadx/ports/cortex_m4/gnu/inc/tx_port.h **** #ifdef TX_MISRA_ENABLE
 300:Middlewares/ST/threadx/ports/cortex_m4/gnu/inc/tx_port.h **** 
 301:Middlewares/ST/threadx/ports/cortex_m4/gnu/inc/tx_port.h **** ULONG  _tx_misra_control_get(void);
 302:Middlewares/ST/threadx/ports/cortex_m4/gnu/inc/tx_port.h **** void   _tx_misra_control_set(ULONG value);
 303:Middlewares/ST/threadx/ports/cortex_m4/gnu/inc/tx_port.h **** ULONG  _tx_misra_fpccr_get(void);
 304:Middlewares/ST/threadx/ports/cortex_m4/gnu/inc/tx_port.h **** void   _tx_misra_vfp_touch(void);
 305:Middlewares/ST/threadx/ports/cortex_m4/gnu/inc/tx_port.h **** 
 306:Middlewares/ST/threadx/ports/cortex_m4/gnu/inc/tx_port.h **** #else   /* TX_MISRA_ENABLE not defined */
 307:Middlewares/ST/threadx/ports/cortex_m4/gnu/inc/tx_port.h **** 
 308:Middlewares/ST/threadx/ports/cortex_m4/gnu/inc/tx_port.h **** /* Define some helper functions (these are intrinsics in some compilers). */
 309:Middlewares/ST/threadx/ports/cortex_m4/gnu/inc/tx_port.h **** #ifdef __GNUC__ /* GCC and ARM Compiler 6 */
 310:Middlewares/ST/threadx/ports/cortex_m4/gnu/inc/tx_port.h **** 
 311:Middlewares/ST/threadx/ports/cortex_m4/gnu/inc/tx_port.h **** __attribute__( ( always_inline ) ) static inline ULONG __get_control_value(void)
 312:Middlewares/ST/threadx/ports/cortex_m4/gnu/inc/tx_port.h **** {
 313:Middlewares/ST/threadx/ports/cortex_m4/gnu/inc/tx_port.h **** ULONG  control_value;
 314:Middlewares/ST/threadx/ports/cortex_m4/gnu/inc/tx_port.h **** 
 315:Middlewares/ST/threadx/ports/cortex_m4/gnu/inc/tx_port.h ****     __asm__ volatile (" MRS  %0,CONTROL ": "=r" (control_value) );
 316:Middlewares/ST/threadx/ports/cortex_m4/gnu/inc/tx_port.h ****     return(control_value);
 317:Middlewares/ST/threadx/ports/cortex_m4/gnu/inc/tx_port.h **** }
 318:Middlewares/ST/threadx/ports/cortex_m4/gnu/inc/tx_port.h **** 
 319:Middlewares/ST/threadx/ports/cortex_m4/gnu/inc/tx_port.h **** __attribute__( ( always_inline ) ) static inline void __set_control_value(ULONG control_value)
 320:Middlewares/ST/threadx/ports/cortex_m4/gnu/inc/tx_port.h **** {
 321:Middlewares/ST/threadx/ports/cortex_m4/gnu/inc/tx_port.h ****     __asm__ volatile (" MSR  CONTROL,%0": : "r" (control_value): "memory" );
 322:Middlewares/ST/threadx/ports/cortex_m4/gnu/inc/tx_port.h **** }
 323:Middlewares/ST/threadx/ports/cortex_m4/gnu/inc/tx_port.h **** 
 324:Middlewares/ST/threadx/ports/cortex_m4/gnu/inc/tx_port.h **** #define TX_VFP_TOUCH()  __asm__ volatile ("VMOV.F32 s0, s0");
 325:Middlewares/ST/threadx/ports/cortex_m4/gnu/inc/tx_port.h **** 
 326:Middlewares/ST/threadx/ports/cortex_m4/gnu/inc/tx_port.h **** #elif defined(__CC_ARM) /* ARM Compiler 5 */
 327:Middlewares/ST/threadx/ports/cortex_m4/gnu/inc/tx_port.h **** 
 328:Middlewares/ST/threadx/ports/cortex_m4/gnu/inc/tx_port.h **** __attribute__( ( always_inline ) ) ULONG __get_control_value(void)
 329:Middlewares/ST/threadx/ports/cortex_m4/gnu/inc/tx_port.h **** {
 330:Middlewares/ST/threadx/ports/cortex_m4/gnu/inc/tx_port.h **** ULONG  control_value;
 331:Middlewares/ST/threadx/ports/cortex_m4/gnu/inc/tx_port.h **** 
 332:Middlewares/ST/threadx/ports/cortex_m4/gnu/inc/tx_port.h ****     __asm volatile ("MRS control_value,CONTROL");
 333:Middlewares/ST/threadx/ports/cortex_m4/gnu/inc/tx_port.h ****     return(control_value);
 334:Middlewares/ST/threadx/ports/cortex_m4/gnu/inc/tx_port.h **** }
 335:Middlewares/ST/threadx/ports/cortex_m4/gnu/inc/tx_port.h **** 
 336:Middlewares/ST/threadx/ports/cortex_m4/gnu/inc/tx_port.h **** __attribute__( ( always_inline ) ) void __set_control_value(ULONG control_value)
 337:Middlewares/ST/threadx/ports/cortex_m4/gnu/inc/tx_port.h **** {
 338:Middlewares/ST/threadx/ports/cortex_m4/gnu/inc/tx_port.h ****     __asm__ volatile ("MSR CONTROL,control_value");
 339:Middlewares/ST/threadx/ports/cortex_m4/gnu/inc/tx_port.h **** }
 340:Middlewares/ST/threadx/ports/cortex_m4/gnu/inc/tx_port.h **** /* Can't access VFP registers with inline asm, so define this in tx_thread_schedule.  */
 341:Middlewares/ST/threadx/ports/cortex_m4/gnu/inc/tx_port.h **** void _tx_vfp_access(void);
ARM GAS  C:\Users\HP\AppData\Local\Temp\cc6zmzy4.s 			page 32


 342:Middlewares/ST/threadx/ports/cortex_m4/gnu/inc/tx_port.h **** #define TX_VFP_TOUCH()  _tx_vfp_access();
 343:Middlewares/ST/threadx/ports/cortex_m4/gnu/inc/tx_port.h **** 
 344:Middlewares/ST/threadx/ports/cortex_m4/gnu/inc/tx_port.h **** #elif defined(__ICCARM__)  /* IAR */
 345:Middlewares/ST/threadx/ports/cortex_m4/gnu/inc/tx_port.h **** #define TX_VFP_TOUCH()  __asm__ volatile ("VMOV.F32 s0, s0");
 346:Middlewares/ST/threadx/ports/cortex_m4/gnu/inc/tx_port.h **** #endif  /* Helper functions for different compilers */
 347:Middlewares/ST/threadx/ports/cortex_m4/gnu/inc/tx_port.h **** 
 348:Middlewares/ST/threadx/ports/cortex_m4/gnu/inc/tx_port.h **** #endif  /* TX_MISRA_ENABLE */
 349:Middlewares/ST/threadx/ports/cortex_m4/gnu/inc/tx_port.h **** 
 350:Middlewares/ST/threadx/ports/cortex_m4/gnu/inc/tx_port.h **** 
 351:Middlewares/ST/threadx/ports/cortex_m4/gnu/inc/tx_port.h **** /* A completed thread falls into _thread_shell_entry and we can simply deactivate the FPU via CONTR
 352:Middlewares/ST/threadx/ports/cortex_m4/gnu/inc/tx_port.h ****    in order to ensure no lazy stacking will occur. */
 353:Middlewares/ST/threadx/ports/cortex_m4/gnu/inc/tx_port.h **** 
 354:Middlewares/ST/threadx/ports/cortex_m4/gnu/inc/tx_port.h **** #ifndef TX_MISRA_ENABLE
 355:Middlewares/ST/threadx/ports/cortex_m4/gnu/inc/tx_port.h **** 
 356:Middlewares/ST/threadx/ports/cortex_m4/gnu/inc/tx_port.h **** #define TX_THREAD_COMPLETED_EXTENSION(thread_ptr)   {                                              
 357:Middlewares/ST/threadx/ports/cortex_m4/gnu/inc/tx_port.h ****                                                     ULONG  _tx_vfp_state;                          
 358:Middlewares/ST/threadx/ports/cortex_m4/gnu/inc/tx_port.h ****                                                         _tx_vfp_state =  __get_control_value();    
 359:Middlewares/ST/threadx/ports/cortex_m4/gnu/inc/tx_port.h ****                                                         _tx_vfp_state =  _tx_vfp_state & ~((ULONG) 
 360:Middlewares/ST/threadx/ports/cortex_m4/gnu/inc/tx_port.h ****                                                         __set_control_value(_tx_vfp_state);        
 361:Middlewares/ST/threadx/ports/cortex_m4/gnu/inc/tx_port.h ****                                                     }
 362:Middlewares/ST/threadx/ports/cortex_m4/gnu/inc/tx_port.h **** #else
 363:Middlewares/ST/threadx/ports/cortex_m4/gnu/inc/tx_port.h **** 
 364:Middlewares/ST/threadx/ports/cortex_m4/gnu/inc/tx_port.h **** #define TX_THREAD_COMPLETED_EXTENSION(thread_ptr)   {                                              
 365:Middlewares/ST/threadx/ports/cortex_m4/gnu/inc/tx_port.h ****                                                     ULONG  _tx_vfp_state;                          
 366:Middlewares/ST/threadx/ports/cortex_m4/gnu/inc/tx_port.h ****                                                         _tx_vfp_state =  _tx_misra_control_get();  
 367:Middlewares/ST/threadx/ports/cortex_m4/gnu/inc/tx_port.h ****                                                         _tx_vfp_state =  _tx_vfp_state & ~((ULONG) 
 368:Middlewares/ST/threadx/ports/cortex_m4/gnu/inc/tx_port.h ****                                                         _tx_misra_control_set(_tx_vfp_state);      
 369:Middlewares/ST/threadx/ports/cortex_m4/gnu/inc/tx_port.h ****                                                     }
 370:Middlewares/ST/threadx/ports/cortex_m4/gnu/inc/tx_port.h **** 
 371:Middlewares/ST/threadx/ports/cortex_m4/gnu/inc/tx_port.h **** #endif
 372:Middlewares/ST/threadx/ports/cortex_m4/gnu/inc/tx_port.h **** 
 373:Middlewares/ST/threadx/ports/cortex_m4/gnu/inc/tx_port.h **** /* A thread can be terminated by another thread, so we first check if it's self-terminating and not
 374:Middlewares/ST/threadx/ports/cortex_m4/gnu/inc/tx_port.h ****    If so, deactivate the FPU via CONTROL.FPCA. Otherwise we are in an interrupt or another thread i
 375:Middlewares/ST/threadx/ports/cortex_m4/gnu/inc/tx_port.h ****    this one, so if the FPCCR.LSPACT bit is set, we need to save the CONTROL.FPCA state, touch the F
 376:Middlewares/ST/threadx/ports/cortex_m4/gnu/inc/tx_port.h ****    the lazy FPU save, then restore the CONTROL.FPCA state. */
 377:Middlewares/ST/threadx/ports/cortex_m4/gnu/inc/tx_port.h **** 
 378:Middlewares/ST/threadx/ports/cortex_m4/gnu/inc/tx_port.h **** #ifndef TX_MISRA_ENABLE
 379:Middlewares/ST/threadx/ports/cortex_m4/gnu/inc/tx_port.h **** 
 380:Middlewares/ST/threadx/ports/cortex_m4/gnu/inc/tx_port.h **** #define TX_THREAD_TERMINATED_EXTENSION(thread_ptr)  {                                              
 381:Middlewares/ST/threadx/ports/cortex_m4/gnu/inc/tx_port.h ****                                                     ULONG  _tx_system_state;                       
 382:Middlewares/ST/threadx/ports/cortex_m4/gnu/inc/tx_port.h ****                                                         _tx_system_state =  TX_THREAD_GET_SYSTEM_ST
 383:Middlewares/ST/threadx/ports/cortex_m4/gnu/inc/tx_port.h ****                                                         if ((_tx_system_state == ((ULONG) 0)) && ((
 384:Middlewares/ST/threadx/ports/cortex_m4/gnu/inc/tx_port.h ****                                                         {                                          
 385:Middlewares/ST/threadx/ports/cortex_m4/gnu/inc/tx_port.h ****                                                         ULONG  _tx_vfp_state;                      
 386:Middlewares/ST/threadx/ports/cortex_m4/gnu/inc/tx_port.h ****                                                             _tx_vfp_state =  __get_control_value();
 387:Middlewares/ST/threadx/ports/cortex_m4/gnu/inc/tx_port.h ****                                                             _tx_vfp_state =  _tx_vfp_state & ~((ULO
 388:Middlewares/ST/threadx/ports/cortex_m4/gnu/inc/tx_port.h ****                                                             __set_control_value(_tx_vfp_state);    
 389:Middlewares/ST/threadx/ports/cortex_m4/gnu/inc/tx_port.h ****                                                         }                                          
 390:Middlewares/ST/threadx/ports/cortex_m4/gnu/inc/tx_port.h ****                                                         else                                       
 391:Middlewares/ST/threadx/ports/cortex_m4/gnu/inc/tx_port.h ****                                                         {                                          
 392:Middlewares/ST/threadx/ports/cortex_m4/gnu/inc/tx_port.h ****                                                         ULONG  _tx_fpccr;                          
 393:Middlewares/ST/threadx/ports/cortex_m4/gnu/inc/tx_port.h ****                                                             _tx_fpccr =  *((volatile ULONG *) 0xE00
 394:Middlewares/ST/threadx/ports/cortex_m4/gnu/inc/tx_port.h ****                                                             _tx_fpccr =  _tx_fpccr & ((ULONG) 0x01)
 395:Middlewares/ST/threadx/ports/cortex_m4/gnu/inc/tx_port.h ****                                                             if (_tx_fpccr == ((ULONG) 0x01))       
 396:Middlewares/ST/threadx/ports/cortex_m4/gnu/inc/tx_port.h ****                                                             {                                      
 397:Middlewares/ST/threadx/ports/cortex_m4/gnu/inc/tx_port.h ****                                                             ULONG _tx_vfp_state;                   
 398:Middlewares/ST/threadx/ports/cortex_m4/gnu/inc/tx_port.h ****                                                                 _tx_vfp_state = __get_control_value
ARM GAS  C:\Users\HP\AppData\Local\Temp\cc6zmzy4.s 			page 33


 399:Middlewares/ST/threadx/ports/cortex_m4/gnu/inc/tx_port.h ****                                                                 _tx_vfp_state =  _tx_vfp_state & ((
 400:Middlewares/ST/threadx/ports/cortex_m4/gnu/inc/tx_port.h ****                                                                 TX_VFP_TOUCH();                    
 401:Middlewares/ST/threadx/ports/cortex_m4/gnu/inc/tx_port.h ****                                                                 if (_tx_vfp_state == ((ULONG) 0))  
 402:Middlewares/ST/threadx/ports/cortex_m4/gnu/inc/tx_port.h ****                                                                 {                                  
 403:Middlewares/ST/threadx/ports/cortex_m4/gnu/inc/tx_port.h ****                                                                     _tx_vfp_state =  __get_control_
 404:Middlewares/ST/threadx/ports/cortex_m4/gnu/inc/tx_port.h ****                                                                     _tx_vfp_state =  _tx_vfp_state 
 405:Middlewares/ST/threadx/ports/cortex_m4/gnu/inc/tx_port.h ****                                                                     __set_control_value(_tx_vfp_sta
 406:Middlewares/ST/threadx/ports/cortex_m4/gnu/inc/tx_port.h ****                                                                 }                                  
 407:Middlewares/ST/threadx/ports/cortex_m4/gnu/inc/tx_port.h ****                                                             }                                      
 408:Middlewares/ST/threadx/ports/cortex_m4/gnu/inc/tx_port.h ****                                                         }                                          
 409:Middlewares/ST/threadx/ports/cortex_m4/gnu/inc/tx_port.h ****                                                     }
 410:Middlewares/ST/threadx/ports/cortex_m4/gnu/inc/tx_port.h **** #else
 411:Middlewares/ST/threadx/ports/cortex_m4/gnu/inc/tx_port.h **** 
 412:Middlewares/ST/threadx/ports/cortex_m4/gnu/inc/tx_port.h **** #define TX_THREAD_TERMINATED_EXTENSION(thread_ptr)  {                                              
 413:Middlewares/ST/threadx/ports/cortex_m4/gnu/inc/tx_port.h ****                                                     ULONG  _tx_system_state;                       
 414:Middlewares/ST/threadx/ports/cortex_m4/gnu/inc/tx_port.h ****                                                         _tx_system_state =  TX_THREAD_GET_SYSTEM_ST
 415:Middlewares/ST/threadx/ports/cortex_m4/gnu/inc/tx_port.h ****                                                         if ((_tx_system_state == ((ULONG) 0)) && ((
 416:Middlewares/ST/threadx/ports/cortex_m4/gnu/inc/tx_port.h ****                                                         {                                          
 417:Middlewares/ST/threadx/ports/cortex_m4/gnu/inc/tx_port.h ****                                                         ULONG  _tx_vfp_state;                      
 418:Middlewares/ST/threadx/ports/cortex_m4/gnu/inc/tx_port.h ****                                                             _tx_vfp_state =  _tx_misra_control_get(
 419:Middlewares/ST/threadx/ports/cortex_m4/gnu/inc/tx_port.h ****                                                             _tx_vfp_state =  _tx_vfp_state & ~((ULO
 420:Middlewares/ST/threadx/ports/cortex_m4/gnu/inc/tx_port.h ****                                                             _tx_misra_control_set(_tx_vfp_state);  
 421:Middlewares/ST/threadx/ports/cortex_m4/gnu/inc/tx_port.h ****                                                         }                                          
 422:Middlewares/ST/threadx/ports/cortex_m4/gnu/inc/tx_port.h ****                                                         else                                       
 423:Middlewares/ST/threadx/ports/cortex_m4/gnu/inc/tx_port.h ****                                                         {                                          
 424:Middlewares/ST/threadx/ports/cortex_m4/gnu/inc/tx_port.h ****                                                         ULONG  _tx_fpccr;                          
 425:Middlewares/ST/threadx/ports/cortex_m4/gnu/inc/tx_port.h ****                                                             _tx_fpccr =  _tx_misra_fpccr_get();    
 426:Middlewares/ST/threadx/ports/cortex_m4/gnu/inc/tx_port.h ****                                                             _tx_fpccr =  _tx_fpccr & ((ULONG) 0x01)
 427:Middlewares/ST/threadx/ports/cortex_m4/gnu/inc/tx_port.h ****                                                             if (_tx_fpccr == ((ULONG) 0x01))       
 428:Middlewares/ST/threadx/ports/cortex_m4/gnu/inc/tx_port.h ****                                                             {                                      
 429:Middlewares/ST/threadx/ports/cortex_m4/gnu/inc/tx_port.h ****                                                             ULONG _tx_vfp_state;                   
 430:Middlewares/ST/threadx/ports/cortex_m4/gnu/inc/tx_port.h ****                                                                 _tx_vfp_state = _tx_misra_control_g
 431:Middlewares/ST/threadx/ports/cortex_m4/gnu/inc/tx_port.h ****                                                                 _tx_vfp_state =  _tx_vfp_state & ((
 432:Middlewares/ST/threadx/ports/cortex_m4/gnu/inc/tx_port.h ****                                                                 _tx_misra_vfp_touch();             
 433:Middlewares/ST/threadx/ports/cortex_m4/gnu/inc/tx_port.h ****                                                                 if (_tx_vfp_state == ((ULONG) 0))  
 434:Middlewares/ST/threadx/ports/cortex_m4/gnu/inc/tx_port.h ****                                                                 {                                  
 435:Middlewares/ST/threadx/ports/cortex_m4/gnu/inc/tx_port.h ****                                                                     _tx_vfp_state =  _tx_misra_cont
 436:Middlewares/ST/threadx/ports/cortex_m4/gnu/inc/tx_port.h ****                                                                     _tx_vfp_state =  _tx_vfp_state 
 437:Middlewares/ST/threadx/ports/cortex_m4/gnu/inc/tx_port.h ****                                                                     _tx_misra_control_set(_tx_vfp_s
 438:Middlewares/ST/threadx/ports/cortex_m4/gnu/inc/tx_port.h ****                                                                 }                                  
 439:Middlewares/ST/threadx/ports/cortex_m4/gnu/inc/tx_port.h ****                                                             }                                      
 440:Middlewares/ST/threadx/ports/cortex_m4/gnu/inc/tx_port.h ****                                                         }                                          
 441:Middlewares/ST/threadx/ports/cortex_m4/gnu/inc/tx_port.h ****                                                     }
 442:Middlewares/ST/threadx/ports/cortex_m4/gnu/inc/tx_port.h **** #endif
 443:Middlewares/ST/threadx/ports/cortex_m4/gnu/inc/tx_port.h **** 
 444:Middlewares/ST/threadx/ports/cortex_m4/gnu/inc/tx_port.h **** #else   /* No VFP in use */
 445:Middlewares/ST/threadx/ports/cortex_m4/gnu/inc/tx_port.h **** 
 446:Middlewares/ST/threadx/ports/cortex_m4/gnu/inc/tx_port.h **** #define TX_THREAD_COMPLETED_EXTENSION(thread_ptr)
 447:Middlewares/ST/threadx/ports/cortex_m4/gnu/inc/tx_port.h **** #define TX_THREAD_TERMINATED_EXTENSION(thread_ptr)
 448:Middlewares/ST/threadx/ports/cortex_m4/gnu/inc/tx_port.h **** 
 449:Middlewares/ST/threadx/ports/cortex_m4/gnu/inc/tx_port.h **** #endif  /* defined(__ARMVFP__) || defined(__ARM_PCS_VFP) || defined(__ARM_FP) || defined(__TARGET_F
 450:Middlewares/ST/threadx/ports/cortex_m4/gnu/inc/tx_port.h **** 
 451:Middlewares/ST/threadx/ports/cortex_m4/gnu/inc/tx_port.h **** 
 452:Middlewares/ST/threadx/ports/cortex_m4/gnu/inc/tx_port.h **** /* Define the ThreadX object creation extensions for the remaining objects.  */
 453:Middlewares/ST/threadx/ports/cortex_m4/gnu/inc/tx_port.h **** 
 454:Middlewares/ST/threadx/ports/cortex_m4/gnu/inc/tx_port.h **** #define TX_BLOCK_POOL_CREATE_EXTENSION(pool_ptr)
 455:Middlewares/ST/threadx/ports/cortex_m4/gnu/inc/tx_port.h **** #define TX_BYTE_POOL_CREATE_EXTENSION(pool_ptr)
ARM GAS  C:\Users\HP\AppData\Local\Temp\cc6zmzy4.s 			page 34


 456:Middlewares/ST/threadx/ports/cortex_m4/gnu/inc/tx_port.h **** #define TX_EVENT_FLAGS_GROUP_CREATE_EXTENSION(group_ptr)
 457:Middlewares/ST/threadx/ports/cortex_m4/gnu/inc/tx_port.h **** #define TX_MUTEX_CREATE_EXTENSION(mutex_ptr)
 458:Middlewares/ST/threadx/ports/cortex_m4/gnu/inc/tx_port.h **** #define TX_QUEUE_CREATE_EXTENSION(queue_ptr)
 459:Middlewares/ST/threadx/ports/cortex_m4/gnu/inc/tx_port.h **** #define TX_SEMAPHORE_CREATE_EXTENSION(semaphore_ptr)
 460:Middlewares/ST/threadx/ports/cortex_m4/gnu/inc/tx_port.h **** #define TX_TIMER_CREATE_EXTENSION(timer_ptr)
 461:Middlewares/ST/threadx/ports/cortex_m4/gnu/inc/tx_port.h **** 
 462:Middlewares/ST/threadx/ports/cortex_m4/gnu/inc/tx_port.h **** 
 463:Middlewares/ST/threadx/ports/cortex_m4/gnu/inc/tx_port.h **** /* Define the ThreadX object deletion extensions for the remaining objects.  */
 464:Middlewares/ST/threadx/ports/cortex_m4/gnu/inc/tx_port.h **** 
 465:Middlewares/ST/threadx/ports/cortex_m4/gnu/inc/tx_port.h **** #define TX_BLOCK_POOL_DELETE_EXTENSION(pool_ptr)
 466:Middlewares/ST/threadx/ports/cortex_m4/gnu/inc/tx_port.h **** #define TX_BYTE_POOL_DELETE_EXTENSION(pool_ptr)
 467:Middlewares/ST/threadx/ports/cortex_m4/gnu/inc/tx_port.h **** #define TX_EVENT_FLAGS_GROUP_DELETE_EXTENSION(group_ptr)
 468:Middlewares/ST/threadx/ports/cortex_m4/gnu/inc/tx_port.h **** #define TX_MUTEX_DELETE_EXTENSION(mutex_ptr)
 469:Middlewares/ST/threadx/ports/cortex_m4/gnu/inc/tx_port.h **** #define TX_QUEUE_DELETE_EXTENSION(queue_ptr)
 470:Middlewares/ST/threadx/ports/cortex_m4/gnu/inc/tx_port.h **** #define TX_SEMAPHORE_DELETE_EXTENSION(semaphore_ptr)
 471:Middlewares/ST/threadx/ports/cortex_m4/gnu/inc/tx_port.h **** #define TX_TIMER_DELETE_EXTENSION(timer_ptr)
 472:Middlewares/ST/threadx/ports/cortex_m4/gnu/inc/tx_port.h **** 
 473:Middlewares/ST/threadx/ports/cortex_m4/gnu/inc/tx_port.h **** 
 474:Middlewares/ST/threadx/ports/cortex_m4/gnu/inc/tx_port.h **** /* Define the get system state macro.  */
 475:Middlewares/ST/threadx/ports/cortex_m4/gnu/inc/tx_port.h **** 
 476:Middlewares/ST/threadx/ports/cortex_m4/gnu/inc/tx_port.h **** #ifndef TX_THREAD_GET_SYSTEM_STATE
 477:Middlewares/ST/threadx/ports/cortex_m4/gnu/inc/tx_port.h **** #ifndef TX_MISRA_ENABLE
 478:Middlewares/ST/threadx/ports/cortex_m4/gnu/inc/tx_port.h **** 
 479:Middlewares/ST/threadx/ports/cortex_m4/gnu/inc/tx_port.h **** #ifdef __CC_ARM /* ARM Compiler 5 */
 480:Middlewares/ST/threadx/ports/cortex_m4/gnu/inc/tx_port.h **** 
 481:Middlewares/ST/threadx/ports/cortex_m4/gnu/inc/tx_port.h **** register unsigned int _ipsr __asm("ipsr");
 482:Middlewares/ST/threadx/ports/cortex_m4/gnu/inc/tx_port.h **** #define TX_THREAD_GET_SYSTEM_STATE()        (_tx_thread_system_state | _ipsr)
 483:Middlewares/ST/threadx/ports/cortex_m4/gnu/inc/tx_port.h **** 
 484:Middlewares/ST/threadx/ports/cortex_m4/gnu/inc/tx_port.h **** #elif defined(__GNUC__) /* GCC and ARM Compiler 6 */
 485:Middlewares/ST/threadx/ports/cortex_m4/gnu/inc/tx_port.h **** 
 486:Middlewares/ST/threadx/ports/cortex_m4/gnu/inc/tx_port.h **** __attribute__( ( always_inline ) ) static inline unsigned int __get_ipsr_value(void)
 487:Middlewares/ST/threadx/ports/cortex_m4/gnu/inc/tx_port.h **** {
 488:Middlewares/ST/threadx/ports/cortex_m4/gnu/inc/tx_port.h **** unsigned int  ipsr_value;
 489:Middlewares/ST/threadx/ports/cortex_m4/gnu/inc/tx_port.h ****     __asm__ volatile (" MRS  %0,IPSR ": "=r" (ipsr_value) );
 490:Middlewares/ST/threadx/ports/cortex_m4/gnu/inc/tx_port.h ****     return(ipsr_value);
 491:Middlewares/ST/threadx/ports/cortex_m4/gnu/inc/tx_port.h **** }
 492:Middlewares/ST/threadx/ports/cortex_m4/gnu/inc/tx_port.h **** 
 493:Middlewares/ST/threadx/ports/cortex_m4/gnu/inc/tx_port.h **** #define TX_THREAD_GET_SYSTEM_STATE()        (_tx_thread_system_state | __get_ipsr_value())
 494:Middlewares/ST/threadx/ports/cortex_m4/gnu/inc/tx_port.h **** 
 495:Middlewares/ST/threadx/ports/cortex_m4/gnu/inc/tx_port.h **** #elif defined(__ICCARM__)   /* IAR */
 496:Middlewares/ST/threadx/ports/cortex_m4/gnu/inc/tx_port.h **** 
 497:Middlewares/ST/threadx/ports/cortex_m4/gnu/inc/tx_port.h **** #define TX_THREAD_GET_SYSTEM_STATE()        (_tx_thread_system_state | __get_IPSR())
 498:Middlewares/ST/threadx/ports/cortex_m4/gnu/inc/tx_port.h **** 
 499:Middlewares/ST/threadx/ports/cortex_m4/gnu/inc/tx_port.h **** #endif  /* TX_THREAD_GET_SYSTEM_STATE for different compilers */
 500:Middlewares/ST/threadx/ports/cortex_m4/gnu/inc/tx_port.h **** 
 501:Middlewares/ST/threadx/ports/cortex_m4/gnu/inc/tx_port.h **** #else   /* TX_MISRA_ENABLE is defined, use MISRA function. */
 502:Middlewares/ST/threadx/ports/cortex_m4/gnu/inc/tx_port.h **** ULONG   _tx_misra_ipsr_get(VOID);
 503:Middlewares/ST/threadx/ports/cortex_m4/gnu/inc/tx_port.h **** #define TX_THREAD_GET_SYSTEM_STATE()        (_tx_thread_system_state | _tx_misra_ipsr_get())
 504:Middlewares/ST/threadx/ports/cortex_m4/gnu/inc/tx_port.h **** #endif  /* TX_MISRA_ENABLE */
 505:Middlewares/ST/threadx/ports/cortex_m4/gnu/inc/tx_port.h **** #endif  /* TX_THREAD_GET_SYSTEM_STATE */
 506:Middlewares/ST/threadx/ports/cortex_m4/gnu/inc/tx_port.h **** 
 507:Middlewares/ST/threadx/ports/cortex_m4/gnu/inc/tx_port.h **** 
 508:Middlewares/ST/threadx/ports/cortex_m4/gnu/inc/tx_port.h **** /* Define the check for whether or not to call the _tx_thread_system_return function.  A non-zero v
 509:Middlewares/ST/threadx/ports/cortex_m4/gnu/inc/tx_port.h ****    indicates that _tx_thread_system_return should not be called. This overrides the definition in t
 510:Middlewares/ST/threadx/ports/cortex_m4/gnu/inc/tx_port.h ****    for Cortex-M since so we don't waste time checking the _tx_thread_system_state variable that is 
 511:Middlewares/ST/threadx/ports/cortex_m4/gnu/inc/tx_port.h ****    zero after initialization for Cortex-M ports. */
 512:Middlewares/ST/threadx/ports/cortex_m4/gnu/inc/tx_port.h **** 
ARM GAS  C:\Users\HP\AppData\Local\Temp\cc6zmzy4.s 			page 35


 513:Middlewares/ST/threadx/ports/cortex_m4/gnu/inc/tx_port.h **** #ifndef TX_THREAD_SYSTEM_RETURN_CHECK
 514:Middlewares/ST/threadx/ports/cortex_m4/gnu/inc/tx_port.h **** #define TX_THREAD_SYSTEM_RETURN_CHECK(c)    (c) = ((ULONG) _tx_thread_preempt_disable);
 515:Middlewares/ST/threadx/ports/cortex_m4/gnu/inc/tx_port.h **** #endif
 516:Middlewares/ST/threadx/ports/cortex_m4/gnu/inc/tx_port.h **** 
 517:Middlewares/ST/threadx/ports/cortex_m4/gnu/inc/tx_port.h **** /* Define the macro to ensure _tx_thread_preempt_disable is set early in initialization in order to
 518:Middlewares/ST/threadx/ports/cortex_m4/gnu/inc/tx_port.h ****    prevent early scheduling on Cortex-M parts.  */
 519:Middlewares/ST/threadx/ports/cortex_m4/gnu/inc/tx_port.h **** 
 520:Middlewares/ST/threadx/ports/cortex_m4/gnu/inc/tx_port.h **** #define TX_PORT_SPECIFIC_POST_INITIALIZATION    _tx_thread_preempt_disable++;
 521:Middlewares/ST/threadx/ports/cortex_m4/gnu/inc/tx_port.h **** 
 522:Middlewares/ST/threadx/ports/cortex_m4/gnu/inc/tx_port.h **** 
 523:Middlewares/ST/threadx/ports/cortex_m4/gnu/inc/tx_port.h **** 
 524:Middlewares/ST/threadx/ports/cortex_m4/gnu/inc/tx_port.h **** 
 525:Middlewares/ST/threadx/ports/cortex_m4/gnu/inc/tx_port.h **** #ifndef TX_DISABLE_INLINE
 526:Middlewares/ST/threadx/ports/cortex_m4/gnu/inc/tx_port.h **** 
 527:Middlewares/ST/threadx/ports/cortex_m4/gnu/inc/tx_port.h **** /* Define the TX_LOWEST_SET_BIT_CALCULATE macro for each compiler. */
 528:Middlewares/ST/threadx/ports/cortex_m4/gnu/inc/tx_port.h **** #ifdef __ICCARM__       /* IAR Compiler */
 529:Middlewares/ST/threadx/ports/cortex_m4/gnu/inc/tx_port.h **** #define TX_LOWEST_SET_BIT_CALCULATE(m, b)       (b) = (UINT) __CLZ(__RBIT((m)));
 530:Middlewares/ST/threadx/ports/cortex_m4/gnu/inc/tx_port.h **** #elif defined(__CC_ARM) /* AC5 Compiler */
 531:Middlewares/ST/threadx/ports/cortex_m4/gnu/inc/tx_port.h **** #define TX_LOWEST_SET_BIT_CALCULATE(m, b)       (b) = (UINT) __clz(__rbit((m)));
 532:Middlewares/ST/threadx/ports/cortex_m4/gnu/inc/tx_port.h **** #elif defined(__GNUC__) /* GCC and AC6 Compiler */
 533:Middlewares/ST/threadx/ports/cortex_m4/gnu/inc/tx_port.h **** #define TX_LOWEST_SET_BIT_CALCULATE(m, b)       __asm__ volatile (" RBIT %0,%1 ": "=r" (m) : "r" (m
 534:Middlewares/ST/threadx/ports/cortex_m4/gnu/inc/tx_port.h ****                                                 __asm__ volatile (" CLZ  %0,%1 ": "=r" (b) : "r" (m
 535:Middlewares/ST/threadx/ports/cortex_m4/gnu/inc/tx_port.h **** #endif
 536:Middlewares/ST/threadx/ports/cortex_m4/gnu/inc/tx_port.h **** 
 537:Middlewares/ST/threadx/ports/cortex_m4/gnu/inc/tx_port.h **** 
 538:Middlewares/ST/threadx/ports/cortex_m4/gnu/inc/tx_port.h **** 
 539:Middlewares/ST/threadx/ports/cortex_m4/gnu/inc/tx_port.h **** /* Define the interrupt disable/restore macros for each compiler. */
 540:Middlewares/ST/threadx/ports/cortex_m4/gnu/inc/tx_port.h **** 
 541:Middlewares/ST/threadx/ports/cortex_m4/gnu/inc/tx_port.h **** #if defined(__GNUC__) || defined(__ICCARM__)
 542:Middlewares/ST/threadx/ports/cortex_m4/gnu/inc/tx_port.h **** 
 543:Middlewares/ST/threadx/ports/cortex_m4/gnu/inc/tx_port.h **** /*** GCC/AC6 and IAR ***/
 544:Middlewares/ST/threadx/ports/cortex_m4/gnu/inc/tx_port.h **** 
 545:Middlewares/ST/threadx/ports/cortex_m4/gnu/inc/tx_port.h **** __attribute__( ( always_inline ) ) static inline unsigned int __get_interrupt_posture(void)
 546:Middlewares/ST/threadx/ports/cortex_m4/gnu/inc/tx_port.h **** {
 547:Middlewares/ST/threadx/ports/cortex_m4/gnu/inc/tx_port.h **** unsigned int posture;
 548:Middlewares/ST/threadx/ports/cortex_m4/gnu/inc/tx_port.h **** #ifdef TX_PORT_USE_BASEPRI
 549:Middlewares/ST/threadx/ports/cortex_m4/gnu/inc/tx_port.h ****     __asm__ volatile ("MRS  %0, BASEPRI ": "=r" (posture));
 550:Middlewares/ST/threadx/ports/cortex_m4/gnu/inc/tx_port.h **** #else
 551:Middlewares/ST/threadx/ports/cortex_m4/gnu/inc/tx_port.h ****     __asm__ volatile ("MRS  %0, PRIMASK ": "=r" (posture));
 552:Middlewares/ST/threadx/ports/cortex_m4/gnu/inc/tx_port.h **** #endif
 553:Middlewares/ST/threadx/ports/cortex_m4/gnu/inc/tx_port.h ****     return(posture);
 554:Middlewares/ST/threadx/ports/cortex_m4/gnu/inc/tx_port.h **** }
 555:Middlewares/ST/threadx/ports/cortex_m4/gnu/inc/tx_port.h **** 
 556:Middlewares/ST/threadx/ports/cortex_m4/gnu/inc/tx_port.h **** #ifdef TX_PORT_USE_BASEPRI
 557:Middlewares/ST/threadx/ports/cortex_m4/gnu/inc/tx_port.h **** __attribute__( ( always_inline ) ) static inline void __set_basepri_value(unsigned int basepri_valu
 558:Middlewares/ST/threadx/ports/cortex_m4/gnu/inc/tx_port.h **** {
 559:Middlewares/ST/threadx/ports/cortex_m4/gnu/inc/tx_port.h ****     __asm__ volatile ("MSR  BASEPRI,%0 ": : "r" (basepri_value));
 560:Middlewares/ST/threadx/ports/cortex_m4/gnu/inc/tx_port.h **** }
 561:Middlewares/ST/threadx/ports/cortex_m4/gnu/inc/tx_port.h **** #else
 562:Middlewares/ST/threadx/ports/cortex_m4/gnu/inc/tx_port.h **** __attribute__( ( always_inline ) ) static inline void __enable_interrupts(void)
 563:Middlewares/ST/threadx/ports/cortex_m4/gnu/inc/tx_port.h **** {
 564:Middlewares/ST/threadx/ports/cortex_m4/gnu/inc/tx_port.h ****     __asm__ volatile ("CPSIE  i": : : "memory");
 565:Middlewares/ST/threadx/ports/cortex_m4/gnu/inc/tx_port.h **** }
 566:Middlewares/ST/threadx/ports/cortex_m4/gnu/inc/tx_port.h **** #endif
 567:Middlewares/ST/threadx/ports/cortex_m4/gnu/inc/tx_port.h **** 
 568:Middlewares/ST/threadx/ports/cortex_m4/gnu/inc/tx_port.h **** __attribute__( ( always_inline ) ) static inline void __restore_interrupt(unsigned int int_posture)
 569:Middlewares/ST/threadx/ports/cortex_m4/gnu/inc/tx_port.h **** {
ARM GAS  C:\Users\HP\AppData\Local\Temp\cc6zmzy4.s 			page 36


 570:Middlewares/ST/threadx/ports/cortex_m4/gnu/inc/tx_port.h **** #ifdef TX_PORT_USE_BASEPRI
 571:Middlewares/ST/threadx/ports/cortex_m4/gnu/inc/tx_port.h ****     __set_basepri_value(int_posture);
 572:Middlewares/ST/threadx/ports/cortex_m4/gnu/inc/tx_port.h ****     //__asm__ volatile ("MSR  BASEPRI,%0": : "r" (int_posture): "memory");
 573:Middlewares/ST/threadx/ports/cortex_m4/gnu/inc/tx_port.h **** #else
 574:Middlewares/ST/threadx/ports/cortex_m4/gnu/inc/tx_port.h ****     __asm__ volatile ("MSR  PRIMASK,%0": : "r" (int_posture): "memory");
 575:Middlewares/ST/threadx/ports/cortex_m4/gnu/inc/tx_port.h **** #endif
 576:Middlewares/ST/threadx/ports/cortex_m4/gnu/inc/tx_port.h **** }
 577:Middlewares/ST/threadx/ports/cortex_m4/gnu/inc/tx_port.h **** 
 578:Middlewares/ST/threadx/ports/cortex_m4/gnu/inc/tx_port.h **** __attribute__( ( always_inline ) ) static inline unsigned int __disable_interrupts(void)
 416              		.loc 2 578 63 view .LVU153
 417              	.LBB11:
 579:Middlewares/ST/threadx/ports/cortex_m4/gnu/inc/tx_port.h **** {
 580:Middlewares/ST/threadx/ports/cortex_m4/gnu/inc/tx_port.h **** unsigned int int_posture;
 418              		.loc 2 580 1 view .LVU154
 581:Middlewares/ST/threadx/ports/cortex_m4/gnu/inc/tx_port.h **** 
 582:Middlewares/ST/threadx/ports/cortex_m4/gnu/inc/tx_port.h ****     int_posture = __get_interrupt_posture();
 419              		.loc 2 582 5 view .LVU155
 420              	.LBB12:
 421              	.LBI12:
 545:Middlewares/ST/threadx/ports/cortex_m4/gnu/inc/tx_port.h **** {
 422              		.loc 2 545 63 view .LVU156
 423              	.LBB13:
 547:Middlewares/ST/threadx/ports/cortex_m4/gnu/inc/tx_port.h **** #ifdef TX_PORT_USE_BASEPRI
 424              		.loc 2 547 1 view .LVU157
 551:Middlewares/ST/threadx/ports/cortex_m4/gnu/inc/tx_port.h **** #endif
 425              		.loc 2 551 5 view .LVU158
 426              		.syntax unified
 427              	@ 551 "Middlewares/ST/threadx/ports/cortex_m4/gnu/inc/tx_port.h" 1
 428 014c EFF31083 		MRS  r3, PRIMASK 
 429              	@ 0 "" 2
 430              	.LVL53:
 553:Middlewares/ST/threadx/ports/cortex_m4/gnu/inc/tx_port.h **** }
 431              		.loc 2 553 5 view .LVU159
 553:Middlewares/ST/threadx/ports/cortex_m4/gnu/inc/tx_port.h **** }
 432              		.loc 2 553 5 is_stmt 0 view .LVU160
 433              		.thumb
 434              		.syntax unified
 435              	.LBE13:
 436              	.LBE12:
 583:Middlewares/ST/threadx/ports/cortex_m4/gnu/inc/tx_port.h **** 
 584:Middlewares/ST/threadx/ports/cortex_m4/gnu/inc/tx_port.h **** #ifdef TX_PORT_USE_BASEPRI
 585:Middlewares/ST/threadx/ports/cortex_m4/gnu/inc/tx_port.h ****     __set_basepri_value(TX_PORT_BASEPRI);
 586:Middlewares/ST/threadx/ports/cortex_m4/gnu/inc/tx_port.h **** #else
 587:Middlewares/ST/threadx/ports/cortex_m4/gnu/inc/tx_port.h ****     __asm__ volatile ("CPSID i" : : : "memory");
 437              		.loc 2 587 5 is_stmt 1 view .LVU161
 438              		.syntax unified
 439              	@ 587 "Middlewares/ST/threadx/ports/cortex_m4/gnu/inc/tx_port.h" 1
 440 0150 72B6     		CPSID i
 441              	@ 0 "" 2
 588:Middlewares/ST/threadx/ports/cortex_m4/gnu/inc/tx_port.h **** #endif
 589:Middlewares/ST/threadx/ports/cortex_m4/gnu/inc/tx_port.h ****     return(int_posture);
 442              		.loc 2 589 5 view .LVU162
 443              	.LVL54:
 444              		.loc 2 589 5 is_stmt 0 view .LVU163
 445              		.thumb
 446              		.syntax unified
 447              	.LBE11:
ARM GAS  C:\Users\HP\AppData\Local\Temp\cc6zmzy4.s 			page 37


 448              	.LBE10:
 403:Middlewares/ST/filex/common/src/fx_directory_create.c ****     dir_entry.fx_dir_entry_date =  _fx_system_date;
 449              		.loc 1 403 5 is_stmt 1 view .LVU164
 403:Middlewares/ST/filex/common/src/fx_directory_create.c ****     dir_entry.fx_dir_entry_date =  _fx_system_date;
 450              		.loc 1 403 33 is_stmt 0 view .LVU165
 451 0152 624A     		ldr	r2, .L62+4
 452 0154 1268     		ldr	r2, [r2]
 453 0156 4792     		str	r2, [sp, #284]
 404:Middlewares/ST/filex/common/src/fx_directory_create.c **** 
 454              		.loc 1 404 5 is_stmt 1 view .LVU166
 404:Middlewares/ST/filex/common/src/fx_directory_create.c **** 
 455              		.loc 1 404 33 is_stmt 0 view .LVU167
 456 0158 614A     		ldr	r2, .L62+8
 457 015a 1268     		ldr	r2, [r2]
 458 015c 4892     		str	r2, [sp, #288]
 407:Middlewares/ST/filex/common/src/fx_directory_create.c **** 
 459              		.loc 1 407 5 is_stmt 1 view .LVU168
 460              	.LVL55:
 461              	.LBB14:
 462              	.LBI14:
 568:Middlewares/ST/threadx/ports/cortex_m4/gnu/inc/tx_port.h **** {
 463              		.loc 2 568 55 view .LVU169
 464              	.LBB15:
 574:Middlewares/ST/threadx/ports/cortex_m4/gnu/inc/tx_port.h **** #endif
 465              		.loc 2 574 5 view .LVU170
 466              		.syntax unified
 467              	@ 574 "Middlewares/ST/threadx/ports/cortex_m4/gnu/inc/tx_port.h" 1
 468 015e 83F31088 		MSR  PRIMASK,r3
 469              	@ 0 "" 2
 470              	.LVL56:
 574:Middlewares/ST/threadx/ports/cortex_m4/gnu/inc/tx_port.h **** #endif
 471              		.loc 2 574 5 is_stmt 0 view .LVU171
 472              		.thumb
 473              		.syntax unified
 474              	.LBE15:
 475              	.LBE14:
 410:Middlewares/ST/filex/common/src/fx_directory_create.c **** 
 476              		.loc 1 410 5 is_stmt 1 view .LVU172
 410:Middlewares/ST/filex/common/src/fx_directory_create.c **** 
 477              		.loc 1 410 39 is_stmt 0 view .LVU173
 478 0162 1023     		movs	r3, #16
 479              	.LVL57:
 410:Middlewares/ST/filex/common/src/fx_directory_create.c **** 
 480              		.loc 1 410 39 view .LVU174
 481 0164 8DF80C31 		strb	r3, [sp, #268]
 427:Middlewares/ST/filex/common/src/fx_directory_create.c **** 
 482              		.loc 1 427 9 is_stmt 1 view .LVU175
 427:Middlewares/ST/filex/common/src/fx_directory_create.c **** 
 483              		.loc 1 427 42 is_stmt 0 view .LVU176
 484 0168 0022     		movs	r2, #0
 485 016a 0023     		movs	r3, #0
 486 016c CDE94A23 		strd	r2, [sp, #296]
 434:Middlewares/ST/filex/common/src/fx_directory_create.c **** 
 487              		.loc 1 434 5 is_stmt 1 view .LVU177
 434:Middlewares/ST/filex/common/src/fx_directory_create.c **** 
 488              		.loc 1 434 36 is_stmt 0 view .LVU178
 489 0170 4996     		str	r6, [sp, #292]
ARM GAS  C:\Users\HP\AppData\Local\Temp\cc6zmzy4.s 			page 38


 437:Middlewares/ST/filex/common/src/fx_directory_create.c ****     {
 490              		.loc 1 437 5 is_stmt 1 view .LVU179
 437:Middlewares/ST/filex/common/src/fx_directory_create.c ****     {
 491              		.loc 1 437 18 is_stmt 0 view .LVU180
 492 0172 3C9B     		ldr	r3, [sp, #240]
 437:Middlewares/ST/filex/common/src/fx_directory_create.c ****     {
 493              		.loc 1 437 36 view .LVU181
 494 0174 1B78     		ldrb	r3, [r3]	@ zero_extendqisi2
 437:Middlewares/ST/filex/common/src/fx_directory_create.c ****     {
 495              		.loc 1 437 8 view .LVU182
 496 0176 2E2B     		cmp	r3, #46
 497 0178 28D0     		beq	.L53
 498              	.L20:
 450:Middlewares/ST/filex/common/src/fx_directory_create.c ****                          (((ULONG64) FAT_index - FX_FAT_ENTRY_START) *
 499              		.loc 1 450 5 is_stmt 1 view .LVU183
 450:Middlewares/ST/filex/common/src/fx_directory_create.c ****                          (((ULONG64) FAT_index - FX_FAT_ENTRY_START) *
 500              		.loc 1 450 44 is_stmt 0 view .LVU184
 501 017a 2B6D     		ldr	r3, [r5, #80]
 451:Middlewares/ST/filex/common/src/fx_directory_create.c ****                          ((ULONG) media_ptr -> fx_media_sectors_per_cluster));
 502              		.loc 1 451 48 view .LVU185
 503 017c B6F10209 		subs	r9, r6, #2
 504 0180 62EB0202 		sbc	r2, r2, r2
 452:Middlewares/ST/filex/common/src/fx_directory_create.c **** 
 505              		.loc 1 452 45 view .LVU186
 506 0184 6F6D     		ldr	r7, [r5, #84]
 507              	.LVL58:
 451:Middlewares/ST/filex/common/src/fx_directory_create.c ****                          ((ULONG) media_ptr -> fx_media_sectors_per_cluster));
 508              		.loc 1 451 70 view .LVU187
 509 0186 A9FB079A 		umull	r9, r10, r9, r7
 510 018a 07FB02AA 		mla	r10, r7, r2, r10
 450:Middlewares/ST/filex/common/src/fx_directory_create.c ****                          (((ULONG64) FAT_index - FX_FAT_ENTRY_START) *
 511              		.loc 1 450 20 view .LVU188
 512 018e 13EB0909 		adds	r9, r3, r9
 513 0192 4AF1000A 		adc	r10, r10, #0
 514              	.LVL59:
 455:Middlewares/ST/filex/common/src/fx_directory_create.c **** 
 515              		.loc 1 455 5 is_stmt 1 view .LVU189
 459:Middlewares/ST/filex/common/src/fx_directory_create.c ****                                               media_ptr -> fx_media_memory_buffer, ((ULONG) 1), FX_
 516              		.loc 1 459 5 view .LVU190
 460:Middlewares/ST/filex/common/src/fx_directory_create.c **** 
 517              		.loc 1 460 57 is_stmt 0 view .LVU191
 518 0196 AB68     		ldr	r3, [r5, #8]
 459:Middlewares/ST/filex/common/src/fx_directory_create.c ****                                               media_ptr -> fx_media_memory_buffer, ((ULONG) 1), FX_
 519              		.loc 1 459 15 view .LVU192
 520 0198 0322     		movs	r2, #3
 521 019a 0292     		str	r2, [sp, #8]
 522 019c 0122     		movs	r2, #1
 523 019e 0192     		str	r2, [sp, #4]
 524 01a0 0093     		str	r3, [sp]
 525 01a2 4A46     		mov	r2, r9
 526 01a4 5346     		mov	r3, r10
 527 01a6 2846     		mov	r0, r5
 528 01a8 FFF7FEFF 		bl	_fx_utility_logical_sector_read
 529              	.LVL60:
 463:Middlewares/ST/filex/common/src/fx_directory_create.c ****     {
 530              		.loc 1 463 5 is_stmt 1 view .LVU193
 463:Middlewares/ST/filex/common/src/fx_directory_create.c ****     {
ARM GAS  C:\Users\HP\AppData\Local\Temp\cc6zmzy4.s 			page 39


 531              		.loc 1 463 8 is_stmt 0 view .LVU194
 532 01ac 0446     		mov	r4, r0
 533 01ae 88B9     		cbnz	r0, .L54
 478:Middlewares/ST/filex/common/src/fx_directory_create.c ****     i =  0;
 534              		.loc 1 478 5 is_stmt 1 view .LVU195
 478:Middlewares/ST/filex/common/src/fx_directory_create.c ****     i =  0;
 535              		.loc 1 478 35 is_stmt 0 view .LVU196
 536 01b0 AB68     		ldr	r3, [r5, #8]
 478:Middlewares/ST/filex/common/src/fx_directory_create.c ****     i =  0;
 537              		.loc 1 478 14 view .LVU197
 538 01b2 5893     		str	r3, [sp, #352]
 479:Middlewares/ST/filex/common/src/fx_directory_create.c ****     while (i < media_ptr -> fx_media_bytes_per_sector)
 539              		.loc 1 479 5 is_stmt 1 view .LVU198
 540              	.LVL61:
 480:Middlewares/ST/filex/common/src/fx_directory_create.c ****     {
 541              		.loc 1 480 5 view .LVU199
 479:Middlewares/ST/filex/common/src/fx_directory_create.c ****     while (i < media_ptr -> fx_media_bytes_per_sector)
 542              		.loc 1 479 7 is_stmt 0 view .LVU200
 543 01b4 0246     		mov	r2, r0
 544              	.LVL62:
 545              	.L22:
 480:Middlewares/ST/filex/common/src/fx_directory_create.c ****     {
 546              		.loc 1 480 11 is_stmt 1 view .LVU201
 480:Middlewares/ST/filex/common/src/fx_directory_create.c ****     {
 547              		.loc 1 480 26 is_stmt 0 view .LVU202
 548 01b6 AB6A     		ldr	r3, [r5, #40]
 480:Middlewares/ST/filex/common/src/fx_directory_create.c ****     {
 549              		.loc 1 480 11 view .LVU203
 550 01b8 9342     		cmp	r3, r2
 551 01ba 0FD9     		bls	.L55
 484:Middlewares/ST/filex/common/src/fx_directory_create.c **** 
 552              		.loc 1 484 9 is_stmt 1 view .LVU204
 484:Middlewares/ST/filex/common/src/fx_directory_create.c **** 
 553              		.loc 1 484 30 is_stmt 0 view .LVU205
 554 01bc 589B     		ldr	r3, [sp, #352]
 555 01be 0021     		movs	r1, #0
 556 01c0 1960     		str	r1, [r3]
 487:Middlewares/ST/filex/common/src/fx_directory_create.c **** 
 557              		.loc 1 487 9 is_stmt 1 view .LVU206
 487:Middlewares/ST/filex/common/src/fx_directory_create.c **** 
 558              		.loc 1 487 30 is_stmt 0 view .LVU207
 559 01c2 589B     		ldr	r3, [sp, #352]
 560 01c4 0433     		adds	r3, r3, #4
 487:Middlewares/ST/filex/common/src/fx_directory_create.c **** 
 561              		.loc 1 487 18 view .LVU208
 562 01c6 5893     		str	r3, [sp, #352]
 490:Middlewares/ST/filex/common/src/fx_directory_create.c ****     }
 563              		.loc 1 490 9 is_stmt 1 view .LVU209
 490:Middlewares/ST/filex/common/src/fx_directory_create.c ****     }
 564              		.loc 1 490 11 is_stmt 0 view .LVU210
 565 01c8 0432     		adds	r2, r2, #4
 566              	.LVL63:
 490:Middlewares/ST/filex/common/src/fx_directory_create.c ****     }
 567              		.loc 1 490 11 view .LVU211
 568 01ca F4E7     		b	.L22
 569              	.LVL64:
 570              	.L53:
ARM GAS  C:\Users\HP\AppData\Local\Temp\cc6zmzy4.s 			page 40


 441:Middlewares/ST/filex/common/src/fx_directory_create.c ****     }
 571              		.loc 1 441 9 is_stmt 1 view .LVU212
 441:Middlewares/ST/filex/common/src/fx_directory_create.c ****     }
 572              		.loc 1 441 43 is_stmt 0 view .LVU213
 573 01cc 1223     		movs	r3, #18
 574 01ce 8DF80C31 		strb	r3, [sp, #268]
 575 01d2 D2E7     		b	.L20
 576              	.LVL65:
 577              	.L54:
 471:Middlewares/ST/filex/common/src/fx_directory_create.c **** 
 578              		.loc 1 471 9 is_stmt 1 view .LVU214
 579 01d4 4046     		mov	r0, r8
 580              	.LVL66:
 471:Middlewares/ST/filex/common/src/fx_directory_create.c **** 
 581              		.loc 1 471 9 is_stmt 0 view .LVU215
 582 01d6 FFF7FEFF 		bl	_tx_mutex_put
 583              	.LVL67:
 474:Middlewares/ST/filex/common/src/fx_directory_create.c ****     }
 584              		.loc 1 474 9 is_stmt 1 view .LVU216
 474:Middlewares/ST/filex/common/src/fx_directory_create.c ****     }
 585              		.loc 1 474 15 is_stmt 0 view .LVU217
 586 01da 47E7     		b	.L1
 587              	.LVL68:
 588              	.L55:
 532:Middlewares/ST/filex/common/src/fx_directory_create.c ****     {
 589              		.loc 1 532 5 is_stmt 1 view .LVU218
 532:Middlewares/ST/filex/common/src/fx_directory_create.c ****     {
 590              		.loc 1 532 8 is_stmt 0 view .LVU219
 591 01dc 012F     		cmp	r7, #1
 592 01de 09D8     		bhi	.L56
 593              	.LVL69:
 594              	.L24:
 730:Middlewares/ST/filex/common/src/fx_directory_create.c **** 
 595              		.loc 1 730 9 is_stmt 1 view .LVU220
 730:Middlewares/ST/filex/common/src/fx_directory_create.c **** 
 596              		.loc 1 730 23 is_stmt 0 view .LVU221
 597 01e0 7022     		movs	r2, #112
 598 01e2 3CA9     		add	r1, sp, #240
 599 01e4 20A8     		add	r0, sp, #128
 600 01e6 FFF7FEFF 		bl	memcpy
 601              	.LVL70:
 733:Middlewares/ST/filex/common/src/fx_directory_create.c **** 
 602              		.loc 1 733 9 is_stmt 1 view .LVU222
 733:Middlewares/ST/filex/common/src/fx_directory_create.c **** 
 603              		.loc 1 733 78 is_stmt 0 view .LVU223
 604 01ea 05F69C37 		addw	r7, r5, #2972
 605              	.LVL71:
 733:Middlewares/ST/filex/common/src/fx_directory_create.c **** 
 606              		.loc 1 733 41 view .LVU224
 607 01ee 2097     		str	r7, [sp, #128]
 736:Middlewares/ST/filex/common/src/fx_directory_create.c ****         for (i = 0; i < (FX_DIR_NAME_SIZE + FX_DIR_EXT_SIZE); i++)
 608              		.loc 1 736 9 is_stmt 1 view .LVU225
 736:Middlewares/ST/filex/common/src/fx_directory_create.c ****         for (i = 0; i < (FX_DIR_NAME_SIZE + FX_DIR_EXT_SIZE); i++)
 609              		.loc 1 736 18 is_stmt 0 view .LVU226
 610 01f0 5897     		str	r7, [sp, #352]
 737:Middlewares/ST/filex/common/src/fx_directory_create.c ****         {
 611              		.loc 1 737 9 is_stmt 1 view .LVU227
ARM GAS  C:\Users\HP\AppData\Local\Temp\cc6zmzy4.s 			page 41


 612              	.LVL72:
 737:Middlewares/ST/filex/common/src/fx_directory_create.c ****         {
 613              		.loc 1 737 9 is_stmt 0 view .LVU228
 614 01f2 48E0     		b	.L28
 615              	.LVL73:
 616              	.L56:
 544:Middlewares/ST/filex/common/src/fx_directory_create.c **** 
 617              		.loc 1 544 13 is_stmt 1 view .LVU229
 544:Middlewares/ST/filex/common/src/fx_directory_create.c **** 
 618              		.loc 1 544 106 is_stmt 0 view .LVU230
 619 01f4 013F     		subs	r7, r7, #1
 620              	.LVL74:
 544:Middlewares/ST/filex/common/src/fx_directory_create.c **** 
 621              		.loc 1 544 23 view .LVU231
 622 01f6 19F10102 		adds	r2, r9, #1
 623              	.LVL75:
 544:Middlewares/ST/filex/common/src/fx_directory_create.c **** 
 624              		.loc 1 544 23 view .LVU232
 625 01fa 4FF00103 		mov	r3, #1
 626 01fe 0293     		str	r3, [sp, #8]
 627 0200 0097     		str	r7, [sp]
 628 0202 4FF00003 		mov	r3, #0
 629 0206 0193     		str	r3, [sp, #4]
 630 0208 4AF10003 		adc	r3, r10, #0
 631 020c 2846     		mov	r0, r5
 632              	.LVL76:
 544:Middlewares/ST/filex/common/src/fx_directory_create.c **** 
 633              		.loc 1 544 23 view .LVU233
 634 020e FFF7FEFF 		bl	_fx_utility_logical_sector_flush
 635              	.LVL77:
 547:Middlewares/ST/filex/common/src/fx_directory_create.c ****             {
 636              		.loc 1 547 13 is_stmt 1 view .LVU234
 547:Middlewares/ST/filex/common/src/fx_directory_create.c ****             {
 637              		.loc 1 547 16 is_stmt 0 view .LVU235
 638 0212 8346     		mov	fp, r0
 639 0214 30BB     		cbnz	r0, .L57
 640              	.LVL78:
 641              	.L25:
 564:Middlewares/ST/filex/common/src/fx_directory_create.c ****         {
 642              		.loc 1 564 15 is_stmt 1 view .LVU236
 643 0216 002F     		cmp	r7, #0
 644 0218 E2D0     		beq	.L24
 570:Middlewares/ST/filex/common/src/fx_directory_create.c **** #endif
 645              		.loc 1 570 13 view .LVU237
 570:Middlewares/ST/filex/common/src/fx_directory_create.c **** #endif
 646              		.loc 1 570 23 is_stmt 0 view .LVU238
 647 021a D5F8B031 		ldr	r3, [r5, #432]
 570:Middlewares/ST/filex/common/src/fx_directory_create.c **** #endif
 648              		.loc 1 570 56 view .LVU239
 649 021e 0133     		adds	r3, r3, #1
 650 0220 C5F8B031 		str	r3, [r5, #432]
 574:Middlewares/ST/filex/common/src/fx_directory_create.c ****             media_ptr -> fx_media_driver_status =           FX_IO_ERROR;
 651              		.loc 1 574 13 is_stmt 1 view .LVU240
 574:Middlewares/ST/filex/common/src/fx_directory_create.c ****             media_ptr -> fx_media_driver_status =           FX_IO_ERROR;
 652              		.loc 1 574 50 is_stmt 0 view .LVU241
 653 0224 0123     		movs	r3, #1
 654 0226 C5F88830 		str	r3, [r5, #136]
ARM GAS  C:\Users\HP\AppData\Local\Temp\cc6zmzy4.s 			page 42


 575:Middlewares/ST/filex/common/src/fx_directory_create.c ****             media_ptr -> fx_media_driver_buffer =           media_ptr -> fx_media_memory_buffer;
 655              		.loc 1 575 13 is_stmt 1 view .LVU242
 575:Middlewares/ST/filex/common/src/fx_directory_create.c ****             media_ptr -> fx_media_driver_buffer =           media_ptr -> fx_media_memory_buffer;
 656              		.loc 1 575 49 is_stmt 0 view .LVU243
 657 022a 9022     		movs	r2, #144
 658 022c C5F88C20 		str	r2, [r5, #140]
 576:Middlewares/ST/filex/common/src/fx_directory_create.c **** #ifdef FX_DRIVER_USE_64BIT_LBA
 659              		.loc 1 576 13 is_stmt 1 view .LVU244
 576:Middlewares/ST/filex/common/src/fx_directory_create.c **** #ifdef FX_DRIVER_USE_64BIT_LBA
 660              		.loc 1 576 71 is_stmt 0 view .LVU245
 661 0230 AA68     		ldr	r2, [r5, #8]
 576:Middlewares/ST/filex/common/src/fx_directory_create.c **** #ifdef FX_DRIVER_USE_64BIT_LBA
 662              		.loc 1 576 49 view .LVU246
 663 0232 C5F89020 		str	r2, [r5, #144]
 580:Middlewares/ST/filex/common/src/fx_directory_create.c **** #endif
 664              		.loc 1 580 13 is_stmt 1 view .LVU247
 580:Middlewares/ST/filex/common/src/fx_directory_create.c **** #endif
 665              		.loc 1 580 83 is_stmt 0 view .LVU248
 666 0236 09EB0702 		add	r2, r9, r7
 580:Middlewares/ST/filex/common/src/fx_directory_create.c **** #endif
 667              		.loc 1 580 57 view .LVU249
 668 023a C5F89420 		str	r2, [r5, #148]
 582:Middlewares/ST/filex/common/src/fx_directory_create.c ****             media_ptr -> fx_media_driver_sector_type =      FX_DIRECTORY_SECTOR;
 669              		.loc 1 582 13 is_stmt 1 view .LVU250
 582:Middlewares/ST/filex/common/src/fx_directory_create.c ****             media_ptr -> fx_media_driver_sector_type =      FX_DIRECTORY_SECTOR;
 670              		.loc 1 582 50 is_stmt 0 view .LVU251
 671 023e C5F89830 		str	r3, [r5, #152]
 583:Middlewares/ST/filex/common/src/fx_directory_create.c **** 
 672              		.loc 1 583 13 is_stmt 1 view .LVU252
 583:Middlewares/ST/filex/common/src/fx_directory_create.c **** 
 673              		.loc 1 583 54 is_stmt 0 view .LVU253
 674 0242 0322     		movs	r2, #3
 675 0244 C5F8B820 		str	r2, [r5, #184]
 586:Middlewares/ST/filex/common/src/fx_directory_create.c **** 
 676              		.loc 1 586 13 is_stmt 1 view .LVU254
 586:Middlewares/ST/filex/common/src/fx_directory_create.c **** 
 677              		.loc 1 586 55 is_stmt 0 view .LVU255
 678 0248 C5F8B030 		str	r3, [r5, #176]
 592:Middlewares/ST/filex/common/src/fx_directory_create.c **** 
 679              		.loc 1 592 17 is_stmt 1 view .LVU256
 592:Middlewares/ST/filex/common/src/fx_directory_create.c **** 
 680              		.loc 1 592 28 is_stmt 0 view .LVU257
 681 024c D5F8BC30 		ldr	r3, [r5, #188]
 682 0250 2846     		mov	r0, r5
 683 0252 9847     		blx	r3
 684              	.LVL79:
 595:Middlewares/ST/filex/common/src/fx_directory_create.c **** 
 685              		.loc 1 595 13 is_stmt 1 view .LVU258
 595:Middlewares/ST/filex/common/src/fx_directory_create.c **** 
 686              		.loc 1 595 55 is_stmt 0 view .LVU259
 687 0254 0023     		movs	r3, #0
 688 0256 C5F8B030 		str	r3, [r5, #176]
 598:Middlewares/ST/filex/common/src/fx_directory_create.c ****             {
 689              		.loc 1 598 13 is_stmt 1 view .LVU260
 598:Middlewares/ST/filex/common/src/fx_directory_create.c ****             {
 690              		.loc 1 598 27 is_stmt 0 view .LVU261
 691 025a D5F88C30 		ldr	r3, [r5, #140]
ARM GAS  C:\Users\HP\AppData\Local\Temp\cc6zmzy4.s 			page 43


 598:Middlewares/ST/filex/common/src/fx_directory_create.c ****             {
 692              		.loc 1 598 16 view .LVU262
 693 025e 33B9     		cbnz	r3, .L58
 613:Middlewares/ST/filex/common/src/fx_directory_create.c ****         }
 694              		.loc 1 613 13 is_stmt 1 view .LVU263
 613:Middlewares/ST/filex/common/src/fx_directory_create.c ****         }
 695              		.loc 1 613 20 is_stmt 0 view .LVU264
 696 0260 013F     		subs	r7, r7, #1
 697              	.LVL80:
 613:Middlewares/ST/filex/common/src/fx_directory_create.c ****         }
 698              		.loc 1 613 20 view .LVU265
 699 0262 D8E7     		b	.L25
 700              	.LVL81:
 701              	.L57:
 555:Middlewares/ST/filex/common/src/fx_directory_create.c **** 
 702              		.loc 1 555 17 is_stmt 1 view .LVU266
 703 0264 4046     		mov	r0, r8
 704              	.LVL82:
 555:Middlewares/ST/filex/common/src/fx_directory_create.c **** 
 705              		.loc 1 555 17 is_stmt 0 view .LVU267
 706 0266 FFF7FEFF 		bl	_tx_mutex_put
 707              	.LVL83:
 558:Middlewares/ST/filex/common/src/fx_directory_create.c ****             }
 708              		.loc 1 558 17 is_stmt 1 view .LVU268
 558:Middlewares/ST/filex/common/src/fx_directory_create.c ****             }
 709              		.loc 1 558 23 is_stmt 0 view .LVU269
 710 026a 5C46     		mov	r4, fp
 711 026c FEE6     		b	.L1
 712              	.LVL84:
 713              	.L58:
 606:Middlewares/ST/filex/common/src/fx_directory_create.c **** 
 714              		.loc 1 606 17 is_stmt 1 view .LVU270
 715 026e 4046     		mov	r0, r8
 716 0270 FFF7FEFF 		bl	_tx_mutex_put
 717              	.LVL85:
 609:Middlewares/ST/filex/common/src/fx_directory_create.c ****             }
 718              		.loc 1 609 17 view .LVU271
 609:Middlewares/ST/filex/common/src/fx_directory_create.c ****             }
 719              		.loc 1 609 34 is_stmt 0 view .LVU272
 720 0274 D5F88C40 		ldr	r4, [r5, #140]
 721 0278 F8E6     		b	.L1
 722              	.LVL86:
 723              	.L29:
 739:Middlewares/ST/filex/common/src/fx_directory_create.c ****         }
 724              		.loc 1 739 13 is_stmt 1 discriminator 3 view .LVU273
 739:Middlewares/ST/filex/common/src/fx_directory_create.c ****         }
 725              		.loc 1 739 22 is_stmt 0 discriminator 3 view .LVU274
 726 027a 589B     		ldr	r3, [sp, #352]
 727 027c 5A1C     		adds	r2, r3, #1
 728 027e 5892     		str	r2, [sp, #352]
 739:Middlewares/ST/filex/common/src/fx_directory_create.c ****         }
 729              		.loc 1 739 25 discriminator 3 view .LVU275
 730 0280 2022     		movs	r2, #32
 731 0282 1A70     		strb	r2, [r3]
 737:Middlewares/ST/filex/common/src/fx_directory_create.c ****         {
 732              		.loc 1 737 63 is_stmt 1 discriminator 3 view .LVU276
 737:Middlewares/ST/filex/common/src/fx_directory_create.c ****         {
ARM GAS  C:\Users\HP\AppData\Local\Temp\cc6zmzy4.s 			page 44


 733              		.loc 1 737 64 is_stmt 0 discriminator 3 view .LVU277
 734 0284 0134     		adds	r4, r4, #1
 735              	.LVL87:
 736              	.L28:
 737:Middlewares/ST/filex/common/src/fx_directory_create.c ****         {
 737              		.loc 1 737 21 is_stmt 1 discriminator 1 view .LVU278
 737:Middlewares/ST/filex/common/src/fx_directory_create.c ****         {
 738              		.loc 1 737 9 is_stmt 0 discriminator 1 view .LVU279
 739 0286 0A2C     		cmp	r4, #10
 740 0288 F7D9     		bls	.L29
 742:Middlewares/ST/filex/common/src/fx_directory_create.c **** 
 741              		.loc 1 742 9 is_stmt 1 view .LVU280
 742:Middlewares/ST/filex/common/src/fx_directory_create.c **** 
 742              		.loc 1 742 54 is_stmt 0 view .LVU281
 743 028a 0023     		movs	r3, #0
 744 028c 2593     		str	r3, [sp, #148]
 745:Middlewares/ST/filex/common/src/fx_directory_create.c ****         sub_dir_entry.fx_dir_entry_name[1] =        0;
 745              		.loc 1 745 9 is_stmt 1 view .LVU282
 745:Middlewares/ST/filex/common/src/fx_directory_create.c ****         sub_dir_entry.fx_dir_entry_name[1] =        0;
 746              		.loc 1 745 44 is_stmt 0 view .LVU283
 747 028e 209A     		ldr	r2, [sp, #128]
 748 0290 2E21     		movs	r1, #46
 749 0292 1170     		strb	r1, [r2]
 746:Middlewares/ST/filex/common/src/fx_directory_create.c ****         sub_dir_entry.fx_dir_entry_log_sector =     logical_sector;
 750              		.loc 1 746 9 is_stmt 1 view .LVU284
 746:Middlewares/ST/filex/common/src/fx_directory_create.c ****         sub_dir_entry.fx_dir_entry_log_sector =     logical_sector;
 751              		.loc 1 746 22 is_stmt 0 view .LVU285
 752 0294 209A     		ldr	r2, [sp, #128]
 746:Middlewares/ST/filex/common/src/fx_directory_create.c ****         sub_dir_entry.fx_dir_entry_log_sector =     logical_sector;
 753              		.loc 1 746 44 view .LVU286
 754 0296 5370     		strb	r3, [r2, #1]
 747:Middlewares/ST/filex/common/src/fx_directory_create.c ****         sub_dir_entry.fx_dir_entry_byte_offset =    0;
 755              		.loc 1 747 9 is_stmt 1 view .LVU287
 747:Middlewares/ST/filex/common/src/fx_directory_create.c ****         sub_dir_entry.fx_dir_entry_byte_offset =    0;
 756              		.loc 1 747 47 is_stmt 0 view .LVU288
 757 0298 CDF8C090 		str	r9, [sp, #192]
 758 029c CDF8C4A0 		str	r10, [sp, #196]
 748:Middlewares/ST/filex/common/src/fx_directory_create.c **** 
 759              		.loc 1 748 9 is_stmt 1 view .LVU289
 748:Middlewares/ST/filex/common/src/fx_directory_create.c **** 
 760              		.loc 1 748 48 is_stmt 0 view .LVU290
 761 02a0 3293     		str	r3, [sp, #200]
 751:Middlewares/ST/filex/common/src/fx_directory_create.c **** 
 762              		.loc 1 751 9 is_stmt 1 view .LVU291
 751:Middlewares/ST/filex/common/src/fx_directory_create.c **** 
 763              		.loc 1 751 19 is_stmt 0 view .LVU292
 764 02a2 20A9     		add	r1, sp, #128
 765 02a4 2846     		mov	r0, r5
 766 02a6 FFF7FEFF 		bl	_fx_directory_entry_write
 767              	.LVL88:
 754:Middlewares/ST/filex/common/src/fx_directory_create.c ****         {
 768              		.loc 1 754 9 is_stmt 1 view .LVU293
 754:Middlewares/ST/filex/common/src/fx_directory_create.c ****         {
 769              		.loc 1 754 12 is_stmt 0 view .LVU294
 770 02aa 0446     		mov	r4, r0
 771              	.LVL89:
 754:Middlewares/ST/filex/common/src/fx_directory_create.c ****         {
ARM GAS  C:\Users\HP\AppData\Local\Temp\cc6zmzy4.s 			page 45


 772              		.loc 1 754 12 view .LVU295
 773 02ac 78B9     		cbnz	r0, .L59
 771:Middlewares/ST/filex/common/src/fx_directory_create.c ****         {
 774              		.loc 1 771 9 is_stmt 1 view .LVU296
 771:Middlewares/ST/filex/common/src/fx_directory_create.c ****         {
 775              		.loc 1 771 29 is_stmt 0 view .LVU297
 776 02ae 049B     		ldr	r3, [sp, #16]
 771:Middlewares/ST/filex/common/src/fx_directory_create.c ****         {
 777              		.loc 1 771 47 view .LVU298
 778 02b0 1B78     		ldrb	r3, [r3]	@ zero_extendqisi2
 771:Middlewares/ST/filex/common/src/fx_directory_create.c ****         {
 779              		.loc 1 771 12 view .LVU299
 780 02b2 002B     		cmp	r3, #0
 781 02b4 4AD0     		beq	.L31
 777:Middlewares/ST/filex/common/src/fx_directory_create.c **** 
 782              		.loc 1 777 13 is_stmt 1 view .LVU300
 777:Middlewares/ST/filex/common/src/fx_directory_create.c **** 
 783              		.loc 1 777 27 is_stmt 0 view .LVU301
 784 02b6 7022     		movs	r2, #112
 785 02b8 04A9     		add	r1, sp, #16
 786 02ba 20A8     		add	r0, sp, #128
 787              	.LVL90:
 777:Middlewares/ST/filex/common/src/fx_directory_create.c **** 
 788              		.loc 1 777 27 view .LVU302
 789 02bc FFF7FEFF 		bl	memcpy
 790              	.LVL91:
 780:Middlewares/ST/filex/common/src/fx_directory_create.c ****             sub_dir_entry.fx_dir_entry_date =  dir_entry.fx_dir_entry_date;
 791              		.loc 1 780 13 is_stmt 1 view .LVU303
 780:Middlewares/ST/filex/common/src/fx_directory_create.c ****             sub_dir_entry.fx_dir_entry_date =  dir_entry.fx_dir_entry_date;
 792              		.loc 1 780 57 is_stmt 0 view .LVU304
 793 02c0 479B     		ldr	r3, [sp, #284]
 780:Middlewares/ST/filex/common/src/fx_directory_create.c ****             sub_dir_entry.fx_dir_entry_date =  dir_entry.fx_dir_entry_date;
 794              		.loc 1 780 45 view .LVU305
 795 02c2 2B93     		str	r3, [sp, #172]
 781:Middlewares/ST/filex/common/src/fx_directory_create.c **** 
 796              		.loc 1 781 13 is_stmt 1 view .LVU306
 781:Middlewares/ST/filex/common/src/fx_directory_create.c **** 
 797              		.loc 1 781 57 is_stmt 0 view .LVU307
 798 02c4 489B     		ldr	r3, [sp, #288]
 781:Middlewares/ST/filex/common/src/fx_directory_create.c **** 
 799              		.loc 1 781 45 view .LVU308
 800 02c6 2C93     		str	r3, [sp, #176]
 784:Middlewares/ST/filex/common/src/fx_directory_create.c **** 
 801              		.loc 1 784 13 is_stmt 1 view .LVU309
 784:Middlewares/ST/filex/common/src/fx_directory_create.c **** 
 802              		.loc 1 784 45 is_stmt 0 view .LVU310
 803 02c8 2097     		str	r7, [sp, #128]
 787:Middlewares/ST/filex/common/src/fx_directory_create.c ****             for (i = 0; i < (FX_DIR_NAME_SIZE + FX_DIR_EXT_SIZE); i++)
 804              		.loc 1 787 13 is_stmt 1 view .LVU311
 787:Middlewares/ST/filex/common/src/fx_directory_create.c ****             for (i = 0; i < (FX_DIR_NAME_SIZE + FX_DIR_EXT_SIZE); i++)
 805              		.loc 1 787 22 is_stmt 0 view .LVU312
 806 02ca 5897     		str	r7, [sp, #352]
 788:Middlewares/ST/filex/common/src/fx_directory_create.c ****             {
 807              		.loc 1 788 13 is_stmt 1 view .LVU313
 808              	.LVL92:
 788:Middlewares/ST/filex/common/src/fx_directory_create.c ****             {
 809              		.loc 1 788 13 is_stmt 0 view .LVU314
ARM GAS  C:\Users\HP\AppData\Local\Temp\cc6zmzy4.s 			page 46


 810 02cc 10E0     		b	.L32
 811              	.LVL93:
 812              	.L59:
 762:Middlewares/ST/filex/common/src/fx_directory_create.c **** 
 813              		.loc 1 762 13 is_stmt 1 view .LVU315
 814 02ce 4046     		mov	r0, r8
 815              	.LVL94:
 762:Middlewares/ST/filex/common/src/fx_directory_create.c **** 
 816              		.loc 1 762 13 is_stmt 0 view .LVU316
 817 02d0 FFF7FEFF 		bl	_tx_mutex_put
 818              	.LVL95:
 765:Middlewares/ST/filex/common/src/fx_directory_create.c ****         }
 819              		.loc 1 765 13 is_stmt 1 view .LVU317
 765:Middlewares/ST/filex/common/src/fx_directory_create.c ****         }
 820              		.loc 1 765 19 is_stmt 0 view .LVU318
 821 02d4 CAE6     		b	.L1
 822              	.L63:
 823 02d6 00BF     		.align	2
 824              	.L62:
 825 02d8 4944454D 		.word	1296385097
 826 02dc 00000000 		.word	_fx_system_time
 827 02e0 00000000 		.word	_fx_system_date
 828              	.LVL96:
 829              	.L33:
 790:Middlewares/ST/filex/common/src/fx_directory_create.c ****             }
 830              		.loc 1 790 17 is_stmt 1 discriminator 3 view .LVU319
 790:Middlewares/ST/filex/common/src/fx_directory_create.c ****             }
 831              		.loc 1 790 26 is_stmt 0 discriminator 3 view .LVU320
 832 02e4 589B     		ldr	r3, [sp, #352]
 833 02e6 5A1C     		adds	r2, r3, #1
 834 02e8 5892     		str	r2, [sp, #352]
 790:Middlewares/ST/filex/common/src/fx_directory_create.c ****             }
 835              		.loc 1 790 29 discriminator 3 view .LVU321
 836 02ea 2022     		movs	r2, #32
 837 02ec 1A70     		strb	r2, [r3]
 788:Middlewares/ST/filex/common/src/fx_directory_create.c ****             {
 838              		.loc 1 788 67 is_stmt 1 discriminator 3 view .LVU322
 788:Middlewares/ST/filex/common/src/fx_directory_create.c ****             {
 839              		.loc 1 788 68 is_stmt 0 discriminator 3 view .LVU323
 840 02ee 0134     		adds	r4, r4, #1
 841              	.LVL97:
 842              	.L32:
 788:Middlewares/ST/filex/common/src/fx_directory_create.c ****             {
 843              		.loc 1 788 25 is_stmt 1 discriminator 1 view .LVU324
 788:Middlewares/ST/filex/common/src/fx_directory_create.c ****             {
 844              		.loc 1 788 13 is_stmt 0 discriminator 1 view .LVU325
 845 02f0 0A2C     		cmp	r4, #10
 846 02f2 F7D9     		bls	.L33
 793:Middlewares/ST/filex/common/src/fx_directory_create.c ****             sub_dir_entry.fx_dir_entry_name[1] =  '.';
 847              		.loc 1 793 13 is_stmt 1 view .LVU326
 793:Middlewares/ST/filex/common/src/fx_directory_create.c ****             sub_dir_entry.fx_dir_entry_name[1] =  '.';
 848              		.loc 1 793 48 is_stmt 0 view .LVU327
 849 02f4 2E23     		movs	r3, #46
 850 02f6 209A     		ldr	r2, [sp, #128]
 851 02f8 1370     		strb	r3, [r2]
 794:Middlewares/ST/filex/common/src/fx_directory_create.c ****             sub_dir_entry.fx_dir_entry_name[2] =   0;
 852              		.loc 1 794 13 is_stmt 1 view .LVU328
ARM GAS  C:\Users\HP\AppData\Local\Temp\cc6zmzy4.s 			page 47


 794:Middlewares/ST/filex/common/src/fx_directory_create.c ****             sub_dir_entry.fx_dir_entry_name[2] =   0;
 853              		.loc 1 794 26 is_stmt 0 view .LVU329
 854 02fa 209A     		ldr	r2, [sp, #128]
 794:Middlewares/ST/filex/common/src/fx_directory_create.c ****             sub_dir_entry.fx_dir_entry_name[2] =   0;
 855              		.loc 1 794 48 view .LVU330
 856 02fc 5370     		strb	r3, [r2, #1]
 795:Middlewares/ST/filex/common/src/fx_directory_create.c **** 
 857              		.loc 1 795 13 is_stmt 1 view .LVU331
 795:Middlewares/ST/filex/common/src/fx_directory_create.c **** 
 858              		.loc 1 795 48 is_stmt 0 view .LVU332
 859 02fe 0023     		movs	r3, #0
 860 0300 209A     		ldr	r2, [sp, #128]
 861 0302 9370     		strb	r3, [r2, #2]
 797:Middlewares/ST/filex/common/src/fx_directory_create.c **** 
 862              		.loc 1 797 13 is_stmt 1 view .LVU333
 797:Middlewares/ST/filex/common/src/fx_directory_create.c **** 
 863              		.loc 1 797 58 is_stmt 0 view .LVU334
 864 0304 2593     		str	r3, [sp, #148]
 800:Middlewares/ST/filex/common/src/fx_directory_create.c **** 
 865              		.loc 1 800 13 is_stmt 1 view .LVU335
 800:Middlewares/ST/filex/common/src/fx_directory_create.c **** 
 866              		.loc 1 800 50 is_stmt 0 view .LVU336
 867 0306 0022     		movs	r2, #0
 868 0308 0023     		movs	r3, #0
 869 030a CDE92E23 		strd	r2, [sp, #184]
 803:Middlewares/ST/filex/common/src/fx_directory_create.c ****         }
 870              		.loc 1 803 13 is_stmt 1 view .LVU337
 803:Middlewares/ST/filex/common/src/fx_directory_create.c ****         }
 871              		.loc 1 803 51 is_stmt 0 view .LVU338
 872 030e CDF8C090 		str	r9, [sp, #192]
 873 0312 CDF8C4A0 		str	r10, [sp, #196]
 874              	.LVL98:
 875              	.L34:
 818:Middlewares/ST/filex/common/src/fx_directory_create.c **** 
 876              		.loc 1 818 9 is_stmt 1 view .LVU339
 818:Middlewares/ST/filex/common/src/fx_directory_create.c **** 
 877              		.loc 1 818 48 is_stmt 0 view .LVU340
 878 0316 2023     		movs	r3, #32
 879 0318 3293     		str	r3, [sp, #200]
 821:Middlewares/ST/filex/common/src/fx_directory_create.c **** 
 880              		.loc 1 821 9 is_stmt 1 view .LVU341
 821:Middlewares/ST/filex/common/src/fx_directory_create.c **** 
 881              		.loc 1 821 19 is_stmt 0 view .LVU342
 882 031a 20A9     		add	r1, sp, #128
 883 031c 2846     		mov	r0, r5
 884 031e FFF7FEFF 		bl	_fx_directory_entry_write
 885              	.LVL99:
 824:Middlewares/ST/filex/common/src/fx_directory_create.c ****         {
 886              		.loc 1 824 9 is_stmt 1 view .LVU343
 824:Middlewares/ST/filex/common/src/fx_directory_create.c ****         {
 887              		.loc 1 824 12 is_stmt 0 view .LVU344
 888 0322 0446     		mov	r4, r0
 889 0324 D0B9     		cbnz	r0, .L60
 839:Middlewares/ST/filex/common/src/fx_directory_create.c **** 
 890              		.loc 1 839 9 is_stmt 1 view .LVU345
 839:Middlewares/ST/filex/common/src/fx_directory_create.c **** 
 891              		.loc 1 839 19 is_stmt 0 view .LVU346
ARM GAS  C:\Users\HP\AppData\Local\Temp\cc6zmzy4.s 			page 48


 892 0326 05F50053 		add	r3, r5, #8192
 893 032a D3F8AC24 		ldr	r2, [r3, #1196]
 894 032e 3146     		mov	r1, r6
 895 0330 2846     		mov	r0, r5
 896              	.LVL100:
 839:Middlewares/ST/filex/common/src/fx_directory_create.c **** 
 897              		.loc 1 839 19 view .LVU347
 898 0332 FFF7FEFF 		bl	_fx_utility_FAT_entry_write
 899              	.LVL101:
 842:Middlewares/ST/filex/common/src/fx_directory_create.c ****         {
 900              		.loc 1 842 9 is_stmt 1 view .LVU348
 842:Middlewares/ST/filex/common/src/fx_directory_create.c ****         {
 901              		.loc 1 842 12 is_stmt 0 view .LVU349
 902 0336 0446     		mov	r4, r0
 903 0338 A0B9     		cbnz	r0, .L61
 876:Middlewares/ST/filex/common/src/fx_directory_create.c **** #ifdef FX_ENABLE_EXFAT
 904              		.loc 1 876 9 is_stmt 1 view .LVU350
 876:Middlewares/ST/filex/common/src/fx_directory_create.c **** #ifdef FX_ENABLE_EXFAT
 905              		.loc 1 876 18 is_stmt 0 view .LVU351
 906 033a 3CA9     		add	r1, sp, #240
 907 033c 2846     		mov	r0, r5
 908              	.LVL102:
 876:Middlewares/ST/filex/common/src/fx_directory_create.c **** #ifdef FX_ENABLE_EXFAT
 909              		.loc 1 876 18 view .LVU352
 910 033e FFF7FEFF 		bl	_fx_directory_entry_write
 911              	.LVL103:
 912 0342 0446     		mov	r4, r0
 913              	.LVL104:
 899:Middlewares/ST/filex/common/src/fx_directory_create.c **** 
 914              		.loc 1 899 5 is_stmt 1 view .LVU353
 915 0344 4046     		mov	r0, r8
 916              	.LVL105:
 899:Middlewares/ST/filex/common/src/fx_directory_create.c **** 
 917              		.loc 1 899 5 is_stmt 0 view .LVU354
 918 0346 FFF7FEFF 		bl	_tx_mutex_put
 919              	.LVL106:
 902:Middlewares/ST/filex/common/src/fx_directory_create.c **** }
 920              		.loc 1 902 5 is_stmt 1 view .LVU355
 902:Middlewares/ST/filex/common/src/fx_directory_create.c **** }
 921              		.loc 1 902 11 is_stmt 0 view .LVU356
 922 034a 8FE6     		b	.L1
 923              	.LVL107:
 924              	.L31:
 810:Middlewares/ST/filex/common/src/fx_directory_create.c ****             sub_dir_entry.fx_dir_entry_name[2] =   0;
 925              		.loc 1 810 13 is_stmt 1 view .LVU357
 810:Middlewares/ST/filex/common/src/fx_directory_create.c ****             sub_dir_entry.fx_dir_entry_name[2] =   0;
 926              		.loc 1 810 48 is_stmt 0 view .LVU358
 927 034c 209B     		ldr	r3, [sp, #128]
 928 034e 2E22     		movs	r2, #46
 929 0350 5A70     		strb	r2, [r3, #1]
 811:Middlewares/ST/filex/common/src/fx_directory_create.c **** 
 930              		.loc 1 811 13 is_stmt 1 view .LVU359
 811:Middlewares/ST/filex/common/src/fx_directory_create.c **** 
 931              		.loc 1 811 48 is_stmt 0 view .LVU360
 932 0352 0023     		movs	r3, #0
 933 0354 209A     		ldr	r2, [sp, #128]
 934 0356 9370     		strb	r3, [r2, #2]
ARM GAS  C:\Users\HP\AppData\Local\Temp\cc6zmzy4.s 			page 49


 814:Middlewares/ST/filex/common/src/fx_directory_create.c ****         }
 935              		.loc 1 814 13 is_stmt 1 view .LVU361
 814:Middlewares/ST/filex/common/src/fx_directory_create.c ****         }
 936              		.loc 1 814 48 is_stmt 0 view .LVU362
 937 0358 2D93     		str	r3, [sp, #180]
 938 035a DCE7     		b	.L34
 939              	.L60:
 832:Middlewares/ST/filex/common/src/fx_directory_create.c **** 
 940              		.loc 1 832 13 is_stmt 1 view .LVU363
 941 035c 4046     		mov	r0, r8
 942              	.LVL108:
 832:Middlewares/ST/filex/common/src/fx_directory_create.c **** 
 943              		.loc 1 832 13 is_stmt 0 view .LVU364
 944 035e FFF7FEFF 		bl	_tx_mutex_put
 945              	.LVL109:
 835:Middlewares/ST/filex/common/src/fx_directory_create.c ****         }
 946              		.loc 1 835 13 is_stmt 1 view .LVU365
 835:Middlewares/ST/filex/common/src/fx_directory_create.c ****         }
 947              		.loc 1 835 19 is_stmt 0 view .LVU366
 948 0362 83E6     		b	.L1
 949              	.LVL110:
 950              	.L61:
 850:Middlewares/ST/filex/common/src/fx_directory_create.c **** 
 951              		.loc 1 850 13 is_stmt 1 view .LVU367
 952 0364 4046     		mov	r0, r8
 953              	.LVL111:
 850:Middlewares/ST/filex/common/src/fx_directory_create.c **** 
 954              		.loc 1 850 13 is_stmt 0 view .LVU368
 955 0366 FFF7FEFF 		bl	_tx_mutex_put
 956              	.LVL112:
 853:Middlewares/ST/filex/common/src/fx_directory_create.c ****         }
 957              		.loc 1 853 13 is_stmt 1 view .LVU369
 853:Middlewares/ST/filex/common/src/fx_directory_create.c ****         }
 958              		.loc 1 853 19 is_stmt 0 view .LVU370
 959 036a 7FE6     		b	.L1
 960              	.LVL113:
 961              	.L39:
 158:Middlewares/ST/filex/common/src/fx_directory_create.c ****     }
 962              		.loc 1 158 15 view .LVU371
 963 036c 0C24     		movs	r4, #12
 964              	.LVL114:
 158:Middlewares/ST/filex/common/src/fx_directory_create.c ****     }
 965              		.loc 1 158 15 view .LVU372
 966 036e 7DE6     		b	.L1
 967              	.LVL115:
 968              	.L41:
 185:Middlewares/ST/filex/common/src/fx_directory_create.c **** 
 969              		.loc 1 185 5 view .LVU373
 970 0370 1124     		movs	r4, #17
 971              	.LVL116:
 185:Middlewares/ST/filex/common/src/fx_directory_create.c **** 
 972              		.loc 1 185 5 view .LVU374
 973 0372 7BE6     		b	.L1
 974              		.cfi_endproc
 975              	.LFE8:
 977              		.text
 978              	.Letext0:
ARM GAS  C:\Users\HP\AppData\Local\Temp\cc6zmzy4.s 			page 50


 979              		.file 3 "Middlewares/ST/threadx/common/inc/tx_api.h"
 980              		.file 4 "Middlewares/ST/filex/common/inc/fx_api.h"
 981              		.file 5 "Middlewares/ST/filex/common/inc/fx_system.h"
 982              		.file 6 "Middlewares/ST/filex/common/inc/fx_directory.h"
 983              		.file 7 "Middlewares/ST/filex/common/inc/fx_utility.h"
 984              		.file 8 "<built-in>"
ARM GAS  C:\Users\HP\AppData\Local\Temp\cc6zmzy4.s 			page 51

