ARM GAS  C:\Users\HP\AppData\Local\Temp\cc2Srqui.s 			page 1


   1              		.cpu cortex-m4
   2              		.arch armv7e-m
   3              		.fpu fpv4-sp-d16
   4              		.eabi_attribute 27, 1
   5              		.eabi_attribute 28, 1
   6              		.eabi_attribute 20, 1
   7              		.eabi_attribute 21, 1
   8              		.eabi_attribute 23, 3
   9              		.eabi_attribute 24, 1
  10              		.eabi_attribute 25, 1
  11              		.eabi_attribute 26, 1
  12              		.eabi_attribute 30, 1
  13              		.eabi_attribute 34, 1
  14              		.eabi_attribute 18, 4
  15              		.file	"fx_directory_local_path_set.c"
  16              		.text
  17              	.Ltext0:
  18              		.cfi_sections	.debug_frame
  19              		.section	.text._fx_directory_local_path_set,"ax",%progbits
  20              		.align	1
  21              		.global	_fx_directory_local_path_set
  22              		.syntax unified
  23              		.thumb
  24              		.thumb_func
  26              	_fx_directory_local_path_set:
  27              	.LVL0:
  28              	.LFB8:
  29              		.file 1 "Middlewares/ST/filex/common/src/fx_directory_local_path_set.c"
   1:Middlewares/ST/filex/common/src/fx_directory_local_path_set.c **** /**************************************************************************/
   2:Middlewares/ST/filex/common/src/fx_directory_local_path_set.c **** /*                                                                        */
   3:Middlewares/ST/filex/common/src/fx_directory_local_path_set.c **** /*       Copyright (c) Microsoft Corporation. All rights reserved.        */
   4:Middlewares/ST/filex/common/src/fx_directory_local_path_set.c **** /*                                                                        */
   5:Middlewares/ST/filex/common/src/fx_directory_local_path_set.c **** /*       This software is licensed under the Microsoft Software License   */
   6:Middlewares/ST/filex/common/src/fx_directory_local_path_set.c **** /*       Terms for Microsoft Azure RTOS. Full text of the license can be  */
   7:Middlewares/ST/filex/common/src/fx_directory_local_path_set.c **** /*       found in the LICENSE file at https://aka.ms/AzureRTOS_EULA       */
   8:Middlewares/ST/filex/common/src/fx_directory_local_path_set.c **** /*       and in the root directory of this software.                      */
   9:Middlewares/ST/filex/common/src/fx_directory_local_path_set.c **** /*                                                                        */
  10:Middlewares/ST/filex/common/src/fx_directory_local_path_set.c **** /**************************************************************************/
  11:Middlewares/ST/filex/common/src/fx_directory_local_path_set.c **** 
  12:Middlewares/ST/filex/common/src/fx_directory_local_path_set.c **** 
  13:Middlewares/ST/filex/common/src/fx_directory_local_path_set.c **** /**************************************************************************/
  14:Middlewares/ST/filex/common/src/fx_directory_local_path_set.c **** /**************************************************************************/
  15:Middlewares/ST/filex/common/src/fx_directory_local_path_set.c **** /**                                                                       */
  16:Middlewares/ST/filex/common/src/fx_directory_local_path_set.c **** /** FileX Component                                                       */
  17:Middlewares/ST/filex/common/src/fx_directory_local_path_set.c **** /**                                                                       */
  18:Middlewares/ST/filex/common/src/fx_directory_local_path_set.c **** /**   Directory                                                           */
  19:Middlewares/ST/filex/common/src/fx_directory_local_path_set.c **** /**                                                                       */
  20:Middlewares/ST/filex/common/src/fx_directory_local_path_set.c **** /**************************************************************************/
  21:Middlewares/ST/filex/common/src/fx_directory_local_path_set.c **** /**************************************************************************/
  22:Middlewares/ST/filex/common/src/fx_directory_local_path_set.c **** 
  23:Middlewares/ST/filex/common/src/fx_directory_local_path_set.c **** #define FX_SOURCE_CODE
  24:Middlewares/ST/filex/common/src/fx_directory_local_path_set.c **** 
  25:Middlewares/ST/filex/common/src/fx_directory_local_path_set.c **** 
  26:Middlewares/ST/filex/common/src/fx_directory_local_path_set.c **** /* Include necessary system files.  */
  27:Middlewares/ST/filex/common/src/fx_directory_local_path_set.c **** 
  28:Middlewares/ST/filex/common/src/fx_directory_local_path_set.c **** #include "fx_api.h"
  29:Middlewares/ST/filex/common/src/fx_directory_local_path_set.c **** #include "fx_system.h"
ARM GAS  C:\Users\HP\AppData\Local\Temp\cc2Srqui.s 			page 2


  30:Middlewares/ST/filex/common/src/fx_directory_local_path_set.c **** #include "fx_file.h"
  31:Middlewares/ST/filex/common/src/fx_directory_local_path_set.c **** #include "fx_utility.h"
  32:Middlewares/ST/filex/common/src/fx_directory_local_path_set.c **** #include "fx_directory.h"
  33:Middlewares/ST/filex/common/src/fx_directory_local_path_set.c **** 
  34:Middlewares/ST/filex/common/src/fx_directory_local_path_set.c **** #ifndef FX_NO_LOCAL_PATH
  35:Middlewares/ST/filex/common/src/fx_directory_local_path_set.c **** FX_LOCAL_PATH_SETUP
  36:Middlewares/ST/filex/common/src/fx_directory_local_path_set.c **** #endif
  37:Middlewares/ST/filex/common/src/fx_directory_local_path_set.c **** 
  38:Middlewares/ST/filex/common/src/fx_directory_local_path_set.c **** /**************************************************************************/
  39:Middlewares/ST/filex/common/src/fx_directory_local_path_set.c **** /*                                                                        */
  40:Middlewares/ST/filex/common/src/fx_directory_local_path_set.c **** /*  FUNCTION                                               RELEASE        */
  41:Middlewares/ST/filex/common/src/fx_directory_local_path_set.c **** /*                                                                        */
  42:Middlewares/ST/filex/common/src/fx_directory_local_path_set.c **** /*    _fx_directory_local_path_set                        PORTABLE C      */
  43:Middlewares/ST/filex/common/src/fx_directory_local_path_set.c **** /*                                                           6.1.5        */
  44:Middlewares/ST/filex/common/src/fx_directory_local_path_set.c **** /*  AUTHOR                                                                */
  45:Middlewares/ST/filex/common/src/fx_directory_local_path_set.c **** /*                                                                        */
  46:Middlewares/ST/filex/common/src/fx_directory_local_path_set.c **** /*    William E. Lamie, Microsoft Corporation                             */
  47:Middlewares/ST/filex/common/src/fx_directory_local_path_set.c **** /*                                                                        */
  48:Middlewares/ST/filex/common/src/fx_directory_local_path_set.c **** /*  DESCRIPTION                                                           */
  49:Middlewares/ST/filex/common/src/fx_directory_local_path_set.c **** /*                                                                        */
  50:Middlewares/ST/filex/common/src/fx_directory_local_path_set.c **** /*    This function sets the local default directory of the media to the  */
  51:Middlewares/ST/filex/common/src/fx_directory_local_path_set.c **** /*    path specified by the caller.  If this path is not found, an error  */
  52:Middlewares/ST/filex/common/src/fx_directory_local_path_set.c **** /*    code is returned.                                                   */
  53:Middlewares/ST/filex/common/src/fx_directory_local_path_set.c **** /*                                                                        */
  54:Middlewares/ST/filex/common/src/fx_directory_local_path_set.c **** /*  INPUT                                                                 */
  55:Middlewares/ST/filex/common/src/fx_directory_local_path_set.c **** /*                                                                        */
  56:Middlewares/ST/filex/common/src/fx_directory_local_path_set.c **** /*    media_ptr                             Media control block pointer   */
  57:Middlewares/ST/filex/common/src/fx_directory_local_path_set.c **** /*    local_path                            Local path control block ptr  */
  58:Middlewares/ST/filex/common/src/fx_directory_local_path_set.c **** /*    new_path_name                         New path to set current local */
  59:Middlewares/ST/filex/common/src/fx_directory_local_path_set.c **** /*                                            working directory to        */
  60:Middlewares/ST/filex/common/src/fx_directory_local_path_set.c **** /*                                                                        */
  61:Middlewares/ST/filex/common/src/fx_directory_local_path_set.c **** /*  OUTPUT                                                                */
  62:Middlewares/ST/filex/common/src/fx_directory_local_path_set.c **** /*                                                                        */
  63:Middlewares/ST/filex/common/src/fx_directory_local_path_set.c **** /*    return status                                                       */
  64:Middlewares/ST/filex/common/src/fx_directory_local_path_set.c **** /*                                                                        */
  65:Middlewares/ST/filex/common/src/fx_directory_local_path_set.c **** /*  CALLS                                                                 */
  66:Middlewares/ST/filex/common/src/fx_directory_local_path_set.c **** /*                                                                        */
  67:Middlewares/ST/filex/common/src/fx_directory_local_path_set.c **** /*    _fx_directory_search                  Search for the directory name */
  68:Middlewares/ST/filex/common/src/fx_directory_local_path_set.c **** /*                                          in the directory structure    */
  69:Middlewares/ST/filex/common/src/fx_directory_local_path_set.c **** /*                                                                        */
  70:Middlewares/ST/filex/common/src/fx_directory_local_path_set.c **** /*  CALLED BY                                                             */
  71:Middlewares/ST/filex/common/src/fx_directory_local_path_set.c **** /*                                                                        */
  72:Middlewares/ST/filex/common/src/fx_directory_local_path_set.c **** /*    Application Code                                                    */
  73:Middlewares/ST/filex/common/src/fx_directory_local_path_set.c **** /*                                                                        */
  74:Middlewares/ST/filex/common/src/fx_directory_local_path_set.c **** /*  RELEASE HISTORY                                                       */
  75:Middlewares/ST/filex/common/src/fx_directory_local_path_set.c **** /*                                                                        */
  76:Middlewares/ST/filex/common/src/fx_directory_local_path_set.c **** /*    DATE              NAME                      DESCRIPTION             */
  77:Middlewares/ST/filex/common/src/fx_directory_local_path_set.c **** /*                                                                        */
  78:Middlewares/ST/filex/common/src/fx_directory_local_path_set.c **** /*  05-19-2020     William E. Lamie         Initial Version 6.0           */
  79:Middlewares/ST/filex/common/src/fx_directory_local_path_set.c **** /*  09-30-2020     William E. Lamie         Modified comment(s),          */
  80:Middlewares/ST/filex/common/src/fx_directory_local_path_set.c **** /*                                            resulting in version 6.1    */
  81:Middlewares/ST/filex/common/src/fx_directory_local_path_set.c **** /*  03-02-2021     William E. Lamie         Modified comment(s),          */
  82:Middlewares/ST/filex/common/src/fx_directory_local_path_set.c **** /*                                            resulting in version 6.1.5  */
  83:Middlewares/ST/filex/common/src/fx_directory_local_path_set.c **** /*                                                                        */
  84:Middlewares/ST/filex/common/src/fx_directory_local_path_set.c **** /**************************************************************************/
  85:Middlewares/ST/filex/common/src/fx_directory_local_path_set.c **** UINT  _fx_directory_local_path_set(FX_MEDIA *media_ptr, FX_LOCAL_PATH *local_path_ptr, CHAR *new_pa
  86:Middlewares/ST/filex/common/src/fx_directory_local_path_set.c **** {
ARM GAS  C:\Users\HP\AppData\Local\Temp\cc2Srqui.s 			page 3


  30              		.loc 1 86 1 view -0
  31              		.cfi_startproc
  32              		@ args = 0, pretend = 0, frame = 112
  33              		@ frame_needed = 0, uses_anonymous_args = 0
  34              		.loc 1 86 1 is_stmt 0 view .LVU1
  35 0000 2DE9F047 		push	{r4, r5, r6, r7, r8, r9, r10, lr}
  36              	.LCFI0:
  37              		.cfi_def_cfa_offset 32
  38              		.cfi_offset 4, -32
  39              		.cfi_offset 5, -28
  40              		.cfi_offset 6, -24
  41              		.cfi_offset 7, -20
  42              		.cfi_offset 8, -16
  43              		.cfi_offset 9, -12
  44              		.cfi_offset 10, -8
  45              		.cfi_offset 14, -4
  46 0004 9EB0     		sub	sp, sp, #120
  47              	.LCFI1:
  48              		.cfi_def_cfa_offset 152
  49 0006 9146     		mov	r9, r2
  87:Middlewares/ST/filex/common/src/fx_directory_local_path_set.c **** 
  88:Middlewares/ST/filex/common/src/fx_directory_local_path_set.c **** #ifndef FX_NO_LOCAL_PATH
  89:Middlewares/ST/filex/common/src/fx_directory_local_path_set.c **** UINT         status;
  50              		.loc 1 89 1 is_stmt 1 view .LVU2
  90:Middlewares/ST/filex/common/src/fx_directory_local_path_set.c **** CHAR        *path_string_ptr;
  51              		.loc 1 90 1 view .LVU3
  91:Middlewares/ST/filex/common/src/fx_directory_local_path_set.c **** UINT         path_string_capacity;
  52              		.loc 1 91 1 view .LVU4
  92:Middlewares/ST/filex/common/src/fx_directory_local_path_set.c **** FX_PATH     *path_ptr;
  53              		.loc 1 92 1 view .LVU5
  93:Middlewares/ST/filex/common/src/fx_directory_local_path_set.c **** UINT         i, j;
  54              		.loc 1 93 1 view .LVU6
  94:Middlewares/ST/filex/common/src/fx_directory_local_path_set.c **** #endif
  95:Middlewares/ST/filex/common/src/fx_directory_local_path_set.c **** FX_DIR_ENTRY dir_entry;
  55              		.loc 1 95 1 view .LVU7
  96:Middlewares/ST/filex/common/src/fx_directory_local_path_set.c **** 
  97:Middlewares/ST/filex/common/src/fx_directory_local_path_set.c **** 
  98:Middlewares/ST/filex/common/src/fx_directory_local_path_set.c **** #ifndef FX_MEDIA_STATISTICS_DISABLE
  99:Middlewares/ST/filex/common/src/fx_directory_local_path_set.c **** 
 100:Middlewares/ST/filex/common/src/fx_directory_local_path_set.c ****     /* Increment the number of times this service has been called.  */
 101:Middlewares/ST/filex/common/src/fx_directory_local_path_set.c ****     media_ptr -> fx_media_directory_local_path_sets++;
  56              		.loc 1 101 5 view .LVU8
  57              		.loc 1 101 15 is_stmt 0 view .LVU9
  58 0008 D0F80831 		ldr	r3, [r0, #264]
  59              		.loc 1 101 52 view .LVU10
  60 000c 0133     		adds	r3, r3, #1
  61 000e C0F80831 		str	r3, [r0, #264]
 102:Middlewares/ST/filex/common/src/fx_directory_local_path_set.c **** #endif
 103:Middlewares/ST/filex/common/src/fx_directory_local_path_set.c **** 
 104:Middlewares/ST/filex/common/src/fx_directory_local_path_set.c ****     /* Setup pointer to a name buffer.  */
 105:Middlewares/ST/filex/common/src/fx_directory_local_path_set.c ****     dir_entry.fx_dir_entry_name =  media_ptr -> fx_media_name_buffer + FX_MAX_LONG_NAME_LEN;
  62              		.loc 1 105 5 is_stmt 1 view .LVU11
  63              		.loc 1 105 70 is_stmt 0 view .LVU12
  64 0012 00F69C13 		addw	r3, r0, #2460
  65              		.loc 1 105 33 view .LVU13
  66 0016 0293     		str	r3, [sp, #8]
 106:Middlewares/ST/filex/common/src/fx_directory_local_path_set.c **** 
ARM GAS  C:\Users\HP\AppData\Local\Temp\cc2Srqui.s 			page 4


 107:Middlewares/ST/filex/common/src/fx_directory_local_path_set.c ****     /* Setup the local path name buffer pointer.  */
 108:Middlewares/ST/filex/common/src/fx_directory_local_path_set.c ****     local_path_ptr -> fx_path_directory.fx_dir_entry_name =  local_path_ptr -> fx_path_name_buffer;
  67              		.loc 1 108 5 is_stmt 1 view .LVU14
  68              		.loc 1 108 62 is_stmt 0 view .LVU15
  69 0018 01F5B87A 		add	r10, r1, #368
  70              		.loc 1 108 59 view .LVU16
  71 001c C1F800A0 		str	r10, [r1]
 109:Middlewares/ST/filex/common/src/fx_directory_local_path_set.c **** 
 110:Middlewares/ST/filex/common/src/fx_directory_local_path_set.c ****     /* Clear the short name string.  */
 111:Middlewares/ST/filex/common/src/fx_directory_local_path_set.c ****     dir_entry.fx_dir_entry_short_name[0] =  (CHAR)0;
  72              		.loc 1 111 5 is_stmt 1 view .LVU17
  73              		.loc 1 111 42 is_stmt 0 view .LVU18
  74 0020 0023     		movs	r3, #0
  75 0022 8DF80C30 		strb	r3, [sp, #12]
 112:Middlewares/ST/filex/common/src/fx_directory_local_path_set.c **** 
 113:Middlewares/ST/filex/common/src/fx_directory_local_path_set.c ****     /* Clear the long name string.  */
 114:Middlewares/ST/filex/common/src/fx_directory_local_path_set.c ****     dir_entry.fx_dir_entry_name[0] =  (CHAR)0;
  76              		.loc 1 114 5 is_stmt 1 view .LVU19
  77              		.loc 1 114 36 is_stmt 0 view .LVU20
  78 0026 80F89C39 		strb	r3, [r0, #2460]
 115:Middlewares/ST/filex/common/src/fx_directory_local_path_set.c **** 
 116:Middlewares/ST/filex/common/src/fx_directory_local_path_set.c ****     /* Check the media to make sure it is open.  */
 117:Middlewares/ST/filex/common/src/fx_directory_local_path_set.c ****     if (media_ptr -> fx_media_id != FX_MEDIA_ID)
  79              		.loc 1 117 5 is_stmt 1 view .LVU21
  80              		.loc 1 117 19 is_stmt 0 view .LVU22
  81 002a 0268     		ldr	r2, [r0]
  82              	.LVL1:
  83              		.loc 1 117 8 view .LVU23
  84 002c 7A4B     		ldr	r3, .L44
  85 002e 9A42     		cmp	r2, r3
  86 0030 04D0     		beq	.L41
 118:Middlewares/ST/filex/common/src/fx_directory_local_path_set.c ****     {
 119:Middlewares/ST/filex/common/src/fx_directory_local_path_set.c **** 
 120:Middlewares/ST/filex/common/src/fx_directory_local_path_set.c ****         /* Return the media not opened error.  */
 121:Middlewares/ST/filex/common/src/fx_directory_local_path_set.c ****         return(FX_MEDIA_NOT_OPEN);
  87              		.loc 1 121 15 view .LVU24
  88 0032 1126     		movs	r6, #17
  89              	.LVL2:
  90              	.L1:
 122:Middlewares/ST/filex/common/src/fx_directory_local_path_set.c ****     }
 123:Middlewares/ST/filex/common/src/fx_directory_local_path_set.c **** 
 124:Middlewares/ST/filex/common/src/fx_directory_local_path_set.c **** #ifdef FX_NO_LOCAL_PATH
 125:Middlewares/ST/filex/common/src/fx_directory_local_path_set.c **** 
 126:Middlewares/ST/filex/common/src/fx_directory_local_path_set.c ****     FX_PARAMETER_NOT_USED(new_path_name);
 127:Middlewares/ST/filex/common/src/fx_directory_local_path_set.c **** 
 128:Middlewares/ST/filex/common/src/fx_directory_local_path_set.c ****     /* Error, return to caller.  */
 129:Middlewares/ST/filex/common/src/fx_directory_local_path_set.c ****     return(FX_NOT_IMPLEMENTED);
 130:Middlewares/ST/filex/common/src/fx_directory_local_path_set.c **** #else
 131:Middlewares/ST/filex/common/src/fx_directory_local_path_set.c **** 
 132:Middlewares/ST/filex/common/src/fx_directory_local_path_set.c ****     /* If trace is enabled, insert this event into the trace buffer.  */
 133:Middlewares/ST/filex/common/src/fx_directory_local_path_set.c ****     FX_TRACE_IN_LINE_INSERT(FX_TRACE_DIRECTORY_LOCAL_PATH_SET, media_ptr, local_path_ptr, new_path_
 134:Middlewares/ST/filex/common/src/fx_directory_local_path_set.c **** 
 135:Middlewares/ST/filex/common/src/fx_directory_local_path_set.c ****     /* Protect against other threads accessing the media.  */
 136:Middlewares/ST/filex/common/src/fx_directory_local_path_set.c ****     FX_PROTECT
 137:Middlewares/ST/filex/common/src/fx_directory_local_path_set.c **** 
 138:Middlewares/ST/filex/common/src/fx_directory_local_path_set.c ****     /* Look for a root directory selection.  */
 139:Middlewares/ST/filex/common/src/fx_directory_local_path_set.c ****     if ((!new_path_name) || (((new_path_name[0] == '\\') || (new_path_name[0] == '/')) && (new_path
ARM GAS  C:\Users\HP\AppData\Local\Temp\cc2Srqui.s 			page 5


 140:Middlewares/ST/filex/common/src/fx_directory_local_path_set.c ****     {
 141:Middlewares/ST/filex/common/src/fx_directory_local_path_set.c **** 
 142:Middlewares/ST/filex/common/src/fx_directory_local_path_set.c ****         /* Set the default local directory to the root.  */
 143:Middlewares/ST/filex/common/src/fx_directory_local_path_set.c ****         local_path_ptr -> fx_path_directory.fx_dir_entry_name[0] =  (CHAR)0;
 144:Middlewares/ST/filex/common/src/fx_directory_local_path_set.c ****         local_path_ptr -> fx_path_string[0] =                       (CHAR)0;
 145:Middlewares/ST/filex/common/src/fx_directory_local_path_set.c ****         local_path_ptr -> fx_path_string[FX_MAXIMUM_PATH - 2] =       (CHAR)0;
 146:Middlewares/ST/filex/common/src/fx_directory_local_path_set.c **** 
 147:Middlewares/ST/filex/common/src/fx_directory_local_path_set.c ****         /* Setup thread control block to use this local path pointer.  */
 148:Middlewares/ST/filex/common/src/fx_directory_local_path_set.c ****         _tx_thread_current_ptr -> tx_thread_filex_ptr =  (VOID *)local_path_ptr;
 149:Middlewares/ST/filex/common/src/fx_directory_local_path_set.c ****     }
 150:Middlewares/ST/filex/common/src/fx_directory_local_path_set.c ****     else
 151:Middlewares/ST/filex/common/src/fx_directory_local_path_set.c ****     {
 152:Middlewares/ST/filex/common/src/fx_directory_local_path_set.c **** 
 153:Middlewares/ST/filex/common/src/fx_directory_local_path_set.c ****         /* Search the system for the supplied path and directory name.  */
 154:Middlewares/ST/filex/common/src/fx_directory_local_path_set.c ****         status =  _fx_directory_search(media_ptr, new_path_name, &dir_entry, FX_NULL, FX_NULL);
 155:Middlewares/ST/filex/common/src/fx_directory_local_path_set.c **** 
 156:Middlewares/ST/filex/common/src/fx_directory_local_path_set.c ****         /* Determine if the search failed or if the entry found is not a
 157:Middlewares/ST/filex/common/src/fx_directory_local_path_set.c ****            directory.  */
 158:Middlewares/ST/filex/common/src/fx_directory_local_path_set.c ****         if ((status != FX_SUCCESS) || (!(dir_entry.fx_dir_entry_attributes & FX_DIRECTORY)))
 159:Middlewares/ST/filex/common/src/fx_directory_local_path_set.c ****         {
 160:Middlewares/ST/filex/common/src/fx_directory_local_path_set.c **** 
 161:Middlewares/ST/filex/common/src/fx_directory_local_path_set.c ****             /* Release media protection.  */
 162:Middlewares/ST/filex/common/src/fx_directory_local_path_set.c ****             FX_UNPROTECT
 163:Middlewares/ST/filex/common/src/fx_directory_local_path_set.c **** 
 164:Middlewares/ST/filex/common/src/fx_directory_local_path_set.c ****             /* Invalid Path - Return the error code.  */
 165:Middlewares/ST/filex/common/src/fx_directory_local_path_set.c ****             return(FX_INVALID_PATH);
 166:Middlewares/ST/filex/common/src/fx_directory_local_path_set.c ****         }
 167:Middlewares/ST/filex/common/src/fx_directory_local_path_set.c **** 
 168:Middlewares/ST/filex/common/src/fx_directory_local_path_set.c ****         /* Now update the current path string.  */
 169:Middlewares/ST/filex/common/src/fx_directory_local_path_set.c **** 
 170:Middlewares/ST/filex/common/src/fx_directory_local_path_set.c ****         /* Setup the path string pointer to the start of the current path.  */
 171:Middlewares/ST/filex/common/src/fx_directory_local_path_set.c ****         path_string_ptr =  &(local_path_ptr -> fx_path_string[0]);
 172:Middlewares/ST/filex/common/src/fx_directory_local_path_set.c **** 
 173:Middlewares/ST/filex/common/src/fx_directory_local_path_set.c ****         /* Setup the path string's capacity.  */
 174:Middlewares/ST/filex/common/src/fx_directory_local_path_set.c ****         path_string_capacity =  FX_MAXIMUM_PATH - 1;
 175:Middlewares/ST/filex/common/src/fx_directory_local_path_set.c **** 
 176:Middlewares/ST/filex/common/src/fx_directory_local_path_set.c ****         /* Determine if the new path is relative from the current path.  */
 177:Middlewares/ST/filex/common/src/fx_directory_local_path_set.c ****         if ((new_path_name[0] != '\\') && (new_path_name[0] != '/'))
 178:Middlewares/ST/filex/common/src/fx_directory_local_path_set.c ****         {
 179:Middlewares/ST/filex/common/src/fx_directory_local_path_set.c **** 
 180:Middlewares/ST/filex/common/src/fx_directory_local_path_set.c ****             /* Yes, a relative path was found.  */
 181:Middlewares/ST/filex/common/src/fx_directory_local_path_set.c **** 
 182:Middlewares/ST/filex/common/src/fx_directory_local_path_set.c ****             /* Setup the default path pointer to the local path.  */
 183:Middlewares/ST/filex/common/src/fx_directory_local_path_set.c ****             path_ptr =  local_path_ptr;
 184:Middlewares/ST/filex/common/src/fx_directory_local_path_set.c **** 
 185:Middlewares/ST/filex/common/src/fx_directory_local_path_set.c ****             /* Determine if the local path is different than the current local path.  */
 186:Middlewares/ST/filex/common/src/fx_directory_local_path_set.c ****             if (local_path_ptr !=  (FX_LOCAL_PATH *)_tx_thread_current_ptr -> tx_thread_filex_ptr)
 187:Middlewares/ST/filex/common/src/fx_directory_local_path_set.c ****             {
 188:Middlewares/ST/filex/common/src/fx_directory_local_path_set.c **** 
 189:Middlewares/ST/filex/common/src/fx_directory_local_path_set.c ****                 /* Yes, there is a difference.  */
 190:Middlewares/ST/filex/common/src/fx_directory_local_path_set.c **** 
 191:Middlewares/ST/filex/common/src/fx_directory_local_path_set.c ****                 /* Should we copy from the default media path or from the previous default
 192:Middlewares/ST/filex/common/src/fx_directory_local_path_set.c ****                    path.  */
 193:Middlewares/ST/filex/common/src/fx_directory_local_path_set.c ****                 if (_tx_thread_current_ptr -> tx_thread_filex_ptr)
 194:Middlewares/ST/filex/common/src/fx_directory_local_path_set.c ****                 {
 195:Middlewares/ST/filex/common/src/fx_directory_local_path_set.c **** 
 196:Middlewares/ST/filex/common/src/fx_directory_local_path_set.c ****                     /* There is a local path so copy the relative path info from it.  */
ARM GAS  C:\Users\HP\AppData\Local\Temp\cc2Srqui.s 			page 6


 197:Middlewares/ST/filex/common/src/fx_directory_local_path_set.c ****                     i =  0;
 198:Middlewares/ST/filex/common/src/fx_directory_local_path_set.c ****                     do
 199:Middlewares/ST/filex/common/src/fx_directory_local_path_set.c ****                     {
 200:Middlewares/ST/filex/common/src/fx_directory_local_path_set.c **** 
 201:Middlewares/ST/filex/common/src/fx_directory_local_path_set.c ****                         /* Copy from previous local to new local path.  */
 202:Middlewares/ST/filex/common/src/fx_directory_local_path_set.c ****                         local_path_ptr -> fx_path_string[i] =
 203:Middlewares/ST/filex/common/src/fx_directory_local_path_set.c ****                             ((FX_LOCAL_PATH *)_tx_thread_current_ptr -> tx_thread_filex_ptr) -> fx_
 204:Middlewares/ST/filex/common/src/fx_directory_local_path_set.c ****                             
 205:Middlewares/ST/filex/common/src/fx_directory_local_path_set.c ****                         /* Determine if we are done.  */
 206:Middlewares/ST/filex/common/src/fx_directory_local_path_set.c ****                         if (local_path_ptr -> fx_path_string[i] == 0)
 207:Middlewares/ST/filex/common/src/fx_directory_local_path_set.c ****                         {
 208:Middlewares/ST/filex/common/src/fx_directory_local_path_set.c ****                         
 209:Middlewares/ST/filex/common/src/fx_directory_local_path_set.c ****                             /* Are we not at the end of the string?  */
 210:Middlewares/ST/filex/common/src/fx_directory_local_path_set.c ****                             if (i < (FX_MAXIMUM_PATH - 1))
 211:Middlewares/ST/filex/common/src/fx_directory_local_path_set.c ****                             {
 212:Middlewares/ST/filex/common/src/fx_directory_local_path_set.c ****                             
 213:Middlewares/ST/filex/common/src/fx_directory_local_path_set.c ****                                 /* Yes, break the loop.  */
 214:Middlewares/ST/filex/common/src/fx_directory_local_path_set.c ****                                 break;
 215:Middlewares/ST/filex/common/src/fx_directory_local_path_set.c ****                             }
 216:Middlewares/ST/filex/common/src/fx_directory_local_path_set.c ****                         }
 217:Middlewares/ST/filex/common/src/fx_directory_local_path_set.c ****                         
 218:Middlewares/ST/filex/common/src/fx_directory_local_path_set.c ****                         /* Move to the next character.  */
 219:Middlewares/ST/filex/common/src/fx_directory_local_path_set.c ****                         i++;
 220:Middlewares/ST/filex/common/src/fx_directory_local_path_set.c ****                         
 221:Middlewares/ST/filex/common/src/fx_directory_local_path_set.c ****                     } while (i < FX_MAXIMUM_PATH);
 222:Middlewares/ST/filex/common/src/fx_directory_local_path_set.c ****                 }
 223:Middlewares/ST/filex/common/src/fx_directory_local_path_set.c ****                 else
 224:Middlewares/ST/filex/common/src/fx_directory_local_path_set.c ****                 {
 225:Middlewares/ST/filex/common/src/fx_directory_local_path_set.c **** 
 226:Middlewares/ST/filex/common/src/fx_directory_local_path_set.c ****                     /* No local path, so copy the relative path information from the media
 227:Middlewares/ST/filex/common/src/fx_directory_local_path_set.c ****                        default.  */
 228:Middlewares/ST/filex/common/src/fx_directory_local_path_set.c ****                     i =  0;
 229:Middlewares/ST/filex/common/src/fx_directory_local_path_set.c ****                     do
 230:Middlewares/ST/filex/common/src/fx_directory_local_path_set.c ****                     {
 231:Middlewares/ST/filex/common/src/fx_directory_local_path_set.c **** 
 232:Middlewares/ST/filex/common/src/fx_directory_local_path_set.c ****                         /* Copy from the media default to new local path.  */
 233:Middlewares/ST/filex/common/src/fx_directory_local_path_set.c ****                         local_path_ptr -> fx_path_string[i] =
 234:Middlewares/ST/filex/common/src/fx_directory_local_path_set.c ****                             media_ptr -> fx_media_default_path.fx_path_string[i];
 235:Middlewares/ST/filex/common/src/fx_directory_local_path_set.c ****                             
 236:Middlewares/ST/filex/common/src/fx_directory_local_path_set.c ****                         /* Determine if we are done.  */
 237:Middlewares/ST/filex/common/src/fx_directory_local_path_set.c ****                         if (local_path_ptr -> fx_path_string[i] == 0)
 238:Middlewares/ST/filex/common/src/fx_directory_local_path_set.c ****                         {
 239:Middlewares/ST/filex/common/src/fx_directory_local_path_set.c ****                         
 240:Middlewares/ST/filex/common/src/fx_directory_local_path_set.c ****                             /* Are we not at the end of the string?  */
 241:Middlewares/ST/filex/common/src/fx_directory_local_path_set.c ****                             if (i < (FX_MAXIMUM_PATH - 1))
 242:Middlewares/ST/filex/common/src/fx_directory_local_path_set.c ****                             {
 243:Middlewares/ST/filex/common/src/fx_directory_local_path_set.c ****                             
 244:Middlewares/ST/filex/common/src/fx_directory_local_path_set.c ****                                 /* Yes, break the loop.  */
 245:Middlewares/ST/filex/common/src/fx_directory_local_path_set.c ****                                 break;
 246:Middlewares/ST/filex/common/src/fx_directory_local_path_set.c ****                             }
 247:Middlewares/ST/filex/common/src/fx_directory_local_path_set.c ****                         }
 248:Middlewares/ST/filex/common/src/fx_directory_local_path_set.c **** 
 249:Middlewares/ST/filex/common/src/fx_directory_local_path_set.c ****                         /* Move to the next character.  */
 250:Middlewares/ST/filex/common/src/fx_directory_local_path_set.c ****                         i++;
 251:Middlewares/ST/filex/common/src/fx_directory_local_path_set.c **** 
 252:Middlewares/ST/filex/common/src/fx_directory_local_path_set.c ****                     } while (i < FX_MAXIMUM_PATH);
 253:Middlewares/ST/filex/common/src/fx_directory_local_path_set.c ****                 }
ARM GAS  C:\Users\HP\AppData\Local\Temp\cc2Srqui.s 			page 7


 254:Middlewares/ST/filex/common/src/fx_directory_local_path_set.c ****             }
 255:Middlewares/ST/filex/common/src/fx_directory_local_path_set.c **** 
 256:Middlewares/ST/filex/common/src/fx_directory_local_path_set.c ****             /* First, check the current path for string overflow.  If this is set,
 257:Middlewares/ST/filex/common/src/fx_directory_local_path_set.c ****                don't attempt to update the current path with relative information.
 258:Middlewares/ST/filex/common/src/fx_directory_local_path_set.c ****                The path won't be valid again until a complete path is given.  */
 259:Middlewares/ST/filex/common/src/fx_directory_local_path_set.c ****             if (path_ptr -> fx_path_string[FX_MAXIMUM_PATH - 2] == '*')
 260:Middlewares/ST/filex/common/src/fx_directory_local_path_set.c ****             {
 261:Middlewares/ST/filex/common/src/fx_directory_local_path_set.c **** 
 262:Middlewares/ST/filex/common/src/fx_directory_local_path_set.c ****                 /* Yes, don't update the string, just finish the path set processing.  */
 263:Middlewares/ST/filex/common/src/fx_directory_local_path_set.c **** 
 264:Middlewares/ST/filex/common/src/fx_directory_local_path_set.c ****                 /* Determine if we are at the root directory.  */
 265:Middlewares/ST/filex/common/src/fx_directory_local_path_set.c ****                 if (!dir_entry.fx_dir_entry_cluster)
 266:Middlewares/ST/filex/common/src/fx_directory_local_path_set.c ****                 {
 267:Middlewares/ST/filex/common/src/fx_directory_local_path_set.c ****                     /* Set the current directory back to the root directory.  */
 268:Middlewares/ST/filex/common/src/fx_directory_local_path_set.c ****                     dir_entry.fx_dir_entry_name[0] =  (CHAR)0;
 269:Middlewares/ST/filex/common/src/fx_directory_local_path_set.c **** 
 270:Middlewares/ST/filex/common/src/fx_directory_local_path_set.c ****                     /* Clear the current path string.  */
 271:Middlewares/ST/filex/common/src/fx_directory_local_path_set.c ****                     path_ptr -> fx_path_string[0] =  (CHAR)0;
 272:Middlewares/ST/filex/common/src/fx_directory_local_path_set.c **** 
 273:Middlewares/ST/filex/common/src/fx_directory_local_path_set.c ****                     /* Clear the overflow flag in the current path string... just in
 274:Middlewares/ST/filex/common/src/fx_directory_local_path_set.c ****                        case! */
 275:Middlewares/ST/filex/common/src/fx_directory_local_path_set.c ****                     path_ptr -> fx_path_string[FX_MAXIMUM_PATH - 2] =  (CHAR)0;
 276:Middlewares/ST/filex/common/src/fx_directory_local_path_set.c ****                 }
 277:Middlewares/ST/filex/common/src/fx_directory_local_path_set.c **** 
 278:Middlewares/ST/filex/common/src/fx_directory_local_path_set.c ****                 /* Copy the new directory entry into the media control block.  */
 279:Middlewares/ST/filex/common/src/fx_directory_local_path_set.c ****                 path_ptr -> fx_path_directory =  dir_entry;
 280:Middlewares/ST/filex/common/src/fx_directory_local_path_set.c **** 
 281:Middlewares/ST/filex/common/src/fx_directory_local_path_set.c ****                 /* Reset the local path name buffer pointer, since it was clobbered earlier.  */
 282:Middlewares/ST/filex/common/src/fx_directory_local_path_set.c ****                 local_path_ptr -> fx_path_directory.fx_dir_entry_name =  local_path_ptr -> fx_path_
 283:Middlewares/ST/filex/common/src/fx_directory_local_path_set.c **** 
 284:Middlewares/ST/filex/common/src/fx_directory_local_path_set.c ****                 /* Copy the directory name entry to the local path name area.  */
 285:Middlewares/ST/filex/common/src/fx_directory_local_path_set.c ****                 for (j = 0; j < FX_MAX_LONG_NAME_LEN; j++)
 286:Middlewares/ST/filex/common/src/fx_directory_local_path_set.c ****                 {
 287:Middlewares/ST/filex/common/src/fx_directory_local_path_set.c **** 
 288:Middlewares/ST/filex/common/src/fx_directory_local_path_set.c ****                     /* Copy the name buffer.  */
 289:Middlewares/ST/filex/common/src/fx_directory_local_path_set.c ****                     local_path_ptr -> fx_path_directory.fx_dir_entry_name[j] =  dir_entry.fx_dir_en
 290:Middlewares/ST/filex/common/src/fx_directory_local_path_set.c ****                 }
 291:Middlewares/ST/filex/common/src/fx_directory_local_path_set.c **** 
 292:Middlewares/ST/filex/common/src/fx_directory_local_path_set.c ****                 /* Setup thread control block to use this local path pointer.  */
 293:Middlewares/ST/filex/common/src/fx_directory_local_path_set.c ****                 _tx_thread_current_ptr -> tx_thread_filex_ptr =  (VOID *)local_path_ptr;
 294:Middlewares/ST/filex/common/src/fx_directory_local_path_set.c **** 
 295:Middlewares/ST/filex/common/src/fx_directory_local_path_set.c ****                 /* Release media protection.  */
 296:Middlewares/ST/filex/common/src/fx_directory_local_path_set.c ****                 FX_UNPROTECT
 297:Middlewares/ST/filex/common/src/fx_directory_local_path_set.c **** 
 298:Middlewares/ST/filex/common/src/fx_directory_local_path_set.c ****                 /* Default directory set is complete, return status.  */
 299:Middlewares/ST/filex/common/src/fx_directory_local_path_set.c ****                 return(FX_SUCCESS);
 300:Middlewares/ST/filex/common/src/fx_directory_local_path_set.c ****             }
 301:Middlewares/ST/filex/common/src/fx_directory_local_path_set.c **** 
 302:Middlewares/ST/filex/common/src/fx_directory_local_path_set.c ****             /* Move the current path starting pointer to the end of the current
 303:Middlewares/ST/filex/common/src/fx_directory_local_path_set.c ****                path string.  */
 304:Middlewares/ST/filex/common/src/fx_directory_local_path_set.c ****             while ((path_string_capacity) && (*path_string_ptr != FX_NULL))
 305:Middlewares/ST/filex/common/src/fx_directory_local_path_set.c ****             {
 306:Middlewares/ST/filex/common/src/fx_directory_local_path_set.c ****                 path_string_ptr++;
 307:Middlewares/ST/filex/common/src/fx_directory_local_path_set.c ****                 path_string_capacity--;
 308:Middlewares/ST/filex/common/src/fx_directory_local_path_set.c ****             }
 309:Middlewares/ST/filex/common/src/fx_directory_local_path_set.c **** 
 310:Middlewares/ST/filex/common/src/fx_directory_local_path_set.c ****             /* If room, place the \ character in the path string.  */
ARM GAS  C:\Users\HP\AppData\Local\Temp\cc2Srqui.s 			page 8


 311:Middlewares/ST/filex/common/src/fx_directory_local_path_set.c ****             if (path_string_capacity)
 312:Middlewares/ST/filex/common/src/fx_directory_local_path_set.c ****             {
 313:Middlewares/ST/filex/common/src/fx_directory_local_path_set.c **** 
 314:Middlewares/ST/filex/common/src/fx_directory_local_path_set.c ****                 /* There is room, place the directory marker in the string.  */
 315:Middlewares/ST/filex/common/src/fx_directory_local_path_set.c ****                 *path_string_ptr++ =  '\\';
 316:Middlewares/ST/filex/common/src/fx_directory_local_path_set.c ****                 path_string_capacity--;
 317:Middlewares/ST/filex/common/src/fx_directory_local_path_set.c ****             }
 318:Middlewares/ST/filex/common/src/fx_directory_local_path_set.c ****         }
 319:Middlewares/ST/filex/common/src/fx_directory_local_path_set.c ****         else
 320:Middlewares/ST/filex/common/src/fx_directory_local_path_set.c ****         {
 321:Middlewares/ST/filex/common/src/fx_directory_local_path_set.c **** 
 322:Middlewares/ST/filex/common/src/fx_directory_local_path_set.c ****             /* Setup the default path pointer.  */
 323:Middlewares/ST/filex/common/src/fx_directory_local_path_set.c **** 
 324:Middlewares/ST/filex/common/src/fx_directory_local_path_set.c ****             /* Setup the default path pointer to the local path.  */
 325:Middlewares/ST/filex/common/src/fx_directory_local_path_set.c ****             path_ptr =  local_path_ptr;
 326:Middlewares/ST/filex/common/src/fx_directory_local_path_set.c **** 
 327:Middlewares/ST/filex/common/src/fx_directory_local_path_set.c ****             /* Complete path name given.  Check to see if we need to clear an
 328:Middlewares/ST/filex/common/src/fx_directory_local_path_set.c ****                overflow character from a previous current path string update.  */
 329:Middlewares/ST/filex/common/src/fx_directory_local_path_set.c ****             if (path_ptr -> fx_path_string[FX_MAXIMUM_PATH - 2] == '*')
 330:Middlewares/ST/filex/common/src/fx_directory_local_path_set.c ****             {
 331:Middlewares/ST/filex/common/src/fx_directory_local_path_set.c ****                 path_ptr -> fx_path_string[FX_MAXIMUM_PATH - 2] = (CHAR)0;
 332:Middlewares/ST/filex/common/src/fx_directory_local_path_set.c ****             }
 333:Middlewares/ST/filex/common/src/fx_directory_local_path_set.c ****         }
 334:Middlewares/ST/filex/common/src/fx_directory_local_path_set.c **** 
 335:Middlewares/ST/filex/common/src/fx_directory_local_path_set.c ****         /* Copy what we can into the current path.  */
 336:Middlewares/ST/filex/common/src/fx_directory_local_path_set.c ****         while (*new_path_name)
 337:Middlewares/ST/filex/common/src/fx_directory_local_path_set.c ****         {
 338:Middlewares/ST/filex/common/src/fx_directory_local_path_set.c **** 
 339:Middlewares/ST/filex/common/src/fx_directory_local_path_set.c ****             /* Determine if there is a ".." character sequence that specifies the
 340:Middlewares/ST/filex/common/src/fx_directory_local_path_set.c ****                previous path.  */
 341:Middlewares/ST/filex/common/src/fx_directory_local_path_set.c ****             if ((*new_path_name == '.') && (*(new_path_name + 1) == '.'))
 342:Middlewares/ST/filex/common/src/fx_directory_local_path_set.c ****             {
 343:Middlewares/ST/filex/common/src/fx_directory_local_path_set.c **** 
 344:Middlewares/ST/filex/common/src/fx_directory_local_path_set.c ****                 /* Yes, a backward path is found.  The current path pointer
 345:Middlewares/ST/filex/common/src/fx_directory_local_path_set.c ****                    must be moved back to just after the previous \ character.  */
 346:Middlewares/ST/filex/common/src/fx_directory_local_path_set.c **** 
 347:Middlewares/ST/filex/common/src/fx_directory_local_path_set.c ****                 /* Skip the current \0 that is at the end of the current path.  */
 348:Middlewares/ST/filex/common/src/fx_directory_local_path_set.c ****                 path_string_capacity =  path_string_capacity + 2;
 349:Middlewares/ST/filex/common/src/fx_directory_local_path_set.c ****                 path_string_ptr =       path_string_ptr - 2;
 350:Middlewares/ST/filex/common/src/fx_directory_local_path_set.c **** 
 351:Middlewares/ST/filex/common/src/fx_directory_local_path_set.c ****                 while (path_string_capacity <= (FX_MAXIMUM_PATH - 1))
 352:Middlewares/ST/filex/common/src/fx_directory_local_path_set.c ****                 {
 353:Middlewares/ST/filex/common/src/fx_directory_local_path_set.c **** 
 354:Middlewares/ST/filex/common/src/fx_directory_local_path_set.c ****                     /* Move the current path pointer backwards until
 355:Middlewares/ST/filex/common/src/fx_directory_local_path_set.c ****                        a \ character is found.  */
 356:Middlewares/ST/filex/common/src/fx_directory_local_path_set.c **** 
 357:Middlewares/ST/filex/common/src/fx_directory_local_path_set.c ****                     if ((*path_string_ptr == '\\') || (*path_string_ptr == '/'))
 358:Middlewares/ST/filex/common/src/fx_directory_local_path_set.c ****                     {
 359:Middlewares/ST/filex/common/src/fx_directory_local_path_set.c **** 
 360:Middlewares/ST/filex/common/src/fx_directory_local_path_set.c ****                         /* Yes, we have successfully backed up one directory.  */
 361:Middlewares/ST/filex/common/src/fx_directory_local_path_set.c ****                         break;
 362:Middlewares/ST/filex/common/src/fx_directory_local_path_set.c ****                     }
 363:Middlewares/ST/filex/common/src/fx_directory_local_path_set.c **** 
 364:Middlewares/ST/filex/common/src/fx_directory_local_path_set.c ****                     /* Backup another character.  */
 365:Middlewares/ST/filex/common/src/fx_directory_local_path_set.c ****                     path_string_capacity++;
 366:Middlewares/ST/filex/common/src/fx_directory_local_path_set.c ****                     path_string_ptr--;
 367:Middlewares/ST/filex/common/src/fx_directory_local_path_set.c ****                 }
ARM GAS  C:\Users\HP\AppData\Local\Temp\cc2Srqui.s 			page 9


 368:Middlewares/ST/filex/common/src/fx_directory_local_path_set.c **** 
 369:Middlewares/ST/filex/common/src/fx_directory_local_path_set.c ****                 /* Adjust the new directory pointer past the .. characters  */
 370:Middlewares/ST/filex/common/src/fx_directory_local_path_set.c ****                 new_path_name =  new_path_name + 2;
 371:Middlewares/ST/filex/common/src/fx_directory_local_path_set.c ****             }
 372:Middlewares/ST/filex/common/src/fx_directory_local_path_set.c ****             else
 373:Middlewares/ST/filex/common/src/fx_directory_local_path_set.c ****             {
 374:Middlewares/ST/filex/common/src/fx_directory_local_path_set.c **** 
 375:Middlewares/ST/filex/common/src/fx_directory_local_path_set.c ****                 /* Normal characters that need to be copied into the current path.  */
 376:Middlewares/ST/filex/common/src/fx_directory_local_path_set.c **** 
 377:Middlewares/ST/filex/common/src/fx_directory_local_path_set.c ****                 if (path_string_capacity)
 378:Middlewares/ST/filex/common/src/fx_directory_local_path_set.c ****                 {
 379:Middlewares/ST/filex/common/src/fx_directory_local_path_set.c **** 
 380:Middlewares/ST/filex/common/src/fx_directory_local_path_set.c ****                     /* Copy character from the new path into the current path string.  */
 381:Middlewares/ST/filex/common/src/fx_directory_local_path_set.c ****                     *path_string_ptr++ =  *new_path_name++;
 382:Middlewares/ST/filex/common/src/fx_directory_local_path_set.c **** 
 383:Middlewares/ST/filex/common/src/fx_directory_local_path_set.c ****                     path_string_capacity--;
 384:Middlewares/ST/filex/common/src/fx_directory_local_path_set.c ****                 }
 385:Middlewares/ST/filex/common/src/fx_directory_local_path_set.c ****                 else
 386:Middlewares/ST/filex/common/src/fx_directory_local_path_set.c ****                 {
 387:Middlewares/ST/filex/common/src/fx_directory_local_path_set.c **** 
 388:Middlewares/ST/filex/common/src/fx_directory_local_path_set.c ****                     /* No more room in the current path string!  */
 389:Middlewares/ST/filex/common/src/fx_directory_local_path_set.c ****                     break;
 390:Middlewares/ST/filex/common/src/fx_directory_local_path_set.c ****                 }
 391:Middlewares/ST/filex/common/src/fx_directory_local_path_set.c ****             }
 392:Middlewares/ST/filex/common/src/fx_directory_local_path_set.c ****         }
 393:Middlewares/ST/filex/common/src/fx_directory_local_path_set.c **** 
 394:Middlewares/ST/filex/common/src/fx_directory_local_path_set.c ****         /* Determine if there is still room in the current path string.  */
 395:Middlewares/ST/filex/common/src/fx_directory_local_path_set.c ****         if (path_string_capacity)
 396:Middlewares/ST/filex/common/src/fx_directory_local_path_set.c ****         {
 397:Middlewares/ST/filex/common/src/fx_directory_local_path_set.c **** 
 398:Middlewares/ST/filex/common/src/fx_directory_local_path_set.c ****             /* Yes, there is still room, place a NULL character at the
 399:Middlewares/ST/filex/common/src/fx_directory_local_path_set.c ****                end of the path.  */
 400:Middlewares/ST/filex/common/src/fx_directory_local_path_set.c ****             *path_string_ptr =  (CHAR)FX_NULL;
 401:Middlewares/ST/filex/common/src/fx_directory_local_path_set.c ****         }
 402:Middlewares/ST/filex/common/src/fx_directory_local_path_set.c ****         else
 403:Middlewares/ST/filex/common/src/fx_directory_local_path_set.c ****         {
 404:Middlewares/ST/filex/common/src/fx_directory_local_path_set.c **** 
 405:Middlewares/ST/filex/common/src/fx_directory_local_path_set.c ****             /* No more room.  Determine if the entire path was successfully
 406:Middlewares/ST/filex/common/src/fx_directory_local_path_set.c ****                copied into the current path.  */
 407:Middlewares/ST/filex/common/src/fx_directory_local_path_set.c ****             if (*new_path_name)
 408:Middlewares/ST/filex/common/src/fx_directory_local_path_set.c ****             {
 409:Middlewares/ST/filex/common/src/fx_directory_local_path_set.c **** 
 410:Middlewares/ST/filex/common/src/fx_directory_local_path_set.c ****                 /* No, we couldn't fit the entire path.  Place a "*" character
 411:Middlewares/ST/filex/common/src/fx_directory_local_path_set.c ****                    at the end to indicate that we had overflow.  Note that
 412:Middlewares/ST/filex/common/src/fx_directory_local_path_set.c ****                    the path is kept just the the directory default get call, so
 413:Middlewares/ST/filex/common/src/fx_directory_local_path_set.c ****                    the new default path is valid.  */
 414:Middlewares/ST/filex/common/src/fx_directory_local_path_set.c ****                 path_ptr -> fx_path_string[FX_MAXIMUM_PATH - 2] =  '*';
 415:Middlewares/ST/filex/common/src/fx_directory_local_path_set.c ****             }
 416:Middlewares/ST/filex/common/src/fx_directory_local_path_set.c ****         }
 417:Middlewares/ST/filex/common/src/fx_directory_local_path_set.c **** 
 418:Middlewares/ST/filex/common/src/fx_directory_local_path_set.c ****         /* Determine if we are at the root directory.  */
 419:Middlewares/ST/filex/common/src/fx_directory_local_path_set.c ****         if (!dir_entry.fx_dir_entry_cluster)
 420:Middlewares/ST/filex/common/src/fx_directory_local_path_set.c ****         {
 421:Middlewares/ST/filex/common/src/fx_directory_local_path_set.c ****             /* Set the current directory back to the root directory.  */
 422:Middlewares/ST/filex/common/src/fx_directory_local_path_set.c ****             dir_entry.fx_dir_entry_name[0] =            (CHAR)0;
 423:Middlewares/ST/filex/common/src/fx_directory_local_path_set.c ****             local_path_ptr -> fx_path_name_buffer[0] =  (CHAR)0;
 424:Middlewares/ST/filex/common/src/fx_directory_local_path_set.c ****         }
ARM GAS  C:\Users\HP\AppData\Local\Temp\cc2Srqui.s 			page 10


 425:Middlewares/ST/filex/common/src/fx_directory_local_path_set.c **** 
 426:Middlewares/ST/filex/common/src/fx_directory_local_path_set.c ****         /* Copy the new directory entry into the media control block.  */
 427:Middlewares/ST/filex/common/src/fx_directory_local_path_set.c ****         path_ptr -> fx_path_directory =  dir_entry;
 428:Middlewares/ST/filex/common/src/fx_directory_local_path_set.c **** 
 429:Middlewares/ST/filex/common/src/fx_directory_local_path_set.c ****         /* Reset the local path name buffer pointer, since it was clobbered earlier.  */
 430:Middlewares/ST/filex/common/src/fx_directory_local_path_set.c ****         local_path_ptr -> fx_path_directory.fx_dir_entry_name =  local_path_ptr -> fx_path_name_buf
 431:Middlewares/ST/filex/common/src/fx_directory_local_path_set.c **** 
 432:Middlewares/ST/filex/common/src/fx_directory_local_path_set.c ****         /* Copy the directory name entry to the local path name area.  */
 433:Middlewares/ST/filex/common/src/fx_directory_local_path_set.c ****         for (j = 0; j < FX_MAX_LONG_NAME_LEN; j++)
 434:Middlewares/ST/filex/common/src/fx_directory_local_path_set.c ****         {
 435:Middlewares/ST/filex/common/src/fx_directory_local_path_set.c **** 
 436:Middlewares/ST/filex/common/src/fx_directory_local_path_set.c ****             /* Copy the name buffer.  */
 437:Middlewares/ST/filex/common/src/fx_directory_local_path_set.c ****             local_path_ptr -> fx_path_directory.fx_dir_entry_name[j] =  dir_entry.fx_dir_entry_name
 438:Middlewares/ST/filex/common/src/fx_directory_local_path_set.c ****         }
 439:Middlewares/ST/filex/common/src/fx_directory_local_path_set.c **** 
 440:Middlewares/ST/filex/common/src/fx_directory_local_path_set.c ****         /* Setup thread control block to use this local path pointer.  */
 441:Middlewares/ST/filex/common/src/fx_directory_local_path_set.c ****         _tx_thread_current_ptr -> tx_thread_filex_ptr =  (VOID *)local_path_ptr;
 442:Middlewares/ST/filex/common/src/fx_directory_local_path_set.c ****     }
 443:Middlewares/ST/filex/common/src/fx_directory_local_path_set.c **** 
 444:Middlewares/ST/filex/common/src/fx_directory_local_path_set.c ****     /* Release media protection.  */
 445:Middlewares/ST/filex/common/src/fx_directory_local_path_set.c ****     FX_UNPROTECT
 446:Middlewares/ST/filex/common/src/fx_directory_local_path_set.c **** 
 447:Middlewares/ST/filex/common/src/fx_directory_local_path_set.c ****     /* Default directory set is complete, return status.  */
 448:Middlewares/ST/filex/common/src/fx_directory_local_path_set.c ****     return(FX_SUCCESS);
 449:Middlewares/ST/filex/common/src/fx_directory_local_path_set.c **** #endif
 450:Middlewares/ST/filex/common/src/fx_directory_local_path_set.c **** }
  91              		.loc 1 450 1 view .LVU25
  92 0034 3046     		mov	r0, r6
  93 0036 1EB0     		add	sp, sp, #120
  94              	.LCFI2:
  95              		.cfi_remember_state
  96              		.cfi_def_cfa_offset 32
  97              		@ sp needed
  98 0038 BDE8F087 		pop	{r4, r5, r6, r7, r8, r9, r10, pc}
  99              	.LVL3:
 100              	.L41:
 101              	.LCFI3:
 102              		.cfi_restore_state
 103              		.loc 1 450 1 view .LVU26
 104 003c 8046     		mov	r8, r0
 105 003e 0D46     		mov	r5, r1
 136:Middlewares/ST/filex/common/src/fx_directory_local_path_set.c **** 
 106              		.loc 1 136 5 is_stmt 1 discriminator 2 view .LVU27
 136:Middlewares/ST/filex/common/src/fx_directory_local_path_set.c **** 
 107              		.loc 1 136 5 discriminator 2 view .LVU28
 108 0040 00F5E477 		add	r7, r0, #456
 109 0044 4FF0FF31 		mov	r1, #-1
 110              	.LVL4:
 136:Middlewares/ST/filex/common/src/fx_directory_local_path_set.c **** 
 111              		.loc 1 136 5 is_stmt 0 discriminator 2 view .LVU29
 112 0048 3846     		mov	r0, r7
 113              	.LVL5:
 136:Middlewares/ST/filex/common/src/fx_directory_local_path_set.c **** 
 114              		.loc 1 136 5 discriminator 2 view .LVU30
 115 004a FFF7FEFF 		bl	_tx_mutex_get
 116              	.LVL6:
 117 004e 0646     		mov	r6, r0
ARM GAS  C:\Users\HP\AppData\Local\Temp\cc2Srqui.s 			page 11


 118 0050 0028     		cmp	r0, #0
 119 0052 40F0DE80 		bne	.L36
 139:Middlewares/ST/filex/common/src/fx_directory_local_path_set.c ****     {
 120              		.loc 1 139 5 is_stmt 1 view .LVU31
 139:Middlewares/ST/filex/common/src/fx_directory_local_path_set.c ****     {
 121              		.loc 1 139 8 is_stmt 0 view .LVU32
 122 0056 B9F1000F 		cmp	r9, #0
 123 005a 3AD0     		beq	.L3
 139:Middlewares/ST/filex/common/src/fx_directory_local_path_set.c ****     {
 124              		.loc 1 139 45 discriminator 1 view .LVU33
 125 005c 99F80030 		ldrb	r3, [r9]	@ zero_extendqisi2
 139:Middlewares/ST/filex/common/src/fx_directory_local_path_set.c ****     {
 126              		.loc 1 139 26 discriminator 1 view .LVU34
 127 0060 5C2B     		cmp	r3, #92
 128 0062 32D0     		beq	.L4
 139:Middlewares/ST/filex/common/src/fx_directory_local_path_set.c ****     {
 129              		.loc 1 139 58 discriminator 3 view .LVU35
 130 0064 2F2B     		cmp	r3, #47
 131 0066 30D0     		beq	.L4
 132              	.L5:
 154:Middlewares/ST/filex/common/src/fx_directory_local_path_set.c **** 
 133              		.loc 1 154 9 is_stmt 1 view .LVU36
 154:Middlewares/ST/filex/common/src/fx_directory_local_path_set.c **** 
 134              		.loc 1 154 19 is_stmt 0 view .LVU37
 135 0068 0023     		movs	r3, #0
 136 006a 0093     		str	r3, [sp]
 137 006c 02AA     		add	r2, sp, #8
 138 006e 4946     		mov	r1, r9
 139 0070 4046     		mov	r0, r8
 140 0072 FFF7FEFF 		bl	_fx_directory_search
 141              	.LVL7:
 158:Middlewares/ST/filex/common/src/fx_directory_local_path_set.c ****         {
 142              		.loc 1 158 9 is_stmt 1 view .LVU38
 158:Middlewares/ST/filex/common/src/fx_directory_local_path_set.c ****         {
 143              		.loc 1 158 12 is_stmt 0 view .LVU39
 144 0076 0446     		mov	r4, r0
 145 0078 0028     		cmp	r0, #0
 146 007a 39D1     		bne	.L7
 158:Middlewares/ST/filex/common/src/fx_directory_local_path_set.c ****         {
 147              		.loc 1 158 51 discriminator 1 view .LVU40
 148 007c 9DF82430 		ldrb	r3, [sp, #36]	@ zero_extendqisi2
 158:Middlewares/ST/filex/common/src/fx_directory_local_path_set.c ****         {
 149              		.loc 1 158 36 discriminator 1 view .LVU41
 150 0080 13F0100F 		tst	r3, #16
 151 0084 34D0     		beq	.L7
 171:Middlewares/ST/filex/common/src/fx_directory_local_path_set.c **** 
 152              		.loc 1 171 9 is_stmt 1 view .LVU42
 171:Middlewares/ST/filex/common/src/fx_directory_local_path_set.c **** 
 153              		.loc 1 171 25 is_stmt 0 view .LVU43
 154 0086 05F17003 		add	r3, r5, #112
 155              	.LVL8:
 174:Middlewares/ST/filex/common/src/fx_directory_local_path_set.c **** 
 156              		.loc 1 174 9 is_stmt 1 view .LVU44
 177:Middlewares/ST/filex/common/src/fx_directory_local_path_set.c ****         {
 157              		.loc 1 177 9 view .LVU45
 177:Middlewares/ST/filex/common/src/fx_directory_local_path_set.c ****         {
 158              		.loc 1 177 27 is_stmt 0 view .LVU46
ARM GAS  C:\Users\HP\AppData\Local\Temp\cc2Srqui.s 			page 12


 159 008a 99F80020 		ldrb	r2, [r9]	@ zero_extendqisi2
 177:Middlewares/ST/filex/common/src/fx_directory_local_path_set.c ****         {
 160              		.loc 1 177 12 view .LVU47
 161 008e 5C2A     		cmp	r2, #92
 162 0090 73D0     		beq	.L9
 177:Middlewares/ST/filex/common/src/fx_directory_local_path_set.c ****         {
 163              		.loc 1 177 40 discriminator 1 view .LVU48
 164 0092 2F2A     		cmp	r2, #47
 165 0094 71D0     		beq	.L9
 183:Middlewares/ST/filex/common/src/fx_directory_local_path_set.c **** 
 166              		.loc 1 183 13 is_stmt 1 view .LVU49
 167              	.LVL9:
 186:Middlewares/ST/filex/common/src/fx_directory_local_path_set.c ****             {
 168              		.loc 1 186 13 view .LVU50
 186:Middlewares/ST/filex/common/src/fx_directory_local_path_set.c ****             {
 169              		.loc 1 186 76 is_stmt 0 view .LVU51
 170 0096 614A     		ldr	r2, .L44+4
 171 0098 1068     		ldr	r0, [r2]
 172              	.LVL10:
 186:Middlewares/ST/filex/common/src/fx_directory_local_path_set.c ****             {
 173              		.loc 1 186 76 view .LVU52
 174 009a D0F89020 		ldr	r2, [r0, #144]
 186:Middlewares/ST/filex/common/src/fx_directory_local_path_set.c ****             {
 175              		.loc 1 186 16 view .LVU53
 176 009e AA42     		cmp	r2, r5
 177 00a0 0DD0     		beq	.L10
 193:Middlewares/ST/filex/common/src/fx_directory_local_path_set.c ****                 {
 178              		.loc 1 193 17 is_stmt 1 view .LVU54
 193:Middlewares/ST/filex/common/src/fx_directory_local_path_set.c ****                 {
 179              		.loc 1 193 20 is_stmt 0 view .LVU55
 180 00a2 72B3     		cbz	r2, .L37
 197:Middlewares/ST/filex/common/src/fx_directory_local_path_set.c ****                     do
 181              		.loc 1 197 23 view .LVU56
 182 00a4 2246     		mov	r2, r4
 183              	.L13:
 184              	.LVL11:
 198:Middlewares/ST/filex/common/src/fx_directory_local_path_set.c ****                     {
 185              		.loc 1 198 21 is_stmt 1 view .LVU57
 202:Middlewares/ST/filex/common/src/fx_directory_local_path_set.c ****                             ((FX_LOCAL_PATH *)_tx_thread_current_ptr -> tx_thread_filex_ptr) -> fx_
 186              		.loc 1 202 25 view .LVU58
 203:Middlewares/ST/filex/common/src/fx_directory_local_path_set.c ****                             
 187              		.loc 1 203 70 is_stmt 0 view .LVU59
 188 00a6 D0F89010 		ldr	r1, [r0, #144]
 203:Middlewares/ST/filex/common/src/fx_directory_local_path_set.c ****                             
 189              		.loc 1 203 111 view .LVU60
 190 00aa 1144     		add	r1, r1, r2
 191 00ac 91F87010 		ldrb	r1, [r1, #112]	@ zero_extendqisi2
 202:Middlewares/ST/filex/common/src/fx_directory_local_path_set.c ****                             ((FX_LOCAL_PATH *)_tx_thread_current_ptr -> tx_thread_filex_ptr) -> fx_
 192              		.loc 1 202 61 view .LVU61
 193 00b0 05EB020C 		add	ip, r5, r2
 194 00b4 8CF87010 		strb	r1, [ip, #112]
 206:Middlewares/ST/filex/common/src/fx_directory_local_path_set.c ****                         {
 195              		.loc 1 206 25 is_stmt 1 view .LVU62
 206:Middlewares/ST/filex/common/src/fx_directory_local_path_set.c ****                         {
 196              		.loc 1 206 28 is_stmt 0 view .LVU63
 197 00b8 F9B9     		cbnz	r1, .L12
 210:Middlewares/ST/filex/common/src/fx_directory_local_path_set.c ****                             {
ARM GAS  C:\Users\HP\AppData\Local\Temp\cc2Srqui.s 			page 13


 198              		.loc 1 210 29 is_stmt 1 view .LVU64
 210:Middlewares/ST/filex/common/src/fx_directory_local_path_set.c ****                             {
 199              		.loc 1 210 32 is_stmt 0 view .LVU65
 200 00ba FE2A     		cmp	r2, #254
 201 00bc 1DD8     		bhi	.L12
 202              	.LVL12:
 203              	.L10:
 259:Middlewares/ST/filex/common/src/fx_directory_local_path_set.c ****             {
 204              		.loc 1 259 13 is_stmt 1 view .LVU66
 259:Middlewares/ST/filex/common/src/fx_directory_local_path_set.c ****             {
 205              		.loc 1 259 43 is_stmt 0 view .LVU67
 206 00be 95F86E21 		ldrb	r2, [r5, #366]	@ zero_extendqisi2
 259:Middlewares/ST/filex/common/src/fx_directory_local_path_set.c ****             {
 207              		.loc 1 259 16 view .LVU68
 208 00c2 2A2A     		cmp	r2, #42
 209 00c4 2CD0     		beq	.L42
 174:Middlewares/ST/filex/common/src/fx_directory_local_path_set.c **** 
 210              		.loc 1 174 30 view .LVU69
 211 00c6 FF22     		movs	r2, #255
 212 00c8 4DE0     		b	.L15
 213              	.LVL13:
 214              	.L4:
 139:Middlewares/ST/filex/common/src/fx_directory_local_path_set.c ****     {
 215              		.loc 1 139 105 discriminator 4 view .LVU70
 216 00ca 99F80130 		ldrb	r3, [r9, #1]	@ zero_extendqisi2
 139:Middlewares/ST/filex/common/src/fx_directory_local_path_set.c ****     {
 217              		.loc 1 139 88 discriminator 4 view .LVU71
 218 00ce 002B     		cmp	r3, #0
 219 00d0 CAD1     		bne	.L5
 220              	.L3:
 143:Middlewares/ST/filex/common/src/fx_directory_local_path_set.c ****         local_path_ptr -> fx_path_string[0] =                       (CHAR)0;
 221              		.loc 1 143 9 is_stmt 1 view .LVU72
 143:Middlewares/ST/filex/common/src/fx_directory_local_path_set.c ****         local_path_ptr -> fx_path_string[0] =                       (CHAR)0;
 222              		.loc 1 143 44 is_stmt 0 view .LVU73
 223 00d2 2A68     		ldr	r2, [r5]
 143:Middlewares/ST/filex/common/src/fx_directory_local_path_set.c ****         local_path_ptr -> fx_path_string[0] =                       (CHAR)0;
 224              		.loc 1 143 66 view .LVU74
 225 00d4 0023     		movs	r3, #0
 226 00d6 1370     		strb	r3, [r2]
 144:Middlewares/ST/filex/common/src/fx_directory_local_path_set.c ****         local_path_ptr -> fx_path_string[FX_MAXIMUM_PATH - 2] =       (CHAR)0;
 227              		.loc 1 144 9 is_stmt 1 view .LVU75
 144:Middlewares/ST/filex/common/src/fx_directory_local_path_set.c ****         local_path_ptr -> fx_path_string[FX_MAXIMUM_PATH - 2] =       (CHAR)0;
 228              		.loc 1 144 45 is_stmt 0 view .LVU76
 229 00d8 85F87030 		strb	r3, [r5, #112]
 145:Middlewares/ST/filex/common/src/fx_directory_local_path_set.c **** 
 230              		.loc 1 145 9 is_stmt 1 view .LVU77
 145:Middlewares/ST/filex/common/src/fx_directory_local_path_set.c **** 
 231              		.loc 1 145 63 is_stmt 0 view .LVU78
 232 00dc 85F86E31 		strb	r3, [r5, #366]
 148:Middlewares/ST/filex/common/src/fx_directory_local_path_set.c ****     }
 233              		.loc 1 148 9 is_stmt 1 view .LVU79
 148:Middlewares/ST/filex/common/src/fx_directory_local_path_set.c ****     }
 234              		.loc 1 148 32 is_stmt 0 view .LVU80
 235 00e0 4E4B     		ldr	r3, .L44+4
 236 00e2 1B68     		ldr	r3, [r3]
 148:Middlewares/ST/filex/common/src/fx_directory_local_path_set.c ****     }
 237              		.loc 1 148 55 view .LVU81
ARM GAS  C:\Users\HP\AppData\Local\Temp\cc2Srqui.s 			page 14


 238 00e4 C3F89050 		str	r5, [r3, #144]
 239              	.L6:
 445:Middlewares/ST/filex/common/src/fx_directory_local_path_set.c **** 
 240              		.loc 1 445 5 is_stmt 1 view .LVU82
 241 00e8 3846     		mov	r0, r7
 242 00ea FFF7FEFF 		bl	_tx_mutex_put
 243              	.LVL14:
 448:Middlewares/ST/filex/common/src/fx_directory_local_path_set.c **** #endif
 244              		.loc 1 448 5 view .LVU83
 448:Middlewares/ST/filex/common/src/fx_directory_local_path_set.c **** #endif
 245              		.loc 1 448 11 is_stmt 0 view .LVU84
 246 00ee A1E7     		b	.L1
 247              	.LVL15:
 248              	.L7:
 162:Middlewares/ST/filex/common/src/fx_directory_local_path_set.c **** 
 249              		.loc 1 162 13 is_stmt 1 view .LVU85
 250 00f0 3846     		mov	r0, r7
 251              	.LVL16:
 162:Middlewares/ST/filex/common/src/fx_directory_local_path_set.c **** 
 252              		.loc 1 162 13 is_stmt 0 view .LVU86
 253 00f2 FFF7FEFF 		bl	_tx_mutex_put
 254              	.LVL17:
 165:Middlewares/ST/filex/common/src/fx_directory_local_path_set.c ****         }
 255              		.loc 1 165 13 is_stmt 1 view .LVU87
 165:Middlewares/ST/filex/common/src/fx_directory_local_path_set.c ****         }
 256              		.loc 1 165 19 is_stmt 0 view .LVU88
 257 00f6 0D26     		movs	r6, #13
 258 00f8 9CE7     		b	.L1
 259              	.LVL18:
 260              	.L12:
 219:Middlewares/ST/filex/common/src/fx_directory_local_path_set.c ****                         
 261              		.loc 1 219 25 is_stmt 1 view .LVU89
 219:Middlewares/ST/filex/common/src/fx_directory_local_path_set.c ****                         
 262              		.loc 1 219 26 is_stmt 0 view .LVU90
 263 00fa 0132     		adds	r2, r2, #1
 264              	.LVL19:
 221:Middlewares/ST/filex/common/src/fx_directory_local_path_set.c ****                 }
 265              		.loc 1 221 29 is_stmt 1 view .LVU91
 221:Middlewares/ST/filex/common/src/fx_directory_local_path_set.c ****                 }
 266              		.loc 1 221 21 is_stmt 0 view .LVU92
 267 00fc FF2A     		cmp	r2, #255
 268 00fe D2D9     		bls	.L13
 269 0100 DDE7     		b	.L10
 270              	.LVL20:
 271              	.L37:
 228:Middlewares/ST/filex/common/src/fx_directory_local_path_set.c ****                     do
 272              		.loc 1 228 23 view .LVU93
 273 0102 2246     		mov	r2, r4
 274              	.L11:
 275              	.LVL21:
 229:Middlewares/ST/filex/common/src/fx_directory_local_path_set.c ****                     {
 276              		.loc 1 229 21 is_stmt 1 view .LVU94
 233:Middlewares/ST/filex/common/src/fx_directory_local_path_set.c ****                             media_ptr -> fx_media_default_path.fx_path_string[i];
 277              		.loc 1 233 25 view .LVU95
 234:Middlewares/ST/filex/common/src/fx_directory_local_path_set.c ****                             
 278              		.loc 1 234 78 is_stmt 0 view .LVU96
 279 0104 08EB0201 		add	r1, r8, r2
ARM GAS  C:\Users\HP\AppData\Local\Temp\cc2Srqui.s 			page 15


 280 0108 91F85015 		ldrb	r1, [r1, #1360]	@ zero_extendqisi2
 233:Middlewares/ST/filex/common/src/fx_directory_local_path_set.c ****                             media_ptr -> fx_media_default_path.fx_path_string[i];
 281              		.loc 1 233 61 view .LVU97
 282 010c A818     		adds	r0, r5, r2
 283 010e 80F87010 		strb	r1, [r0, #112]
 237:Middlewares/ST/filex/common/src/fx_directory_local_path_set.c ****                         {
 284              		.loc 1 237 25 is_stmt 1 view .LVU98
 237:Middlewares/ST/filex/common/src/fx_directory_local_path_set.c ****                         {
 285              		.loc 1 237 28 is_stmt 0 view .LVU99
 286 0112 09B9     		cbnz	r1, .L14
 241:Middlewares/ST/filex/common/src/fx_directory_local_path_set.c ****                             {
 287              		.loc 1 241 29 is_stmt 1 view .LVU100
 241:Middlewares/ST/filex/common/src/fx_directory_local_path_set.c ****                             {
 288              		.loc 1 241 32 is_stmt 0 view .LVU101
 289 0114 FE2A     		cmp	r2, #254
 290 0116 D2D9     		bls	.L10
 291              	.L14:
 250:Middlewares/ST/filex/common/src/fx_directory_local_path_set.c **** 
 292              		.loc 1 250 25 is_stmt 1 view .LVU102
 250:Middlewares/ST/filex/common/src/fx_directory_local_path_set.c **** 
 293              		.loc 1 250 26 is_stmt 0 view .LVU103
 294 0118 0132     		adds	r2, r2, #1
 295              	.LVL22:
 252:Middlewares/ST/filex/common/src/fx_directory_local_path_set.c ****                 }
 296              		.loc 1 252 29 is_stmt 1 view .LVU104
 252:Middlewares/ST/filex/common/src/fx_directory_local_path_set.c ****                 }
 297              		.loc 1 252 21 is_stmt 0 view .LVU105
 298 011a FF2A     		cmp	r2, #255
 299 011c F2D9     		bls	.L11
 300 011e CEE7     		b	.L10
 301              	.LVL23:
 302              	.L42:
 265:Middlewares/ST/filex/common/src/fx_directory_local_path_set.c ****                 {
 303              		.loc 1 265 17 is_stmt 1 view .LVU106
 265:Middlewares/ST/filex/common/src/fx_directory_local_path_set.c ****                 {
 304              		.loc 1 265 31 is_stmt 0 view .LVU107
 305 0120 0F9B     		ldr	r3, [sp, #60]
 306              	.LVL24:
 265:Middlewares/ST/filex/common/src/fx_directory_local_path_set.c ****                 {
 307              		.loc 1 265 20 view .LVU108
 308 0122 2BB9     		cbnz	r3, .L16
 268:Middlewares/ST/filex/common/src/fx_directory_local_path_set.c **** 
 309              		.loc 1 268 21 is_stmt 1 view .LVU109
 268:Middlewares/ST/filex/common/src/fx_directory_local_path_set.c **** 
 310              		.loc 1 268 52 is_stmt 0 view .LVU110
 311 0124 029A     		ldr	r2, [sp, #8]
 312 0126 1370     		strb	r3, [r2]
 271:Middlewares/ST/filex/common/src/fx_directory_local_path_set.c **** 
 313              		.loc 1 271 21 is_stmt 1 view .LVU111
 271:Middlewares/ST/filex/common/src/fx_directory_local_path_set.c **** 
 314              		.loc 1 271 51 is_stmt 0 view .LVU112
 315 0128 85F87030 		strb	r3, [r5, #112]
 275:Middlewares/ST/filex/common/src/fx_directory_local_path_set.c ****                 }
 316              		.loc 1 275 21 is_stmt 1 view .LVU113
 275:Middlewares/ST/filex/common/src/fx_directory_local_path_set.c ****                 }
 317              		.loc 1 275 69 is_stmt 0 view .LVU114
 318 012c 85F86E31 		strb	r3, [r5, #366]
ARM GAS  C:\Users\HP\AppData\Local\Temp\cc2Srqui.s 			page 16


 319              	.L16:
 279:Middlewares/ST/filex/common/src/fx_directory_local_path_set.c **** 
 320              		.loc 1 279 17 is_stmt 1 view .LVU115
 279:Middlewares/ST/filex/common/src/fx_directory_local_path_set.c **** 
 321              		.loc 1 279 47 is_stmt 0 view .LVU116
 322 0130 7022     		movs	r2, #112
 323 0132 02A9     		add	r1, sp, #8
 324 0134 2846     		mov	r0, r5
 325 0136 FFF7FEFF 		bl	memcpy
 326              	.LVL25:
 282:Middlewares/ST/filex/common/src/fx_directory_local_path_set.c **** 
 327              		.loc 1 282 17 is_stmt 1 view .LVU117
 282:Middlewares/ST/filex/common/src/fx_directory_local_path_set.c **** 
 328              		.loc 1 282 71 is_stmt 0 view .LVU118
 329 013a C5F800A0 		str	r10, [r5]
 285:Middlewares/ST/filex/common/src/fx_directory_local_path_set.c ****                 {
 330              		.loc 1 285 17 is_stmt 1 view .LVU119
 331              	.LVL26:
 285:Middlewares/ST/filex/common/src/fx_directory_local_path_set.c ****                 {
 332              		.loc 1 285 24 is_stmt 0 view .LVU120
 333 013e 2346     		mov	r3, r4
 285:Middlewares/ST/filex/common/src/fx_directory_local_path_set.c ****                 {
 334              		.loc 1 285 17 view .LVU121
 335 0140 04E0     		b	.L17
 336              	.LVL27:
 337              	.L18:
 289:Middlewares/ST/filex/common/src/fx_directory_local_path_set.c ****                 }
 338              		.loc 1 289 21 is_stmt 1 discriminator 3 view .LVU122
 289:Middlewares/ST/filex/common/src/fx_directory_local_path_set.c ****                 }
 339              		.loc 1 289 56 is_stmt 0 discriminator 3 view .LVU123
 340 0142 2A68     		ldr	r2, [r5]
 289:Middlewares/ST/filex/common/src/fx_directory_local_path_set.c ****                 }
 341              		.loc 1 289 108 discriminator 3 view .LVU124
 342 0144 0299     		ldr	r1, [sp, #8]
 343 0146 C95C     		ldrb	r1, [r1, r3]	@ zero_extendqisi2
 289:Middlewares/ST/filex/common/src/fx_directory_local_path_set.c ****                 }
 344              		.loc 1 289 78 discriminator 3 view .LVU125
 345 0148 D154     		strb	r1, [r2, r3]
 285:Middlewares/ST/filex/common/src/fx_directory_local_path_set.c ****                 {
 346              		.loc 1 285 55 is_stmt 1 discriminator 3 view .LVU126
 285:Middlewares/ST/filex/common/src/fx_directory_local_path_set.c ****                 {
 347              		.loc 1 285 56 is_stmt 0 discriminator 3 view .LVU127
 348 014a 0133     		adds	r3, r3, #1
 349              	.LVL28:
 350              	.L17:
 285:Middlewares/ST/filex/common/src/fx_directory_local_path_set.c ****                 {
 351              		.loc 1 285 29 is_stmt 1 discriminator 1 view .LVU128
 285:Middlewares/ST/filex/common/src/fx_directory_local_path_set.c ****                 {
 352              		.loc 1 285 17 is_stmt 0 discriminator 1 view .LVU129
 353 014c FF2B     		cmp	r3, #255
 354 014e F8D9     		bls	.L18
 293:Middlewares/ST/filex/common/src/fx_directory_local_path_set.c **** 
 355              		.loc 1 293 17 is_stmt 1 view .LVU130
 293:Middlewares/ST/filex/common/src/fx_directory_local_path_set.c **** 
 356              		.loc 1 293 40 is_stmt 0 view .LVU131
 357 0150 324B     		ldr	r3, .L44+4
 358              	.LVL29:
ARM GAS  C:\Users\HP\AppData\Local\Temp\cc2Srqui.s 			page 17


 293:Middlewares/ST/filex/common/src/fx_directory_local_path_set.c **** 
 359              		.loc 1 293 40 view .LVU132
 360 0152 1B68     		ldr	r3, [r3]
 293:Middlewares/ST/filex/common/src/fx_directory_local_path_set.c **** 
 361              		.loc 1 293 63 view .LVU133
 362 0154 C3F89050 		str	r5, [r3, #144]
 296:Middlewares/ST/filex/common/src/fx_directory_local_path_set.c **** 
 363              		.loc 1 296 17 is_stmt 1 view .LVU134
 364 0158 3846     		mov	r0, r7
 365 015a FFF7FEFF 		bl	_tx_mutex_put
 366              	.LVL30:
 299:Middlewares/ST/filex/common/src/fx_directory_local_path_set.c ****             }
 367              		.loc 1 299 17 view .LVU135
 299:Middlewares/ST/filex/common/src/fx_directory_local_path_set.c ****             }
 368              		.loc 1 299 23 is_stmt 0 view .LVU136
 369 015e 2646     		mov	r6, r4
 370 0160 68E7     		b	.L1
 371              	.LVL31:
 372              	.L20:
 306:Middlewares/ST/filex/common/src/fx_directory_local_path_set.c ****                 path_string_capacity--;
 373              		.loc 1 306 17 is_stmt 1 view .LVU137
 306:Middlewares/ST/filex/common/src/fx_directory_local_path_set.c ****                 path_string_capacity--;
 374              		.loc 1 306 32 is_stmt 0 view .LVU138
 375 0162 0133     		adds	r3, r3, #1
 376              	.LVL32:
 307:Middlewares/ST/filex/common/src/fx_directory_local_path_set.c ****             }
 377              		.loc 1 307 17 is_stmt 1 view .LVU139
 307:Middlewares/ST/filex/common/src/fx_directory_local_path_set.c ****             }
 378              		.loc 1 307 37 is_stmt 0 view .LVU140
 379 0164 013A     		subs	r2, r2, #1
 380              	.LVL33:
 381              	.L15:
 304:Middlewares/ST/filex/common/src/fx_directory_local_path_set.c ****             {
 382              		.loc 1 304 19 is_stmt 1 view .LVU141
 383 0166 12B1     		cbz	r2, .L19
 304:Middlewares/ST/filex/common/src/fx_directory_local_path_set.c ****             {
 384              		.loc 1 304 47 is_stmt 0 discriminator 1 view .LVU142
 385 0168 1978     		ldrb	r1, [r3]	@ zero_extendqisi2
 304:Middlewares/ST/filex/common/src/fx_directory_local_path_set.c ****             {
 386              		.loc 1 304 43 discriminator 1 view .LVU143
 387 016a 0029     		cmp	r1, #0
 388 016c F9D1     		bne	.L20
 389              	.L19:
 311:Middlewares/ST/filex/common/src/fx_directory_local_path_set.c ****             {
 390              		.loc 1 311 13 is_stmt 1 view .LVU144
 311:Middlewares/ST/filex/common/src/fx_directory_local_path_set.c ****             {
 391              		.loc 1 311 16 is_stmt 0 view .LVU145
 392 016e C2B1     		cbz	r2, .L28
 315:Middlewares/ST/filex/common/src/fx_directory_local_path_set.c ****                 path_string_capacity--;
 393              		.loc 1 315 17 is_stmt 1 view .LVU146
 394              	.LVL34:
 315:Middlewares/ST/filex/common/src/fx_directory_local_path_set.c ****                 path_string_capacity--;
 395              		.loc 1 315 36 is_stmt 0 view .LVU147
 396 0170 5C21     		movs	r1, #92
 397 0172 03F8011B 		strb	r1, [r3], #1
 398              	.LVL35:
 316:Middlewares/ST/filex/common/src/fx_directory_local_path_set.c ****             }
ARM GAS  C:\Users\HP\AppData\Local\Temp\cc2Srqui.s 			page 18


 399              		.loc 1 316 17 is_stmt 1 view .LVU148
 316:Middlewares/ST/filex/common/src/fx_directory_local_path_set.c ****             }
 400              		.loc 1 316 37 is_stmt 0 view .LVU149
 401 0176 013A     		subs	r2, r2, #1
 402              	.LVL36:
 316:Middlewares/ST/filex/common/src/fx_directory_local_path_set.c ****             }
 403              		.loc 1 316 37 view .LVU150
 404 0178 13E0     		b	.L28
 405              	.LVL37:
 406              	.L9:
 325:Middlewares/ST/filex/common/src/fx_directory_local_path_set.c **** 
 407              		.loc 1 325 13 is_stmt 1 view .LVU151
 329:Middlewares/ST/filex/common/src/fx_directory_local_path_set.c ****             {
 408              		.loc 1 329 13 view .LVU152
 329:Middlewares/ST/filex/common/src/fx_directory_local_path_set.c ****             {
 409              		.loc 1 329 43 is_stmt 0 view .LVU153
 410 017a 95F86E21 		ldrb	r2, [r5, #366]	@ zero_extendqisi2
 329:Middlewares/ST/filex/common/src/fx_directory_local_path_set.c ****             {
 411              		.loc 1 329 16 view .LVU154
 412 017e 2A2A     		cmp	r2, #42
 413 0180 01D0     		beq	.L43
 174:Middlewares/ST/filex/common/src/fx_directory_local_path_set.c **** 
 414              		.loc 1 174 30 view .LVU155
 415 0182 FF22     		movs	r2, #255
 416 0184 0DE0     		b	.L28
 417              	.L43:
 331:Middlewares/ST/filex/common/src/fx_directory_local_path_set.c ****             }
 418              		.loc 1 331 17 is_stmt 1 view .LVU156
 331:Middlewares/ST/filex/common/src/fx_directory_local_path_set.c ****             }
 419              		.loc 1 331 65 is_stmt 0 view .LVU157
 420 0186 0022     		movs	r2, #0
 421 0188 85F86E21 		strb	r2, [r5, #366]
 174:Middlewares/ST/filex/common/src/fx_directory_local_path_set.c **** 
 422              		.loc 1 174 30 view .LVU158
 423 018c FF22     		movs	r2, #255
 424 018e 08E0     		b	.L28
 425              	.LVL38:
 426              	.L24:
 370:Middlewares/ST/filex/common/src/fx_directory_local_path_set.c ****             }
 427              		.loc 1 370 17 is_stmt 1 view .LVU159
 370:Middlewares/ST/filex/common/src/fx_directory_local_path_set.c ****             }
 428              		.loc 1 370 31 is_stmt 0 view .LVU160
 429 0190 09F10209 		add	r9, r9, #2
 430              	.LVL39:
 370:Middlewares/ST/filex/common/src/fx_directory_local_path_set.c ****             }
 431              		.loc 1 370 31 view .LVU161
 432 0194 05E0     		b	.L28
 433              	.L22:
 377:Middlewares/ST/filex/common/src/fx_directory_local_path_set.c ****                 {
 434              		.loc 1 377 17 is_stmt 1 view .LVU162
 377:Middlewares/ST/filex/common/src/fx_directory_local_path_set.c ****                 {
 435              		.loc 1 377 20 is_stmt 0 view .LVU163
 436 0196 CAB1     		cbz	r2, .L27
 381:Middlewares/ST/filex/common/src/fx_directory_local_path_set.c **** 
 437              		.loc 1 381 21 is_stmt 1 view .LVU164
 381:Middlewares/ST/filex/common/src/fx_directory_local_path_set.c **** 
 438              		.loc 1 381 57 is_stmt 0 view .LVU165
ARM GAS  C:\Users\HP\AppData\Local\Temp\cc2Srqui.s 			page 19


 439 0198 09F10109 		add	r9, r9, #1
 440              	.LVL40:
 381:Middlewares/ST/filex/common/src/fx_directory_local_path_set.c **** 
 441              		.loc 1 381 40 view .LVU166
 442 019c 03F8011B 		strb	r1, [r3], #1
 443              	.LVL41:
 383:Middlewares/ST/filex/common/src/fx_directory_local_path_set.c ****                 }
 444              		.loc 1 383 21 is_stmt 1 view .LVU167
 383:Middlewares/ST/filex/common/src/fx_directory_local_path_set.c ****                 }
 445              		.loc 1 383 41 is_stmt 0 view .LVU168
 446 01a0 013A     		subs	r2, r2, #1
 447              	.LVL42:
 448              	.L28:
 336:Middlewares/ST/filex/common/src/fx_directory_local_path_set.c ****         {
 449              		.loc 1 336 15 is_stmt 1 view .LVU169
 336:Middlewares/ST/filex/common/src/fx_directory_local_path_set.c ****         {
 450              		.loc 1 336 16 is_stmt 0 view .LVU170
 451 01a2 99F80010 		ldrb	r1, [r9]	@ zero_extendqisi2
 336:Middlewares/ST/filex/common/src/fx_directory_local_path_set.c ****         {
 452              		.loc 1 336 15 view .LVU171
 453 01a6 89B1     		cbz	r1, .L27
 341:Middlewares/ST/filex/common/src/fx_directory_local_path_set.c ****             {
 454              		.loc 1 341 13 is_stmt 1 view .LVU172
 341:Middlewares/ST/filex/common/src/fx_directory_local_path_set.c ****             {
 455              		.loc 1 341 16 is_stmt 0 view .LVU173
 456 01a8 2E29     		cmp	r1, #46
 457 01aa F4D1     		bne	.L22
 341:Middlewares/ST/filex/common/src/fx_directory_local_path_set.c ****             {
 458              		.loc 1 341 45 discriminator 1 view .LVU174
 459 01ac 99F80100 		ldrb	r0, [r9, #1]	@ zero_extendqisi2
 341:Middlewares/ST/filex/common/src/fx_directory_local_path_set.c ****             {
 460              		.loc 1 341 41 discriminator 1 view .LVU175
 461 01b0 2E28     		cmp	r0, #46
 462 01b2 F0D1     		bne	.L22
 348:Middlewares/ST/filex/common/src/fx_directory_local_path_set.c ****                 path_string_ptr =       path_string_ptr - 2;
 463              		.loc 1 348 17 is_stmt 1 view .LVU176
 348:Middlewares/ST/filex/common/src/fx_directory_local_path_set.c ****                 path_string_ptr =       path_string_ptr - 2;
 464              		.loc 1 348 38 is_stmt 0 view .LVU177
 465 01b4 0232     		adds	r2, r2, #2
 466              	.LVL43:
 349:Middlewares/ST/filex/common/src/fx_directory_local_path_set.c **** 
 467              		.loc 1 349 17 is_stmt 1 view .LVU178
 349:Middlewares/ST/filex/common/src/fx_directory_local_path_set.c **** 
 468              		.loc 1 349 33 is_stmt 0 view .LVU179
 469 01b6 023B     		subs	r3, r3, #2
 470              	.LVL44:
 351:Middlewares/ST/filex/common/src/fx_directory_local_path_set.c ****                 {
 471              		.loc 1 351 17 is_stmt 1 view .LVU180
 472              	.L23:
 351:Middlewares/ST/filex/common/src/fx_directory_local_path_set.c ****                 {
 473              		.loc 1 351 23 view .LVU181
 474 01b8 FF2A     		cmp	r2, #255
 475 01ba E9D8     		bhi	.L24
 357:Middlewares/ST/filex/common/src/fx_directory_local_path_set.c ****                     {
 476              		.loc 1 357 21 view .LVU182
 357:Middlewares/ST/filex/common/src/fx_directory_local_path_set.c ****                     {
 477              		.loc 1 357 26 is_stmt 0 view .LVU183
ARM GAS  C:\Users\HP\AppData\Local\Temp\cc2Srqui.s 			page 20


 478 01bc 1978     		ldrb	r1, [r3]	@ zero_extendqisi2
 357:Middlewares/ST/filex/common/src/fx_directory_local_path_set.c ****                     {
 479              		.loc 1 357 24 view .LVU184
 480 01be 5C29     		cmp	r1, #92
 481 01c0 E6D0     		beq	.L24
 357:Middlewares/ST/filex/common/src/fx_directory_local_path_set.c ****                     {
 482              		.loc 1 357 52 discriminator 1 view .LVU185
 483 01c2 2F29     		cmp	r1, #47
 484 01c4 E4D0     		beq	.L24
 365:Middlewares/ST/filex/common/src/fx_directory_local_path_set.c ****                     path_string_ptr--;
 485              		.loc 1 365 21 is_stmt 1 view .LVU186
 365:Middlewares/ST/filex/common/src/fx_directory_local_path_set.c ****                     path_string_ptr--;
 486              		.loc 1 365 41 is_stmt 0 view .LVU187
 487 01c6 0132     		adds	r2, r2, #1
 488              	.LVL45:
 366:Middlewares/ST/filex/common/src/fx_directory_local_path_set.c ****                 }
 489              		.loc 1 366 21 is_stmt 1 view .LVU188
 366:Middlewares/ST/filex/common/src/fx_directory_local_path_set.c ****                 }
 490              		.loc 1 366 36 is_stmt 0 view .LVU189
 491 01c8 013B     		subs	r3, r3, #1
 492              	.LVL46:
 366:Middlewares/ST/filex/common/src/fx_directory_local_path_set.c ****                 }
 493              		.loc 1 366 36 view .LVU190
 494 01ca F5E7     		b	.L23
 495              	.L27:
 395:Middlewares/ST/filex/common/src/fx_directory_local_path_set.c ****         {
 496              		.loc 1 395 9 is_stmt 1 view .LVU191
 395:Middlewares/ST/filex/common/src/fx_directory_local_path_set.c ****         {
 497              		.loc 1 395 12 is_stmt 0 view .LVU192
 498 01cc 7AB1     		cbz	r2, .L30
 400:Middlewares/ST/filex/common/src/fx_directory_local_path_set.c ****         }
 499              		.loc 1 400 13 is_stmt 1 view .LVU193
 400:Middlewares/ST/filex/common/src/fx_directory_local_path_set.c ****         }
 500              		.loc 1 400 30 is_stmt 0 view .LVU194
 501 01ce 0022     		movs	r2, #0
 502              	.LVL47:
 400:Middlewares/ST/filex/common/src/fx_directory_local_path_set.c ****         }
 503              		.loc 1 400 30 view .LVU195
 504 01d0 1A70     		strb	r2, [r3]
 505              	.LVL48:
 506              	.L31:
 419:Middlewares/ST/filex/common/src/fx_directory_local_path_set.c ****         {
 507              		.loc 1 419 9 is_stmt 1 view .LVU196
 419:Middlewares/ST/filex/common/src/fx_directory_local_path_set.c ****         {
 508              		.loc 1 419 23 is_stmt 0 view .LVU197
 509 01d2 0F9B     		ldr	r3, [sp, #60]
 419:Middlewares/ST/filex/common/src/fx_directory_local_path_set.c ****         {
 510              		.loc 1 419 12 view .LVU198
 511 01d4 1BB9     		cbnz	r3, .L32
 422:Middlewares/ST/filex/common/src/fx_directory_local_path_set.c ****             local_path_ptr -> fx_path_name_buffer[0] =  (CHAR)0;
 512              		.loc 1 422 13 is_stmt 1 view .LVU199
 422:Middlewares/ST/filex/common/src/fx_directory_local_path_set.c ****             local_path_ptr -> fx_path_name_buffer[0] =  (CHAR)0;
 513              		.loc 1 422 44 is_stmt 0 view .LVU200
 514 01d6 029A     		ldr	r2, [sp, #8]
 515 01d8 1370     		strb	r3, [r2]
 423:Middlewares/ST/filex/common/src/fx_directory_local_path_set.c ****         }
 516              		.loc 1 423 13 is_stmt 1 view .LVU201
ARM GAS  C:\Users\HP\AppData\Local\Temp\cc2Srqui.s 			page 21


 423:Middlewares/ST/filex/common/src/fx_directory_local_path_set.c ****         }
 517              		.loc 1 423 54 is_stmt 0 view .LVU202
 518 01da 85F87031 		strb	r3, [r5, #368]
 519              	.L32:
 427:Middlewares/ST/filex/common/src/fx_directory_local_path_set.c **** 
 520              		.loc 1 427 9 is_stmt 1 view .LVU203
 427:Middlewares/ST/filex/common/src/fx_directory_local_path_set.c **** 
 521              		.loc 1 427 39 is_stmt 0 view .LVU204
 522 01de 7022     		movs	r2, #112
 523 01e0 02A9     		add	r1, sp, #8
 524 01e2 2846     		mov	r0, r5
 525 01e4 FFF7FEFF 		bl	memcpy
 526              	.LVL49:
 430:Middlewares/ST/filex/common/src/fx_directory_local_path_set.c **** 
 527              		.loc 1 430 9 is_stmt 1 view .LVU205
 430:Middlewares/ST/filex/common/src/fx_directory_local_path_set.c **** 
 528              		.loc 1 430 63 is_stmt 0 view .LVU206
 529 01e8 C5F800A0 		str	r10, [r5]
 433:Middlewares/ST/filex/common/src/fx_directory_local_path_set.c ****         {
 530              		.loc 1 433 9 is_stmt 1 view .LVU207
 531              	.LVL50:
 433:Middlewares/ST/filex/common/src/fx_directory_local_path_set.c ****         {
 532              		.loc 1 433 9 is_stmt 0 view .LVU208
 533 01ec 0AE0     		b	.L33
 534              	.LVL51:
 535              	.L30:
 407:Middlewares/ST/filex/common/src/fx_directory_local_path_set.c ****             {
 536              		.loc 1 407 13 is_stmt 1 view .LVU209
 407:Middlewares/ST/filex/common/src/fx_directory_local_path_set.c ****             {
 537              		.loc 1 407 16 is_stmt 0 view .LVU210
 538 01ee 0029     		cmp	r1, #0
 539 01f0 EFD0     		beq	.L31
 414:Middlewares/ST/filex/common/src/fx_directory_local_path_set.c ****             }
 540              		.loc 1 414 17 is_stmt 1 view .LVU211
 414:Middlewares/ST/filex/common/src/fx_directory_local_path_set.c ****             }
 541              		.loc 1 414 65 is_stmt 0 view .LVU212
 542 01f2 2A23     		movs	r3, #42
 543              	.LVL52:
 414:Middlewares/ST/filex/common/src/fx_directory_local_path_set.c ****             }
 544              		.loc 1 414 65 view .LVU213
 545 01f4 85F86E31 		strb	r3, [r5, #366]
 546 01f8 EBE7     		b	.L31
 547              	.LVL53:
 548              	.L34:
 437:Middlewares/ST/filex/common/src/fx_directory_local_path_set.c ****         }
 549              		.loc 1 437 13 is_stmt 1 discriminator 3 view .LVU214
 437:Middlewares/ST/filex/common/src/fx_directory_local_path_set.c ****         }
 550              		.loc 1 437 48 is_stmt 0 discriminator 3 view .LVU215
 551 01fa 2B68     		ldr	r3, [r5]
 437:Middlewares/ST/filex/common/src/fx_directory_local_path_set.c ****         }
 552              		.loc 1 437 100 discriminator 3 view .LVU216
 553 01fc 029A     		ldr	r2, [sp, #8]
 554 01fe 125D     		ldrb	r2, [r2, r4]	@ zero_extendqisi2
 437:Middlewares/ST/filex/common/src/fx_directory_local_path_set.c ****         }
 555              		.loc 1 437 70 discriminator 3 view .LVU217
 556 0200 1A55     		strb	r2, [r3, r4]
 433:Middlewares/ST/filex/common/src/fx_directory_local_path_set.c ****         {
ARM GAS  C:\Users\HP\AppData\Local\Temp\cc2Srqui.s 			page 22


 557              		.loc 1 433 47 is_stmt 1 discriminator 3 view .LVU218
 433:Middlewares/ST/filex/common/src/fx_directory_local_path_set.c ****         {
 558              		.loc 1 433 48 is_stmt 0 discriminator 3 view .LVU219
 559 0202 0134     		adds	r4, r4, #1
 560              	.LVL54:
 561              	.L33:
 433:Middlewares/ST/filex/common/src/fx_directory_local_path_set.c ****         {
 562              		.loc 1 433 21 is_stmt 1 discriminator 1 view .LVU220
 433:Middlewares/ST/filex/common/src/fx_directory_local_path_set.c ****         {
 563              		.loc 1 433 9 is_stmt 0 discriminator 1 view .LVU221
 564 0204 FF2C     		cmp	r4, #255
 565 0206 F8D9     		bls	.L34
 441:Middlewares/ST/filex/common/src/fx_directory_local_path_set.c ****     }
 566              		.loc 1 441 9 is_stmt 1 view .LVU222
 441:Middlewares/ST/filex/common/src/fx_directory_local_path_set.c ****     }
 567              		.loc 1 441 32 is_stmt 0 view .LVU223
 568 0208 044B     		ldr	r3, .L44+4
 569 020a 1B68     		ldr	r3, [r3]
 441:Middlewares/ST/filex/common/src/fx_directory_local_path_set.c ****     }
 570              		.loc 1 441 55 view .LVU224
 571 020c C3F89050 		str	r5, [r3, #144]
 572 0210 6AE7     		b	.L6
 573              	.LVL55:
 574              	.L36:
 136:Middlewares/ST/filex/common/src/fx_directory_local_path_set.c **** 
 575              		.loc 1 136 5 view .LVU225
 576 0212 1126     		movs	r6, #17
 577 0214 0EE7     		b	.L1
 578              	.L45:
 579 0216 00BF     		.align	2
 580              	.L44:
 581 0218 4944454D 		.word	1296385097
 582 021c 00000000 		.word	_tx_thread_current_ptr
 583              		.cfi_endproc
 584              	.LFE8:
 586              		.text
 587              	.Letext0:
 588              		.file 2 "Middlewares/ST/threadx/ports/cortex_m4/gnu/inc/tx_port.h"
 589              		.file 3 "Middlewares/ST/threadx/common/inc/tx_api.h"
 590              		.file 4 "Middlewares/ST/filex/common/inc/fx_api.h"
 591              		.file 5 "Middlewares/ST/filex/common/inc/fx_directory.h"
 592              		.file 6 "<built-in>"
ARM GAS  C:\Users\HP\AppData\Local\Temp\cc2Srqui.s 			page 23

