ARM GAS  C:\Users\HP\AppData\Local\Temp\ccmUfyBM.s 			page 1


   1              		.cpu cortex-m4
   2              		.arch armv7e-m
   3              		.fpu fpv4-sp-d16
   4              		.eabi_attribute 27, 1
   5              		.eabi_attribute 28, 1
   6              		.eabi_attribute 20, 1
   7              		.eabi_attribute 21, 1
   8              		.eabi_attribute 23, 3
   9              		.eabi_attribute 24, 1
  10              		.eabi_attribute 25, 1
  11              		.eabi_attribute 26, 1
  12              		.eabi_attribute 30, 1
  13              		.eabi_attribute 34, 1
  14              		.eabi_attribute 18, 4
  15              		.file	"fx_directory_free_search.c"
  16              		.text
  17              	.Ltext0:
  18              		.cfi_sections	.debug_frame
  19              		.section	.text._fx_directory_free_search,"ax",%progbits
  20              		.align	1
  21              		.global	_fx_directory_free_search
  22              		.syntax unified
  23              		.thumb
  24              		.thumb_func
  26              	_fx_directory_free_search:
  27              	.LVL0:
  28              	.LFB8:
  29              		.file 1 "Middlewares/ST/filex/common/src/fx_directory_free_search.c"
   1:Middlewares/ST/filex/common/src/fx_directory_free_search.c **** /**************************************************************************/
   2:Middlewares/ST/filex/common/src/fx_directory_free_search.c **** /*                                                                        */
   3:Middlewares/ST/filex/common/src/fx_directory_free_search.c **** /*       Copyright (c) Microsoft Corporation. All rights reserved.        */
   4:Middlewares/ST/filex/common/src/fx_directory_free_search.c **** /*                                                                        */
   5:Middlewares/ST/filex/common/src/fx_directory_free_search.c **** /*       This software is licensed under the Microsoft Software License   */
   6:Middlewares/ST/filex/common/src/fx_directory_free_search.c **** /*       Terms for Microsoft Azure RTOS. Full text of the license can be  */
   7:Middlewares/ST/filex/common/src/fx_directory_free_search.c **** /*       found in the LICENSE file at https://aka.ms/AzureRTOS_EULA       */
   8:Middlewares/ST/filex/common/src/fx_directory_free_search.c **** /*       and in the root directory of this software.                      */
   9:Middlewares/ST/filex/common/src/fx_directory_free_search.c **** /*                                                                        */
  10:Middlewares/ST/filex/common/src/fx_directory_free_search.c **** /**************************************************************************/
  11:Middlewares/ST/filex/common/src/fx_directory_free_search.c **** 
  12:Middlewares/ST/filex/common/src/fx_directory_free_search.c **** 
  13:Middlewares/ST/filex/common/src/fx_directory_free_search.c **** /**************************************************************************/
  14:Middlewares/ST/filex/common/src/fx_directory_free_search.c **** /**************************************************************************/
  15:Middlewares/ST/filex/common/src/fx_directory_free_search.c **** /**                                                                       */
  16:Middlewares/ST/filex/common/src/fx_directory_free_search.c **** /** FileX Component                                                       */
  17:Middlewares/ST/filex/common/src/fx_directory_free_search.c **** /**                                                                       */
  18:Middlewares/ST/filex/common/src/fx_directory_free_search.c **** /**   Directory                                                           */
  19:Middlewares/ST/filex/common/src/fx_directory_free_search.c **** /**                                                                       */
  20:Middlewares/ST/filex/common/src/fx_directory_free_search.c **** /**************************************************************************/
  21:Middlewares/ST/filex/common/src/fx_directory_free_search.c **** /**************************************************************************/
  22:Middlewares/ST/filex/common/src/fx_directory_free_search.c **** 
  23:Middlewares/ST/filex/common/src/fx_directory_free_search.c **** #define FX_SOURCE_CODE
  24:Middlewares/ST/filex/common/src/fx_directory_free_search.c **** 
  25:Middlewares/ST/filex/common/src/fx_directory_free_search.c **** 
  26:Middlewares/ST/filex/common/src/fx_directory_free_search.c **** /* Include necessary system files.  */
  27:Middlewares/ST/filex/common/src/fx_directory_free_search.c **** 
  28:Middlewares/ST/filex/common/src/fx_directory_free_search.c **** #include "fx_api.h"
  29:Middlewares/ST/filex/common/src/fx_directory_free_search.c **** #include "fx_system.h"
ARM GAS  C:\Users\HP\AppData\Local\Temp\ccmUfyBM.s 			page 2


  30:Middlewares/ST/filex/common/src/fx_directory_free_search.c **** #include "fx_directory.h"
  31:Middlewares/ST/filex/common/src/fx_directory_free_search.c **** #include "fx_utility.h"
  32:Middlewares/ST/filex/common/src/fx_directory_free_search.c **** #ifdef FX_ENABLE_EXFAT
  33:Middlewares/ST/filex/common/src/fx_directory_free_search.c **** #include "fx_directory_exFAT.h"
  34:Middlewares/ST/filex/common/src/fx_directory_free_search.c **** #endif /* FX_ENABLE_EXFAT */
  35:Middlewares/ST/filex/common/src/fx_directory_free_search.c **** 
  36:Middlewares/ST/filex/common/src/fx_directory_free_search.c **** 
  37:Middlewares/ST/filex/common/src/fx_directory_free_search.c **** /**************************************************************************/
  38:Middlewares/ST/filex/common/src/fx_directory_free_search.c **** /*                                                                        */
  39:Middlewares/ST/filex/common/src/fx_directory_free_search.c **** /*  FUNCTION                                               RELEASE        */
  40:Middlewares/ST/filex/common/src/fx_directory_free_search.c **** /*                                                                        */
  41:Middlewares/ST/filex/common/src/fx_directory_free_search.c **** /*    _fx_directory_free_search                           PORTABLE C      */
  42:Middlewares/ST/filex/common/src/fx_directory_free_search.c **** /*                                                           6.1.12       */
  43:Middlewares/ST/filex/common/src/fx_directory_free_search.c **** /*  AUTHOR                                                                */
  44:Middlewares/ST/filex/common/src/fx_directory_free_search.c **** /*                                                                        */
  45:Middlewares/ST/filex/common/src/fx_directory_free_search.c **** /*    William E. Lamie, Microsoft Corporation                             */
  46:Middlewares/ST/filex/common/src/fx_directory_free_search.c **** /*                                                                        */
  47:Middlewares/ST/filex/common/src/fx_directory_free_search.c **** /*  DESCRIPTION                                                           */
  48:Middlewares/ST/filex/common/src/fx_directory_free_search.c **** /*                                                                        */
  49:Middlewares/ST/filex/common/src/fx_directory_free_search.c **** /*    This function searches the media for a free directory entry.        */
  50:Middlewares/ST/filex/common/src/fx_directory_free_search.c **** /*                                                                        */
  51:Middlewares/ST/filex/common/src/fx_directory_free_search.c **** /*  INPUT                                                                 */
  52:Middlewares/ST/filex/common/src/fx_directory_free_search.c **** /*                                                                        */
  53:Middlewares/ST/filex/common/src/fx_directory_free_search.c **** /*    media_ptr                             Media control block pointer   */
  54:Middlewares/ST/filex/common/src/fx_directory_free_search.c **** /*    directory_ptr                         Pointer to directory to       */
  55:Middlewares/ST/filex/common/src/fx_directory_free_search.c **** /*                                            search in                   */
  56:Middlewares/ST/filex/common/src/fx_directory_free_search.c **** /*    entry_ptr                             Pointer to directory entry    */
  57:Middlewares/ST/filex/common/src/fx_directory_free_search.c **** /*                                            record                      */
  58:Middlewares/ST/filex/common/src/fx_directory_free_search.c **** /*                                                                        */
  59:Middlewares/ST/filex/common/src/fx_directory_free_search.c **** /*  OUTPUT                                                                */
  60:Middlewares/ST/filex/common/src/fx_directory_free_search.c **** /*                                                                        */
  61:Middlewares/ST/filex/common/src/fx_directory_free_search.c **** /*    return status                                                       */
  62:Middlewares/ST/filex/common/src/fx_directory_free_search.c **** /*                                                                        */
  63:Middlewares/ST/filex/common/src/fx_directory_free_search.c **** /*  CALLS                                                                 */
  64:Middlewares/ST/filex/common/src/fx_directory_free_search.c **** /*                                                                        */
  65:Middlewares/ST/filex/common/src/fx_directory_free_search.c **** /*    _fx_directory_entry_read              Read entries from directory   */
  66:Middlewares/ST/filex/common/src/fx_directory_free_search.c **** /*    _fx_directory_entry_write             Write entries to directory    */
  67:Middlewares/ST/filex/common/src/fx_directory_free_search.c **** /*    _fx_utility_FAT_entry_read            Read a FAT entry              */
  68:Middlewares/ST/filex/common/src/fx_directory_free_search.c **** /*    _fx_utility_FAT_entry_write           Write a FAT entry             */
  69:Middlewares/ST/filex/common/src/fx_directory_free_search.c **** /*    _fx_utility_FAT_flush                 Flush written FAT entries     */
  70:Middlewares/ST/filex/common/src/fx_directory_free_search.c **** /*    _fx_utility_logical_sector_flush      Flush logical sector cache    */
  71:Middlewares/ST/filex/common/src/fx_directory_free_search.c **** /*    _fx_utility_logical_sector_read       Read logical sector           */
  72:Middlewares/ST/filex/common/src/fx_directory_free_search.c **** /*    _fx_utility_logical_sector_write      Write logical sector          */
  73:Middlewares/ST/filex/common/src/fx_directory_free_search.c **** /*                                                                        */
  74:Middlewares/ST/filex/common/src/fx_directory_free_search.c **** /*  CALLED BY                                                             */
  75:Middlewares/ST/filex/common/src/fx_directory_free_search.c **** /*                                                                        */
  76:Middlewares/ST/filex/common/src/fx_directory_free_search.c **** /*    FileX System Functions                                              */
  77:Middlewares/ST/filex/common/src/fx_directory_free_search.c **** /*                                                                        */
  78:Middlewares/ST/filex/common/src/fx_directory_free_search.c **** /*  RELEASE HISTORY                                                       */
  79:Middlewares/ST/filex/common/src/fx_directory_free_search.c **** /*                                                                        */
  80:Middlewares/ST/filex/common/src/fx_directory_free_search.c **** /*    DATE              NAME                      DESCRIPTION             */
  81:Middlewares/ST/filex/common/src/fx_directory_free_search.c **** /*                                                                        */
  82:Middlewares/ST/filex/common/src/fx_directory_free_search.c **** /*  05-19-2020     William E. Lamie         Initial Version 6.0           */
  83:Middlewares/ST/filex/common/src/fx_directory_free_search.c **** /*  09-30-2020     William E. Lamie         Modified comment(s),          */
  84:Middlewares/ST/filex/common/src/fx_directory_free_search.c **** /*                                            resulting in version 6.1    */
  85:Middlewares/ST/filex/common/src/fx_directory_free_search.c **** /*  07-29-2022     Bhupendra Naphade        Modified comment(s),          */
  86:Middlewares/ST/filex/common/src/fx_directory_free_search.c **** /*                                            updated available cluster   */
ARM GAS  C:\Users\HP\AppData\Local\Temp\ccmUfyBM.s 			page 3


  87:Middlewares/ST/filex/common/src/fx_directory_free_search.c **** /*                                            check for sub directory,    */
  88:Middlewares/ST/filex/common/src/fx_directory_free_search.c **** /*                                            resulting in version 6.1.12 */
  89:Middlewares/ST/filex/common/src/fx_directory_free_search.c **** /*                                                                        */
  90:Middlewares/ST/filex/common/src/fx_directory_free_search.c **** /**************************************************************************/
  91:Middlewares/ST/filex/common/src/fx_directory_free_search.c **** UINT  _fx_directory_free_search(FX_MEDIA *media_ptr, FX_DIR_ENTRY *directory_ptr, FX_DIR_ENTRY *ent
  92:Middlewares/ST/filex/common/src/fx_directory_free_search.c **** {
  30              		.loc 1 92 1 view -0
  31              		.cfi_startproc
  32              		@ args = 0, pretend = 0, frame = 48
  33              		@ frame_needed = 0, uses_anonymous_args = 0
  34              		.loc 1 92 1 is_stmt 0 view .LVU1
  35 0000 2DE9F04F 		push	{r4, r5, r6, r7, r8, r9, r10, fp, lr}
  36              	.LCFI0:
  37              		.cfi_def_cfa_offset 36
  38              		.cfi_offset 4, -36
  39              		.cfi_offset 5, -32
  40              		.cfi_offset 6, -28
  41              		.cfi_offset 7, -24
  42              		.cfi_offset 8, -20
  43              		.cfi_offset 9, -16
  44              		.cfi_offset 10, -12
  45              		.cfi_offset 11, -8
  46              		.cfi_offset 14, -4
  47 0004 91B0     		sub	sp, sp, #68
  48              	.LCFI1:
  49              		.cfi_def_cfa_offset 104
  50 0006 8046     		mov	r8, r0
  51 0008 0991     		str	r1, [sp, #36]
  52 000a 9346     		mov	fp, r2
  93:Middlewares/ST/filex/common/src/fx_directory_free_search.c **** 
  94:Middlewares/ST/filex/common/src/fx_directory_free_search.c **** ULONG         i, j;
  53              		.loc 1 94 1 is_stmt 1 view .LVU2
  95:Middlewares/ST/filex/common/src/fx_directory_free_search.c **** UCHAR        *work_ptr;
  54              		.loc 1 95 1 view .LVU3
  96:Middlewares/ST/filex/common/src/fx_directory_free_search.c **** UINT          status, total_entries;
  55              		.loc 1 96 1 view .LVU4
  97:Middlewares/ST/filex/common/src/fx_directory_free_search.c **** ULONG         entry_sector, entry_offset;
  56              		.loc 1 97 1 view .LVU5
  98:Middlewares/ST/filex/common/src/fx_directory_free_search.c **** ULONG         FAT_index, FAT_value;
  57              		.loc 1 98 1 view .LVU6
  99:Middlewares/ST/filex/common/src/fx_directory_free_search.c **** ULONG         cluster, total_clusters, clusters_needed;
  58              		.loc 1 99 1 view .LVU7
 100:Middlewares/ST/filex/common/src/fx_directory_free_search.c **** ULONG         first_new_cluster, last_cluster, clusters;
  59              		.loc 1 100 1 view .LVU8
 101:Middlewares/ST/filex/common/src/fx_directory_free_search.c **** ULONG         directory_index;
  60              		.loc 1 101 1 view .LVU9
 102:Middlewares/ST/filex/common/src/fx_directory_free_search.c **** ULONG         directory_entries;
  61              		.loc 1 102 1 view .LVU10
 103:Middlewares/ST/filex/common/src/fx_directory_free_search.c **** ULONG         logical_sector;
  62              		.loc 1 103 1 view .LVU11
 104:Middlewares/ST/filex/common/src/fx_directory_free_search.c **** FX_DIR_ENTRY *search_dir_ptr;
  63              		.loc 1 104 1 view .LVU12
 105:Middlewares/ST/filex/common/src/fx_directory_free_search.c **** ULONG         free_entry_start;
  64              		.loc 1 105 1 view .LVU13
 106:Middlewares/ST/filex/common/src/fx_directory_free_search.c **** UINT          sectors;
  65              		.loc 1 106 1 view .LVU14
 107:Middlewares/ST/filex/common/src/fx_directory_free_search.c **** 
ARM GAS  C:\Users\HP\AppData\Local\Temp\ccmUfyBM.s 			page 4


 108:Middlewares/ST/filex/common/src/fx_directory_free_search.c **** FX_INT_SAVE_AREA
  66              		.loc 1 108 1 view .LVU15
 109:Middlewares/ST/filex/common/src/fx_directory_free_search.c **** 
 110:Middlewares/ST/filex/common/src/fx_directory_free_search.c **** 
 111:Middlewares/ST/filex/common/src/fx_directory_free_search.c **** #ifdef FX_ENABLE_EXFAT
 112:Middlewares/ST/filex/common/src/fx_directory_free_search.c ****     /* Check if media format is exFAT.  */
 113:Middlewares/ST/filex/common/src/fx_directory_free_search.c ****     if (media_ptr -> fx_media_FAT_type == FX_exFAT)
 114:Middlewares/ST/filex/common/src/fx_directory_free_search.c ****     {
 115:Middlewares/ST/filex/common/src/fx_directory_free_search.c **** 
 116:Middlewares/ST/filex/common/src/fx_directory_free_search.c ****         /* Call exFAT specific function.  */
 117:Middlewares/ST/filex/common/src/fx_directory_free_search.c ****         return(_fx_directory_exFAT_free_search(media_ptr, directory_ptr, entry_ptr));
 118:Middlewares/ST/filex/common/src/fx_directory_free_search.c ****     }
 119:Middlewares/ST/filex/common/src/fx_directory_free_search.c **** #endif /* FX_ENABLE_EXFAT */
 120:Middlewares/ST/filex/common/src/fx_directory_free_search.c **** 
 121:Middlewares/ST/filex/common/src/fx_directory_free_search.c **** #ifndef FX_MEDIA_STATISTICS_DISABLE
 122:Middlewares/ST/filex/common/src/fx_directory_free_search.c **** 
 123:Middlewares/ST/filex/common/src/fx_directory_free_search.c ****     /* Increment the number of directory free entry search requests.  */
 124:Middlewares/ST/filex/common/src/fx_directory_free_search.c ****     media_ptr -> fx_media_directory_free_searches++;
  67              		.loc 1 124 5 view .LVU16
  68              		.loc 1 124 15 is_stmt 0 view .LVU17
  69 000c D0F87431 		ldr	r3, [r0, #372]
  70              		.loc 1 124 50 view .LVU18
  71 0010 0133     		adds	r3, r3, #1
  72 0012 C0F87431 		str	r3, [r0, #372]
 125:Middlewares/ST/filex/common/src/fx_directory_free_search.c **** #endif
 126:Middlewares/ST/filex/common/src/fx_directory_free_search.c **** 
 127:Middlewares/ST/filex/common/src/fx_directory_free_search.c ****     /* Initialize the entry sector values.  */
 128:Middlewares/ST/filex/common/src/fx_directory_free_search.c ****     entry_sector = entry_offset = 0;
  73              		.loc 1 128 5 is_stmt 1 view .LVU19
  74              	.LVL1:
 129:Middlewares/ST/filex/common/src/fx_directory_free_search.c **** 
 130:Middlewares/ST/filex/common/src/fx_directory_free_search.c ****     /* Set the long file name flag to false.  */
 131:Middlewares/ST/filex/common/src/fx_directory_free_search.c ****     entry_ptr -> fx_dir_entry_long_name_present =  0;
  75              		.loc 1 131 5 view .LVU20
  76              		.loc 1 131 49 is_stmt 0 view .LVU21
  77 0016 0023     		movs	r3, #0
  78 0018 5361     		str	r3, [r2, #20]
 132:Middlewares/ST/filex/common/src/fx_directory_free_search.c **** 
 133:Middlewares/ST/filex/common/src/fx_directory_free_search.c ****     /* Are there leading dots?  */
 134:Middlewares/ST/filex/common/src/fx_directory_free_search.c ****     if (entry_ptr -> fx_dir_entry_name[0] == '.')
  79              		.loc 1 134 5 is_stmt 1 view .LVU22
  80              		.loc 1 134 19 is_stmt 0 view .LVU23
  81 001a 1068     		ldr	r0, [r2]
  82              	.LVL2:
  83              		.loc 1 134 39 view .LVU24
  84 001c 0378     		ldrb	r3, [r0]	@ zero_extendqisi2
  85              		.loc 1 134 8 view .LVU25
  86 001e 2E2B     		cmp	r3, #46
  87 0020 02D0     		beq	.L76
  88 0022 0024     		movs	r4, #0
  89 0024 2146     		mov	r1, r4
  90              	.LVL3:
  91              		.loc 1 134 8 view .LVU26
  92 0026 45E0     		b	.L11
  93              	.LVL4:
  94              	.L76:
 135:Middlewares/ST/filex/common/src/fx_directory_free_search.c ****     {
ARM GAS  C:\Users\HP\AppData\Local\Temp\ccmUfyBM.s 			page 5


 136:Middlewares/ST/filex/common/src/fx_directory_free_search.c **** 
 137:Middlewares/ST/filex/common/src/fx_directory_free_search.c ****         /* Is there more than 1 dot?  */
 138:Middlewares/ST/filex/common/src/fx_directory_free_search.c ****         if (entry_ptr -> fx_dir_entry_name[1] == '.')
  95              		.loc 1 138 9 is_stmt 1 view .LVU27
  96              		.loc 1 138 43 is_stmt 0 view .LVU28
  97 0028 4378     		ldrb	r3, [r0, #1]	@ zero_extendqisi2
  98              		.loc 1 138 12 view .LVU29
  99 002a 2E2B     		cmp	r3, #46
 100 002c 00F05582 		beq	.L51
 101 0030 0024     		movs	r4, #0
 102 0032 2146     		mov	r1, r4
 103              	.LVL5:
 104              		.loc 1 138 12 view .LVU30
 105 0034 3EE0     		b	.L11
 106              	.LVL6:
 107              	.L5:
 139:Middlewares/ST/filex/common/src/fx_directory_free_search.c ****         {
 140:Middlewares/ST/filex/common/src/fx_directory_free_search.c ****             /* Yes, consider the name invalid.  */
 141:Middlewares/ST/filex/common/src/fx_directory_free_search.c ****             return(FX_INVALID_NAME);
 142:Middlewares/ST/filex/common/src/fx_directory_free_search.c ****         }
 143:Middlewares/ST/filex/common/src/fx_directory_free_search.c ****     }
 144:Middlewares/ST/filex/common/src/fx_directory_free_search.c **** 
 145:Middlewares/ST/filex/common/src/fx_directory_free_search.c ****     /* Determine if a long file name is present.  */
 146:Middlewares/ST/filex/common/src/fx_directory_free_search.c ****     for (i = 0, j = 0; entry_ptr -> fx_dir_entry_name[i]; i++)
 147:Middlewares/ST/filex/common/src/fx_directory_free_search.c ****     {
 148:Middlewares/ST/filex/common/src/fx_directory_free_search.c **** 
 149:Middlewares/ST/filex/common/src/fx_directory_free_search.c ****         /* Check for upper-case characters.  */
 150:Middlewares/ST/filex/common/src/fx_directory_free_search.c ****         if ((entry_ptr -> fx_dir_entry_name[i] >= 'A') && (entry_ptr -> fx_dir_entry_name[i] <= 'Z'
 151:Middlewares/ST/filex/common/src/fx_directory_free_search.c ****         {
 152:Middlewares/ST/filex/common/src/fx_directory_free_search.c ****             continue;
 153:Middlewares/ST/filex/common/src/fx_directory_free_search.c ****         }
 154:Middlewares/ST/filex/common/src/fx_directory_free_search.c ****         /* Check for numeric characters.  */
 155:Middlewares/ST/filex/common/src/fx_directory_free_search.c ****         else if ((entry_ptr -> fx_dir_entry_name[i] >= '0') && (entry_ptr -> fx_dir_entry_name[i] <
 156:Middlewares/ST/filex/common/src/fx_directory_free_search.c ****         {
 157:Middlewares/ST/filex/common/src/fx_directory_free_search.c ****             continue;
 158:Middlewares/ST/filex/common/src/fx_directory_free_search.c ****         }
 159:Middlewares/ST/filex/common/src/fx_directory_free_search.c ****         /* Check for any lower-case characters.  */
 160:Middlewares/ST/filex/common/src/fx_directory_free_search.c ****         else if ((entry_ptr -> fx_dir_entry_name[i] >= 'a') && (entry_ptr -> fx_dir_entry_name[i] <
 161:Middlewares/ST/filex/common/src/fx_directory_free_search.c ****         {
 162:Middlewares/ST/filex/common/src/fx_directory_free_search.c ****             entry_ptr -> fx_dir_entry_long_name_present =  1;
 163:Middlewares/ST/filex/common/src/fx_directory_free_search.c ****         }
 164:Middlewares/ST/filex/common/src/fx_directory_free_search.c ****         /* Check for a space in the middle of the name.  */
 165:Middlewares/ST/filex/common/src/fx_directory_free_search.c ****         else if (entry_ptr -> fx_dir_entry_name[i] == ' ')
 108              		.loc 1 165 14 is_stmt 1 view .LVU31
 109              		.loc 1 165 17 is_stmt 0 view .LVU32
 110 0036 202B     		cmp	r3, #32
 111 0038 38D0     		beq	.L77
 166:Middlewares/ST/filex/common/src/fx_directory_free_search.c ****         {
 167:Middlewares/ST/filex/common/src/fx_directory_free_search.c ****             entry_ptr -> fx_dir_entry_long_name_present = 1;
 168:Middlewares/ST/filex/common/src/fx_directory_free_search.c ****         }
 169:Middlewares/ST/filex/common/src/fx_directory_free_search.c ****         /* Check for a dot in the name.  */
 170:Middlewares/ST/filex/common/src/fx_directory_free_search.c ****         else if (entry_ptr -> fx_dir_entry_name[i] == '.')
 112              		.loc 1 170 14 is_stmt 1 view .LVU33
 113              		.loc 1 170 17 is_stmt 0 view .LVU34
 114 003a 2E2B     		cmp	r3, #46
 115 003c 4FD0     		beq	.L78
 171:Middlewares/ST/filex/common/src/fx_directory_free_search.c ****         {
ARM GAS  C:\Users\HP\AppData\Local\Temp\ccmUfyBM.s 			page 6


 172:Middlewares/ST/filex/common/src/fx_directory_free_search.c ****             /* Determine if this is the first dot detected.  */
 173:Middlewares/ST/filex/common/src/fx_directory_free_search.c ****             if (j == 0)
 174:Middlewares/ST/filex/common/src/fx_directory_free_search.c ****             {
 175:Middlewares/ST/filex/common/src/fx_directory_free_search.c ****                 /* First dot, remember where it was.  */
 176:Middlewares/ST/filex/common/src/fx_directory_free_search.c ****                 j = i;
 177:Middlewares/ST/filex/common/src/fx_directory_free_search.c **** 
 178:Middlewares/ST/filex/common/src/fx_directory_free_search.c ****                 /* Determine if this is a leading dot.  */
 179:Middlewares/ST/filex/common/src/fx_directory_free_search.c ****                 if (i == 0)
 180:Middlewares/ST/filex/common/src/fx_directory_free_search.c ****                 {
 181:Middlewares/ST/filex/common/src/fx_directory_free_search.c **** 
 182:Middlewares/ST/filex/common/src/fx_directory_free_search.c ****                     /* Leading dot detected, treat as a long filename.  */
 183:Middlewares/ST/filex/common/src/fx_directory_free_search.c ****                     entry_ptr -> fx_dir_entry_long_name_present =  1;
 184:Middlewares/ST/filex/common/src/fx_directory_free_search.c ****                 }
 185:Middlewares/ST/filex/common/src/fx_directory_free_search.c ****             }
 186:Middlewares/ST/filex/common/src/fx_directory_free_search.c ****             else
 187:Middlewares/ST/filex/common/src/fx_directory_free_search.c ****             {
 188:Middlewares/ST/filex/common/src/fx_directory_free_search.c ****                 /* Second dot detected, must have a long file name.  */
 189:Middlewares/ST/filex/common/src/fx_directory_free_search.c ****                 entry_ptr -> fx_dir_entry_long_name_present = 1;
 190:Middlewares/ST/filex/common/src/fx_directory_free_search.c ****             }
 191:Middlewares/ST/filex/common/src/fx_directory_free_search.c ****         }
 192:Middlewares/ST/filex/common/src/fx_directory_free_search.c ****         /* Check for a special 0xE5 character.  */
 193:Middlewares/ST/filex/common/src/fx_directory_free_search.c ****         else if ((UCHAR)entry_ptr -> fx_dir_entry_name[i] == (UCHAR)0xE5)
 116              		.loc 1 193 14 is_stmt 1 view .LVU35
 117              		.loc 1 193 17 is_stmt 0 view .LVU36
 118 003e E52B     		cmp	r3, #229
 119 0040 58D0     		beq	.L79
 194:Middlewares/ST/filex/common/src/fx_directory_free_search.c ****         {
 195:Middlewares/ST/filex/common/src/fx_directory_free_search.c ****             entry_ptr -> fx_dir_entry_long_name_present = 1;
 196:Middlewares/ST/filex/common/src/fx_directory_free_search.c ****         }
 197:Middlewares/ST/filex/common/src/fx_directory_free_search.c ****         /* Check for code point value greater than 127.  */
 198:Middlewares/ST/filex/common/src/fx_directory_free_search.c ****         else if ((UCHAR)entry_ptr -> fx_dir_entry_name[i] > (UCHAR)127)
 120              		.loc 1 198 14 is_stmt 1 view .LVU37
 121              		.loc 1 198 17 is_stmt 0 view .LVU38
 122 0042 13F0800F 		tst	r3, #128
 123 0046 34D1     		bne	.L4
 199:Middlewares/ST/filex/common/src/fx_directory_free_search.c ****         {
 200:Middlewares/ST/filex/common/src/fx_directory_free_search.c ****             continue;
 201:Middlewares/ST/filex/common/src/fx_directory_free_search.c ****         }
 202:Middlewares/ST/filex/common/src/fx_directory_free_search.c ****         /* Check for any special characters.  */
 203:Middlewares/ST/filex/common/src/fx_directory_free_search.c ****         else if ((entry_ptr -> fx_dir_entry_name[i] == '~') ||
 124              		.loc 1 203 14 is_stmt 1 view .LVU39
 125              		.loc 1 203 17 is_stmt 0 view .LVU40
 126 0048 7E2B     		cmp	r3, #126
 127 004a 32D0     		beq	.L4
 128              		.loc 1 203 61 discriminator 1 view .LVU41
 129 004c 2D2B     		cmp	r3, #45
 130 004e 30D0     		beq	.L4
 204:Middlewares/ST/filex/common/src/fx_directory_free_search.c ****                  (entry_ptr -> fx_dir_entry_name[i] == '-') ||
 131              		.loc 1 204 61 view .LVU42
 132 0050 5F2B     		cmp	r3, #95
 133 0052 2ED0     		beq	.L4
 205:Middlewares/ST/filex/common/src/fx_directory_free_search.c ****                  (entry_ptr -> fx_dir_entry_name[i] == '_') ||
 134              		.loc 1 205 61 view .LVU43
 135 0054 7D2B     		cmp	r3, #125
 136 0056 2CD0     		beq	.L4
 206:Middlewares/ST/filex/common/src/fx_directory_free_search.c ****                  (entry_ptr -> fx_dir_entry_name[i] == '}') ||
 137              		.loc 1 206 61 view .LVU44
ARM GAS  C:\Users\HP\AppData\Local\Temp\ccmUfyBM.s 			page 7


 138 0058 7B2B     		cmp	r3, #123
 139 005a 2AD0     		beq	.L4
 207:Middlewares/ST/filex/common/src/fx_directory_free_search.c ****                  (entry_ptr -> fx_dir_entry_name[i] == '{') ||
 140              		.loc 1 207 61 view .LVU45
 141 005c 282B     		cmp	r3, #40
 142 005e 28D0     		beq	.L4
 208:Middlewares/ST/filex/common/src/fx_directory_free_search.c ****                  (entry_ptr -> fx_dir_entry_name[i] == '(') ||
 143              		.loc 1 208 61 view .LVU46
 144 0060 292B     		cmp	r3, #41
 145 0062 26D0     		beq	.L4
 209:Middlewares/ST/filex/common/src/fx_directory_free_search.c ****                  (entry_ptr -> fx_dir_entry_name[i] == ')') ||
 146              		.loc 1 209 61 view .LVU47
 147 0064 602B     		cmp	r3, #96
 148 0066 24D0     		beq	.L4
 210:Middlewares/ST/filex/common/src/fx_directory_free_search.c ****                  (entry_ptr -> fx_dir_entry_name[i] == '`') ||
 149              		.loc 1 210 61 view .LVU48
 150 0068 272B     		cmp	r3, #39
 151 006a 22D0     		beq	.L4
 211:Middlewares/ST/filex/common/src/fx_directory_free_search.c ****                  (entry_ptr -> fx_dir_entry_name[i] == '\'') ||
 152              		.loc 1 211 62 view .LVU49
 153 006c 212B     		cmp	r3, #33
 154 006e 20D0     		beq	.L4
 212:Middlewares/ST/filex/common/src/fx_directory_free_search.c ****                  (entry_ptr -> fx_dir_entry_name[i] == '!') ||
 155              		.loc 1 212 61 view .LVU50
 156 0070 232B     		cmp	r3, #35
 157 0072 1ED0     		beq	.L4
 213:Middlewares/ST/filex/common/src/fx_directory_free_search.c ****                  (entry_ptr -> fx_dir_entry_name[i] == '#') ||
 158              		.loc 1 213 61 view .LVU51
 159 0074 242B     		cmp	r3, #36
 160 0076 1CD0     		beq	.L4
 214:Middlewares/ST/filex/common/src/fx_directory_free_search.c ****                  (entry_ptr -> fx_dir_entry_name[i] == '$') ||
 161              		.loc 1 214 61 view .LVU52
 162 0078 262B     		cmp	r3, #38
 163 007a 1AD0     		beq	.L4
 215:Middlewares/ST/filex/common/src/fx_directory_free_search.c ****                  (entry_ptr -> fx_dir_entry_name[i] == '&') ||
 164              		.loc 1 215 61 view .LVU53
 165 007c 402B     		cmp	r3, #64
 166 007e 18D0     		beq	.L4
 216:Middlewares/ST/filex/common/src/fx_directory_free_search.c ****                  (entry_ptr -> fx_dir_entry_name[i] == '@') ||
 167              		.loc 1 216 61 view .LVU54
 168 0080 5E2B     		cmp	r3, #94
 169 0082 16D0     		beq	.L4
 217:Middlewares/ST/filex/common/src/fx_directory_free_search.c ****                  (entry_ptr -> fx_dir_entry_name[i] == '^') ||
 170              		.loc 1 217 61 view .LVU55
 171 0084 252B     		cmp	r3, #37
 172 0086 14D0     		beq	.L4
 218:Middlewares/ST/filex/common/src/fx_directory_free_search.c ****                  (entry_ptr -> fx_dir_entry_name[i] == '%'))
 219:Middlewares/ST/filex/common/src/fx_directory_free_search.c ****         {
 220:Middlewares/ST/filex/common/src/fx_directory_free_search.c ****             continue;
 221:Middlewares/ST/filex/common/src/fx_directory_free_search.c ****         }
 222:Middlewares/ST/filex/common/src/fx_directory_free_search.c ****         /* Check for long filename special characters.  */
 223:Middlewares/ST/filex/common/src/fx_directory_free_search.c ****         else if ((entry_ptr -> fx_dir_entry_name[i] == '+') ||
 173              		.loc 1 223 14 is_stmt 1 view .LVU56
 174              		.loc 1 223 61 is_stmt 0 view .LVU57
 175 0088 A3F12B02 		sub	r2, r3, #43
 176 008c D2B2     		uxtb	r2, r2
 177              		.loc 1 223 17 view .LVU58
ARM GAS  C:\Users\HP\AppData\Local\Temp\ccmUfyBM.s 			page 8


 178 008e 012A     		cmp	r2, #1
 179 0090 08D9     		bls	.L10
 224:Middlewares/ST/filex/common/src/fx_directory_free_search.c ****                  (entry_ptr -> fx_dir_entry_name[i] == ',') ||
 180              		.loc 1 224 61 view .LVU59
 181 0092 3B2B     		cmp	r3, #59
 182 0094 06D0     		beq	.L10
 225:Middlewares/ST/filex/common/src/fx_directory_free_search.c ****                  (entry_ptr -> fx_dir_entry_name[i] == ';') ||
 183              		.loc 1 225 61 view .LVU60
 184 0096 3D2B     		cmp	r3, #61
 185 0098 04D0     		beq	.L10
 226:Middlewares/ST/filex/common/src/fx_directory_free_search.c ****                  (entry_ptr -> fx_dir_entry_name[i] == '=') ||
 186              		.loc 1 226 61 view .LVU61
 187 009a 5B2B     		cmp	r3, #91
 188 009c 02D0     		beq	.L10
 227:Middlewares/ST/filex/common/src/fx_directory_free_search.c ****                  (entry_ptr -> fx_dir_entry_name[i] == '[') ||
 189              		.loc 1 227 61 view .LVU62
 190 009e 5D2B     		cmp	r3, #93
 191 00a0 40F01D82 		bne	.L53
 192              	.L10:
 228:Middlewares/ST/filex/common/src/fx_directory_free_search.c ****                  (entry_ptr -> fx_dir_entry_name[i] == ']'))
 229:Middlewares/ST/filex/common/src/fx_directory_free_search.c ****         {
 230:Middlewares/ST/filex/common/src/fx_directory_free_search.c ****             entry_ptr -> fx_dir_entry_long_name_present = 1;
 193              		.loc 1 230 13 is_stmt 1 view .LVU63
 194              		.loc 1 230 57 is_stmt 0 view .LVU64
 195 00a4 0123     		movs	r3, #1
 196 00a6 CBF81430 		str	r3, [fp, #20]
 197 00aa 02E0     		b	.L4
 198              	.L77:
 167:Middlewares/ST/filex/common/src/fx_directory_free_search.c ****         }
 199              		.loc 1 167 13 is_stmt 1 view .LVU65
 167:Middlewares/ST/filex/common/src/fx_directory_free_search.c ****         }
 200              		.loc 1 167 57 is_stmt 0 view .LVU66
 201 00ac 0123     		movs	r3, #1
 202 00ae CBF81430 		str	r3, [fp, #20]
 203              	.L4:
 146:Middlewares/ST/filex/common/src/fx_directory_free_search.c ****     {
 204              		.loc 1 146 59 is_stmt 1 discriminator 2 view .LVU67
 146:Middlewares/ST/filex/common/src/fx_directory_free_search.c ****     {
 205              		.loc 1 146 60 is_stmt 0 discriminator 2 view .LVU68
 206 00b2 0131     		adds	r1, r1, #1
 207              	.LVL7:
 208              	.L11:
 146:Middlewares/ST/filex/common/src/fx_directory_free_search.c ****     {
 209              		.loc 1 146 24 is_stmt 1 discriminator 1 view .LVU69
 146:Middlewares/ST/filex/common/src/fx_directory_free_search.c ****     {
 210              		.loc 1 146 54 is_stmt 0 discriminator 1 view .LVU70
 211 00b4 435C     		ldrb	r3, [r0, r1]	@ zero_extendqisi2
 146:Middlewares/ST/filex/common/src/fx_directory_free_search.c ****     {
 212              		.loc 1 146 5 discriminator 1 view .LVU71
 213 00b6 1BB3     		cbz	r3, .L80
 150:Middlewares/ST/filex/common/src/fx_directory_free_search.c ****         {
 214              		.loc 1 150 9 is_stmt 1 view .LVU72
 150:Middlewares/ST/filex/common/src/fx_directory_free_search.c ****         {
 215              		.loc 1 150 56 is_stmt 0 view .LVU73
 216 00b8 A3F14102 		sub	r2, r3, #65
 217 00bc D2B2     		uxtb	r2, r2
 150:Middlewares/ST/filex/common/src/fx_directory_free_search.c ****         {
ARM GAS  C:\Users\HP\AppData\Local\Temp\ccmUfyBM.s 			page 9


 218              		.loc 1 150 12 view .LVU74
 219 00be 192A     		cmp	r2, #25
 220 00c0 F7D9     		bls	.L4
 155:Middlewares/ST/filex/common/src/fx_directory_free_search.c ****         {
 221              		.loc 1 155 14 is_stmt 1 view .LVU75
 155:Middlewares/ST/filex/common/src/fx_directory_free_search.c ****         {
 222              		.loc 1 155 61 is_stmt 0 view .LVU76
 223 00c2 A3F13002 		sub	r2, r3, #48
 224 00c6 D2B2     		uxtb	r2, r2
 155:Middlewares/ST/filex/common/src/fx_directory_free_search.c ****         {
 225              		.loc 1 155 17 view .LVU77
 226 00c8 092A     		cmp	r2, #9
 227 00ca F2D9     		bls	.L4
 160:Middlewares/ST/filex/common/src/fx_directory_free_search.c ****         {
 228              		.loc 1 160 14 is_stmt 1 view .LVU78
 160:Middlewares/ST/filex/common/src/fx_directory_free_search.c ****         {
 229              		.loc 1 160 61 is_stmt 0 view .LVU79
 230 00cc A3F16102 		sub	r2, r3, #97
 231 00d0 D2B2     		uxtb	r2, r2
 160:Middlewares/ST/filex/common/src/fx_directory_free_search.c ****         {
 232              		.loc 1 160 17 view .LVU80
 233 00d2 192A     		cmp	r2, #25
 234 00d4 AFD8     		bhi	.L5
 162:Middlewares/ST/filex/common/src/fx_directory_free_search.c ****         }
 235              		.loc 1 162 13 is_stmt 1 view .LVU81
 162:Middlewares/ST/filex/common/src/fx_directory_free_search.c ****         }
 236              		.loc 1 162 57 is_stmt 0 view .LVU82
 237 00d6 0123     		movs	r3, #1
 238 00d8 CBF81430 		str	r3, [fp, #20]
 239 00dc E9E7     		b	.L4
 240              	.L78:
 173:Middlewares/ST/filex/common/src/fx_directory_free_search.c ****             {
 241              		.loc 1 173 13 is_stmt 1 view .LVU83
 173:Middlewares/ST/filex/common/src/fx_directory_free_search.c ****             {
 242              		.loc 1 173 16 is_stmt 0 view .LVU84
 243 00de 2CB9     		cbnz	r4, .L8
 176:Middlewares/ST/filex/common/src/fx_directory_free_search.c **** 
 244              		.loc 1 176 17 is_stmt 1 view .LVU85
 245              	.LVL8:
 179:Middlewares/ST/filex/common/src/fx_directory_free_search.c ****                 {
 246              		.loc 1 179 17 view .LVU86
 179:Middlewares/ST/filex/common/src/fx_directory_free_search.c ****                 {
 247              		.loc 1 179 20 is_stmt 0 view .LVU87
 248 00e0 61B9     		cbnz	r1, .L52
 183:Middlewares/ST/filex/common/src/fx_directory_free_search.c ****                 }
 249              		.loc 1 183 21 is_stmt 1 view .LVU88
 183:Middlewares/ST/filex/common/src/fx_directory_free_search.c ****                 }
 250              		.loc 1 183 65 is_stmt 0 view .LVU89
 251 00e2 0123     		movs	r3, #1
 252 00e4 CBF81430 		str	r3, [fp, #20]
 176:Middlewares/ST/filex/common/src/fx_directory_free_search.c **** 
 253              		.loc 1 176 19 view .LVU90
 254 00e8 0C46     		mov	r4, r1
 255 00ea E2E7     		b	.L4
 256              	.LVL9:
 257              	.L8:
 189:Middlewares/ST/filex/common/src/fx_directory_free_search.c ****             }
ARM GAS  C:\Users\HP\AppData\Local\Temp\ccmUfyBM.s 			page 10


 258              		.loc 1 189 17 is_stmt 1 view .LVU91
 189:Middlewares/ST/filex/common/src/fx_directory_free_search.c ****             }
 259              		.loc 1 189 61 is_stmt 0 view .LVU92
 260 00ec 0123     		movs	r3, #1
 261 00ee CBF81430 		str	r3, [fp, #20]
 262 00f2 DEE7     		b	.L4
 263              	.L79:
 195:Middlewares/ST/filex/common/src/fx_directory_free_search.c ****         }
 264              		.loc 1 195 13 is_stmt 1 view .LVU93
 195:Middlewares/ST/filex/common/src/fx_directory_free_search.c ****         }
 265              		.loc 1 195 57 is_stmt 0 view .LVU94
 266 00f4 0123     		movs	r3, #1
 267 00f6 CBF81430 		str	r3, [fp, #20]
 268 00fa DAE7     		b	.L4
 269              	.LVL10:
 270              	.L52:
 176:Middlewares/ST/filex/common/src/fx_directory_free_search.c **** 
 271              		.loc 1 176 19 view .LVU95
 272 00fc 0C46     		mov	r4, r1
 273 00fe D8E7     		b	.L4
 274              	.LVL11:
 275              	.L80:
 231:Middlewares/ST/filex/common/src/fx_directory_free_search.c ****         }
 232:Middlewares/ST/filex/common/src/fx_directory_free_search.c ****         /* Something is wrong with the supplied name.  */
 233:Middlewares/ST/filex/common/src/fx_directory_free_search.c ****         else
 234:Middlewares/ST/filex/common/src/fx_directory_free_search.c ****         {
 235:Middlewares/ST/filex/common/src/fx_directory_free_search.c ****             return(FX_INVALID_NAME);
 236:Middlewares/ST/filex/common/src/fx_directory_free_search.c ****         }
 237:Middlewares/ST/filex/common/src/fx_directory_free_search.c ****     }
 238:Middlewares/ST/filex/common/src/fx_directory_free_search.c **** 
 239:Middlewares/ST/filex/common/src/fx_directory_free_search.c ****     /* Determine if a dot was found.  */
 240:Middlewares/ST/filex/common/src/fx_directory_free_search.c ****     if (j != 0)
 276              		.loc 1 240 5 is_stmt 1 view .LVU96
 277              		.loc 1 240 8 is_stmt 0 view .LVU97
 278 0100 2CB1     		cbz	r4, .L13
 241:Middlewares/ST/filex/common/src/fx_directory_free_search.c ****     {
 242:Middlewares/ST/filex/common/src/fx_directory_free_search.c **** 
 243:Middlewares/ST/filex/common/src/fx_directory_free_search.c ****         /* Yes, Determine if the extension exceeds a 3 character extension.  */
 244:Middlewares/ST/filex/common/src/fx_directory_free_search.c ****         if ((i - j) > 4)
 279              		.loc 1 244 9 is_stmt 1 view .LVU98
 280              		.loc 1 244 16 is_stmt 0 view .LVU99
 281 0102 0B1B     		subs	r3, r1, r4
 282              		.loc 1 244 12 view .LVU100
 283 0104 042B     		cmp	r3, #4
 284 0106 02D9     		bls	.L13
 245:Middlewares/ST/filex/common/src/fx_directory_free_search.c ****         {
 246:Middlewares/ST/filex/common/src/fx_directory_free_search.c **** 
 247:Middlewares/ST/filex/common/src/fx_directory_free_search.c ****             /* Yes, long file name is present.  */
 248:Middlewares/ST/filex/common/src/fx_directory_free_search.c ****             entry_ptr -> fx_dir_entry_long_name_present = 1;
 285              		.loc 1 248 13 is_stmt 1 view .LVU101
 286              		.loc 1 248 57 is_stmt 0 view .LVU102
 287 0108 0123     		movs	r3, #1
 288 010a CBF81430 		str	r3, [fp, #20]
 289              	.L13:
 249:Middlewares/ST/filex/common/src/fx_directory_free_search.c ****         }
 250:Middlewares/ST/filex/common/src/fx_directory_free_search.c ****     }
 251:Middlewares/ST/filex/common/src/fx_directory_free_search.c **** 
ARM GAS  C:\Users\HP\AppData\Local\Temp\ccmUfyBM.s 			page 11


 252:Middlewares/ST/filex/common/src/fx_directory_free_search.c ****     /* Calculate the total entries needed.  */
 253:Middlewares/ST/filex/common/src/fx_directory_free_search.c ****     if ((i <= 12) && (entry_ptr -> fx_dir_entry_long_name_present == 0))
 290              		.loc 1 253 5 is_stmt 1 view .LVU103
 291              		.loc 1 253 8 is_stmt 0 view .LVU104
 292 010e 0C29     		cmp	r1, #12
 293 0110 0DD8     		bhi	.L14
 294              		.loc 1 253 33 discriminator 1 view .LVU105
 295 0112 DBF81430 		ldr	r3, [fp, #20]
 296              		.loc 1 253 19 discriminator 1 view .LVU106
 297 0116 53B9     		cbnz	r3, .L14
 254:Middlewares/ST/filex/common/src/fx_directory_free_search.c ****     {
 255:Middlewares/ST/filex/common/src/fx_directory_free_search.c **** 
 256:Middlewares/ST/filex/common/src/fx_directory_free_search.c ****         /* Initialize the total entries to 1.  */
 257:Middlewares/ST/filex/common/src/fx_directory_free_search.c ****         total_entries = 1;
 298              		.loc 1 257 9 is_stmt 1 view .LVU107
 299              	.LVL12:
 258:Middlewares/ST/filex/common/src/fx_directory_free_search.c **** 
 259:Middlewares/ST/filex/common/src/fx_directory_free_search.c ****         /* Check for special instance of long file name.  */
 260:Middlewares/ST/filex/common/src/fx_directory_free_search.c ****         if ((j >= 9) || ((i - j) >= 9))
 300              		.loc 1 260 9 view .LVU108
 301              		.loc 1 260 12 is_stmt 0 view .LVU109
 302 0118 082C     		cmp	r4, #8
 303 011a 02D8     		bhi	.L15
 304              		.loc 1 260 29 discriminator 1 view .LVU110
 305 011c 091B     		subs	r1, r1, r4
 306              	.LVL13:
 307              		.loc 1 260 22 discriminator 1 view .LVU111
 308 011e 0829     		cmp	r1, #8
 309 0120 2BD9     		bls	.L54
 310              	.L15:
 261:Middlewares/ST/filex/common/src/fx_directory_free_search.c ****         {
 262:Middlewares/ST/filex/common/src/fx_directory_free_search.c **** 
 263:Middlewares/ST/filex/common/src/fx_directory_free_search.c ****             /* The dot is after 8 character or there is no dot and the name
 264:Middlewares/ST/filex/common/src/fx_directory_free_search.c ****                is greater than 8 character. */
 265:Middlewares/ST/filex/common/src/fx_directory_free_search.c ****             entry_ptr -> fx_dir_entry_long_name_present = 1;
 311              		.loc 1 265 13 is_stmt 1 view .LVU112
 312              		.loc 1 265 57 is_stmt 0 view .LVU113
 313 0122 0123     		movs	r3, #1
 314 0124 CBF81430 		str	r3, [fp, #20]
 266:Middlewares/ST/filex/common/src/fx_directory_free_search.c ****             total_entries = 2;
 315              		.loc 1 266 13 is_stmt 1 view .LVU114
 316              	.LVL14:
 317              		.loc 1 266 27 is_stmt 0 view .LVU115
 318 0128 4FF0020A 		mov	r10, #2
 319 012c 0FE0     		b	.L16
 320              	.LVL15:
 321              	.L14:
 267:Middlewares/ST/filex/common/src/fx_directory_free_search.c ****         }
 268:Middlewares/ST/filex/common/src/fx_directory_free_search.c ****     }
 269:Middlewares/ST/filex/common/src/fx_directory_free_search.c ****     else
 270:Middlewares/ST/filex/common/src/fx_directory_free_search.c ****     {
 271:Middlewares/ST/filex/common/src/fx_directory_free_search.c **** 
 272:Middlewares/ST/filex/common/src/fx_directory_free_search.c ****         /* Long file name is present, calculate how many entries are needed
 273:Middlewares/ST/filex/common/src/fx_directory_free_search.c ****            to represent it.  */
 274:Middlewares/ST/filex/common/src/fx_directory_free_search.c ****         if (i % 13 == 0)
 322              		.loc 1 274 9 is_stmt 1 view .LVU116
 323              		.loc 1 274 15 is_stmt 0 view .LVU117
ARM GAS  C:\Users\HP\AppData\Local\Temp\ccmUfyBM.s 			page 12


 324 012e B44B     		ldr	r3, .L96
 325 0130 A3FB0123 		umull	r2, r3, r3, r1
 326 0134 9B08     		lsrs	r3, r3, #2
 327 0136 03EB4302 		add	r2, r3, r3, lsl #1
 328 013a 03EB8203 		add	r3, r3, r2, lsl #2
 329              		.loc 1 274 12 view .LVU118
 330 013e 9942     		cmp	r1, r3
 331 0140 14D1     		bne	.L17
 275:Middlewares/ST/filex/common/src/fx_directory_free_search.c ****         {
 276:Middlewares/ST/filex/common/src/fx_directory_free_search.c ****             /* Exact fit, just add one for the 8.3 short name.  */
 277:Middlewares/ST/filex/common/src/fx_directory_free_search.c ****             total_entries = i / 13 + 1;
 332              		.loc 1 277 13 is_stmt 1 view .LVU119
 333              		.loc 1 277 31 is_stmt 0 view .LVU120
 334 0142 AF4B     		ldr	r3, .L96
 335 0144 A3FB0131 		umull	r3, r1, r3, r1
 336              	.LVL16:
 337              		.loc 1 277 31 view .LVU121
 338 0148 8908     		lsrs	r1, r1, #2
 339              		.loc 1 277 27 view .LVU122
 340 014a 01F1010A 		add	r10, r1, #1
 341              	.LVL17:
 342              	.L16:
 278:Middlewares/ST/filex/common/src/fx_directory_free_search.c ****         }
 279:Middlewares/ST/filex/common/src/fx_directory_free_search.c ****         else
 280:Middlewares/ST/filex/common/src/fx_directory_free_search.c ****         {
 281:Middlewares/ST/filex/common/src/fx_directory_free_search.c ****             /* Non-exact fit, add two for 8.3 short name and overlap.  */
 282:Middlewares/ST/filex/common/src/fx_directory_free_search.c ****             total_entries = i / 13 + 2;
 283:Middlewares/ST/filex/common/src/fx_directory_free_search.c ****         }
 284:Middlewares/ST/filex/common/src/fx_directory_free_search.c ****     }
 285:Middlewares/ST/filex/common/src/fx_directory_free_search.c **** 
 286:Middlewares/ST/filex/common/src/fx_directory_free_search.c ****     /* Determine if the search is in the root directory or in a
 287:Middlewares/ST/filex/common/src/fx_directory_free_search.c ****        sub-directory.  Note: the directory search function clears the
 288:Middlewares/ST/filex/common/src/fx_directory_free_search.c ****        first character of the name for the root directory.  */
 289:Middlewares/ST/filex/common/src/fx_directory_free_search.c ****     if (directory_ptr -> fx_dir_entry_name[0])
 343              		.loc 1 289 5 is_stmt 1 view .LVU123
 344              		.loc 1 289 23 is_stmt 0 view .LVU124
 345 014e 099A     		ldr	r2, [sp, #36]
 346 0150 1368     		ldr	r3, [r2]
 347              		.loc 1 289 43 view .LVU125
 348 0152 1B78     		ldrb	r3, [r3]	@ zero_extendqisi2
 349              		.loc 1 289 8 view .LVU126
 350 0154 A3B1     		cbz	r3, .L18
 290:Middlewares/ST/filex/common/src/fx_directory_free_search.c ****     {
 291:Middlewares/ST/filex/common/src/fx_directory_free_search.c **** 
 292:Middlewares/ST/filex/common/src/fx_directory_free_search.c ****         /* Search for a free entry in a sub-directory.  */
 293:Middlewares/ST/filex/common/src/fx_directory_free_search.c **** 
 294:Middlewares/ST/filex/common/src/fx_directory_free_search.c ****         /* Pickup the number of entries in this directory.  This was placed
 295:Middlewares/ST/filex/common/src/fx_directory_free_search.c ****            into the unused file size field.  */
 296:Middlewares/ST/filex/common/src/fx_directory_free_search.c ****         directory_entries =  (ULONG)directory_ptr -> fx_dir_entry_file_size;
 351              		.loc 1 296 9 is_stmt 1 view .LVU127
 352              		.loc 1 296 51 is_stmt 0 view .LVU128
 353 0156 976B     		ldr	r7, [r2, #56]
 354              	.LVL18:
 297:Middlewares/ST/filex/common/src/fx_directory_free_search.c **** 
 298:Middlewares/ST/filex/common/src/fx_directory_free_search.c ****         /* Point the search directory pointer to this entry.  */
 299:Middlewares/ST/filex/common/src/fx_directory_free_search.c ****         search_dir_ptr =  directory_ptr;
 355              		.loc 1 299 9 is_stmt 1 view .LVU129
ARM GAS  C:\Users\HP\AppData\Local\Temp\ccmUfyBM.s 			page 13


 300:Middlewares/ST/filex/common/src/fx_directory_free_search.c **** 
 301:Middlewares/ST/filex/common/src/fx_directory_free_search.c ****         /* Ensure that the search directory's last search cluster is cleared.  */
 302:Middlewares/ST/filex/common/src/fx_directory_free_search.c ****         search_dir_ptr -> fx_dir_entry_last_search_cluster =  0;
 356              		.loc 1 302 9 view .LVU130
 357              		.loc 1 302 60 is_stmt 0 view .LVU131
 358 0158 0023     		movs	r3, #0
 359 015a 1365     		str	r3, [r2, #80]
 303:Middlewares/ST/filex/common/src/fx_directory_free_search.c **** 
 304:Middlewares/ST/filex/common/src/fx_directory_free_search.c ****         /* Set the initial index to 2, since the first two directory entries are
 305:Middlewares/ST/filex/common/src/fx_directory_free_search.c ****            always allocated.  */
 306:Middlewares/ST/filex/common/src/fx_directory_free_search.c ****         directory_index =  2;
 360              		.loc 1 306 9 is_stmt 1 view .LVU132
 361              		.loc 1 306 25 is_stmt 0 view .LVU133
 362 015c 0223     		movs	r3, #2
 363 015e 0E93     		str	r3, [sp, #56]
 364              	.LVL19:
 365              	.L19:
 307:Middlewares/ST/filex/common/src/fx_directory_free_search.c ****     }
 308:Middlewares/ST/filex/common/src/fx_directory_free_search.c ****     else
 309:Middlewares/ST/filex/common/src/fx_directory_free_search.c ****     {
 310:Middlewares/ST/filex/common/src/fx_directory_free_search.c **** 
 311:Middlewares/ST/filex/common/src/fx_directory_free_search.c ****         /* Find a free entry in the root directory.  */
 312:Middlewares/ST/filex/common/src/fx_directory_free_search.c **** 
 313:Middlewares/ST/filex/common/src/fx_directory_free_search.c ****         /* Setup the number of directory entries.  */
 314:Middlewares/ST/filex/common/src/fx_directory_free_search.c ****         directory_entries =  (ULONG)media_ptr -> fx_media_root_directory_entries;
 315:Middlewares/ST/filex/common/src/fx_directory_free_search.c **** 
 316:Middlewares/ST/filex/common/src/fx_directory_free_search.c ****         /* Set the search pointer to NULL since we are working off of the
 317:Middlewares/ST/filex/common/src/fx_directory_free_search.c ****            root directory.  */
 318:Middlewares/ST/filex/common/src/fx_directory_free_search.c ****         search_dir_ptr =  FX_NULL;
 319:Middlewares/ST/filex/common/src/fx_directory_free_search.c **** 
 320:Middlewares/ST/filex/common/src/fx_directory_free_search.c ****         /* Set the initial index to 0, since the first entry of the root directory is valid.  */
 321:Middlewares/ST/filex/common/src/fx_directory_free_search.c ****         directory_index =  0;
 322:Middlewares/ST/filex/common/src/fx_directory_free_search.c ****     }
 323:Middlewares/ST/filex/common/src/fx_directory_free_search.c **** 
 324:Middlewares/ST/filex/common/src/fx_directory_free_search.c ****     /* Loop through entries in the search directory.  Yes, this is a
 325:Middlewares/ST/filex/common/src/fx_directory_free_search.c ****        linear search!  */
 326:Middlewares/ST/filex/common/src/fx_directory_free_search.c ****     free_entry_start = directory_entries;
 366              		.loc 1 326 5 is_stmt 1 view .LVU134
 128:Middlewares/ST/filex/common/src/fx_directory_free_search.c **** 
 367              		.loc 1 128 33 is_stmt 0 view .LVU135
 368 0160 0023     		movs	r3, #0
 369 0162 0893     		str	r3, [sp, #32]
 128:Middlewares/ST/filex/common/src/fx_directory_free_search.c **** 
 370              		.loc 1 128 18 view .LVU136
 371 0164 0793     		str	r3, [sp, #28]
 372 0166 3E46     		mov	r6, r7
 373 0168 9146     		mov	r9, r2
 374 016a 3AE0     		b	.L49
 375              	.LVL20:
 376              	.L17:
 282:Middlewares/ST/filex/common/src/fx_directory_free_search.c ****         }
 377              		.loc 1 282 13 is_stmt 1 view .LVU137
 282:Middlewares/ST/filex/common/src/fx_directory_free_search.c ****         }
 378              		.loc 1 282 31 is_stmt 0 view .LVU138
 379 016c A44B     		ldr	r3, .L96
 380 016e A3FB0131 		umull	r3, r1, r3, r1
 381              	.LVL21:
ARM GAS  C:\Users\HP\AppData\Local\Temp\ccmUfyBM.s 			page 14


 282:Middlewares/ST/filex/common/src/fx_directory_free_search.c ****         }
 382              		.loc 1 282 31 view .LVU139
 383 0172 8908     		lsrs	r1, r1, #2
 282:Middlewares/ST/filex/common/src/fx_directory_free_search.c ****         }
 384              		.loc 1 282 27 view .LVU140
 385 0174 01F1020A 		add	r10, r1, #2
 386              	.LVL22:
 282:Middlewares/ST/filex/common/src/fx_directory_free_search.c ****         }
 387              		.loc 1 282 27 view .LVU141
 388 0178 E9E7     		b	.L16
 389              	.LVL23:
 390              	.L54:
 257:Middlewares/ST/filex/common/src/fx_directory_free_search.c **** 
 391              		.loc 1 257 23 view .LVU142
 392 017a 4FF0010A 		mov	r10, #1
 393 017e E6E7     		b	.L16
 394              	.LVL24:
 395              	.L18:
 314:Middlewares/ST/filex/common/src/fx_directory_free_search.c **** 
 396              		.loc 1 314 9 is_stmt 1 view .LVU143
 314:Middlewares/ST/filex/common/src/fx_directory_free_search.c **** 
 397              		.loc 1 314 27 is_stmt 0 view .LVU144
 398 0180 D8F87870 		ldr	r7, [r8, #120]
 399              	.LVL25:
 318:Middlewares/ST/filex/common/src/fx_directory_free_search.c **** 
 400              		.loc 1 318 9 is_stmt 1 view .LVU145
 321:Middlewares/ST/filex/common/src/fx_directory_free_search.c ****     }
 401              		.loc 1 321 9 view .LVU146
 321:Middlewares/ST/filex/common/src/fx_directory_free_search.c ****     }
 402              		.loc 1 321 25 is_stmt 0 view .LVU147
 403 0184 0023     		movs	r3, #0
 404 0186 0E93     		str	r3, [sp, #56]
 318:Middlewares/ST/filex/common/src/fx_directory_free_search.c **** 
 405              		.loc 1 318 24 view .LVU148
 406 0188 1A46     		mov	r2, r3
 407 018a E9E7     		b	.L19
 408              	.LVL26:
 409              	.L86:
 327:Middlewares/ST/filex/common/src/fx_directory_free_search.c ****     do
 328:Middlewares/ST/filex/common/src/fx_directory_free_search.c ****     {
 329:Middlewares/ST/filex/common/src/fx_directory_free_search.c **** 
 330:Middlewares/ST/filex/common/src/fx_directory_free_search.c ****         /* Read an entry from the directory.  */
 331:Middlewares/ST/filex/common/src/fx_directory_free_search.c ****         status =  _fx_directory_entry_read(media_ptr, search_dir_ptr, &directory_index, entry_ptr);
 332:Middlewares/ST/filex/common/src/fx_directory_free_search.c **** 
 333:Middlewares/ST/filex/common/src/fx_directory_free_search.c ****         /* Check for error status.  */
 334:Middlewares/ST/filex/common/src/fx_directory_free_search.c ****         if (status != FX_SUCCESS)
 335:Middlewares/ST/filex/common/src/fx_directory_free_search.c ****         {
 336:Middlewares/ST/filex/common/src/fx_directory_free_search.c ****             return(status);
 337:Middlewares/ST/filex/common/src/fx_directory_free_search.c ****         }
 338:Middlewares/ST/filex/common/src/fx_directory_free_search.c **** 
 339:Middlewares/ST/filex/common/src/fx_directory_free_search.c ****         /* Determine if this is an empty entry.  */
 340:Middlewares/ST/filex/common/src/fx_directory_free_search.c ****         if ((((UCHAR)entry_ptr -> fx_dir_entry_name[0] == (UCHAR)FX_DIR_ENTRY_FREE) && (entry_ptr -
 410              		.loc 1 340 125 discriminator 1 view .LVU149
 411 018c 9BF80410 		ldrb	r1, [fp, #4]	@ zero_extendqisi2
 412              		.loc 1 340 85 discriminator 1 view .LVU150
 413 0190 0029     		cmp	r1, #0
 414 0192 37D0     		beq	.L21
ARM GAS  C:\Users\HP\AppData\Local\Temp\ccmUfyBM.s 			page 15


 415 0194 34E0     		b	.L20
 416              	.L23:
 341:Middlewares/ST/filex/common/src/fx_directory_free_search.c ****             ((UCHAR)entry_ptr -> fx_dir_entry_name[0] == (UCHAR)FX_DIR_ENTRY_DONE))
 342:Middlewares/ST/filex/common/src/fx_directory_free_search.c ****         {
 343:Middlewares/ST/filex/common/src/fx_directory_free_search.c **** 
 344:Middlewares/ST/filex/common/src/fx_directory_free_search.c ****             /* Determine how many entries are needed.  */
 345:Middlewares/ST/filex/common/src/fx_directory_free_search.c ****             if (total_entries > 1)
 346:Middlewares/ST/filex/common/src/fx_directory_free_search.c ****             {
 347:Middlewares/ST/filex/common/src/fx_directory_free_search.c **** 
 348:Middlewares/ST/filex/common/src/fx_directory_free_search.c ****                 /* Multiple entries are needed for long file names.  Mark this
 349:Middlewares/ST/filex/common/src/fx_directory_free_search.c ****                    entry as free. */
 350:Middlewares/ST/filex/common/src/fx_directory_free_search.c ****                 if (entry_ptr -> fx_dir_entry_name[0] == FX_DIR_ENTRY_DONE)
 351:Middlewares/ST/filex/common/src/fx_directory_free_search.c ****                 {
 352:Middlewares/ST/filex/common/src/fx_directory_free_search.c **** 
 353:Middlewares/ST/filex/common/src/fx_directory_free_search.c ****                     entry_ptr -> fx_dir_entry_long_name_present =  0;
 354:Middlewares/ST/filex/common/src/fx_directory_free_search.c ****                     entry_ptr -> fx_dir_entry_name[0] =      (CHAR)FX_DIR_ENTRY_FREE;
 355:Middlewares/ST/filex/common/src/fx_directory_free_search.c ****                     entry_ptr -> fx_dir_entry_name[1] =      (CHAR)0;
 356:Middlewares/ST/filex/common/src/fx_directory_free_search.c **** 
 357:Middlewares/ST/filex/common/src/fx_directory_free_search.c ****                     /* Write out the directory entry.  */
 358:Middlewares/ST/filex/common/src/fx_directory_free_search.c ****                     status = _fx_directory_entry_write(media_ptr, entry_ptr);
 359:Middlewares/ST/filex/common/src/fx_directory_free_search.c ****                     if(status != FX_SUCCESS)
 360:Middlewares/ST/filex/common/src/fx_directory_free_search.c ****                     {  
 361:Middlewares/ST/filex/common/src/fx_directory_free_search.c ****                         return(status);
 362:Middlewares/ST/filex/common/src/fx_directory_free_search.c ****                     }
 363:Middlewares/ST/filex/common/src/fx_directory_free_search.c ****   
 364:Middlewares/ST/filex/common/src/fx_directory_free_search.c ****                     /* Note that for long names we need to avoid holes in the middle,
 365:Middlewares/ST/filex/common/src/fx_directory_free_search.c ****                        i.e. entries must be logically contiguous.  */
 366:Middlewares/ST/filex/common/src/fx_directory_free_search.c ****                 }
 367:Middlewares/ST/filex/common/src/fx_directory_free_search.c ****             }
 368:Middlewares/ST/filex/common/src/fx_directory_free_search.c **** 
 369:Middlewares/ST/filex/common/src/fx_directory_free_search.c ****             /* Determine if we are at the first free entry.  */
 370:Middlewares/ST/filex/common/src/fx_directory_free_search.c ****             if (free_entry_start == directory_entries)
 417              		.loc 1 370 13 is_stmt 1 view .LVU151
 418              		.loc 1 370 16 is_stmt 0 view .LVU152
 419 0196 B742     		cmp	r7, r6
 420 0198 48D0     		beq	.L81
 421              	.L24:
 371:Middlewares/ST/filex/common/src/fx_directory_free_search.c ****             {
 372:Middlewares/ST/filex/common/src/fx_directory_free_search.c **** 
 373:Middlewares/ST/filex/common/src/fx_directory_free_search.c ****                 /* Remember the start of the free entry.  */
 374:Middlewares/ST/filex/common/src/fx_directory_free_search.c ****                 free_entry_start =  directory_index;
 375:Middlewares/ST/filex/common/src/fx_directory_free_search.c ****                 entry_sector =      (ULONG)entry_ptr -> fx_dir_entry_log_sector;
 376:Middlewares/ST/filex/common/src/fx_directory_free_search.c ****                 entry_offset  =     entry_ptr -> fx_dir_entry_byte_offset;
 377:Middlewares/ST/filex/common/src/fx_directory_free_search.c ****             }
 378:Middlewares/ST/filex/common/src/fx_directory_free_search.c **** 
 379:Middlewares/ST/filex/common/src/fx_directory_free_search.c ****             /* Determine if there are enough free entries to satisfy the request.  */
 380:Middlewares/ST/filex/common/src/fx_directory_free_search.c ****             if ((directory_index - free_entry_start + 1) >= total_entries)
 422              		.loc 1 380 13 is_stmt 1 view .LVU153
 423              		.loc 1 380 34 is_stmt 0 view .LVU154
 424 019a 0E9B     		ldr	r3, [sp, #56]
 425 019c 9B1B     		subs	r3, r3, r6
 426              		.loc 1 380 53 view .LVU155
 427 019e 0133     		adds	r3, r3, #1
 428              		.loc 1 380 16 view .LVU156
 429 01a0 5345     		cmp	r3, r10
 430 01a2 4BD2     		bcs	.L82
 431              	.LVL27:
ARM GAS  C:\Users\HP\AppData\Local\Temp\ccmUfyBM.s 			page 16


 432              	.L22:
 381:Middlewares/ST/filex/common/src/fx_directory_free_search.c ****             {
 382:Middlewares/ST/filex/common/src/fx_directory_free_search.c **** 
 383:Middlewares/ST/filex/common/src/fx_directory_free_search.c ****                 /* Found an empty slot.  Most pertinent information is already
 384:Middlewares/ST/filex/common/src/fx_directory_free_search.c ****                    in the entry structure.  */
 385:Middlewares/ST/filex/common/src/fx_directory_free_search.c **** 
 386:Middlewares/ST/filex/common/src/fx_directory_free_search.c ****                 /* Setup the the sector and the offset.  */
 387:Middlewares/ST/filex/common/src/fx_directory_free_search.c ****                 entry_ptr -> fx_dir_entry_log_sector =      entry_sector;
 388:Middlewares/ST/filex/common/src/fx_directory_free_search.c ****                 entry_ptr -> fx_dir_entry_byte_offset =     entry_offset;
 389:Middlewares/ST/filex/common/src/fx_directory_free_search.c **** 
 390:Middlewares/ST/filex/common/src/fx_directory_free_search.c ****                 /* Initialize the additional directory entries.  */
 391:Middlewares/ST/filex/common/src/fx_directory_free_search.c ****                 entry_ptr -> fx_dir_entry_reserved =            0;
 392:Middlewares/ST/filex/common/src/fx_directory_free_search.c ****                 entry_ptr -> fx_dir_entry_created_time_ms =     0;
 393:Middlewares/ST/filex/common/src/fx_directory_free_search.c **** 
 394:Middlewares/ST/filex/common/src/fx_directory_free_search.c ****                 /* Lockout interrupts for time/date access.  */
 395:Middlewares/ST/filex/common/src/fx_directory_free_search.c ****                 FX_DISABLE_INTS
 396:Middlewares/ST/filex/common/src/fx_directory_free_search.c **** 
 397:Middlewares/ST/filex/common/src/fx_directory_free_search.c ****                 entry_ptr -> fx_dir_entry_created_time =        _fx_system_time;
 398:Middlewares/ST/filex/common/src/fx_directory_free_search.c ****                 entry_ptr -> fx_dir_entry_created_date =        _fx_system_date;
 399:Middlewares/ST/filex/common/src/fx_directory_free_search.c ****                 entry_ptr -> fx_dir_entry_last_accessed_date =  _fx_system_date;
 400:Middlewares/ST/filex/common/src/fx_directory_free_search.c **** 
 401:Middlewares/ST/filex/common/src/fx_directory_free_search.c ****                 /* Restore interrupts.  */
 402:Middlewares/ST/filex/common/src/fx_directory_free_search.c ****                 FX_RESTORE_INTS
 403:Middlewares/ST/filex/common/src/fx_directory_free_search.c **** 
 404:Middlewares/ST/filex/common/src/fx_directory_free_search.c ****                 /* Determine if a long file name is present.  */
 405:Middlewares/ST/filex/common/src/fx_directory_free_search.c ****                 if (total_entries == 1)
 406:Middlewares/ST/filex/common/src/fx_directory_free_search.c ****                 {
 407:Middlewares/ST/filex/common/src/fx_directory_free_search.c ****                     entry_ptr -> fx_dir_entry_long_name_present =  0;
 408:Middlewares/ST/filex/common/src/fx_directory_free_search.c ****                 }
 409:Middlewares/ST/filex/common/src/fx_directory_free_search.c ****                 else
 410:Middlewares/ST/filex/common/src/fx_directory_free_search.c ****                 {
 411:Middlewares/ST/filex/common/src/fx_directory_free_search.c ****                     entry_ptr -> fx_dir_entry_long_name_present =  1;
 412:Middlewares/ST/filex/common/src/fx_directory_free_search.c ****                 }
 413:Middlewares/ST/filex/common/src/fx_directory_free_search.c **** 
 414:Middlewares/ST/filex/common/src/fx_directory_free_search.c ****                 /* Return a successful completion.  */
 415:Middlewares/ST/filex/common/src/fx_directory_free_search.c ****                 return(FX_SUCCESS);
 416:Middlewares/ST/filex/common/src/fx_directory_free_search.c ****             }
 417:Middlewares/ST/filex/common/src/fx_directory_free_search.c ****         }
 418:Middlewares/ST/filex/common/src/fx_directory_free_search.c ****         else
 419:Middlewares/ST/filex/common/src/fx_directory_free_search.c ****         {
 420:Middlewares/ST/filex/common/src/fx_directory_free_search.c **** 
 421:Middlewares/ST/filex/common/src/fx_directory_free_search.c ****             /* Reset the free entry start.  */
 422:Middlewares/ST/filex/common/src/fx_directory_free_search.c ****             free_entry_start =  directory_entries;
 423:Middlewares/ST/filex/common/src/fx_directory_free_search.c ****         }
 424:Middlewares/ST/filex/common/src/fx_directory_free_search.c **** 
 425:Middlewares/ST/filex/common/src/fx_directory_free_search.c ****         /* Move to the next entry.  */
 426:Middlewares/ST/filex/common/src/fx_directory_free_search.c ****         directory_index++;
 433              		.loc 1 426 9 is_stmt 1 view .LVU157
 434              		.loc 1 426 24 is_stmt 0 view .LVU158
 435 01a4 0E9B     		ldr	r3, [sp, #56]
 436 01a6 0133     		adds	r3, r3, #1
 437 01a8 0E93     		str	r3, [sp, #56]
 427:Middlewares/ST/filex/common/src/fx_directory_free_search.c **** 
 428:Middlewares/ST/filex/common/src/fx_directory_free_search.c ****         /* Determine if we have exceeded the number of entries in the current directory.  */
 429:Middlewares/ST/filex/common/src/fx_directory_free_search.c ****         if (directory_index >= directory_entries)
 438              		.loc 1 429 9 is_stmt 1 view .LVU159
 439              		.loc 1 429 12 is_stmt 0 view .LVU160
ARM GAS  C:\Users\HP\AppData\Local\Temp\ccmUfyBM.s 			page 17


 440 01aa BB42     		cmp	r3, r7
 441 01ac 15D3     		bcc	.L27
 430:Middlewares/ST/filex/common/src/fx_directory_free_search.c ****         {
 431:Middlewares/ST/filex/common/src/fx_directory_free_search.c **** 
 432:Middlewares/ST/filex/common/src/fx_directory_free_search.c ****             /* Calculate how many sectors we need for the new directory entry.  */
 433:Middlewares/ST/filex/common/src/fx_directory_free_search.c ****             sectors =  ((total_entries * FX_DIR_ENTRY_SIZE) + (media_ptr -> fx_media_bytes_per_sect
 442              		.loc 1 433 13 is_stmt 1 view .LVU161
 443              		.loc 1 433 74 is_stmt 0 view .LVU162
 444 01ae D8F82820 		ldr	r2, [r8, #40]
 445              		.loc 1 433 61 view .LVU163
 446 01b2 02EB4A13 		add	r3, r2, r10, lsl #5
 447 01b6 013B     		subs	r3, r3, #1
 448              		.loc 1 433 21 view .LVU164
 449 01b8 B3FBF2F3 		udiv	r3, r3, r2
 450              	.LVL28:
 434:Middlewares/ST/filex/common/src/fx_directory_free_search.c ****                                                                             media_ptr -> fx_media_b
 435:Middlewares/ST/filex/common/src/fx_directory_free_search.c **** 
 436:Middlewares/ST/filex/common/src/fx_directory_free_search.c ****             /* Now calculate how many clusters we need for the new directory entry.  */
 437:Middlewares/ST/filex/common/src/fx_directory_free_search.c ****             clusters_needed = (sectors + (media_ptr -> fx_media_sectors_per_cluster - 1)) / media_p
 451              		.loc 1 437 13 is_stmt 1 view .LVU165
 452              		.loc 1 437 53 is_stmt 0 view .LVU166
 453 01bc D8F85420 		ldr	r2, [r8, #84]
 454              		.loc 1 437 40 view .LVU167
 455 01c0 1344     		add	r3, r3, r2
 456              	.LVL29:
 457              		.loc 1 437 40 view .LVU168
 458 01c2 013B     		subs	r3, r3, #1
 459              		.loc 1 437 29 view .LVU169
 460 01c4 B3FBF2F3 		udiv	r3, r3, r2
 461 01c8 0693     		str	r3, [sp, #24]
 462              	.LVL30:
 438:Middlewares/ST/filex/common/src/fx_directory_free_search.c **** 
 439:Middlewares/ST/filex/common/src/fx_directory_free_search.c ****             /* Not enough empty entries were found.  If the specified directory is a sub-directory,
 440:Middlewares/ST/filex/common/src/fx_directory_free_search.c ****                attempt to allocate another cluster to it.  */
 441:Middlewares/ST/filex/common/src/fx_directory_free_search.c ****             if (((search_dir_ptr) || (media_ptr -> fx_media_32_bit_FAT)) && (media_ptr -> fx_media_
 463              		.loc 1 441 13 is_stmt 1 view .LVU170
 464              		.loc 1 441 16 is_stmt 0 view .LVU171
 465 01ca B9F1000F 		cmp	r9, #0
 466 01ce 5FD0     		beq	.L83
 467              	.LVL31:
 468              	.L28:
 469              		.loc 1 441 88 discriminator 3 view .LVU172
 470 01d0 D8F87C30 		ldr	r3, [r8, #124]
 471              		.loc 1 441 74 discriminator 3 view .LVU173
 472 01d4 069A     		ldr	r2, [sp, #24]
 473 01d6 9342     		cmp	r3, r2
 474 01d8 5FD2     		bcs	.L84
 475              	.LVL32:
 476              	.L27:
 442:Middlewares/ST/filex/common/src/fx_directory_free_search.c ****             {
 443:Middlewares/ST/filex/common/src/fx_directory_free_search.c **** 
 444:Middlewares/ST/filex/common/src/fx_directory_free_search.c ****                 /* Search for the additional clusters we need.  */
 445:Middlewares/ST/filex/common/src/fx_directory_free_search.c ****                 first_new_cluster =  0;
 446:Middlewares/ST/filex/common/src/fx_directory_free_search.c ****                 total_clusters =     media_ptr -> fx_media_total_clusters;
 447:Middlewares/ST/filex/common/src/fx_directory_free_search.c ****                 last_cluster =       0;
 448:Middlewares/ST/filex/common/src/fx_directory_free_search.c ****                 FAT_index    =       media_ptr -> fx_media_cluster_search_start;
 449:Middlewares/ST/filex/common/src/fx_directory_free_search.c ****                 clusters =           clusters_needed;
ARM GAS  C:\Users\HP\AppData\Local\Temp\ccmUfyBM.s 			page 18


 450:Middlewares/ST/filex/common/src/fx_directory_free_search.c **** 
 451:Middlewares/ST/filex/common/src/fx_directory_free_search.c ****                 /* Loop to find the needed clusters.  */
 452:Middlewares/ST/filex/common/src/fx_directory_free_search.c ****                 while (clusters)
 453:Middlewares/ST/filex/common/src/fx_directory_free_search.c ****                 {
 454:Middlewares/ST/filex/common/src/fx_directory_free_search.c **** 
 455:Middlewares/ST/filex/common/src/fx_directory_free_search.c ****                     /* Decrease the cluster count.  */
 456:Middlewares/ST/filex/common/src/fx_directory_free_search.c ****                     clusters--;
 457:Middlewares/ST/filex/common/src/fx_directory_free_search.c **** 
 458:Middlewares/ST/filex/common/src/fx_directory_free_search.c ****                     /* Loop to find the first available cluster.  */
 459:Middlewares/ST/filex/common/src/fx_directory_free_search.c ****                     do
 460:Middlewares/ST/filex/common/src/fx_directory_free_search.c ****                     {
 461:Middlewares/ST/filex/common/src/fx_directory_free_search.c **** 
 462:Middlewares/ST/filex/common/src/fx_directory_free_search.c ****                         /* Make sure we stop looking after one pass through the FAT table.  */
 463:Middlewares/ST/filex/common/src/fx_directory_free_search.c ****                         if (!total_clusters)
 464:Middlewares/ST/filex/common/src/fx_directory_free_search.c ****                         {
 465:Middlewares/ST/filex/common/src/fx_directory_free_search.c **** 
 466:Middlewares/ST/filex/common/src/fx_directory_free_search.c ****                             /* Something is wrong with the media - the desired clusters were
 467:Middlewares/ST/filex/common/src/fx_directory_free_search.c ****                                not found in the FAT table.  */
 468:Middlewares/ST/filex/common/src/fx_directory_free_search.c ****                             return(FX_NO_MORE_SPACE);
 469:Middlewares/ST/filex/common/src/fx_directory_free_search.c ****                         }
 470:Middlewares/ST/filex/common/src/fx_directory_free_search.c **** 
 471:Middlewares/ST/filex/common/src/fx_directory_free_search.c ****                         /* Read FAT entry.  */
 472:Middlewares/ST/filex/common/src/fx_directory_free_search.c ****                         status =  _fx_utility_FAT_entry_read(media_ptr, FAT_index, &FAT_value);
 473:Middlewares/ST/filex/common/src/fx_directory_free_search.c **** 
 474:Middlewares/ST/filex/common/src/fx_directory_free_search.c ****                         /* Check for a bad status.  */
 475:Middlewares/ST/filex/common/src/fx_directory_free_search.c ****                         if (status != FX_SUCCESS)
 476:Middlewares/ST/filex/common/src/fx_directory_free_search.c ****                         {
 477:Middlewares/ST/filex/common/src/fx_directory_free_search.c **** 
 478:Middlewares/ST/filex/common/src/fx_directory_free_search.c ****                             /* Return the bad status.  */
 479:Middlewares/ST/filex/common/src/fx_directory_free_search.c ****                             return(status);
 480:Middlewares/ST/filex/common/src/fx_directory_free_search.c ****                         }
 481:Middlewares/ST/filex/common/src/fx_directory_free_search.c **** 
 482:Middlewares/ST/filex/common/src/fx_directory_free_search.c ****                         /* Decrement the total cluster count.  */
 483:Middlewares/ST/filex/common/src/fx_directory_free_search.c ****                         total_clusters--;
 484:Middlewares/ST/filex/common/src/fx_directory_free_search.c **** 
 485:Middlewares/ST/filex/common/src/fx_directory_free_search.c ****                         /* Determine if the FAT entry is free.  */
 486:Middlewares/ST/filex/common/src/fx_directory_free_search.c ****                         if (FAT_value == FX_FREE_CLUSTER)
 487:Middlewares/ST/filex/common/src/fx_directory_free_search.c ****                         {
 488:Middlewares/ST/filex/common/src/fx_directory_free_search.c **** 
 489:Middlewares/ST/filex/common/src/fx_directory_free_search.c ****                             /* Move cluster search pointer forward.  */
 490:Middlewares/ST/filex/common/src/fx_directory_free_search.c ****                             media_ptr -> fx_media_cluster_search_start =  FAT_index + 1;
 491:Middlewares/ST/filex/common/src/fx_directory_free_search.c **** 
 492:Middlewares/ST/filex/common/src/fx_directory_free_search.c ****                             /* Determine if this needs to be wrapped.  */
 493:Middlewares/ST/filex/common/src/fx_directory_free_search.c ****                             if (media_ptr -> fx_media_cluster_search_start >= (media_ptr -> fx_medi
 494:Middlewares/ST/filex/common/src/fx_directory_free_search.c ****                             {
 495:Middlewares/ST/filex/common/src/fx_directory_free_search.c **** 
 496:Middlewares/ST/filex/common/src/fx_directory_free_search.c ****                                 /* Wrap the search to the beginning FAT entry.  */
 497:Middlewares/ST/filex/common/src/fx_directory_free_search.c ****                                 media_ptr -> fx_media_cluster_search_start =  FX_FAT_ENTRY_START;
 498:Middlewares/ST/filex/common/src/fx_directory_free_search.c ****                             }
 499:Middlewares/ST/filex/common/src/fx_directory_free_search.c **** 
 500:Middlewares/ST/filex/common/src/fx_directory_free_search.c ****                             /* Break this loop.  */
 501:Middlewares/ST/filex/common/src/fx_directory_free_search.c ****                             break;
 502:Middlewares/ST/filex/common/src/fx_directory_free_search.c ****                         }
 503:Middlewares/ST/filex/common/src/fx_directory_free_search.c ****                         else
 504:Middlewares/ST/filex/common/src/fx_directory_free_search.c ****                         {
 505:Middlewares/ST/filex/common/src/fx_directory_free_search.c **** 
 506:Middlewares/ST/filex/common/src/fx_directory_free_search.c ****                             /* FAT entry is not free... Advance the FAT index.  */
ARM GAS  C:\Users\HP\AppData\Local\Temp\ccmUfyBM.s 			page 19


 507:Middlewares/ST/filex/common/src/fx_directory_free_search.c ****                             FAT_index++;
 508:Middlewares/ST/filex/common/src/fx_directory_free_search.c **** 
 509:Middlewares/ST/filex/common/src/fx_directory_free_search.c ****                             /* Determine if we need to wrap the FAT index around.  */
 510:Middlewares/ST/filex/common/src/fx_directory_free_search.c ****                             if (FAT_index >= (media_ptr -> fx_media_total_clusters + FX_FAT_ENTRY_S
 511:Middlewares/ST/filex/common/src/fx_directory_free_search.c ****                             {
 512:Middlewares/ST/filex/common/src/fx_directory_free_search.c **** 
 513:Middlewares/ST/filex/common/src/fx_directory_free_search.c ****                                 /* Wrap the search to the beginning FAT entry.  */
 514:Middlewares/ST/filex/common/src/fx_directory_free_search.c ****                                 FAT_index =  FX_FAT_ENTRY_START;
 515:Middlewares/ST/filex/common/src/fx_directory_free_search.c ****                             }
 516:Middlewares/ST/filex/common/src/fx_directory_free_search.c ****                         }
 517:Middlewares/ST/filex/common/src/fx_directory_free_search.c ****                     } while (FX_TRUE);
 518:Middlewares/ST/filex/common/src/fx_directory_free_search.c **** 
 519:Middlewares/ST/filex/common/src/fx_directory_free_search.c ****                     /* We found an available cluster.  We now need to clear all of entries in
 520:Middlewares/ST/filex/common/src/fx_directory_free_search.c ****                        each of the cluster's sectors.  */
 521:Middlewares/ST/filex/common/src/fx_directory_free_search.c **** 
 522:Middlewares/ST/filex/common/src/fx_directory_free_search.c ****                     /* Calculate the logical sector of this cluster.  */
 523:Middlewares/ST/filex/common/src/fx_directory_free_search.c ****                     logical_sector =  ((ULONG) media_ptr -> fx_media_data_sector_start) +
 524:Middlewares/ST/filex/common/src/fx_directory_free_search.c ****                                        ((((ULONG) FAT_index) - FX_FAT_ENTRY_START) *
 525:Middlewares/ST/filex/common/src/fx_directory_free_search.c ****                                        ((ULONG) media_ptr -> fx_media_sectors_per_cluster));
 526:Middlewares/ST/filex/common/src/fx_directory_free_search.c **** 
 527:Middlewares/ST/filex/common/src/fx_directory_free_search.c ****                     /* Pickup the number of sectors for the next directory cluster.  */
 528:Middlewares/ST/filex/common/src/fx_directory_free_search.c ****                     sectors =  media_ptr -> fx_media_sectors_per_cluster;
 529:Middlewares/ST/filex/common/src/fx_directory_free_search.c **** 
 530:Middlewares/ST/filex/common/src/fx_directory_free_search.c ****                     /* Read the logical sector just for cache reasons.  */
 531:Middlewares/ST/filex/common/src/fx_directory_free_search.c ****                     status =  _fx_utility_logical_sector_read(media_ptr, (ULONG64) logical_sector,
 532:Middlewares/ST/filex/common/src/fx_directory_free_search.c ****                                                               media_ptr -> fx_media_memory_buffer, 
 533:Middlewares/ST/filex/common/src/fx_directory_free_search.c **** 
 534:Middlewares/ST/filex/common/src/fx_directory_free_search.c ****                     /* Check the return value.  */
 535:Middlewares/ST/filex/common/src/fx_directory_free_search.c ****                     if (status != FX_SUCCESS)
 536:Middlewares/ST/filex/common/src/fx_directory_free_search.c ****                     {
 537:Middlewares/ST/filex/common/src/fx_directory_free_search.c **** 
 538:Middlewares/ST/filex/common/src/fx_directory_free_search.c ****                         /* Return the error status.  */
 539:Middlewares/ST/filex/common/src/fx_directory_free_search.c ****                         return(status);
 540:Middlewares/ST/filex/common/src/fx_directory_free_search.c ****                     }
 541:Middlewares/ST/filex/common/src/fx_directory_free_search.c **** 
 542:Middlewares/ST/filex/common/src/fx_directory_free_search.c ****                     /* Clear the entire first sector of the new sub-directory cluster.  */
 543:Middlewares/ST/filex/common/src/fx_directory_free_search.c ****                     work_ptr =  (UCHAR *)media_ptr -> fx_media_memory_buffer;
 544:Middlewares/ST/filex/common/src/fx_directory_free_search.c ****                     i =  0;
 545:Middlewares/ST/filex/common/src/fx_directory_free_search.c ****                     while (i < media_ptr -> fx_media_bytes_per_sector)
 546:Middlewares/ST/filex/common/src/fx_directory_free_search.c ****                     {
 547:Middlewares/ST/filex/common/src/fx_directory_free_search.c **** 
 548:Middlewares/ST/filex/common/src/fx_directory_free_search.c ****                         /* Clear 4 bytes.  */
 549:Middlewares/ST/filex/common/src/fx_directory_free_search.c ****                         *((ULONG *)work_ptr) =  (ULONG)0;
 550:Middlewares/ST/filex/common/src/fx_directory_free_search.c **** 
 551:Middlewares/ST/filex/common/src/fx_directory_free_search.c ****                         /* Increment pointer.  */
 552:Middlewares/ST/filex/common/src/fx_directory_free_search.c ****                         work_ptr =  work_ptr + sizeof(ULONG);
 553:Middlewares/ST/filex/common/src/fx_directory_free_search.c **** 
 554:Middlewares/ST/filex/common/src/fx_directory_free_search.c ****                         /* Increment counter.  */
 555:Middlewares/ST/filex/common/src/fx_directory_free_search.c ****                         i =  i + (ULONG)sizeof(ULONG);
 556:Middlewares/ST/filex/common/src/fx_directory_free_search.c ****                     }
 557:Middlewares/ST/filex/common/src/fx_directory_free_search.c **** 
 558:Middlewares/ST/filex/common/src/fx_directory_free_search.c ****                     /* Write the logical sector to ensure the zeros are written.  */
 559:Middlewares/ST/filex/common/src/fx_directory_free_search.c ****                     status =  _fx_utility_logical_sector_write(media_ptr, (ULONG64) logical_sector,
 560:Middlewares/ST/filex/common/src/fx_directory_free_search.c ****                                                                media_ptr -> fx_media_memory_buffer,
 561:Middlewares/ST/filex/common/src/fx_directory_free_search.c **** 
 562:Middlewares/ST/filex/common/src/fx_directory_free_search.c ****                     /* Determine if the write was successful.  */
 563:Middlewares/ST/filex/common/src/fx_directory_free_search.c ****                     if (status != FX_SUCCESS)
ARM GAS  C:\Users\HP\AppData\Local\Temp\ccmUfyBM.s 			page 20


 564:Middlewares/ST/filex/common/src/fx_directory_free_search.c ****                     {
 565:Middlewares/ST/filex/common/src/fx_directory_free_search.c **** 
 566:Middlewares/ST/filex/common/src/fx_directory_free_search.c ****                         /* Return the error code.  */
 567:Middlewares/ST/filex/common/src/fx_directory_free_search.c ****                         return(status);
 568:Middlewares/ST/filex/common/src/fx_directory_free_search.c ****                     }
 569:Middlewares/ST/filex/common/src/fx_directory_free_search.c **** 
 570:Middlewares/ST/filex/common/src/fx_directory_free_search.c ****                     /* Determine if there are more sectors to clear in the first cluster of the new
 571:Middlewares/ST/filex/common/src/fx_directory_free_search.c ****                        sub-directory.  */
 572:Middlewares/ST/filex/common/src/fx_directory_free_search.c ****                     if (sectors > 1)
 573:Middlewares/ST/filex/common/src/fx_directory_free_search.c ****                     {
 574:Middlewares/ST/filex/common/src/fx_directory_free_search.c **** 
 575:Middlewares/ST/filex/common/src/fx_directory_free_search.c ****                         /* Yes, invalidate all cached sectors that are contained in the newly alloc
 576:Middlewares/ST/filex/common/src/fx_directory_free_search.c ****                            cluster of the directory.  */
 577:Middlewares/ST/filex/common/src/fx_directory_free_search.c **** 
 578:Middlewares/ST/filex/common/src/fx_directory_free_search.c ****                         /* Flush the internal logical sector cache.  */
 579:Middlewares/ST/filex/common/src/fx_directory_free_search.c ****                         status =  _fx_utility_logical_sector_flush(media_ptr, (ULONG64) (logical_se
 580:Middlewares/ST/filex/common/src/fx_directory_free_search.c **** 
 581:Middlewares/ST/filex/common/src/fx_directory_free_search.c ****                         /* Determine if the flush was successful.  */
 582:Middlewares/ST/filex/common/src/fx_directory_free_search.c ****                         if (status != FX_SUCCESS)
 583:Middlewares/ST/filex/common/src/fx_directory_free_search.c ****                         {
 584:Middlewares/ST/filex/common/src/fx_directory_free_search.c **** 
 585:Middlewares/ST/filex/common/src/fx_directory_free_search.c ****                             /* Return the error code.  */
 586:Middlewares/ST/filex/common/src/fx_directory_free_search.c ****                             return(status);
 587:Middlewares/ST/filex/common/src/fx_directory_free_search.c ****                         }
 588:Middlewares/ST/filex/common/src/fx_directory_free_search.c **** 
 589:Middlewares/ST/filex/common/src/fx_directory_free_search.c ****                         /* Clear all additional sectors of new sub-directory.  */
 590:Middlewares/ST/filex/common/src/fx_directory_free_search.c ****                         sectors--;
 591:Middlewares/ST/filex/common/src/fx_directory_free_search.c ****                         while (sectors)
 592:Middlewares/ST/filex/common/src/fx_directory_free_search.c ****                         {
 593:Middlewares/ST/filex/common/src/fx_directory_free_search.c **** 
 594:Middlewares/ST/filex/common/src/fx_directory_free_search.c **** #ifndef FX_MEDIA_STATISTICS_DISABLE
 595:Middlewares/ST/filex/common/src/fx_directory_free_search.c **** 
 596:Middlewares/ST/filex/common/src/fx_directory_free_search.c ****                             /* Increment the number of driver write sector(s) requests.  */
 597:Middlewares/ST/filex/common/src/fx_directory_free_search.c ****                             media_ptr -> fx_media_driver_write_requests++;
 598:Middlewares/ST/filex/common/src/fx_directory_free_search.c **** #endif
 599:Middlewares/ST/filex/common/src/fx_directory_free_search.c **** 
 600:Middlewares/ST/filex/common/src/fx_directory_free_search.c ****                             /* Build Write request to the driver.  */
 601:Middlewares/ST/filex/common/src/fx_directory_free_search.c ****                             media_ptr -> fx_media_driver_request =          FX_DRIVER_WRITE;
 602:Middlewares/ST/filex/common/src/fx_directory_free_search.c ****                             media_ptr -> fx_media_driver_status =           FX_IO_ERROR;
 603:Middlewares/ST/filex/common/src/fx_directory_free_search.c ****                             media_ptr -> fx_media_driver_buffer =           media_ptr -> fx_media_m
 604:Middlewares/ST/filex/common/src/fx_directory_free_search.c ****                             media_ptr -> fx_media_driver_logical_sector =   (ULONG)logical_sector +
 605:Middlewares/ST/filex/common/src/fx_directory_free_search.c ****                             media_ptr -> fx_media_driver_sectors =          1;
 606:Middlewares/ST/filex/common/src/fx_directory_free_search.c ****                             media_ptr -> fx_media_driver_sector_type =      FX_DIRECTORY_SECTOR;
 607:Middlewares/ST/filex/common/src/fx_directory_free_search.c **** 
 608:Middlewares/ST/filex/common/src/fx_directory_free_search.c ****                             /* Set the system write flag since we are writing a directory sector.  
 609:Middlewares/ST/filex/common/src/fx_directory_free_search.c ****                             media_ptr -> fx_media_driver_system_write =  FX_TRUE;
 610:Middlewares/ST/filex/common/src/fx_directory_free_search.c **** 
 611:Middlewares/ST/filex/common/src/fx_directory_free_search.c ****                             /* If trace is enabled, insert this event into the trace buffer.  */
 612:Middlewares/ST/filex/common/src/fx_directory_free_search.c ****                             FX_TRACE_IN_LINE_INSERT(FX_TRACE_INTERNAL_IO_DRIVER_WRITE, media_ptr, (
 613:Middlewares/ST/filex/common/src/fx_directory_free_search.c **** 
 614:Middlewares/ST/filex/common/src/fx_directory_free_search.c ****                             /* Invoke the driver to write the sector.  */
 615:Middlewares/ST/filex/common/src/fx_directory_free_search.c ****                             (media_ptr -> fx_media_driver_entry) (media_ptr);
 616:Middlewares/ST/filex/common/src/fx_directory_free_search.c **** 
 617:Middlewares/ST/filex/common/src/fx_directory_free_search.c ****                             /* Clear the system write flag.  */
 618:Middlewares/ST/filex/common/src/fx_directory_free_search.c ****                             media_ptr -> fx_media_driver_system_write =  FX_FALSE;
 619:Middlewares/ST/filex/common/src/fx_directory_free_search.c **** 
 620:Middlewares/ST/filex/common/src/fx_directory_free_search.c ****                             /* Determine if an error occurred.  */
ARM GAS  C:\Users\HP\AppData\Local\Temp\ccmUfyBM.s 			page 21


 621:Middlewares/ST/filex/common/src/fx_directory_free_search.c ****                             if (media_ptr -> fx_media_driver_status != FX_SUCCESS)
 622:Middlewares/ST/filex/common/src/fx_directory_free_search.c ****                             {
 623:Middlewares/ST/filex/common/src/fx_directory_free_search.c **** 
 624:Middlewares/ST/filex/common/src/fx_directory_free_search.c ****                                 /* Return error code.  */
 625:Middlewares/ST/filex/common/src/fx_directory_free_search.c ****                                 return(media_ptr -> fx_media_driver_status);
 626:Middlewares/ST/filex/common/src/fx_directory_free_search.c ****                             }
 627:Middlewares/ST/filex/common/src/fx_directory_free_search.c **** 
 628:Middlewares/ST/filex/common/src/fx_directory_free_search.c ****                             /* Decrease the number of sectors to clear.  */
 629:Middlewares/ST/filex/common/src/fx_directory_free_search.c ****                             sectors--;
 630:Middlewares/ST/filex/common/src/fx_directory_free_search.c ****                         }
 631:Middlewares/ST/filex/common/src/fx_directory_free_search.c ****                     }
 632:Middlewares/ST/filex/common/src/fx_directory_free_search.c **** 
 633:Middlewares/ST/filex/common/src/fx_directory_free_search.c ****                     /* Determine if we have found the first new cluster yet.  */
 634:Middlewares/ST/filex/common/src/fx_directory_free_search.c ****                     if (first_new_cluster == 0)
 635:Middlewares/ST/filex/common/src/fx_directory_free_search.c ****                     {
 636:Middlewares/ST/filex/common/src/fx_directory_free_search.c **** 
 637:Middlewares/ST/filex/common/src/fx_directory_free_search.c ****                         /* Remember the first new cluster. */
 638:Middlewares/ST/filex/common/src/fx_directory_free_search.c ****                         first_new_cluster =  FAT_index;
 639:Middlewares/ST/filex/common/src/fx_directory_free_search.c ****                     }
 640:Middlewares/ST/filex/common/src/fx_directory_free_search.c **** 
 641:Middlewares/ST/filex/common/src/fx_directory_free_search.c ****                     /* Check for a valid last cluster to link.  */
 642:Middlewares/ST/filex/common/src/fx_directory_free_search.c ****                     if (last_cluster)
 643:Middlewares/ST/filex/common/src/fx_directory_free_search.c ****                     {
 644:Middlewares/ST/filex/common/src/fx_directory_free_search.c **** 
 645:Middlewares/ST/filex/common/src/fx_directory_free_search.c ****                         /* Normal condition - link the last cluster with the new
 646:Middlewares/ST/filex/common/src/fx_directory_free_search.c ****                            found cluster.  */
 647:Middlewares/ST/filex/common/src/fx_directory_free_search.c ****                         status = _fx_utility_FAT_entry_write(media_ptr, last_cluster, FAT_index);
 648:Middlewares/ST/filex/common/src/fx_directory_free_search.c **** 
 649:Middlewares/ST/filex/common/src/fx_directory_free_search.c ****                         /* Check for a bad FAT write status.  */
 650:Middlewares/ST/filex/common/src/fx_directory_free_search.c ****                         if (status !=  FX_SUCCESS)
 651:Middlewares/ST/filex/common/src/fx_directory_free_search.c ****                         {
 652:Middlewares/ST/filex/common/src/fx_directory_free_search.c **** 
 653:Middlewares/ST/filex/common/src/fx_directory_free_search.c ****                             /* Return the bad status.  */
 654:Middlewares/ST/filex/common/src/fx_directory_free_search.c ****                             return(status);
 655:Middlewares/ST/filex/common/src/fx_directory_free_search.c ****                         }
 656:Middlewares/ST/filex/common/src/fx_directory_free_search.c ****                     }
 657:Middlewares/ST/filex/common/src/fx_directory_free_search.c **** 
 658:Middlewares/ST/filex/common/src/fx_directory_free_search.c ****                     /* Otherwise, remember the new FAT index as the last.  */
 659:Middlewares/ST/filex/common/src/fx_directory_free_search.c ****                     last_cluster =  FAT_index;
 660:Middlewares/ST/filex/common/src/fx_directory_free_search.c **** 
 661:Middlewares/ST/filex/common/src/fx_directory_free_search.c ****                     /* Move to the next FAT entry.  */
 662:Middlewares/ST/filex/common/src/fx_directory_free_search.c ****                     FAT_index =  media_ptr -> fx_media_cluster_search_start;
 663:Middlewares/ST/filex/common/src/fx_directory_free_search.c ****                 }
 664:Middlewares/ST/filex/common/src/fx_directory_free_search.c **** 
 665:Middlewares/ST/filex/common/src/fx_directory_free_search.c ****                 /* Place an end-of-file marker on the last cluster.  */
 666:Middlewares/ST/filex/common/src/fx_directory_free_search.c ****                 status = _fx_utility_FAT_entry_write(media_ptr, last_cluster, media_ptr -> fx_media
 667:Middlewares/ST/filex/common/src/fx_directory_free_search.c **** 
 668:Middlewares/ST/filex/common/src/fx_directory_free_search.c ****                 /* Check for a bad FAT write status.  */
 669:Middlewares/ST/filex/common/src/fx_directory_free_search.c ****                 if (status !=  FX_SUCCESS)
 670:Middlewares/ST/filex/common/src/fx_directory_free_search.c ****                 {
 671:Middlewares/ST/filex/common/src/fx_directory_free_search.c **** 
 672:Middlewares/ST/filex/common/src/fx_directory_free_search.c ****                     /* Return the bad status.  */
 673:Middlewares/ST/filex/common/src/fx_directory_free_search.c ****                     return(status);
 674:Middlewares/ST/filex/common/src/fx_directory_free_search.c ****                 }
 675:Middlewares/ST/filex/common/src/fx_directory_free_search.c **** 
 676:Middlewares/ST/filex/common/src/fx_directory_free_search.c **** #ifdef FX_FAULT_TOLERANT
 677:Middlewares/ST/filex/common/src/fx_directory_free_search.c **** 
ARM GAS  C:\Users\HP\AppData\Local\Temp\ccmUfyBM.s 			page 22


 678:Middlewares/ST/filex/common/src/fx_directory_free_search.c ****                 /* Ensure the new FAT chain is properly written to the media.  */
 679:Middlewares/ST/filex/common/src/fx_directory_free_search.c **** 
 680:Middlewares/ST/filex/common/src/fx_directory_free_search.c ****                 /* Flush the cached individual FAT entries */
 681:Middlewares/ST/filex/common/src/fx_directory_free_search.c ****                 _fx_utility_FAT_flush(media_ptr);
 682:Middlewares/ST/filex/common/src/fx_directory_free_search.c **** #endif
 683:Middlewares/ST/filex/common/src/fx_directory_free_search.c **** 
 684:Middlewares/ST/filex/common/src/fx_directory_free_search.c ****                 /* Now the new cluster needs to be linked to the sub-directory.  */
 685:Middlewares/ST/filex/common/src/fx_directory_free_search.c ****                 if (search_dir_ptr)
 686:Middlewares/ST/filex/common/src/fx_directory_free_search.c ****                 {
 687:Middlewares/ST/filex/common/src/fx_directory_free_search.c ****                     cluster = search_dir_ptr -> fx_dir_entry_cluster;
 688:Middlewares/ST/filex/common/src/fx_directory_free_search.c ****                 }
 689:Middlewares/ST/filex/common/src/fx_directory_free_search.c ****                 else
 690:Middlewares/ST/filex/common/src/fx_directory_free_search.c ****                 {
 691:Middlewares/ST/filex/common/src/fx_directory_free_search.c ****                     cluster = media_ptr -> fx_media_root_cluster_32;
 692:Middlewares/ST/filex/common/src/fx_directory_free_search.c ****                 }
 693:Middlewares/ST/filex/common/src/fx_directory_free_search.c **** 
 694:Middlewares/ST/filex/common/src/fx_directory_free_search.c ****                 /* Initialize loop variables.  */
 695:Middlewares/ST/filex/common/src/fx_directory_free_search.c ****                 last_cluster =  0;
 696:Middlewares/ST/filex/common/src/fx_directory_free_search.c ****                 i =  0;
 697:Middlewares/ST/filex/common/src/fx_directory_free_search.c **** 
 698:Middlewares/ST/filex/common/src/fx_directory_free_search.c ****                 /* Follow the link of FAT entries.  */
 699:Middlewares/ST/filex/common/src/fx_directory_free_search.c ****                 while (cluster < media_ptr -> fx_media_fat_reserved)
 700:Middlewares/ST/filex/common/src/fx_directory_free_search.c ****                 {
 701:Middlewares/ST/filex/common/src/fx_directory_free_search.c **** 
 702:Middlewares/ST/filex/common/src/fx_directory_free_search.c ****                     /* Read the current cluster entry from the FAT.  */
 703:Middlewares/ST/filex/common/src/fx_directory_free_search.c ****                     status =  _fx_utility_FAT_entry_read(media_ptr, cluster, &FAT_value);
 704:Middlewares/ST/filex/common/src/fx_directory_free_search.c ****                     i++;
 705:Middlewares/ST/filex/common/src/fx_directory_free_search.c **** 
 706:Middlewares/ST/filex/common/src/fx_directory_free_search.c ****                     /* Check the return value.  */
 707:Middlewares/ST/filex/common/src/fx_directory_free_search.c ****                     if (status != FX_SUCCESS)
 708:Middlewares/ST/filex/common/src/fx_directory_free_search.c ****                     {
 709:Middlewares/ST/filex/common/src/fx_directory_free_search.c **** 
 710:Middlewares/ST/filex/common/src/fx_directory_free_search.c ****                         /* Return the error status.  */
 711:Middlewares/ST/filex/common/src/fx_directory_free_search.c ****                         return(status);
 712:Middlewares/ST/filex/common/src/fx_directory_free_search.c ****                     }
 713:Middlewares/ST/filex/common/src/fx_directory_free_search.c **** 
 714:Middlewares/ST/filex/common/src/fx_directory_free_search.c ****                     /* Determine if the FAT read was invalid.  */
 715:Middlewares/ST/filex/common/src/fx_directory_free_search.c ****                     if ((cluster < FX_FAT_ENTRY_START) || (cluster == FAT_value) || (i > media_ptr 
 716:Middlewares/ST/filex/common/src/fx_directory_free_search.c ****                     {
 717:Middlewares/ST/filex/common/src/fx_directory_free_search.c **** 
 718:Middlewares/ST/filex/common/src/fx_directory_free_search.c ****                         /* Return the bad status.  */
 719:Middlewares/ST/filex/common/src/fx_directory_free_search.c ****                         return(FX_FAT_READ_ERROR);
 720:Middlewares/ST/filex/common/src/fx_directory_free_search.c ****                     }
 721:Middlewares/ST/filex/common/src/fx_directory_free_search.c **** 
 722:Middlewares/ST/filex/common/src/fx_directory_free_search.c ****                     /* Save the last valid cluster.  */
 723:Middlewares/ST/filex/common/src/fx_directory_free_search.c ****                     last_cluster =  cluster;
 724:Middlewares/ST/filex/common/src/fx_directory_free_search.c **** 
 725:Middlewares/ST/filex/common/src/fx_directory_free_search.c ****                     /* Setup for the next cluster.  */
 726:Middlewares/ST/filex/common/src/fx_directory_free_search.c ****                     cluster =  FAT_value;
 727:Middlewares/ST/filex/common/src/fx_directory_free_search.c ****                 }
 728:Middlewares/ST/filex/common/src/fx_directory_free_search.c **** 
 729:Middlewares/ST/filex/common/src/fx_directory_free_search.c ****                 /* Decrease the available clusters in the media.  */
 730:Middlewares/ST/filex/common/src/fx_directory_free_search.c ****                 media_ptr -> fx_media_available_clusters =  media_ptr -> fx_media_available_cluster
 731:Middlewares/ST/filex/common/src/fx_directory_free_search.c **** 
 732:Middlewares/ST/filex/common/src/fx_directory_free_search.c ****                 /* Increase the number of directory entries.  */
 733:Middlewares/ST/filex/common/src/fx_directory_free_search.c ****                 directory_entries =  directory_entries + ((clusters_needed * media_ptr -> fx_media_
 734:Middlewares/ST/filex/common/src/fx_directory_free_search.c **** 
ARM GAS  C:\Users\HP\AppData\Local\Temp\ccmUfyBM.s 			page 23


 735:Middlewares/ST/filex/common/src/fx_directory_free_search.c ****                 /* Determine if we need to reset the free entry start since we changed the
 736:Middlewares/ST/filex/common/src/fx_directory_free_search.c ****                    number of directory entries.  If the last entry was not free, then we
 737:Middlewares/ST/filex/common/src/fx_directory_free_search.c ****                    should definitely reset the free entry start.  */
 738:Middlewares/ST/filex/common/src/fx_directory_free_search.c ****                 if (!(((UCHAR)entry_ptr -> fx_dir_entry_name[0] == (UCHAR) FX_DIR_ENTRY_FREE) && (e
 739:Middlewares/ST/filex/common/src/fx_directory_free_search.c ****                 {
 740:Middlewares/ST/filex/common/src/fx_directory_free_search.c **** 
 741:Middlewares/ST/filex/common/src/fx_directory_free_search.c ****                     /* Reset the free entry start to indicate we haven't found a starting free entr
 742:Middlewares/ST/filex/common/src/fx_directory_free_search.c ****                     free_entry_start =  directory_entries;
 743:Middlewares/ST/filex/common/src/fx_directory_free_search.c ****                 }
 744:Middlewares/ST/filex/common/src/fx_directory_free_search.c **** 
 745:Middlewares/ST/filex/common/src/fx_directory_free_search.c ****                 /* Update the directory size field.  */
 746:Middlewares/ST/filex/common/src/fx_directory_free_search.c ****                 directory_ptr -> fx_dir_entry_file_size =  directory_entries;
 747:Middlewares/ST/filex/common/src/fx_directory_free_search.c **** 
 748:Middlewares/ST/filex/common/src/fx_directory_free_search.c ****                 /* Defer the update of the FAT entry and the last cluster of the current
 749:Middlewares/ST/filex/common/src/fx_directory_free_search.c ****                    directory entry until after the new cluster is initialized and written out.  */
 750:Middlewares/ST/filex/common/src/fx_directory_free_search.c **** 
 751:Middlewares/ST/filex/common/src/fx_directory_free_search.c ****                 /* Determine if a FAT32 is present.  */
 752:Middlewares/ST/filex/common/src/fx_directory_free_search.c ****                 if ((media_ptr -> fx_media_32_bit_FAT) && (search_dir_ptr == FX_NULL))
 753:Middlewares/ST/filex/common/src/fx_directory_free_search.c ****                 {
 754:Middlewares/ST/filex/common/src/fx_directory_free_search.c **** 
 755:Middlewares/ST/filex/common/src/fx_directory_free_search.c ****                     /* Change root directory entry count - FAT32 has a variable sized root director
 756:Middlewares/ST/filex/common/src/fx_directory_free_search.c ****                     media_ptr -> fx_media_root_directory_entries =  directory_entries;
 757:Middlewares/ST/filex/common/src/fx_directory_free_search.c ****                 }
 758:Middlewares/ST/filex/common/src/fx_directory_free_search.c **** 
 759:Middlewares/ST/filex/common/src/fx_directory_free_search.c ****                 /* At this point, link up the last cluster with the new cluster.  */
 760:Middlewares/ST/filex/common/src/fx_directory_free_search.c ****                 status =  _fx_utility_FAT_entry_write(media_ptr, last_cluster, first_new_cluster);
 761:Middlewares/ST/filex/common/src/fx_directory_free_search.c **** 
 762:Middlewares/ST/filex/common/src/fx_directory_free_search.c ****                 /* Check the return value.  */
 763:Middlewares/ST/filex/common/src/fx_directory_free_search.c ****                 if (status != FX_SUCCESS)
 764:Middlewares/ST/filex/common/src/fx_directory_free_search.c ****                 {
 765:Middlewares/ST/filex/common/src/fx_directory_free_search.c **** 
 766:Middlewares/ST/filex/common/src/fx_directory_free_search.c ****                     /* Return the error status.  */
 767:Middlewares/ST/filex/common/src/fx_directory_free_search.c ****                     return(status);
 768:Middlewares/ST/filex/common/src/fx_directory_free_search.c ****                 }
 769:Middlewares/ST/filex/common/src/fx_directory_free_search.c **** 
 770:Middlewares/ST/filex/common/src/fx_directory_free_search.c **** #ifdef FX_FAULT_TOLERANT
 771:Middlewares/ST/filex/common/src/fx_directory_free_search.c **** 
 772:Middlewares/ST/filex/common/src/fx_directory_free_search.c ****                 /* Flush the cached individual FAT entries */
 773:Middlewares/ST/filex/common/src/fx_directory_free_search.c ****                 _fx_utility_FAT_flush(media_ptr);
 774:Middlewares/ST/filex/common/src/fx_directory_free_search.c **** #endif
 775:Middlewares/ST/filex/common/src/fx_directory_free_search.c ****             }
 776:Middlewares/ST/filex/common/src/fx_directory_free_search.c ****         }
 777:Middlewares/ST/filex/common/src/fx_directory_free_search.c ****     } while (directory_index < directory_entries);
 477              		.loc 1 777 13 is_stmt 1 view .LVU174
 478              		.loc 1 777 30 is_stmt 0 view .LVU175
 479 01da 0E9B     		ldr	r3, [sp, #56]
 480              		.loc 1 777 5 view .LVU176
 481 01dc BB42     		cmp	r3, r7
 482 01de 80F07A81 		bcs	.L85
 483              	.LVL33:
 484              	.L49:
 327:Middlewares/ST/filex/common/src/fx_directory_free_search.c ****     {
 485              		.loc 1 327 5 is_stmt 1 view .LVU177
 331:Middlewares/ST/filex/common/src/fx_directory_free_search.c **** 
 486              		.loc 1 331 9 view .LVU178
 331:Middlewares/ST/filex/common/src/fx_directory_free_search.c **** 
 487              		.loc 1 331 19 is_stmt 0 view .LVU179
ARM GAS  C:\Users\HP\AppData\Local\Temp\ccmUfyBM.s 			page 24


 488 01e2 5B46     		mov	r3, fp
 489 01e4 0EAA     		add	r2, sp, #56
 490 01e6 4946     		mov	r1, r9
 491 01e8 4046     		mov	r0, r8
 492 01ea FFF7FEFF 		bl	_fx_directory_entry_read
 493              	.LVL34:
 334:Middlewares/ST/filex/common/src/fx_directory_free_search.c ****         {
 494              		.loc 1 334 9 is_stmt 1 view .LVU180
 334:Middlewares/ST/filex/common/src/fx_directory_free_search.c ****         {
 495              		.loc 1 334 12 is_stmt 0 view .LVU181
 496 01ee 0590     		str	r0, [sp, #20]
 497 01f0 0028     		cmp	r0, #0
 498 01f2 40F07681 		bne	.L55
 340:Middlewares/ST/filex/common/src/fx_directory_free_search.c ****             ((UCHAR)entry_ptr -> fx_dir_entry_name[0] == (UCHAR)FX_DIR_ENTRY_DONE))
 499              		.loc 1 340 9 is_stmt 1 view .LVU182
 340:Middlewares/ST/filex/common/src/fx_directory_free_search.c ****             ((UCHAR)entry_ptr -> fx_dir_entry_name[0] == (UCHAR)FX_DIR_ENTRY_DONE))
 500              		.loc 1 340 32 is_stmt 0 view .LVU183
 501 01f6 DBF80020 		ldr	r2, [fp]
 340:Middlewares/ST/filex/common/src/fx_directory_free_search.c ****             ((UCHAR)entry_ptr -> fx_dir_entry_name[0] == (UCHAR)FX_DIR_ENTRY_DONE))
 502              		.loc 1 340 52 view .LVU184
 503 01fa 1378     		ldrb	r3, [r2]	@ zero_extendqisi2
 340:Middlewares/ST/filex/common/src/fx_directory_free_search.c ****             ((UCHAR)entry_ptr -> fx_dir_entry_name[0] == (UCHAR)FX_DIR_ENTRY_DONE))
 504              		.loc 1 340 12 view .LVU185
 505 01fc E52B     		cmp	r3, #229
 506 01fe C5D0     		beq	.L86
 507              	.L20:
 340:Middlewares/ST/filex/common/src/fx_directory_free_search.c ****             ((UCHAR)entry_ptr -> fx_dir_entry_name[0] == (UCHAR)FX_DIR_ENTRY_DONE))
 508              		.loc 1 340 136 discriminator 3 view .LVU186
 509 0200 002B     		cmp	r3, #0
 510 0202 43D1     		bne	.L56
 511              	.L21:
 345:Middlewares/ST/filex/common/src/fx_directory_free_search.c ****             {
 512              		.loc 1 345 13 is_stmt 1 view .LVU187
 345:Middlewares/ST/filex/common/src/fx_directory_free_search.c ****             {
 513              		.loc 1 345 16 is_stmt 0 view .LVU188
 514 0204 BAF1010F 		cmp	r10, #1
 515 0208 C5D9     		bls	.L23
 350:Middlewares/ST/filex/common/src/fx_directory_free_search.c ****                 {
 516              		.loc 1 350 17 is_stmt 1 view .LVU189
 350:Middlewares/ST/filex/common/src/fx_directory_free_search.c ****                 {
 517              		.loc 1 350 20 is_stmt 0 view .LVU190
 518 020a 002B     		cmp	r3, #0
 519 020c C3D1     		bne	.L23
 353:Middlewares/ST/filex/common/src/fx_directory_free_search.c ****                     entry_ptr -> fx_dir_entry_name[0] =      (CHAR)FX_DIR_ENTRY_FREE;
 520              		.loc 1 353 21 is_stmt 1 view .LVU191
 353:Middlewares/ST/filex/common/src/fx_directory_free_search.c ****                     entry_ptr -> fx_dir_entry_name[0] =      (CHAR)FX_DIR_ENTRY_FREE;
 521              		.loc 1 353 65 is_stmt 0 view .LVU192
 522 020e CBF81430 		str	r3, [fp, #20]
 354:Middlewares/ST/filex/common/src/fx_directory_free_search.c ****                     entry_ptr -> fx_dir_entry_name[1] =      (CHAR)0;
 523              		.loc 1 354 21 is_stmt 1 view .LVU193
 354:Middlewares/ST/filex/common/src/fx_directory_free_search.c ****                     entry_ptr -> fx_dir_entry_name[1] =      (CHAR)0;
 524              		.loc 1 354 55 is_stmt 0 view .LVU194
 525 0212 E521     		movs	r1, #229
 526 0214 1170     		strb	r1, [r2]
 355:Middlewares/ST/filex/common/src/fx_directory_free_search.c **** 
 527              		.loc 1 355 21 is_stmt 1 view .LVU195
 355:Middlewares/ST/filex/common/src/fx_directory_free_search.c **** 
ARM GAS  C:\Users\HP\AppData\Local\Temp\ccmUfyBM.s 			page 25


 528              		.loc 1 355 31 is_stmt 0 view .LVU196
 529 0216 DBF80020 		ldr	r2, [fp]
 355:Middlewares/ST/filex/common/src/fx_directory_free_search.c **** 
 530              		.loc 1 355 55 view .LVU197
 531 021a 5370     		strb	r3, [r2, #1]
 358:Middlewares/ST/filex/common/src/fx_directory_free_search.c ****                     if(status != FX_SUCCESS)
 532              		.loc 1 358 21 is_stmt 1 view .LVU198
 358:Middlewares/ST/filex/common/src/fx_directory_free_search.c ****                     if(status != FX_SUCCESS)
 533              		.loc 1 358 30 is_stmt 0 view .LVU199
 534 021c 5946     		mov	r1, fp
 535 021e 4046     		mov	r0, r8
 536              	.LVL35:
 358:Middlewares/ST/filex/common/src/fx_directory_free_search.c ****                     if(status != FX_SUCCESS)
 537              		.loc 1 358 30 view .LVU200
 538 0220 FFF7FEFF 		bl	_fx_directory_entry_write
 539              	.LVL36:
 359:Middlewares/ST/filex/common/src/fx_directory_free_search.c ****                     {  
 540              		.loc 1 359 21 is_stmt 1 view .LVU201
 359:Middlewares/ST/filex/common/src/fx_directory_free_search.c ****                     {  
 541              		.loc 1 359 23 is_stmt 0 view .LVU202
 542 0224 0346     		mov	r3, r0
 543 0226 0028     		cmp	r0, #0
 544 0228 B5D0     		beq	.L23
 545 022a 5DE1     		b	.L1
 546              	.L81:
 374:Middlewares/ST/filex/common/src/fx_directory_free_search.c ****                 entry_sector =      (ULONG)entry_ptr -> fx_dir_entry_log_sector;
 547              		.loc 1 374 17 is_stmt 1 view .LVU203
 374:Middlewares/ST/filex/common/src/fx_directory_free_search.c ****                 entry_sector =      (ULONG)entry_ptr -> fx_dir_entry_log_sector;
 548              		.loc 1 374 34 is_stmt 0 view .LVU204
 549 022c 0E9E     		ldr	r6, [sp, #56]
 550              	.LVL37:
 375:Middlewares/ST/filex/common/src/fx_directory_free_search.c ****                 entry_offset  =     entry_ptr -> fx_dir_entry_byte_offset;
 551              		.loc 1 375 17 is_stmt 1 view .LVU205
 375:Middlewares/ST/filex/common/src/fx_directory_free_search.c ****                 entry_offset  =     entry_ptr -> fx_dir_entry_byte_offset;
 552              		.loc 1 375 54 is_stmt 0 view .LVU206
 553 022e DBF84030 		ldr	r3, [fp, #64]
 554 0232 0793     		str	r3, [sp, #28]
 555              	.LVL38:
 376:Middlewares/ST/filex/common/src/fx_directory_free_search.c ****             }
 556              		.loc 1 376 17 is_stmt 1 view .LVU207
 376:Middlewares/ST/filex/common/src/fx_directory_free_search.c ****             }
 557              		.loc 1 376 31 is_stmt 0 view .LVU208
 558 0234 DBF84830 		ldr	r3, [fp, #72]
 559              	.LVL39:
 376:Middlewares/ST/filex/common/src/fx_directory_free_search.c ****             }
 560              		.loc 1 376 31 view .LVU209
 561 0238 0893     		str	r3, [sp, #32]
 562              	.LVL40:
 376:Middlewares/ST/filex/common/src/fx_directory_free_search.c ****             }
 563              		.loc 1 376 31 view .LVU210
 564 023a AEE7     		b	.L24
 565              	.LVL41:
 566              	.L82:
 387:Middlewares/ST/filex/common/src/fx_directory_free_search.c ****                 entry_ptr -> fx_dir_entry_byte_offset =     entry_offset;
 567              		.loc 1 387 17 is_stmt 1 view .LVU211
 387:Middlewares/ST/filex/common/src/fx_directory_free_search.c ****                 entry_ptr -> fx_dir_entry_byte_offset =     entry_offset;
 568              		.loc 1 387 54 is_stmt 0 view .LVU212
ARM GAS  C:\Users\HP\AppData\Local\Temp\ccmUfyBM.s 			page 26


 569 023c 0023     		movs	r3, #0
 570 023e 079A     		ldr	r2, [sp, #28]
 571 0240 CBF84020 		str	r2, [fp, #64]
 572 0244 CBF84430 		str	r3, [fp, #68]
 388:Middlewares/ST/filex/common/src/fx_directory_free_search.c **** 
 573              		.loc 1 388 17 is_stmt 1 view .LVU213
 388:Middlewares/ST/filex/common/src/fx_directory_free_search.c **** 
 574              		.loc 1 388 55 is_stmt 0 view .LVU214
 575 0248 089A     		ldr	r2, [sp, #32]
 576 024a CBF84820 		str	r2, [fp, #72]
 391:Middlewares/ST/filex/common/src/fx_directory_free_search.c ****                 entry_ptr -> fx_dir_entry_created_time_ms =     0;
 577              		.loc 1 391 17 is_stmt 1 view .LVU215
 391:Middlewares/ST/filex/common/src/fx_directory_free_search.c ****                 entry_ptr -> fx_dir_entry_created_time_ms =     0;
 578              		.loc 1 391 52 is_stmt 0 view .LVU216
 579 024e 8BF81D30 		strb	r3, [fp, #29]
 392:Middlewares/ST/filex/common/src/fx_directory_free_search.c **** 
 580              		.loc 1 392 17 is_stmt 1 view .LVU217
 392:Middlewares/ST/filex/common/src/fx_directory_free_search.c **** 
 581              		.loc 1 392 59 is_stmt 0 view .LVU218
 582 0252 8BF81E30 		strb	r3, [fp, #30]
 395:Middlewares/ST/filex/common/src/fx_directory_free_search.c **** 
 583              		.loc 1 395 17 is_stmt 1 view .LVU219
 584              	.LBB10:
 585              	.LBI10:
 586              		.file 2 "Middlewares/ST/threadx/ports/cortex_m4/gnu/inc/tx_port.h"
   1:Middlewares/ST/threadx/ports/cortex_m4/gnu/inc/tx_port.h **** /**************************************************************************/
   2:Middlewares/ST/threadx/ports/cortex_m4/gnu/inc/tx_port.h **** /*                                                                        */
   3:Middlewares/ST/threadx/ports/cortex_m4/gnu/inc/tx_port.h **** /*       Copyright (c) Microsoft Corporation. All rights reserved.        */
   4:Middlewares/ST/threadx/ports/cortex_m4/gnu/inc/tx_port.h **** /*                                                                        */
   5:Middlewares/ST/threadx/ports/cortex_m4/gnu/inc/tx_port.h **** /*       This software is licensed under the Microsoft Software License   */
   6:Middlewares/ST/threadx/ports/cortex_m4/gnu/inc/tx_port.h **** /*       Terms for Microsoft Azure RTOS. Full text of the license can be  */
   7:Middlewares/ST/threadx/ports/cortex_m4/gnu/inc/tx_port.h **** /*       found in the LICENSE file at https://aka.ms/AzureRTOS_EULA       */
   8:Middlewares/ST/threadx/ports/cortex_m4/gnu/inc/tx_port.h **** /*       and in the root directory of this software.                      */
   9:Middlewares/ST/threadx/ports/cortex_m4/gnu/inc/tx_port.h **** /*                                                                        */
  10:Middlewares/ST/threadx/ports/cortex_m4/gnu/inc/tx_port.h **** /**************************************************************************/
  11:Middlewares/ST/threadx/ports/cortex_m4/gnu/inc/tx_port.h **** 
  12:Middlewares/ST/threadx/ports/cortex_m4/gnu/inc/tx_port.h **** 
  13:Middlewares/ST/threadx/ports/cortex_m4/gnu/inc/tx_port.h **** /**************************************************************************/
  14:Middlewares/ST/threadx/ports/cortex_m4/gnu/inc/tx_port.h **** /**************************************************************************/
  15:Middlewares/ST/threadx/ports/cortex_m4/gnu/inc/tx_port.h **** /**                                                                       */
  16:Middlewares/ST/threadx/ports/cortex_m4/gnu/inc/tx_port.h **** /** ThreadX Component                                                     */
  17:Middlewares/ST/threadx/ports/cortex_m4/gnu/inc/tx_port.h **** /**                                                                       */
  18:Middlewares/ST/threadx/ports/cortex_m4/gnu/inc/tx_port.h **** /**   Port Specific                                                       */
  19:Middlewares/ST/threadx/ports/cortex_m4/gnu/inc/tx_port.h **** /**                                                                       */
  20:Middlewares/ST/threadx/ports/cortex_m4/gnu/inc/tx_port.h **** /**************************************************************************/
  21:Middlewares/ST/threadx/ports/cortex_m4/gnu/inc/tx_port.h **** /**************************************************************************/
  22:Middlewares/ST/threadx/ports/cortex_m4/gnu/inc/tx_port.h **** 
  23:Middlewares/ST/threadx/ports/cortex_m4/gnu/inc/tx_port.h **** 
  24:Middlewares/ST/threadx/ports/cortex_m4/gnu/inc/tx_port.h **** /**************************************************************************/
  25:Middlewares/ST/threadx/ports/cortex_m4/gnu/inc/tx_port.h **** /*                                                                        */
  26:Middlewares/ST/threadx/ports/cortex_m4/gnu/inc/tx_port.h **** /*  PORT SPECIFIC C INFORMATION                            RELEASE        */
  27:Middlewares/ST/threadx/ports/cortex_m4/gnu/inc/tx_port.h **** /*                                                                        */
  28:Middlewares/ST/threadx/ports/cortex_m4/gnu/inc/tx_port.h **** /*    tx_port.h                                         Cortex-M4/GNU     */
  29:Middlewares/ST/threadx/ports/cortex_m4/gnu/inc/tx_port.h **** /*                                                           6.1.12       */
  30:Middlewares/ST/threadx/ports/cortex_m4/gnu/inc/tx_port.h **** /*                                                                        */
  31:Middlewares/ST/threadx/ports/cortex_m4/gnu/inc/tx_port.h **** /*  AUTHOR                                                                */
  32:Middlewares/ST/threadx/ports/cortex_m4/gnu/inc/tx_port.h **** /*                                                                        */
ARM GAS  C:\Users\HP\AppData\Local\Temp\ccmUfyBM.s 			page 27


  33:Middlewares/ST/threadx/ports/cortex_m4/gnu/inc/tx_port.h **** /*    Scott Larson, Microsoft Corporation                                 */
  34:Middlewares/ST/threadx/ports/cortex_m4/gnu/inc/tx_port.h **** /*                                                                        */
  35:Middlewares/ST/threadx/ports/cortex_m4/gnu/inc/tx_port.h **** /*  DESCRIPTION                                                           */
  36:Middlewares/ST/threadx/ports/cortex_m4/gnu/inc/tx_port.h **** /*                                                                        */
  37:Middlewares/ST/threadx/ports/cortex_m4/gnu/inc/tx_port.h **** /*    This file contains data type definitions that make the ThreadX      */
  38:Middlewares/ST/threadx/ports/cortex_m4/gnu/inc/tx_port.h **** /*    real-time kernel function identically on a variety of different     */
  39:Middlewares/ST/threadx/ports/cortex_m4/gnu/inc/tx_port.h **** /*    processor architectures.  For example, the size or number of bits   */
  40:Middlewares/ST/threadx/ports/cortex_m4/gnu/inc/tx_port.h **** /*    in an "int" data type vary between microprocessor architectures and */
  41:Middlewares/ST/threadx/ports/cortex_m4/gnu/inc/tx_port.h **** /*    even C compilers for the same microprocessor.  ThreadX does not     */
  42:Middlewares/ST/threadx/ports/cortex_m4/gnu/inc/tx_port.h **** /*    directly use native C data types.  Instead, ThreadX creates its     */
  43:Middlewares/ST/threadx/ports/cortex_m4/gnu/inc/tx_port.h **** /*    own special types that can be mapped to actual data types by this   */
  44:Middlewares/ST/threadx/ports/cortex_m4/gnu/inc/tx_port.h **** /*    file to guarantee consistency in the interface and functionality.   */
  45:Middlewares/ST/threadx/ports/cortex_m4/gnu/inc/tx_port.h **** /*                                                                        */
  46:Middlewares/ST/threadx/ports/cortex_m4/gnu/inc/tx_port.h **** /*    This file replaces the previous Cortex-M3/M4/M7 files. It unifies   */
  47:Middlewares/ST/threadx/ports/cortex_m4/gnu/inc/tx_port.h **** /*    the ARMv7-M architecture and compilers into one common file.        */
  48:Middlewares/ST/threadx/ports/cortex_m4/gnu/inc/tx_port.h **** /*                                                                        */
  49:Middlewares/ST/threadx/ports/cortex_m4/gnu/inc/tx_port.h **** /*  RELEASE HISTORY                                                       */
  50:Middlewares/ST/threadx/ports/cortex_m4/gnu/inc/tx_port.h **** /*                                                                        */
  51:Middlewares/ST/threadx/ports/cortex_m4/gnu/inc/tx_port.h **** /*    DATE              NAME                      DESCRIPTION             */
  52:Middlewares/ST/threadx/ports/cortex_m4/gnu/inc/tx_port.h **** /*                                                                        */
  53:Middlewares/ST/threadx/ports/cortex_m4/gnu/inc/tx_port.h **** /*  06-02-2021      Scott Larson            Initial Version 6.1.7         */
  54:Middlewares/ST/threadx/ports/cortex_m4/gnu/inc/tx_port.h **** /*  01-31-2022      Scott Larson            Modified comments, updated    */
  55:Middlewares/ST/threadx/ports/cortex_m4/gnu/inc/tx_port.h **** /*                                            typedef to fix misra        */
  56:Middlewares/ST/threadx/ports/cortex_m4/gnu/inc/tx_port.h **** /*                                            violation,                  */
  57:Middlewares/ST/threadx/ports/cortex_m4/gnu/inc/tx_port.h **** /*                                            fixed predefined macro,     */
  58:Middlewares/ST/threadx/ports/cortex_m4/gnu/inc/tx_port.h **** /*                                            resulting in version 6.1.10 */
  59:Middlewares/ST/threadx/ports/cortex_m4/gnu/inc/tx_port.h **** /*  04-25-2022      Scott Larson            Modified comments and added   */
  60:Middlewares/ST/threadx/ports/cortex_m4/gnu/inc/tx_port.h **** /*                                            volatile to registers,      */
  61:Middlewares/ST/threadx/ports/cortex_m4/gnu/inc/tx_port.h **** /*                                            resulting in version 6.1.11 */
  62:Middlewares/ST/threadx/ports/cortex_m4/gnu/inc/tx_port.h **** /*  07-29-2022      Scott Larson            Modified comments and         */
  63:Middlewares/ST/threadx/ports/cortex_m4/gnu/inc/tx_port.h **** /*                                            described BASEPRI usage,    */
  64:Middlewares/ST/threadx/ports/cortex_m4/gnu/inc/tx_port.h **** /*                                            resulting in version 6.1.12 */
  65:Middlewares/ST/threadx/ports/cortex_m4/gnu/inc/tx_port.h **** /*                                                                        */
  66:Middlewares/ST/threadx/ports/cortex_m4/gnu/inc/tx_port.h **** /**************************************************************************/
  67:Middlewares/ST/threadx/ports/cortex_m4/gnu/inc/tx_port.h **** 
  68:Middlewares/ST/threadx/ports/cortex_m4/gnu/inc/tx_port.h **** #ifndef TX_PORT_H
  69:Middlewares/ST/threadx/ports/cortex_m4/gnu/inc/tx_port.h **** #define TX_PORT_H
  70:Middlewares/ST/threadx/ports/cortex_m4/gnu/inc/tx_port.h **** 
  71:Middlewares/ST/threadx/ports/cortex_m4/gnu/inc/tx_port.h **** 
  72:Middlewares/ST/threadx/ports/cortex_m4/gnu/inc/tx_port.h **** /* Determine if the optional ThreadX user define file should be used.  */
  73:Middlewares/ST/threadx/ports/cortex_m4/gnu/inc/tx_port.h **** 
  74:Middlewares/ST/threadx/ports/cortex_m4/gnu/inc/tx_port.h **** #ifdef TX_INCLUDE_USER_DEFINE_FILE
  75:Middlewares/ST/threadx/ports/cortex_m4/gnu/inc/tx_port.h **** 
  76:Middlewares/ST/threadx/ports/cortex_m4/gnu/inc/tx_port.h **** /* Yes, include the user defines in tx_user.h. The defines in this file may
  77:Middlewares/ST/threadx/ports/cortex_m4/gnu/inc/tx_port.h ****    alternately be defined on the command line.  */
  78:Middlewares/ST/threadx/ports/cortex_m4/gnu/inc/tx_port.h **** 
  79:Middlewares/ST/threadx/ports/cortex_m4/gnu/inc/tx_port.h **** #include "tx_user.h"
  80:Middlewares/ST/threadx/ports/cortex_m4/gnu/inc/tx_port.h **** #endif
  81:Middlewares/ST/threadx/ports/cortex_m4/gnu/inc/tx_port.h **** 
  82:Middlewares/ST/threadx/ports/cortex_m4/gnu/inc/tx_port.h **** 
  83:Middlewares/ST/threadx/ports/cortex_m4/gnu/inc/tx_port.h **** /* Define compiler library include files.  */
  84:Middlewares/ST/threadx/ports/cortex_m4/gnu/inc/tx_port.h **** 
  85:Middlewares/ST/threadx/ports/cortex_m4/gnu/inc/tx_port.h **** #include <stdlib.h>
  86:Middlewares/ST/threadx/ports/cortex_m4/gnu/inc/tx_port.h **** #include <string.h>
  87:Middlewares/ST/threadx/ports/cortex_m4/gnu/inc/tx_port.h **** 
  88:Middlewares/ST/threadx/ports/cortex_m4/gnu/inc/tx_port.h **** #ifdef __ICCARM__
  89:Middlewares/ST/threadx/ports/cortex_m4/gnu/inc/tx_port.h **** #include <intrinsics.h>                     /* IAR Intrinsics */
ARM GAS  C:\Users\HP\AppData\Local\Temp\ccmUfyBM.s 			page 28


  90:Middlewares/ST/threadx/ports/cortex_m4/gnu/inc/tx_port.h **** #define __asm__ __asm                       /* Define to make all inline asm look similar */
  91:Middlewares/ST/threadx/ports/cortex_m4/gnu/inc/tx_port.h **** #ifdef  TX_ENABLE_IAR_LIBRARY_SUPPORT
  92:Middlewares/ST/threadx/ports/cortex_m4/gnu/inc/tx_port.h **** #include <yvals.h>
  93:Middlewares/ST/threadx/ports/cortex_m4/gnu/inc/tx_port.h **** #endif
  94:Middlewares/ST/threadx/ports/cortex_m4/gnu/inc/tx_port.h **** #endif /* __ICCARM__ */
  95:Middlewares/ST/threadx/ports/cortex_m4/gnu/inc/tx_port.h **** 
  96:Middlewares/ST/threadx/ports/cortex_m4/gnu/inc/tx_port.h **** #ifdef __ghs__
  97:Middlewares/ST/threadx/ports/cortex_m4/gnu/inc/tx_port.h **** #include <arm_ghs.h>
  98:Middlewares/ST/threadx/ports/cortex_m4/gnu/inc/tx_port.h **** #include "tx_ghs.h"
  99:Middlewares/ST/threadx/ports/cortex_m4/gnu/inc/tx_port.h **** #endif  /* __ghs__ */
 100:Middlewares/ST/threadx/ports/cortex_m4/gnu/inc/tx_port.h **** 
 101:Middlewares/ST/threadx/ports/cortex_m4/gnu/inc/tx_port.h **** 
 102:Middlewares/ST/threadx/ports/cortex_m4/gnu/inc/tx_port.h **** #if !defined(__GNUC__) && !defined(__CC_ARM)
 103:Middlewares/ST/threadx/ports/cortex_m4/gnu/inc/tx_port.h **** #define __get_control_value __get_CONTROL
 104:Middlewares/ST/threadx/ports/cortex_m4/gnu/inc/tx_port.h **** #define __set_control_value __set_CONTROL
 105:Middlewares/ST/threadx/ports/cortex_m4/gnu/inc/tx_port.h **** #endif
 106:Middlewares/ST/threadx/ports/cortex_m4/gnu/inc/tx_port.h **** 
 107:Middlewares/ST/threadx/ports/cortex_m4/gnu/inc/tx_port.h **** #ifndef __GNUC__
 108:Middlewares/ST/threadx/ports/cortex_m4/gnu/inc/tx_port.h **** #define __get_ipsr_value __get_IPSR
 109:Middlewares/ST/threadx/ports/cortex_m4/gnu/inc/tx_port.h **** #endif
 110:Middlewares/ST/threadx/ports/cortex_m4/gnu/inc/tx_port.h **** 
 111:Middlewares/ST/threadx/ports/cortex_m4/gnu/inc/tx_port.h **** /* Define ThreadX basic types for this port.  */
 112:Middlewares/ST/threadx/ports/cortex_m4/gnu/inc/tx_port.h **** 
 113:Middlewares/ST/threadx/ports/cortex_m4/gnu/inc/tx_port.h **** #define VOID                                    void
 114:Middlewares/ST/threadx/ports/cortex_m4/gnu/inc/tx_port.h **** typedef char                                    CHAR;
 115:Middlewares/ST/threadx/ports/cortex_m4/gnu/inc/tx_port.h **** typedef unsigned char                           UCHAR;
 116:Middlewares/ST/threadx/ports/cortex_m4/gnu/inc/tx_port.h **** typedef int                                     INT;
 117:Middlewares/ST/threadx/ports/cortex_m4/gnu/inc/tx_port.h **** typedef unsigned int                            UINT;
 118:Middlewares/ST/threadx/ports/cortex_m4/gnu/inc/tx_port.h **** typedef long                                    LONG;
 119:Middlewares/ST/threadx/ports/cortex_m4/gnu/inc/tx_port.h **** typedef unsigned long                           ULONG;
 120:Middlewares/ST/threadx/ports/cortex_m4/gnu/inc/tx_port.h **** typedef unsigned long long                      ULONG64;
 121:Middlewares/ST/threadx/ports/cortex_m4/gnu/inc/tx_port.h **** typedef short                                   SHORT;
 122:Middlewares/ST/threadx/ports/cortex_m4/gnu/inc/tx_port.h **** typedef unsigned short                          USHORT;
 123:Middlewares/ST/threadx/ports/cortex_m4/gnu/inc/tx_port.h **** #define ULONG64_DEFINED
 124:Middlewares/ST/threadx/ports/cortex_m4/gnu/inc/tx_port.h **** 
 125:Middlewares/ST/threadx/ports/cortex_m4/gnu/inc/tx_port.h **** /* Define the priority levels for ThreadX.  Legal values range
 126:Middlewares/ST/threadx/ports/cortex_m4/gnu/inc/tx_port.h ****    from 32 to 1024 and MUST be evenly divisible by 32.  */
 127:Middlewares/ST/threadx/ports/cortex_m4/gnu/inc/tx_port.h **** 
 128:Middlewares/ST/threadx/ports/cortex_m4/gnu/inc/tx_port.h **** #ifndef TX_MAX_PRIORITIES
 129:Middlewares/ST/threadx/ports/cortex_m4/gnu/inc/tx_port.h **** #define TX_MAX_PRIORITIES                       32
 130:Middlewares/ST/threadx/ports/cortex_m4/gnu/inc/tx_port.h **** #endif
 131:Middlewares/ST/threadx/ports/cortex_m4/gnu/inc/tx_port.h **** 
 132:Middlewares/ST/threadx/ports/cortex_m4/gnu/inc/tx_port.h **** 
 133:Middlewares/ST/threadx/ports/cortex_m4/gnu/inc/tx_port.h **** /* Define the minimum stack for a ThreadX thread on this processor. If the size supplied during
 134:Middlewares/ST/threadx/ports/cortex_m4/gnu/inc/tx_port.h ****    thread creation is less than this value, the thread create call will return an error.  */
 135:Middlewares/ST/threadx/ports/cortex_m4/gnu/inc/tx_port.h **** 
 136:Middlewares/ST/threadx/ports/cortex_m4/gnu/inc/tx_port.h **** #ifndef TX_MINIMUM_STACK
 137:Middlewares/ST/threadx/ports/cortex_m4/gnu/inc/tx_port.h **** #define TX_MINIMUM_STACK                        200         /* Minimum stack size for this port  */
 138:Middlewares/ST/threadx/ports/cortex_m4/gnu/inc/tx_port.h **** #endif
 139:Middlewares/ST/threadx/ports/cortex_m4/gnu/inc/tx_port.h **** 
 140:Middlewares/ST/threadx/ports/cortex_m4/gnu/inc/tx_port.h **** 
 141:Middlewares/ST/threadx/ports/cortex_m4/gnu/inc/tx_port.h **** /* Define the system timer thread's default stack size and priority.  These are only applicable
 142:Middlewares/ST/threadx/ports/cortex_m4/gnu/inc/tx_port.h ****    if TX_TIMER_PROCESS_IN_ISR is not defined.  */
 143:Middlewares/ST/threadx/ports/cortex_m4/gnu/inc/tx_port.h **** 
 144:Middlewares/ST/threadx/ports/cortex_m4/gnu/inc/tx_port.h **** #ifndef TX_TIMER_THREAD_STACK_SIZE
 145:Middlewares/ST/threadx/ports/cortex_m4/gnu/inc/tx_port.h **** #define TX_TIMER_THREAD_STACK_SIZE              1024        /* Default timer thread stack size  */
 146:Middlewares/ST/threadx/ports/cortex_m4/gnu/inc/tx_port.h **** #endif
ARM GAS  C:\Users\HP\AppData\Local\Temp\ccmUfyBM.s 			page 29


 147:Middlewares/ST/threadx/ports/cortex_m4/gnu/inc/tx_port.h **** 
 148:Middlewares/ST/threadx/ports/cortex_m4/gnu/inc/tx_port.h **** #ifndef TX_TIMER_THREAD_PRIORITY
 149:Middlewares/ST/threadx/ports/cortex_m4/gnu/inc/tx_port.h **** #define TX_TIMER_THREAD_PRIORITY                0           /* Default timer thread priority    */
 150:Middlewares/ST/threadx/ports/cortex_m4/gnu/inc/tx_port.h **** #endif
 151:Middlewares/ST/threadx/ports/cortex_m4/gnu/inc/tx_port.h **** 
 152:Middlewares/ST/threadx/ports/cortex_m4/gnu/inc/tx_port.h **** /* By default, ThreadX for Cortex-M uses the PRIMASK register to enable/disable interrupts.
 153:Middlewares/ST/threadx/ports/cortex_m4/gnu/inc/tx_port.h **** If using BASEPRI is desired, define the following two symbols for both c and assembly files:
 154:Middlewares/ST/threadx/ports/cortex_m4/gnu/inc/tx_port.h **** TX_PORT_USE_BASEPRI - This tells ThreadX to use BASEPRI instead of PRIMASK.
 155:Middlewares/ST/threadx/ports/cortex_m4/gnu/inc/tx_port.h **** TX_PORT_BASEPRI = (priority_mask << (8 - number_priority_bits)) - this defines the maximum priority
 156:Middlewares/ST/threadx/ports/cortex_m4/gnu/inc/tx_port.h **** Any interrupt with a higher priority than priority_mask will not be masked, thus the interrupt will
 157:Middlewares/ST/threadx/ports/cortex_m4/gnu/inc/tx_port.h **** */
 158:Middlewares/ST/threadx/ports/cortex_m4/gnu/inc/tx_port.h **** 
 159:Middlewares/ST/threadx/ports/cortex_m4/gnu/inc/tx_port.h **** /* Define various constants for the ThreadX Cortex-M port.  */
 160:Middlewares/ST/threadx/ports/cortex_m4/gnu/inc/tx_port.h **** 
 161:Middlewares/ST/threadx/ports/cortex_m4/gnu/inc/tx_port.h **** #define TX_INT_DISABLE                          1           /* Disable interrupts               */
 162:Middlewares/ST/threadx/ports/cortex_m4/gnu/inc/tx_port.h **** #define TX_INT_ENABLE                           0           /* Enable interrupts                */
 163:Middlewares/ST/threadx/ports/cortex_m4/gnu/inc/tx_port.h **** 
 164:Middlewares/ST/threadx/ports/cortex_m4/gnu/inc/tx_port.h **** 
 165:Middlewares/ST/threadx/ports/cortex_m4/gnu/inc/tx_port.h **** /* Define the clock source for trace event entry time stamp. The following two item are port specif
 166:Middlewares/ST/threadx/ports/cortex_m4/gnu/inc/tx_port.h ****    For example, if the time source is at the address 0x0a800024 and is 16-bits in size, the clock
 167:Middlewares/ST/threadx/ports/cortex_m4/gnu/inc/tx_port.h ****    source constants would be:
 168:Middlewares/ST/threadx/ports/cortex_m4/gnu/inc/tx_port.h **** 
 169:Middlewares/ST/threadx/ports/cortex_m4/gnu/inc/tx_port.h **** #define TX_TRACE_TIME_SOURCE                    *((volatile ULONG *) 0x0a800024)
 170:Middlewares/ST/threadx/ports/cortex_m4/gnu/inc/tx_port.h **** #define TX_TRACE_TIME_MASK                      0x0000FFFFUL
 171:Middlewares/ST/threadx/ports/cortex_m4/gnu/inc/tx_port.h **** 
 172:Middlewares/ST/threadx/ports/cortex_m4/gnu/inc/tx_port.h **** */
 173:Middlewares/ST/threadx/ports/cortex_m4/gnu/inc/tx_port.h **** 
 174:Middlewares/ST/threadx/ports/cortex_m4/gnu/inc/tx_port.h **** #ifndef TX_MISRA_ENABLE
 175:Middlewares/ST/threadx/ports/cortex_m4/gnu/inc/tx_port.h **** #ifndef TX_TRACE_TIME_SOURCE
 176:Middlewares/ST/threadx/ports/cortex_m4/gnu/inc/tx_port.h **** #define TX_TRACE_TIME_SOURCE                    *((volatile ULONG *) 0xE0001004)
 177:Middlewares/ST/threadx/ports/cortex_m4/gnu/inc/tx_port.h **** #endif
 178:Middlewares/ST/threadx/ports/cortex_m4/gnu/inc/tx_port.h **** #else
 179:Middlewares/ST/threadx/ports/cortex_m4/gnu/inc/tx_port.h **** ULONG   _tx_misra_time_stamp_get(VOID);
 180:Middlewares/ST/threadx/ports/cortex_m4/gnu/inc/tx_port.h **** #define TX_TRACE_TIME_SOURCE                    _tx_misra_time_stamp_get()
 181:Middlewares/ST/threadx/ports/cortex_m4/gnu/inc/tx_port.h **** #endif
 182:Middlewares/ST/threadx/ports/cortex_m4/gnu/inc/tx_port.h **** 
 183:Middlewares/ST/threadx/ports/cortex_m4/gnu/inc/tx_port.h **** #ifndef TX_TRACE_TIME_MASK
 184:Middlewares/ST/threadx/ports/cortex_m4/gnu/inc/tx_port.h **** #define TX_TRACE_TIME_MASK                      0xFFFFFFFFUL
 185:Middlewares/ST/threadx/ports/cortex_m4/gnu/inc/tx_port.h **** #endif
 186:Middlewares/ST/threadx/ports/cortex_m4/gnu/inc/tx_port.h **** 
 187:Middlewares/ST/threadx/ports/cortex_m4/gnu/inc/tx_port.h **** #ifdef __ghs__
 188:Middlewares/ST/threadx/ports/cortex_m4/gnu/inc/tx_port.h **** /* Define constants for Green Hills EventAnalyzer.  */
 189:Middlewares/ST/threadx/ports/cortex_m4/gnu/inc/tx_port.h **** 
 190:Middlewares/ST/threadx/ports/cortex_m4/gnu/inc/tx_port.h **** /* Define the number of ticks per second. This informs the EventAnalyzer what the timestamps
 191:Middlewares/ST/threadx/ports/cortex_m4/gnu/inc/tx_port.h ****    represent.  By default, this is set to 1,000,000 i.e., one tick every microsecond. */
 192:Middlewares/ST/threadx/ports/cortex_m4/gnu/inc/tx_port.h **** 
 193:Middlewares/ST/threadx/ports/cortex_m4/gnu/inc/tx_port.h **** #define TX_EL_TICKS_PER_SECOND                  1000000
 194:Middlewares/ST/threadx/ports/cortex_m4/gnu/inc/tx_port.h **** 
 195:Middlewares/ST/threadx/ports/cortex_m4/gnu/inc/tx_port.h **** /* Define the method of how to get the upper and lower 32-bits of the time stamp. By default, simpl
 196:Middlewares/ST/threadx/ports/cortex_m4/gnu/inc/tx_port.h ****    simulate the time-stamp source with a counter.  */
 197:Middlewares/ST/threadx/ports/cortex_m4/gnu/inc/tx_port.h **** 
 198:Middlewares/ST/threadx/ports/cortex_m4/gnu/inc/tx_port.h **** #define read_tbu()                              _tx_el_time_base_upper
 199:Middlewares/ST/threadx/ports/cortex_m4/gnu/inc/tx_port.h **** #define read_tbl()                              ++_tx_el_time_base_lower
 200:Middlewares/ST/threadx/ports/cortex_m4/gnu/inc/tx_port.h **** #endif  /* __ghs__ */
 201:Middlewares/ST/threadx/ports/cortex_m4/gnu/inc/tx_port.h **** 
 202:Middlewares/ST/threadx/ports/cortex_m4/gnu/inc/tx_port.h **** /* Define the port specific options for the _tx_build_options variable. This variable indicates
 203:Middlewares/ST/threadx/ports/cortex_m4/gnu/inc/tx_port.h ****    how the ThreadX library was built.  */
ARM GAS  C:\Users\HP\AppData\Local\Temp\ccmUfyBM.s 			page 30


 204:Middlewares/ST/threadx/ports/cortex_m4/gnu/inc/tx_port.h **** 
 205:Middlewares/ST/threadx/ports/cortex_m4/gnu/inc/tx_port.h **** #define TX_PORT_SPECIFIC_BUILD_OPTIONS          (0)
 206:Middlewares/ST/threadx/ports/cortex_m4/gnu/inc/tx_port.h **** 
 207:Middlewares/ST/threadx/ports/cortex_m4/gnu/inc/tx_port.h **** 
 208:Middlewares/ST/threadx/ports/cortex_m4/gnu/inc/tx_port.h **** /* Define the in-line initialization constant so that modules with in-line
 209:Middlewares/ST/threadx/ports/cortex_m4/gnu/inc/tx_port.h ****    initialization capabilities can prevent their initialization from being
 210:Middlewares/ST/threadx/ports/cortex_m4/gnu/inc/tx_port.h ****    a function call.  */
 211:Middlewares/ST/threadx/ports/cortex_m4/gnu/inc/tx_port.h **** 
 212:Middlewares/ST/threadx/ports/cortex_m4/gnu/inc/tx_port.h **** #ifdef TX_MISRA_ENABLE
 213:Middlewares/ST/threadx/ports/cortex_m4/gnu/inc/tx_port.h **** #define TX_DISABLE_INLINE
 214:Middlewares/ST/threadx/ports/cortex_m4/gnu/inc/tx_port.h **** #else
 215:Middlewares/ST/threadx/ports/cortex_m4/gnu/inc/tx_port.h **** #define TX_INLINE_INITIALIZATION
 216:Middlewares/ST/threadx/ports/cortex_m4/gnu/inc/tx_port.h **** #endif
 217:Middlewares/ST/threadx/ports/cortex_m4/gnu/inc/tx_port.h **** 
 218:Middlewares/ST/threadx/ports/cortex_m4/gnu/inc/tx_port.h **** 
 219:Middlewares/ST/threadx/ports/cortex_m4/gnu/inc/tx_port.h **** /* Determine whether or not stack checking is enabled. By default, ThreadX stack checking is
 220:Middlewares/ST/threadx/ports/cortex_m4/gnu/inc/tx_port.h ****    disabled. When the following is defined, ThreadX thread stack checking is enabled.  If stack
 221:Middlewares/ST/threadx/ports/cortex_m4/gnu/inc/tx_port.h ****    checking is enabled (TX_ENABLE_STACK_CHECKING is defined), the TX_DISABLE_STACK_FILLING
 222:Middlewares/ST/threadx/ports/cortex_m4/gnu/inc/tx_port.h ****    define is negated, thereby forcing the stack fill which is necessary for the stack checking
 223:Middlewares/ST/threadx/ports/cortex_m4/gnu/inc/tx_port.h ****    logic.  */
 224:Middlewares/ST/threadx/ports/cortex_m4/gnu/inc/tx_port.h **** 
 225:Middlewares/ST/threadx/ports/cortex_m4/gnu/inc/tx_port.h **** #ifndef TX_MISRA_ENABLE
 226:Middlewares/ST/threadx/ports/cortex_m4/gnu/inc/tx_port.h **** #ifdef TX_ENABLE_STACK_CHECKING
 227:Middlewares/ST/threadx/ports/cortex_m4/gnu/inc/tx_port.h **** #undef TX_DISABLE_STACK_FILLING
 228:Middlewares/ST/threadx/ports/cortex_m4/gnu/inc/tx_port.h **** #endif
 229:Middlewares/ST/threadx/ports/cortex_m4/gnu/inc/tx_port.h **** #endif
 230:Middlewares/ST/threadx/ports/cortex_m4/gnu/inc/tx_port.h **** 
 231:Middlewares/ST/threadx/ports/cortex_m4/gnu/inc/tx_port.h **** 
 232:Middlewares/ST/threadx/ports/cortex_m4/gnu/inc/tx_port.h **** /* Define the TX_THREAD control block extensions for this port. The main reason
 233:Middlewares/ST/threadx/ports/cortex_m4/gnu/inc/tx_port.h ****    for the multiple macros is so that backward compatibility can be maintained with
 234:Middlewares/ST/threadx/ports/cortex_m4/gnu/inc/tx_port.h ****    existing ThreadX kernel awareness modules.  */
 235:Middlewares/ST/threadx/ports/cortex_m4/gnu/inc/tx_port.h **** 
 236:Middlewares/ST/threadx/ports/cortex_m4/gnu/inc/tx_port.h **** #define TX_THREAD_EXTENSION_0
 237:Middlewares/ST/threadx/ports/cortex_m4/gnu/inc/tx_port.h **** #define TX_THREAD_EXTENSION_1
 238:Middlewares/ST/threadx/ports/cortex_m4/gnu/inc/tx_port.h **** #ifdef  TX_ENABLE_IAR_LIBRARY_SUPPORT
 239:Middlewares/ST/threadx/ports/cortex_m4/gnu/inc/tx_port.h **** #define TX_THREAD_EXTENSION_2           VOID    *tx_thread_iar_tls_pointer;
 240:Middlewares/ST/threadx/ports/cortex_m4/gnu/inc/tx_port.h **** #elif defined(__ghs__)
 241:Middlewares/ST/threadx/ports/cortex_m4/gnu/inc/tx_port.h **** #define TX_THREAD_EXTENSION_2           VOID *  tx_thread_eh_globals;                           \
 242:Middlewares/ST/threadx/ports/cortex_m4/gnu/inc/tx_port.h ****                                         int     Errno;             /* errno.  */                \
 243:Middlewares/ST/threadx/ports/cortex_m4/gnu/inc/tx_port.h ****                                         char *  strtok_saved_pos;  /* strtok() position.  */
 244:Middlewares/ST/threadx/ports/cortex_m4/gnu/inc/tx_port.h **** #else
 245:Middlewares/ST/threadx/ports/cortex_m4/gnu/inc/tx_port.h **** #define TX_THREAD_EXTENSION_2
 246:Middlewares/ST/threadx/ports/cortex_m4/gnu/inc/tx_port.h **** #endif
 247:Middlewares/ST/threadx/ports/cortex_m4/gnu/inc/tx_port.h **** 
 248:Middlewares/ST/threadx/ports/cortex_m4/gnu/inc/tx_port.h **** 
 249:Middlewares/ST/threadx/ports/cortex_m4/gnu/inc/tx_port.h **** #define TX_THREAD_EXTENSION_3
 250:Middlewares/ST/threadx/ports/cortex_m4/gnu/inc/tx_port.h **** 
 251:Middlewares/ST/threadx/ports/cortex_m4/gnu/inc/tx_port.h **** 
 252:Middlewares/ST/threadx/ports/cortex_m4/gnu/inc/tx_port.h **** 
 253:Middlewares/ST/threadx/ports/cortex_m4/gnu/inc/tx_port.h **** /* Define the port extensions of the remaining ThreadX objects.  */
 254:Middlewares/ST/threadx/ports/cortex_m4/gnu/inc/tx_port.h **** 
 255:Middlewares/ST/threadx/ports/cortex_m4/gnu/inc/tx_port.h **** #define TX_BLOCK_POOL_EXTENSION
 256:Middlewares/ST/threadx/ports/cortex_m4/gnu/inc/tx_port.h **** #define TX_BYTE_POOL_EXTENSION
 257:Middlewares/ST/threadx/ports/cortex_m4/gnu/inc/tx_port.h **** #define TX_EVENT_FLAGS_GROUP_EXTENSION
 258:Middlewares/ST/threadx/ports/cortex_m4/gnu/inc/tx_port.h **** #define TX_MUTEX_EXTENSION
 259:Middlewares/ST/threadx/ports/cortex_m4/gnu/inc/tx_port.h **** #define TX_QUEUE_EXTENSION
 260:Middlewares/ST/threadx/ports/cortex_m4/gnu/inc/tx_port.h **** #define TX_SEMAPHORE_EXTENSION
ARM GAS  C:\Users\HP\AppData\Local\Temp\ccmUfyBM.s 			page 31


 261:Middlewares/ST/threadx/ports/cortex_m4/gnu/inc/tx_port.h **** #define TX_TIMER_EXTENSION
 262:Middlewares/ST/threadx/ports/cortex_m4/gnu/inc/tx_port.h **** 
 263:Middlewares/ST/threadx/ports/cortex_m4/gnu/inc/tx_port.h **** 
 264:Middlewares/ST/threadx/ports/cortex_m4/gnu/inc/tx_port.h **** /* Define the user extension field of the thread control block.  Nothing
 265:Middlewares/ST/threadx/ports/cortex_m4/gnu/inc/tx_port.h ****    additional is needed for this port so it is defined as white space.  */
 266:Middlewares/ST/threadx/ports/cortex_m4/gnu/inc/tx_port.h **** 
 267:Middlewares/ST/threadx/ports/cortex_m4/gnu/inc/tx_port.h **** #ifndef TX_THREAD_USER_EXTENSION
 268:Middlewares/ST/threadx/ports/cortex_m4/gnu/inc/tx_port.h **** #define TX_THREAD_USER_EXTENSION
 269:Middlewares/ST/threadx/ports/cortex_m4/gnu/inc/tx_port.h **** #endif
 270:Middlewares/ST/threadx/ports/cortex_m4/gnu/inc/tx_port.h **** 
 271:Middlewares/ST/threadx/ports/cortex_m4/gnu/inc/tx_port.h **** 
 272:Middlewares/ST/threadx/ports/cortex_m4/gnu/inc/tx_port.h **** /* Define the macros for processing extensions in tx_thread_create, tx_thread_delete,
 273:Middlewares/ST/threadx/ports/cortex_m4/gnu/inc/tx_port.h ****    tx_thread_shell_entry, and tx_thread_terminate.  */
 274:Middlewares/ST/threadx/ports/cortex_m4/gnu/inc/tx_port.h **** 
 275:Middlewares/ST/threadx/ports/cortex_m4/gnu/inc/tx_port.h **** 
 276:Middlewares/ST/threadx/ports/cortex_m4/gnu/inc/tx_port.h **** #ifdef  TX_ENABLE_IAR_LIBRARY_SUPPORT
 277:Middlewares/ST/threadx/ports/cortex_m4/gnu/inc/tx_port.h **** #if (__VER__ < 8000000)
 278:Middlewares/ST/threadx/ports/cortex_m4/gnu/inc/tx_port.h **** #define TX_THREAD_CREATE_EXTENSION(thread_ptr)                      thread_ptr -> tx_thread_iar_tls
 279:Middlewares/ST/threadx/ports/cortex_m4/gnu/inc/tx_port.h **** #define TX_THREAD_DELETE_EXTENSION(thread_ptr)                      __iar_dlib_perthread_deallocate
 280:Middlewares/ST/threadx/ports/cortex_m4/gnu/inc/tx_port.h ****                                                                     thread_ptr -> tx_thread_iar_tls
 281:Middlewares/ST/threadx/ports/cortex_m4/gnu/inc/tx_port.h **** #define TX_PORT_SPECIFIC_PRE_SCHEDULER_INITIALIZATION               __iar_dlib_perthread_access(0);
 282:Middlewares/ST/threadx/ports/cortex_m4/gnu/inc/tx_port.h **** #else
 283:Middlewares/ST/threadx/ports/cortex_m4/gnu/inc/tx_port.h **** void    *_tx_iar_create_per_thread_tls_area(void);
 284:Middlewares/ST/threadx/ports/cortex_m4/gnu/inc/tx_port.h **** void    _tx_iar_destroy_per_thread_tls_area(void *tls_ptr);
 285:Middlewares/ST/threadx/ports/cortex_m4/gnu/inc/tx_port.h **** void    __iar_Initlocks(void);
 286:Middlewares/ST/threadx/ports/cortex_m4/gnu/inc/tx_port.h **** 
 287:Middlewares/ST/threadx/ports/cortex_m4/gnu/inc/tx_port.h **** #define TX_THREAD_CREATE_EXTENSION(thread_ptr)                      thread_ptr -> tx_thread_iar_tls
 288:Middlewares/ST/threadx/ports/cortex_m4/gnu/inc/tx_port.h **** #define TX_THREAD_DELETE_EXTENSION(thread_ptr)                      do {_tx_iar_destroy_per_thread_
 289:Middlewares/ST/threadx/ports/cortex_m4/gnu/inc/tx_port.h ****                                                                         thread_ptr -> tx_thread_iar
 290:Middlewares/ST/threadx/ports/cortex_m4/gnu/inc/tx_port.h **** #define TX_PORT_SPECIFIC_PRE_SCHEDULER_INITIALIZATION               do {__iar_Initlocks();} while(0
 291:Middlewares/ST/threadx/ports/cortex_m4/gnu/inc/tx_port.h **** #endif
 292:Middlewares/ST/threadx/ports/cortex_m4/gnu/inc/tx_port.h **** #else
 293:Middlewares/ST/threadx/ports/cortex_m4/gnu/inc/tx_port.h **** #define TX_THREAD_CREATE_EXTENSION(thread_ptr)
 294:Middlewares/ST/threadx/ports/cortex_m4/gnu/inc/tx_port.h **** #define TX_THREAD_DELETE_EXTENSION(thread_ptr)
 295:Middlewares/ST/threadx/ports/cortex_m4/gnu/inc/tx_port.h **** #endif
 296:Middlewares/ST/threadx/ports/cortex_m4/gnu/inc/tx_port.h **** 
 297:Middlewares/ST/threadx/ports/cortex_m4/gnu/inc/tx_port.h **** #if defined(__ARMVFP__) || defined(__ARM_PCS_VFP) || defined(__ARM_FP) || defined(__TARGET_FPU_VFP)
 298:Middlewares/ST/threadx/ports/cortex_m4/gnu/inc/tx_port.h **** 
 299:Middlewares/ST/threadx/ports/cortex_m4/gnu/inc/tx_port.h **** #ifdef TX_MISRA_ENABLE
 300:Middlewares/ST/threadx/ports/cortex_m4/gnu/inc/tx_port.h **** 
 301:Middlewares/ST/threadx/ports/cortex_m4/gnu/inc/tx_port.h **** ULONG  _tx_misra_control_get(void);
 302:Middlewares/ST/threadx/ports/cortex_m4/gnu/inc/tx_port.h **** void   _tx_misra_control_set(ULONG value);
 303:Middlewares/ST/threadx/ports/cortex_m4/gnu/inc/tx_port.h **** ULONG  _tx_misra_fpccr_get(void);
 304:Middlewares/ST/threadx/ports/cortex_m4/gnu/inc/tx_port.h **** void   _tx_misra_vfp_touch(void);
 305:Middlewares/ST/threadx/ports/cortex_m4/gnu/inc/tx_port.h **** 
 306:Middlewares/ST/threadx/ports/cortex_m4/gnu/inc/tx_port.h **** #else   /* TX_MISRA_ENABLE not defined */
 307:Middlewares/ST/threadx/ports/cortex_m4/gnu/inc/tx_port.h **** 
 308:Middlewares/ST/threadx/ports/cortex_m4/gnu/inc/tx_port.h **** /* Define some helper functions (these are intrinsics in some compilers). */
 309:Middlewares/ST/threadx/ports/cortex_m4/gnu/inc/tx_port.h **** #ifdef __GNUC__ /* GCC and ARM Compiler 6 */
 310:Middlewares/ST/threadx/ports/cortex_m4/gnu/inc/tx_port.h **** 
 311:Middlewares/ST/threadx/ports/cortex_m4/gnu/inc/tx_port.h **** __attribute__( ( always_inline ) ) static inline ULONG __get_control_value(void)
 312:Middlewares/ST/threadx/ports/cortex_m4/gnu/inc/tx_port.h **** {
 313:Middlewares/ST/threadx/ports/cortex_m4/gnu/inc/tx_port.h **** ULONG  control_value;
 314:Middlewares/ST/threadx/ports/cortex_m4/gnu/inc/tx_port.h **** 
 315:Middlewares/ST/threadx/ports/cortex_m4/gnu/inc/tx_port.h ****     __asm__ volatile (" MRS  %0,CONTROL ": "=r" (control_value) );
 316:Middlewares/ST/threadx/ports/cortex_m4/gnu/inc/tx_port.h ****     return(control_value);
 317:Middlewares/ST/threadx/ports/cortex_m4/gnu/inc/tx_port.h **** }
ARM GAS  C:\Users\HP\AppData\Local\Temp\ccmUfyBM.s 			page 32


 318:Middlewares/ST/threadx/ports/cortex_m4/gnu/inc/tx_port.h **** 
 319:Middlewares/ST/threadx/ports/cortex_m4/gnu/inc/tx_port.h **** __attribute__( ( always_inline ) ) static inline void __set_control_value(ULONG control_value)
 320:Middlewares/ST/threadx/ports/cortex_m4/gnu/inc/tx_port.h **** {
 321:Middlewares/ST/threadx/ports/cortex_m4/gnu/inc/tx_port.h ****     __asm__ volatile (" MSR  CONTROL,%0": : "r" (control_value): "memory" );
 322:Middlewares/ST/threadx/ports/cortex_m4/gnu/inc/tx_port.h **** }
 323:Middlewares/ST/threadx/ports/cortex_m4/gnu/inc/tx_port.h **** 
 324:Middlewares/ST/threadx/ports/cortex_m4/gnu/inc/tx_port.h **** #define TX_VFP_TOUCH()  __asm__ volatile ("VMOV.F32 s0, s0");
 325:Middlewares/ST/threadx/ports/cortex_m4/gnu/inc/tx_port.h **** 
 326:Middlewares/ST/threadx/ports/cortex_m4/gnu/inc/tx_port.h **** #elif defined(__CC_ARM) /* ARM Compiler 5 */
 327:Middlewares/ST/threadx/ports/cortex_m4/gnu/inc/tx_port.h **** 
 328:Middlewares/ST/threadx/ports/cortex_m4/gnu/inc/tx_port.h **** __attribute__( ( always_inline ) ) ULONG __get_control_value(void)
 329:Middlewares/ST/threadx/ports/cortex_m4/gnu/inc/tx_port.h **** {
 330:Middlewares/ST/threadx/ports/cortex_m4/gnu/inc/tx_port.h **** ULONG  control_value;
 331:Middlewares/ST/threadx/ports/cortex_m4/gnu/inc/tx_port.h **** 
 332:Middlewares/ST/threadx/ports/cortex_m4/gnu/inc/tx_port.h ****     __asm volatile ("MRS control_value,CONTROL");
 333:Middlewares/ST/threadx/ports/cortex_m4/gnu/inc/tx_port.h ****     return(control_value);
 334:Middlewares/ST/threadx/ports/cortex_m4/gnu/inc/tx_port.h **** }
 335:Middlewares/ST/threadx/ports/cortex_m4/gnu/inc/tx_port.h **** 
 336:Middlewares/ST/threadx/ports/cortex_m4/gnu/inc/tx_port.h **** __attribute__( ( always_inline ) ) void __set_control_value(ULONG control_value)
 337:Middlewares/ST/threadx/ports/cortex_m4/gnu/inc/tx_port.h **** {
 338:Middlewares/ST/threadx/ports/cortex_m4/gnu/inc/tx_port.h ****     __asm__ volatile ("MSR CONTROL,control_value");
 339:Middlewares/ST/threadx/ports/cortex_m4/gnu/inc/tx_port.h **** }
 340:Middlewares/ST/threadx/ports/cortex_m4/gnu/inc/tx_port.h **** /* Can't access VFP registers with inline asm, so define this in tx_thread_schedule.  */
 341:Middlewares/ST/threadx/ports/cortex_m4/gnu/inc/tx_port.h **** void _tx_vfp_access(void);
 342:Middlewares/ST/threadx/ports/cortex_m4/gnu/inc/tx_port.h **** #define TX_VFP_TOUCH()  _tx_vfp_access();
 343:Middlewares/ST/threadx/ports/cortex_m4/gnu/inc/tx_port.h **** 
 344:Middlewares/ST/threadx/ports/cortex_m4/gnu/inc/tx_port.h **** #elif defined(__ICCARM__)  /* IAR */
 345:Middlewares/ST/threadx/ports/cortex_m4/gnu/inc/tx_port.h **** #define TX_VFP_TOUCH()  __asm__ volatile ("VMOV.F32 s0, s0");
 346:Middlewares/ST/threadx/ports/cortex_m4/gnu/inc/tx_port.h **** #endif  /* Helper functions for different compilers */
 347:Middlewares/ST/threadx/ports/cortex_m4/gnu/inc/tx_port.h **** 
 348:Middlewares/ST/threadx/ports/cortex_m4/gnu/inc/tx_port.h **** #endif  /* TX_MISRA_ENABLE */
 349:Middlewares/ST/threadx/ports/cortex_m4/gnu/inc/tx_port.h **** 
 350:Middlewares/ST/threadx/ports/cortex_m4/gnu/inc/tx_port.h **** 
 351:Middlewares/ST/threadx/ports/cortex_m4/gnu/inc/tx_port.h **** /* A completed thread falls into _thread_shell_entry and we can simply deactivate the FPU via CONTR
 352:Middlewares/ST/threadx/ports/cortex_m4/gnu/inc/tx_port.h ****    in order to ensure no lazy stacking will occur. */
 353:Middlewares/ST/threadx/ports/cortex_m4/gnu/inc/tx_port.h **** 
 354:Middlewares/ST/threadx/ports/cortex_m4/gnu/inc/tx_port.h **** #ifndef TX_MISRA_ENABLE
 355:Middlewares/ST/threadx/ports/cortex_m4/gnu/inc/tx_port.h **** 
 356:Middlewares/ST/threadx/ports/cortex_m4/gnu/inc/tx_port.h **** #define TX_THREAD_COMPLETED_EXTENSION(thread_ptr)   {                                              
 357:Middlewares/ST/threadx/ports/cortex_m4/gnu/inc/tx_port.h ****                                                     ULONG  _tx_vfp_state;                          
 358:Middlewares/ST/threadx/ports/cortex_m4/gnu/inc/tx_port.h ****                                                         _tx_vfp_state =  __get_control_value();    
 359:Middlewares/ST/threadx/ports/cortex_m4/gnu/inc/tx_port.h ****                                                         _tx_vfp_state =  _tx_vfp_state & ~((ULONG) 
 360:Middlewares/ST/threadx/ports/cortex_m4/gnu/inc/tx_port.h ****                                                         __set_control_value(_tx_vfp_state);        
 361:Middlewares/ST/threadx/ports/cortex_m4/gnu/inc/tx_port.h ****                                                     }
 362:Middlewares/ST/threadx/ports/cortex_m4/gnu/inc/tx_port.h **** #else
 363:Middlewares/ST/threadx/ports/cortex_m4/gnu/inc/tx_port.h **** 
 364:Middlewares/ST/threadx/ports/cortex_m4/gnu/inc/tx_port.h **** #define TX_THREAD_COMPLETED_EXTENSION(thread_ptr)   {                                              
 365:Middlewares/ST/threadx/ports/cortex_m4/gnu/inc/tx_port.h ****                                                     ULONG  _tx_vfp_state;                          
 366:Middlewares/ST/threadx/ports/cortex_m4/gnu/inc/tx_port.h ****                                                         _tx_vfp_state =  _tx_misra_control_get();  
 367:Middlewares/ST/threadx/ports/cortex_m4/gnu/inc/tx_port.h ****                                                         _tx_vfp_state =  _tx_vfp_state & ~((ULONG) 
 368:Middlewares/ST/threadx/ports/cortex_m4/gnu/inc/tx_port.h ****                                                         _tx_misra_control_set(_tx_vfp_state);      
 369:Middlewares/ST/threadx/ports/cortex_m4/gnu/inc/tx_port.h ****                                                     }
 370:Middlewares/ST/threadx/ports/cortex_m4/gnu/inc/tx_port.h **** 
 371:Middlewares/ST/threadx/ports/cortex_m4/gnu/inc/tx_port.h **** #endif
 372:Middlewares/ST/threadx/ports/cortex_m4/gnu/inc/tx_port.h **** 
 373:Middlewares/ST/threadx/ports/cortex_m4/gnu/inc/tx_port.h **** /* A thread can be terminated by another thread, so we first check if it's self-terminating and not
 374:Middlewares/ST/threadx/ports/cortex_m4/gnu/inc/tx_port.h ****    If so, deactivate the FPU via CONTROL.FPCA. Otherwise we are in an interrupt or another thread i
ARM GAS  C:\Users\HP\AppData\Local\Temp\ccmUfyBM.s 			page 33


 375:Middlewares/ST/threadx/ports/cortex_m4/gnu/inc/tx_port.h ****    this one, so if the FPCCR.LSPACT bit is set, we need to save the CONTROL.FPCA state, touch the F
 376:Middlewares/ST/threadx/ports/cortex_m4/gnu/inc/tx_port.h ****    the lazy FPU save, then restore the CONTROL.FPCA state. */
 377:Middlewares/ST/threadx/ports/cortex_m4/gnu/inc/tx_port.h **** 
 378:Middlewares/ST/threadx/ports/cortex_m4/gnu/inc/tx_port.h **** #ifndef TX_MISRA_ENABLE
 379:Middlewares/ST/threadx/ports/cortex_m4/gnu/inc/tx_port.h **** 
 380:Middlewares/ST/threadx/ports/cortex_m4/gnu/inc/tx_port.h **** #define TX_THREAD_TERMINATED_EXTENSION(thread_ptr)  {                                              
 381:Middlewares/ST/threadx/ports/cortex_m4/gnu/inc/tx_port.h ****                                                     ULONG  _tx_system_state;                       
 382:Middlewares/ST/threadx/ports/cortex_m4/gnu/inc/tx_port.h ****                                                         _tx_system_state =  TX_THREAD_GET_SYSTEM_ST
 383:Middlewares/ST/threadx/ports/cortex_m4/gnu/inc/tx_port.h ****                                                         if ((_tx_system_state == ((ULONG) 0)) && ((
 384:Middlewares/ST/threadx/ports/cortex_m4/gnu/inc/tx_port.h ****                                                         {                                          
 385:Middlewares/ST/threadx/ports/cortex_m4/gnu/inc/tx_port.h ****                                                         ULONG  _tx_vfp_state;                      
 386:Middlewares/ST/threadx/ports/cortex_m4/gnu/inc/tx_port.h ****                                                             _tx_vfp_state =  __get_control_value();
 387:Middlewares/ST/threadx/ports/cortex_m4/gnu/inc/tx_port.h ****                                                             _tx_vfp_state =  _tx_vfp_state & ~((ULO
 388:Middlewares/ST/threadx/ports/cortex_m4/gnu/inc/tx_port.h ****                                                             __set_control_value(_tx_vfp_state);    
 389:Middlewares/ST/threadx/ports/cortex_m4/gnu/inc/tx_port.h ****                                                         }                                          
 390:Middlewares/ST/threadx/ports/cortex_m4/gnu/inc/tx_port.h ****                                                         else                                       
 391:Middlewares/ST/threadx/ports/cortex_m4/gnu/inc/tx_port.h ****                                                         {                                          
 392:Middlewares/ST/threadx/ports/cortex_m4/gnu/inc/tx_port.h ****                                                         ULONG  _tx_fpccr;                          
 393:Middlewares/ST/threadx/ports/cortex_m4/gnu/inc/tx_port.h ****                                                             _tx_fpccr =  *((volatile ULONG *) 0xE00
 394:Middlewares/ST/threadx/ports/cortex_m4/gnu/inc/tx_port.h ****                                                             _tx_fpccr =  _tx_fpccr & ((ULONG) 0x01)
 395:Middlewares/ST/threadx/ports/cortex_m4/gnu/inc/tx_port.h ****                                                             if (_tx_fpccr == ((ULONG) 0x01))       
 396:Middlewares/ST/threadx/ports/cortex_m4/gnu/inc/tx_port.h ****                                                             {                                      
 397:Middlewares/ST/threadx/ports/cortex_m4/gnu/inc/tx_port.h ****                                                             ULONG _tx_vfp_state;                   
 398:Middlewares/ST/threadx/ports/cortex_m4/gnu/inc/tx_port.h ****                                                                 _tx_vfp_state = __get_control_value
 399:Middlewares/ST/threadx/ports/cortex_m4/gnu/inc/tx_port.h ****                                                                 _tx_vfp_state =  _tx_vfp_state & ((
 400:Middlewares/ST/threadx/ports/cortex_m4/gnu/inc/tx_port.h ****                                                                 TX_VFP_TOUCH();                    
 401:Middlewares/ST/threadx/ports/cortex_m4/gnu/inc/tx_port.h ****                                                                 if (_tx_vfp_state == ((ULONG) 0))  
 402:Middlewares/ST/threadx/ports/cortex_m4/gnu/inc/tx_port.h ****                                                                 {                                  
 403:Middlewares/ST/threadx/ports/cortex_m4/gnu/inc/tx_port.h ****                                                                     _tx_vfp_state =  __get_control_
 404:Middlewares/ST/threadx/ports/cortex_m4/gnu/inc/tx_port.h ****                                                                     _tx_vfp_state =  _tx_vfp_state 
 405:Middlewares/ST/threadx/ports/cortex_m4/gnu/inc/tx_port.h ****                                                                     __set_control_value(_tx_vfp_sta
 406:Middlewares/ST/threadx/ports/cortex_m4/gnu/inc/tx_port.h ****                                                                 }                                  
 407:Middlewares/ST/threadx/ports/cortex_m4/gnu/inc/tx_port.h ****                                                             }                                      
 408:Middlewares/ST/threadx/ports/cortex_m4/gnu/inc/tx_port.h ****                                                         }                                          
 409:Middlewares/ST/threadx/ports/cortex_m4/gnu/inc/tx_port.h ****                                                     }
 410:Middlewares/ST/threadx/ports/cortex_m4/gnu/inc/tx_port.h **** #else
 411:Middlewares/ST/threadx/ports/cortex_m4/gnu/inc/tx_port.h **** 
 412:Middlewares/ST/threadx/ports/cortex_m4/gnu/inc/tx_port.h **** #define TX_THREAD_TERMINATED_EXTENSION(thread_ptr)  {                                              
 413:Middlewares/ST/threadx/ports/cortex_m4/gnu/inc/tx_port.h ****                                                     ULONG  _tx_system_state;                       
 414:Middlewares/ST/threadx/ports/cortex_m4/gnu/inc/tx_port.h ****                                                         _tx_system_state =  TX_THREAD_GET_SYSTEM_ST
 415:Middlewares/ST/threadx/ports/cortex_m4/gnu/inc/tx_port.h ****                                                         if ((_tx_system_state == ((ULONG) 0)) && ((
 416:Middlewares/ST/threadx/ports/cortex_m4/gnu/inc/tx_port.h ****                                                         {                                          
 417:Middlewares/ST/threadx/ports/cortex_m4/gnu/inc/tx_port.h ****                                                         ULONG  _tx_vfp_state;                      
 418:Middlewares/ST/threadx/ports/cortex_m4/gnu/inc/tx_port.h ****                                                             _tx_vfp_state =  _tx_misra_control_get(
 419:Middlewares/ST/threadx/ports/cortex_m4/gnu/inc/tx_port.h ****                                                             _tx_vfp_state =  _tx_vfp_state & ~((ULO
 420:Middlewares/ST/threadx/ports/cortex_m4/gnu/inc/tx_port.h ****                                                             _tx_misra_control_set(_tx_vfp_state);  
 421:Middlewares/ST/threadx/ports/cortex_m4/gnu/inc/tx_port.h ****                                                         }                                          
 422:Middlewares/ST/threadx/ports/cortex_m4/gnu/inc/tx_port.h ****                                                         else                                       
 423:Middlewares/ST/threadx/ports/cortex_m4/gnu/inc/tx_port.h ****                                                         {                                          
 424:Middlewares/ST/threadx/ports/cortex_m4/gnu/inc/tx_port.h ****                                                         ULONG  _tx_fpccr;                          
 425:Middlewares/ST/threadx/ports/cortex_m4/gnu/inc/tx_port.h ****                                                             _tx_fpccr =  _tx_misra_fpccr_get();    
 426:Middlewares/ST/threadx/ports/cortex_m4/gnu/inc/tx_port.h ****                                                             _tx_fpccr =  _tx_fpccr & ((ULONG) 0x01)
 427:Middlewares/ST/threadx/ports/cortex_m4/gnu/inc/tx_port.h ****                                                             if (_tx_fpccr == ((ULONG) 0x01))       
 428:Middlewares/ST/threadx/ports/cortex_m4/gnu/inc/tx_port.h ****                                                             {                                      
 429:Middlewares/ST/threadx/ports/cortex_m4/gnu/inc/tx_port.h ****                                                             ULONG _tx_vfp_state;                   
 430:Middlewares/ST/threadx/ports/cortex_m4/gnu/inc/tx_port.h ****                                                                 _tx_vfp_state = _tx_misra_control_g
 431:Middlewares/ST/threadx/ports/cortex_m4/gnu/inc/tx_port.h ****                                                                 _tx_vfp_state =  _tx_vfp_state & ((
ARM GAS  C:\Users\HP\AppData\Local\Temp\ccmUfyBM.s 			page 34


 432:Middlewares/ST/threadx/ports/cortex_m4/gnu/inc/tx_port.h ****                                                                 _tx_misra_vfp_touch();             
 433:Middlewares/ST/threadx/ports/cortex_m4/gnu/inc/tx_port.h ****                                                                 if (_tx_vfp_state == ((ULONG) 0))  
 434:Middlewares/ST/threadx/ports/cortex_m4/gnu/inc/tx_port.h ****                                                                 {                                  
 435:Middlewares/ST/threadx/ports/cortex_m4/gnu/inc/tx_port.h ****                                                                     _tx_vfp_state =  _tx_misra_cont
 436:Middlewares/ST/threadx/ports/cortex_m4/gnu/inc/tx_port.h ****                                                                     _tx_vfp_state =  _tx_vfp_state 
 437:Middlewares/ST/threadx/ports/cortex_m4/gnu/inc/tx_port.h ****                                                                     _tx_misra_control_set(_tx_vfp_s
 438:Middlewares/ST/threadx/ports/cortex_m4/gnu/inc/tx_port.h ****                                                                 }                                  
 439:Middlewares/ST/threadx/ports/cortex_m4/gnu/inc/tx_port.h ****                                                             }                                      
 440:Middlewares/ST/threadx/ports/cortex_m4/gnu/inc/tx_port.h ****                                                         }                                          
 441:Middlewares/ST/threadx/ports/cortex_m4/gnu/inc/tx_port.h ****                                                     }
 442:Middlewares/ST/threadx/ports/cortex_m4/gnu/inc/tx_port.h **** #endif
 443:Middlewares/ST/threadx/ports/cortex_m4/gnu/inc/tx_port.h **** 
 444:Middlewares/ST/threadx/ports/cortex_m4/gnu/inc/tx_port.h **** #else   /* No VFP in use */
 445:Middlewares/ST/threadx/ports/cortex_m4/gnu/inc/tx_port.h **** 
 446:Middlewares/ST/threadx/ports/cortex_m4/gnu/inc/tx_port.h **** #define TX_THREAD_COMPLETED_EXTENSION(thread_ptr)
 447:Middlewares/ST/threadx/ports/cortex_m4/gnu/inc/tx_port.h **** #define TX_THREAD_TERMINATED_EXTENSION(thread_ptr)
 448:Middlewares/ST/threadx/ports/cortex_m4/gnu/inc/tx_port.h **** 
 449:Middlewares/ST/threadx/ports/cortex_m4/gnu/inc/tx_port.h **** #endif  /* defined(__ARMVFP__) || defined(__ARM_PCS_VFP) || defined(__ARM_FP) || defined(__TARGET_F
 450:Middlewares/ST/threadx/ports/cortex_m4/gnu/inc/tx_port.h **** 
 451:Middlewares/ST/threadx/ports/cortex_m4/gnu/inc/tx_port.h **** 
 452:Middlewares/ST/threadx/ports/cortex_m4/gnu/inc/tx_port.h **** /* Define the ThreadX object creation extensions for the remaining objects.  */
 453:Middlewares/ST/threadx/ports/cortex_m4/gnu/inc/tx_port.h **** 
 454:Middlewares/ST/threadx/ports/cortex_m4/gnu/inc/tx_port.h **** #define TX_BLOCK_POOL_CREATE_EXTENSION(pool_ptr)
 455:Middlewares/ST/threadx/ports/cortex_m4/gnu/inc/tx_port.h **** #define TX_BYTE_POOL_CREATE_EXTENSION(pool_ptr)
 456:Middlewares/ST/threadx/ports/cortex_m4/gnu/inc/tx_port.h **** #define TX_EVENT_FLAGS_GROUP_CREATE_EXTENSION(group_ptr)
 457:Middlewares/ST/threadx/ports/cortex_m4/gnu/inc/tx_port.h **** #define TX_MUTEX_CREATE_EXTENSION(mutex_ptr)
 458:Middlewares/ST/threadx/ports/cortex_m4/gnu/inc/tx_port.h **** #define TX_QUEUE_CREATE_EXTENSION(queue_ptr)
 459:Middlewares/ST/threadx/ports/cortex_m4/gnu/inc/tx_port.h **** #define TX_SEMAPHORE_CREATE_EXTENSION(semaphore_ptr)
 460:Middlewares/ST/threadx/ports/cortex_m4/gnu/inc/tx_port.h **** #define TX_TIMER_CREATE_EXTENSION(timer_ptr)
 461:Middlewares/ST/threadx/ports/cortex_m4/gnu/inc/tx_port.h **** 
 462:Middlewares/ST/threadx/ports/cortex_m4/gnu/inc/tx_port.h **** 
 463:Middlewares/ST/threadx/ports/cortex_m4/gnu/inc/tx_port.h **** /* Define the ThreadX object deletion extensions for the remaining objects.  */
 464:Middlewares/ST/threadx/ports/cortex_m4/gnu/inc/tx_port.h **** 
 465:Middlewares/ST/threadx/ports/cortex_m4/gnu/inc/tx_port.h **** #define TX_BLOCK_POOL_DELETE_EXTENSION(pool_ptr)
 466:Middlewares/ST/threadx/ports/cortex_m4/gnu/inc/tx_port.h **** #define TX_BYTE_POOL_DELETE_EXTENSION(pool_ptr)
 467:Middlewares/ST/threadx/ports/cortex_m4/gnu/inc/tx_port.h **** #define TX_EVENT_FLAGS_GROUP_DELETE_EXTENSION(group_ptr)
 468:Middlewares/ST/threadx/ports/cortex_m4/gnu/inc/tx_port.h **** #define TX_MUTEX_DELETE_EXTENSION(mutex_ptr)
 469:Middlewares/ST/threadx/ports/cortex_m4/gnu/inc/tx_port.h **** #define TX_QUEUE_DELETE_EXTENSION(queue_ptr)
 470:Middlewares/ST/threadx/ports/cortex_m4/gnu/inc/tx_port.h **** #define TX_SEMAPHORE_DELETE_EXTENSION(semaphore_ptr)
 471:Middlewares/ST/threadx/ports/cortex_m4/gnu/inc/tx_port.h **** #define TX_TIMER_DELETE_EXTENSION(timer_ptr)
 472:Middlewares/ST/threadx/ports/cortex_m4/gnu/inc/tx_port.h **** 
 473:Middlewares/ST/threadx/ports/cortex_m4/gnu/inc/tx_port.h **** 
 474:Middlewares/ST/threadx/ports/cortex_m4/gnu/inc/tx_port.h **** /* Define the get system state macro.  */
 475:Middlewares/ST/threadx/ports/cortex_m4/gnu/inc/tx_port.h **** 
 476:Middlewares/ST/threadx/ports/cortex_m4/gnu/inc/tx_port.h **** #ifndef TX_THREAD_GET_SYSTEM_STATE
 477:Middlewares/ST/threadx/ports/cortex_m4/gnu/inc/tx_port.h **** #ifndef TX_MISRA_ENABLE
 478:Middlewares/ST/threadx/ports/cortex_m4/gnu/inc/tx_port.h **** 
 479:Middlewares/ST/threadx/ports/cortex_m4/gnu/inc/tx_port.h **** #ifdef __CC_ARM /* ARM Compiler 5 */
 480:Middlewares/ST/threadx/ports/cortex_m4/gnu/inc/tx_port.h **** 
 481:Middlewares/ST/threadx/ports/cortex_m4/gnu/inc/tx_port.h **** register unsigned int _ipsr __asm("ipsr");
 482:Middlewares/ST/threadx/ports/cortex_m4/gnu/inc/tx_port.h **** #define TX_THREAD_GET_SYSTEM_STATE()        (_tx_thread_system_state | _ipsr)
 483:Middlewares/ST/threadx/ports/cortex_m4/gnu/inc/tx_port.h **** 
 484:Middlewares/ST/threadx/ports/cortex_m4/gnu/inc/tx_port.h **** #elif defined(__GNUC__) /* GCC and ARM Compiler 6 */
 485:Middlewares/ST/threadx/ports/cortex_m4/gnu/inc/tx_port.h **** 
 486:Middlewares/ST/threadx/ports/cortex_m4/gnu/inc/tx_port.h **** __attribute__( ( always_inline ) ) static inline unsigned int __get_ipsr_value(void)
 487:Middlewares/ST/threadx/ports/cortex_m4/gnu/inc/tx_port.h **** {
 488:Middlewares/ST/threadx/ports/cortex_m4/gnu/inc/tx_port.h **** unsigned int  ipsr_value;
ARM GAS  C:\Users\HP\AppData\Local\Temp\ccmUfyBM.s 			page 35


 489:Middlewares/ST/threadx/ports/cortex_m4/gnu/inc/tx_port.h ****     __asm__ volatile (" MRS  %0,IPSR ": "=r" (ipsr_value) );
 490:Middlewares/ST/threadx/ports/cortex_m4/gnu/inc/tx_port.h ****     return(ipsr_value);
 491:Middlewares/ST/threadx/ports/cortex_m4/gnu/inc/tx_port.h **** }
 492:Middlewares/ST/threadx/ports/cortex_m4/gnu/inc/tx_port.h **** 
 493:Middlewares/ST/threadx/ports/cortex_m4/gnu/inc/tx_port.h **** #define TX_THREAD_GET_SYSTEM_STATE()        (_tx_thread_system_state | __get_ipsr_value())
 494:Middlewares/ST/threadx/ports/cortex_m4/gnu/inc/tx_port.h **** 
 495:Middlewares/ST/threadx/ports/cortex_m4/gnu/inc/tx_port.h **** #elif defined(__ICCARM__)   /* IAR */
 496:Middlewares/ST/threadx/ports/cortex_m4/gnu/inc/tx_port.h **** 
 497:Middlewares/ST/threadx/ports/cortex_m4/gnu/inc/tx_port.h **** #define TX_THREAD_GET_SYSTEM_STATE()        (_tx_thread_system_state | __get_IPSR())
 498:Middlewares/ST/threadx/ports/cortex_m4/gnu/inc/tx_port.h **** 
 499:Middlewares/ST/threadx/ports/cortex_m4/gnu/inc/tx_port.h **** #endif  /* TX_THREAD_GET_SYSTEM_STATE for different compilers */
 500:Middlewares/ST/threadx/ports/cortex_m4/gnu/inc/tx_port.h **** 
 501:Middlewares/ST/threadx/ports/cortex_m4/gnu/inc/tx_port.h **** #else   /* TX_MISRA_ENABLE is defined, use MISRA function. */
 502:Middlewares/ST/threadx/ports/cortex_m4/gnu/inc/tx_port.h **** ULONG   _tx_misra_ipsr_get(VOID);
 503:Middlewares/ST/threadx/ports/cortex_m4/gnu/inc/tx_port.h **** #define TX_THREAD_GET_SYSTEM_STATE()        (_tx_thread_system_state | _tx_misra_ipsr_get())
 504:Middlewares/ST/threadx/ports/cortex_m4/gnu/inc/tx_port.h **** #endif  /* TX_MISRA_ENABLE */
 505:Middlewares/ST/threadx/ports/cortex_m4/gnu/inc/tx_port.h **** #endif  /* TX_THREAD_GET_SYSTEM_STATE */
 506:Middlewares/ST/threadx/ports/cortex_m4/gnu/inc/tx_port.h **** 
 507:Middlewares/ST/threadx/ports/cortex_m4/gnu/inc/tx_port.h **** 
 508:Middlewares/ST/threadx/ports/cortex_m4/gnu/inc/tx_port.h **** /* Define the check for whether or not to call the _tx_thread_system_return function.  A non-zero v
 509:Middlewares/ST/threadx/ports/cortex_m4/gnu/inc/tx_port.h ****    indicates that _tx_thread_system_return should not be called. This overrides the definition in t
 510:Middlewares/ST/threadx/ports/cortex_m4/gnu/inc/tx_port.h ****    for Cortex-M since so we don't waste time checking the _tx_thread_system_state variable that is 
 511:Middlewares/ST/threadx/ports/cortex_m4/gnu/inc/tx_port.h ****    zero after initialization for Cortex-M ports. */
 512:Middlewares/ST/threadx/ports/cortex_m4/gnu/inc/tx_port.h **** 
 513:Middlewares/ST/threadx/ports/cortex_m4/gnu/inc/tx_port.h **** #ifndef TX_THREAD_SYSTEM_RETURN_CHECK
 514:Middlewares/ST/threadx/ports/cortex_m4/gnu/inc/tx_port.h **** #define TX_THREAD_SYSTEM_RETURN_CHECK(c)    (c) = ((ULONG) _tx_thread_preempt_disable);
 515:Middlewares/ST/threadx/ports/cortex_m4/gnu/inc/tx_port.h **** #endif
 516:Middlewares/ST/threadx/ports/cortex_m4/gnu/inc/tx_port.h **** 
 517:Middlewares/ST/threadx/ports/cortex_m4/gnu/inc/tx_port.h **** /* Define the macro to ensure _tx_thread_preempt_disable is set early in initialization in order to
 518:Middlewares/ST/threadx/ports/cortex_m4/gnu/inc/tx_port.h ****    prevent early scheduling on Cortex-M parts.  */
 519:Middlewares/ST/threadx/ports/cortex_m4/gnu/inc/tx_port.h **** 
 520:Middlewares/ST/threadx/ports/cortex_m4/gnu/inc/tx_port.h **** #define TX_PORT_SPECIFIC_POST_INITIALIZATION    _tx_thread_preempt_disable++;
 521:Middlewares/ST/threadx/ports/cortex_m4/gnu/inc/tx_port.h **** 
 522:Middlewares/ST/threadx/ports/cortex_m4/gnu/inc/tx_port.h **** 
 523:Middlewares/ST/threadx/ports/cortex_m4/gnu/inc/tx_port.h **** 
 524:Middlewares/ST/threadx/ports/cortex_m4/gnu/inc/tx_port.h **** 
 525:Middlewares/ST/threadx/ports/cortex_m4/gnu/inc/tx_port.h **** #ifndef TX_DISABLE_INLINE
 526:Middlewares/ST/threadx/ports/cortex_m4/gnu/inc/tx_port.h **** 
 527:Middlewares/ST/threadx/ports/cortex_m4/gnu/inc/tx_port.h **** /* Define the TX_LOWEST_SET_BIT_CALCULATE macro for each compiler. */
 528:Middlewares/ST/threadx/ports/cortex_m4/gnu/inc/tx_port.h **** #ifdef __ICCARM__       /* IAR Compiler */
 529:Middlewares/ST/threadx/ports/cortex_m4/gnu/inc/tx_port.h **** #define TX_LOWEST_SET_BIT_CALCULATE(m, b)       (b) = (UINT) __CLZ(__RBIT((m)));
 530:Middlewares/ST/threadx/ports/cortex_m4/gnu/inc/tx_port.h **** #elif defined(__CC_ARM) /* AC5 Compiler */
 531:Middlewares/ST/threadx/ports/cortex_m4/gnu/inc/tx_port.h **** #define TX_LOWEST_SET_BIT_CALCULATE(m, b)       (b) = (UINT) __clz(__rbit((m)));
 532:Middlewares/ST/threadx/ports/cortex_m4/gnu/inc/tx_port.h **** #elif defined(__GNUC__) /* GCC and AC6 Compiler */
 533:Middlewares/ST/threadx/ports/cortex_m4/gnu/inc/tx_port.h **** #define TX_LOWEST_SET_BIT_CALCULATE(m, b)       __asm__ volatile (" RBIT %0,%1 ": "=r" (m) : "r" (m
 534:Middlewares/ST/threadx/ports/cortex_m4/gnu/inc/tx_port.h ****                                                 __asm__ volatile (" CLZ  %0,%1 ": "=r" (b) : "r" (m
 535:Middlewares/ST/threadx/ports/cortex_m4/gnu/inc/tx_port.h **** #endif
 536:Middlewares/ST/threadx/ports/cortex_m4/gnu/inc/tx_port.h **** 
 537:Middlewares/ST/threadx/ports/cortex_m4/gnu/inc/tx_port.h **** 
 538:Middlewares/ST/threadx/ports/cortex_m4/gnu/inc/tx_port.h **** 
 539:Middlewares/ST/threadx/ports/cortex_m4/gnu/inc/tx_port.h **** /* Define the interrupt disable/restore macros for each compiler. */
 540:Middlewares/ST/threadx/ports/cortex_m4/gnu/inc/tx_port.h **** 
 541:Middlewares/ST/threadx/ports/cortex_m4/gnu/inc/tx_port.h **** #if defined(__GNUC__) || defined(__ICCARM__)
 542:Middlewares/ST/threadx/ports/cortex_m4/gnu/inc/tx_port.h **** 
 543:Middlewares/ST/threadx/ports/cortex_m4/gnu/inc/tx_port.h **** /*** GCC/AC6 and IAR ***/
 544:Middlewares/ST/threadx/ports/cortex_m4/gnu/inc/tx_port.h **** 
 545:Middlewares/ST/threadx/ports/cortex_m4/gnu/inc/tx_port.h **** __attribute__( ( always_inline ) ) static inline unsigned int __get_interrupt_posture(void)
ARM GAS  C:\Users\HP\AppData\Local\Temp\ccmUfyBM.s 			page 36


 546:Middlewares/ST/threadx/ports/cortex_m4/gnu/inc/tx_port.h **** {
 547:Middlewares/ST/threadx/ports/cortex_m4/gnu/inc/tx_port.h **** unsigned int posture;
 548:Middlewares/ST/threadx/ports/cortex_m4/gnu/inc/tx_port.h **** #ifdef TX_PORT_USE_BASEPRI
 549:Middlewares/ST/threadx/ports/cortex_m4/gnu/inc/tx_port.h ****     __asm__ volatile ("MRS  %0, BASEPRI ": "=r" (posture));
 550:Middlewares/ST/threadx/ports/cortex_m4/gnu/inc/tx_port.h **** #else
 551:Middlewares/ST/threadx/ports/cortex_m4/gnu/inc/tx_port.h ****     __asm__ volatile ("MRS  %0, PRIMASK ": "=r" (posture));
 552:Middlewares/ST/threadx/ports/cortex_m4/gnu/inc/tx_port.h **** #endif
 553:Middlewares/ST/threadx/ports/cortex_m4/gnu/inc/tx_port.h ****     return(posture);
 554:Middlewares/ST/threadx/ports/cortex_m4/gnu/inc/tx_port.h **** }
 555:Middlewares/ST/threadx/ports/cortex_m4/gnu/inc/tx_port.h **** 
 556:Middlewares/ST/threadx/ports/cortex_m4/gnu/inc/tx_port.h **** #ifdef TX_PORT_USE_BASEPRI
 557:Middlewares/ST/threadx/ports/cortex_m4/gnu/inc/tx_port.h **** __attribute__( ( always_inline ) ) static inline void __set_basepri_value(unsigned int basepri_valu
 558:Middlewares/ST/threadx/ports/cortex_m4/gnu/inc/tx_port.h **** {
 559:Middlewares/ST/threadx/ports/cortex_m4/gnu/inc/tx_port.h ****     __asm__ volatile ("MSR  BASEPRI,%0 ": : "r" (basepri_value));
 560:Middlewares/ST/threadx/ports/cortex_m4/gnu/inc/tx_port.h **** }
 561:Middlewares/ST/threadx/ports/cortex_m4/gnu/inc/tx_port.h **** #else
 562:Middlewares/ST/threadx/ports/cortex_m4/gnu/inc/tx_port.h **** __attribute__( ( always_inline ) ) static inline void __enable_interrupts(void)
 563:Middlewares/ST/threadx/ports/cortex_m4/gnu/inc/tx_port.h **** {
 564:Middlewares/ST/threadx/ports/cortex_m4/gnu/inc/tx_port.h ****     __asm__ volatile ("CPSIE  i": : : "memory");
 565:Middlewares/ST/threadx/ports/cortex_m4/gnu/inc/tx_port.h **** }
 566:Middlewares/ST/threadx/ports/cortex_m4/gnu/inc/tx_port.h **** #endif
 567:Middlewares/ST/threadx/ports/cortex_m4/gnu/inc/tx_port.h **** 
 568:Middlewares/ST/threadx/ports/cortex_m4/gnu/inc/tx_port.h **** __attribute__( ( always_inline ) ) static inline void __restore_interrupt(unsigned int int_posture)
 569:Middlewares/ST/threadx/ports/cortex_m4/gnu/inc/tx_port.h **** {
 570:Middlewares/ST/threadx/ports/cortex_m4/gnu/inc/tx_port.h **** #ifdef TX_PORT_USE_BASEPRI
 571:Middlewares/ST/threadx/ports/cortex_m4/gnu/inc/tx_port.h ****     __set_basepri_value(int_posture);
 572:Middlewares/ST/threadx/ports/cortex_m4/gnu/inc/tx_port.h ****     //__asm__ volatile ("MSR  BASEPRI,%0": : "r" (int_posture): "memory");
 573:Middlewares/ST/threadx/ports/cortex_m4/gnu/inc/tx_port.h **** #else
 574:Middlewares/ST/threadx/ports/cortex_m4/gnu/inc/tx_port.h ****     __asm__ volatile ("MSR  PRIMASK,%0": : "r" (int_posture): "memory");
 575:Middlewares/ST/threadx/ports/cortex_m4/gnu/inc/tx_port.h **** #endif
 576:Middlewares/ST/threadx/ports/cortex_m4/gnu/inc/tx_port.h **** }
 577:Middlewares/ST/threadx/ports/cortex_m4/gnu/inc/tx_port.h **** 
 578:Middlewares/ST/threadx/ports/cortex_m4/gnu/inc/tx_port.h **** __attribute__( ( always_inline ) ) static inline unsigned int __disable_interrupts(void)
 587              		.loc 2 578 63 view .LVU220
 588              	.LBB11:
 579:Middlewares/ST/threadx/ports/cortex_m4/gnu/inc/tx_port.h **** {
 580:Middlewares/ST/threadx/ports/cortex_m4/gnu/inc/tx_port.h **** unsigned int int_posture;
 589              		.loc 2 580 1 view .LVU221
 581:Middlewares/ST/threadx/ports/cortex_m4/gnu/inc/tx_port.h **** 
 582:Middlewares/ST/threadx/ports/cortex_m4/gnu/inc/tx_port.h ****     int_posture = __get_interrupt_posture();
 590              		.loc 2 582 5 view .LVU222
 591              	.LBB12:
 592              	.LBI12:
 545:Middlewares/ST/threadx/ports/cortex_m4/gnu/inc/tx_port.h **** {
 593              		.loc 2 545 63 view .LVU223
 594              	.LBB13:
 547:Middlewares/ST/threadx/ports/cortex_m4/gnu/inc/tx_port.h **** #ifdef TX_PORT_USE_BASEPRI
 595              		.loc 2 547 1 view .LVU224
 551:Middlewares/ST/threadx/ports/cortex_m4/gnu/inc/tx_port.h **** #endif
 596              		.loc 2 551 5 view .LVU225
 597              		.syntax unified
 598              	@ 551 "Middlewares/ST/threadx/ports/cortex_m4/gnu/inc/tx_port.h" 1
 599 0256 EFF31082 		MRS  r2, PRIMASK 
 600              	@ 0 "" 2
 601              	.LVL42:
 553:Middlewares/ST/threadx/ports/cortex_m4/gnu/inc/tx_port.h **** }
 602              		.loc 2 553 5 view .LVU226
ARM GAS  C:\Users\HP\AppData\Local\Temp\ccmUfyBM.s 			page 37


 553:Middlewares/ST/threadx/ports/cortex_m4/gnu/inc/tx_port.h **** }
 603              		.loc 2 553 5 is_stmt 0 view .LVU227
 604              		.thumb
 605              		.syntax unified
 606              	.LBE13:
 607              	.LBE12:
 583:Middlewares/ST/threadx/ports/cortex_m4/gnu/inc/tx_port.h **** 
 584:Middlewares/ST/threadx/ports/cortex_m4/gnu/inc/tx_port.h **** #ifdef TX_PORT_USE_BASEPRI
 585:Middlewares/ST/threadx/ports/cortex_m4/gnu/inc/tx_port.h ****     __set_basepri_value(TX_PORT_BASEPRI);
 586:Middlewares/ST/threadx/ports/cortex_m4/gnu/inc/tx_port.h **** #else
 587:Middlewares/ST/threadx/ports/cortex_m4/gnu/inc/tx_port.h ****     __asm__ volatile ("CPSID i" : : : "memory");
 608              		.loc 2 587 5 is_stmt 1 view .LVU228
 609              		.syntax unified
 610              	@ 587 "Middlewares/ST/threadx/ports/cortex_m4/gnu/inc/tx_port.h" 1
 611 025a 72B6     		CPSID i
 612              	@ 0 "" 2
 588:Middlewares/ST/threadx/ports/cortex_m4/gnu/inc/tx_port.h **** #endif
 589:Middlewares/ST/threadx/ports/cortex_m4/gnu/inc/tx_port.h ****     return(int_posture);
 613              		.loc 2 589 5 view .LVU229
 614              	.LVL43:
 615              		.loc 2 589 5 is_stmt 0 view .LVU230
 616              		.thumb
 617              		.syntax unified
 618              	.LBE11:
 619              	.LBE10:
 397:Middlewares/ST/filex/common/src/fx_directory_free_search.c ****                 entry_ptr -> fx_dir_entry_created_date =        _fx_system_date;
 620              		.loc 1 397 17 is_stmt 1 view .LVU231
 397:Middlewares/ST/filex/common/src/fx_directory_free_search.c ****                 entry_ptr -> fx_dir_entry_created_date =        _fx_system_date;
 621              		.loc 1 397 56 is_stmt 0 view .LVU232
 622 025c 694B     		ldr	r3, .L96+4
 623 025e 1B68     		ldr	r3, [r3]
 624 0260 CBF82030 		str	r3, [fp, #32]
 398:Middlewares/ST/filex/common/src/fx_directory_free_search.c ****                 entry_ptr -> fx_dir_entry_last_accessed_date =  _fx_system_date;
 625              		.loc 1 398 17 is_stmt 1 view .LVU233
 398:Middlewares/ST/filex/common/src/fx_directory_free_search.c ****                 entry_ptr -> fx_dir_entry_last_accessed_date =  _fx_system_date;
 626              		.loc 1 398 56 is_stmt 0 view .LVU234
 627 0264 684B     		ldr	r3, .L96+8
 628 0266 1B68     		ldr	r3, [r3]
 629 0268 CBF82430 		str	r3, [fp, #36]
 399:Middlewares/ST/filex/common/src/fx_directory_free_search.c **** 
 630              		.loc 1 399 17 is_stmt 1 view .LVU235
 399:Middlewares/ST/filex/common/src/fx_directory_free_search.c **** 
 631              		.loc 1 399 62 is_stmt 0 view .LVU236
 632 026c CBF82830 		str	r3, [fp, #40]
 402:Middlewares/ST/filex/common/src/fx_directory_free_search.c **** 
 633              		.loc 1 402 17 is_stmt 1 view .LVU237
 634              	.LVL44:
 635              	.LBB14:
 636              	.LBI14:
 568:Middlewares/ST/threadx/ports/cortex_m4/gnu/inc/tx_port.h **** {
 637              		.loc 2 568 55 view .LVU238
 638              	.LBB15:
 574:Middlewares/ST/threadx/ports/cortex_m4/gnu/inc/tx_port.h **** #endif
 639              		.loc 2 574 5 view .LVU239
 640              		.syntax unified
 641              	@ 574 "Middlewares/ST/threadx/ports/cortex_m4/gnu/inc/tx_port.h" 1
 642 0270 82F31088 		MSR  PRIMASK,r2
ARM GAS  C:\Users\HP\AppData\Local\Temp\ccmUfyBM.s 			page 38


 643              	@ 0 "" 2
 644              	.LVL45:
 574:Middlewares/ST/threadx/ports/cortex_m4/gnu/inc/tx_port.h **** #endif
 645              		.loc 2 574 5 is_stmt 0 view .LVU240
 646              		.thumb
 647              		.syntax unified
 648              	.LBE15:
 649              	.LBE14:
 405:Middlewares/ST/filex/common/src/fx_directory_free_search.c ****                 {
 650              		.loc 1 405 17 is_stmt 1 view .LVU241
 405:Middlewares/ST/filex/common/src/fx_directory_free_search.c ****                 {
 651              		.loc 1 405 20 is_stmt 0 view .LVU242
 652 0274 BAF1010F 		cmp	r10, #1
 653 0278 04D0     		beq	.L87
 411:Middlewares/ST/filex/common/src/fx_directory_free_search.c ****                 }
 654              		.loc 1 411 21 is_stmt 1 view .LVU243
 411:Middlewares/ST/filex/common/src/fx_directory_free_search.c ****                 }
 655              		.loc 1 411 65 is_stmt 0 view .LVU244
 656 027a 0123     		movs	r3, #1
 657 027c CBF81430 		str	r3, [fp, #20]
 658              	.L26:
 415:Middlewares/ST/filex/common/src/fx_directory_free_search.c ****             }
 659              		.loc 1 415 17 is_stmt 1 view .LVU245
 415:Middlewares/ST/filex/common/src/fx_directory_free_search.c ****             }
 660              		.loc 1 415 23 is_stmt 0 view .LVU246
 661 0280 059B     		ldr	r3, [sp, #20]
 662 0282 31E1     		b	.L1
 663              	.L87:
 407:Middlewares/ST/filex/common/src/fx_directory_free_search.c ****                 }
 664              		.loc 1 407 21 is_stmt 1 view .LVU247
 407:Middlewares/ST/filex/common/src/fx_directory_free_search.c ****                 }
 665              		.loc 1 407 65 is_stmt 0 view .LVU248
 666 0284 0023     		movs	r3, #0
 667 0286 CBF81430 		str	r3, [fp, #20]
 668 028a F9E7     		b	.L26
 669              	.LVL46:
 670              	.L56:
 422:Middlewares/ST/filex/common/src/fx_directory_free_search.c ****         }
 671              		.loc 1 422 30 view .LVU249
 672 028c 3E46     		mov	r6, r7
 673              	.LVL47:
 422:Middlewares/ST/filex/common/src/fx_directory_free_search.c ****         }
 674              		.loc 1 422 30 view .LVU250
 675 028e 89E7     		b	.L22
 676              	.LVL48:
 677              	.L83:
 441:Middlewares/ST/filex/common/src/fx_directory_free_search.c ****             {
 678              		.loc 1 441 49 discriminator 2 view .LVU251
 679 0290 D8F86430 		ldr	r3, [r8, #100]
 680              	.LVL49:
 441:Middlewares/ST/filex/common/src/fx_directory_free_search.c ****             {
 681              		.loc 1 441 35 discriminator 2 view .LVU252
 682 0294 002B     		cmp	r3, #0
 683 0296 A0D0     		beq	.L27
 684 0298 9AE7     		b	.L28
 685              	.L84:
 445:Middlewares/ST/filex/common/src/fx_directory_free_search.c ****                 total_clusters =     media_ptr -> fx_media_total_clusters;
ARM GAS  C:\Users\HP\AppData\Local\Temp\ccmUfyBM.s 			page 39


 686              		.loc 1 445 17 is_stmt 1 view .LVU253
 687              	.LVL50:
 446:Middlewares/ST/filex/common/src/fx_directory_free_search.c ****                 last_cluster =       0;
 688              		.loc 1 446 17 view .LVU254
 446:Middlewares/ST/filex/common/src/fx_directory_free_search.c ****                 last_cluster =       0;
 689              		.loc 1 446 32 is_stmt 0 view .LVU255
 690 029a D8F84050 		ldr	r5, [r8, #64]
 691              	.LVL51:
 447:Middlewares/ST/filex/common/src/fx_directory_free_search.c ****                 FAT_index    =       media_ptr -> fx_media_cluster_search_start;
 692              		.loc 1 447 17 is_stmt 1 view .LVU256
 448:Middlewares/ST/filex/common/src/fx_directory_free_search.c ****                 clusters =           clusters_needed;
 693              		.loc 1 448 17 view .LVU257
 448:Middlewares/ST/filex/common/src/fx_directory_free_search.c ****                 clusters =           clusters_needed;
 694              		.loc 1 448 30 is_stmt 0 view .LVU258
 695 029e D8F88040 		ldr	r4, [r8, #128]
 696              	.LVL52:
 449:Middlewares/ST/filex/common/src/fx_directory_free_search.c **** 
 697              		.loc 1 449 17 is_stmt 1 view .LVU259
 452:Middlewares/ST/filex/common/src/fx_directory_free_search.c ****                 {
 698              		.loc 1 452 17 view .LVU260
 449:Middlewares/ST/filex/common/src/fx_directory_free_search.c **** 
 699              		.loc 1 449 26 is_stmt 0 view .LVU261
 700 02a2 1346     		mov	r3, r2
 447:Middlewares/ST/filex/common/src/fx_directory_free_search.c ****                 FAT_index    =       media_ptr -> fx_media_cluster_search_start;
 701              		.loc 1 447 30 view .LVU262
 702 02a4 059A     		ldr	r2, [sp, #20]
 703 02a6 0A92     		str	r2, [sp, #40]
 704 02a8 0B97     		str	r7, [sp, #44]
 705 02aa CDF83090 		str	r9, [sp, #48]
 706 02ae 0D96     		str	r6, [sp, #52]
 707 02b0 1E46     		mov	r6, r3
 708              	.LVL53:
 709              	.L29:
 452:Middlewares/ST/filex/common/src/fx_directory_free_search.c ****                 {
 710              		.loc 1 452 23 is_stmt 1 view .LVU263
 711 02b2 002E     		cmp	r6, #0
 712 02b4 00F0AA80 		beq	.L88
 456:Middlewares/ST/filex/common/src/fx_directory_free_search.c **** 
 713              		.loc 1 456 21 view .LVU264
 456:Middlewares/ST/filex/common/src/fx_directory_free_search.c **** 
 714              		.loc 1 456 29 is_stmt 0 view .LVU265
 715 02b8 013E     		subs	r6, r6, #1
 716              	.LVL54:
 456:Middlewares/ST/filex/common/src/fx_directory_free_search.c **** 
 717              		.loc 1 456 29 view .LVU266
 718 02ba 00E0     		b	.L30
 719              	.LVL55:
 720              	.L58:
 514:Middlewares/ST/filex/common/src/fx_directory_free_search.c ****                             }
 721              		.loc 1 514 43 view .LVU267
 722 02bc 0224     		movs	r4, #2
 723              	.LVL56:
 724              	.L30:
 459:Middlewares/ST/filex/common/src/fx_directory_free_search.c ****                     {
 725              		.loc 1 459 21 is_stmt 1 view .LVU268
 463:Middlewares/ST/filex/common/src/fx_directory_free_search.c ****                         {
 726              		.loc 1 463 25 view .LVU269
ARM GAS  C:\Users\HP\AppData\Local\Temp\ccmUfyBM.s 			page 40


 463:Middlewares/ST/filex/common/src/fx_directory_free_search.c ****                         {
 727              		.loc 1 463 28 is_stmt 0 view .LVU270
 728 02be 002D     		cmp	r5, #0
 729 02c0 00F01181 		beq	.L57
 472:Middlewares/ST/filex/common/src/fx_directory_free_search.c **** 
 730              		.loc 1 472 25 is_stmt 1 view .LVU271
 472:Middlewares/ST/filex/common/src/fx_directory_free_search.c **** 
 731              		.loc 1 472 35 is_stmt 0 view .LVU272
 732 02c4 0FAA     		add	r2, sp, #60
 733 02c6 2146     		mov	r1, r4
 734 02c8 4046     		mov	r0, r8
 735 02ca FFF7FEFF 		bl	_fx_utility_FAT_entry_read
 736              	.LVL57:
 475:Middlewares/ST/filex/common/src/fx_directory_free_search.c ****                         {
 737              		.loc 1 475 25 is_stmt 1 view .LVU273
 475:Middlewares/ST/filex/common/src/fx_directory_free_search.c ****                         {
 738              		.loc 1 475 28 is_stmt 0 view .LVU274
 739 02ce 0346     		mov	r3, r0
 740 02d0 0028     		cmp	r0, #0
 741 02d2 40F00981 		bne	.L1
 483:Middlewares/ST/filex/common/src/fx_directory_free_search.c **** 
 742              		.loc 1 483 25 is_stmt 1 view .LVU275
 483:Middlewares/ST/filex/common/src/fx_directory_free_search.c **** 
 743              		.loc 1 483 39 is_stmt 0 view .LVU276
 744 02d6 013D     		subs	r5, r5, #1
 745              	.LVL58:
 486:Middlewares/ST/filex/common/src/fx_directory_free_search.c ****                         {
 746              		.loc 1 486 25 is_stmt 1 view .LVU277
 486:Middlewares/ST/filex/common/src/fx_directory_free_search.c ****                         {
 747              		.loc 1 486 39 is_stmt 0 view .LVU278
 748 02d8 0F9B     		ldr	r3, [sp, #60]
 486:Middlewares/ST/filex/common/src/fx_directory_free_search.c ****                         {
 749              		.loc 1 486 28 view .LVU279
 750 02da 33B1     		cbz	r3, .L89
 507:Middlewares/ST/filex/common/src/fx_directory_free_search.c **** 
 751              		.loc 1 507 29 is_stmt 1 view .LVU280
 507:Middlewares/ST/filex/common/src/fx_directory_free_search.c **** 
 752              		.loc 1 507 38 is_stmt 0 view .LVU281
 753 02dc 0134     		adds	r4, r4, #1
 754              	.LVL59:
 510:Middlewares/ST/filex/common/src/fx_directory_free_search.c ****                             {
 755              		.loc 1 510 29 is_stmt 1 view .LVU282
 510:Middlewares/ST/filex/common/src/fx_directory_free_search.c ****                             {
 756              		.loc 1 510 57 is_stmt 0 view .LVU283
 757 02de D8F84030 		ldr	r3, [r8, #64]
 510:Middlewares/ST/filex/common/src/fx_directory_free_search.c ****                             {
 758              		.loc 1 510 84 view .LVU284
 759 02e2 0233     		adds	r3, r3, #2
 510:Middlewares/ST/filex/common/src/fx_directory_free_search.c ****                             {
 760              		.loc 1 510 32 view .LVU285
 761 02e4 A342     		cmp	r3, r4
 762 02e6 E9D9     		bls	.L58
 763 02e8 E9E7     		b	.L30
 764              	.L89:
 490:Middlewares/ST/filex/common/src/fx_directory_free_search.c **** 
 765              		.loc 1 490 29 is_stmt 1 view .LVU286
 490:Middlewares/ST/filex/common/src/fx_directory_free_search.c **** 
ARM GAS  C:\Users\HP\AppData\Local\Temp\ccmUfyBM.s 			page 41


 766              		.loc 1 490 85 is_stmt 0 view .LVU287
 767 02ea 621C     		adds	r2, r4, #1
 490:Middlewares/ST/filex/common/src/fx_directory_free_search.c **** 
 768              		.loc 1 490 72 view .LVU288
 769 02ec C8F88020 		str	r2, [r8, #128]
 493:Middlewares/ST/filex/common/src/fx_directory_free_search.c ****                             {
 770              		.loc 1 493 29 is_stmt 1 view .LVU289
 493:Middlewares/ST/filex/common/src/fx_directory_free_search.c ****                             {
 771              		.loc 1 493 90 is_stmt 0 view .LVU290
 772 02f0 D8F84030 		ldr	r3, [r8, #64]
 493:Middlewares/ST/filex/common/src/fx_directory_free_search.c ****                             {
 773              		.loc 1 493 117 view .LVU291
 774 02f4 0233     		adds	r3, r3, #2
 493:Middlewares/ST/filex/common/src/fx_directory_free_search.c ****                             {
 775              		.loc 1 493 32 view .LVU292
 776 02f6 9A42     		cmp	r2, r3
 777 02f8 02D3     		bcc	.L32
 497:Middlewares/ST/filex/common/src/fx_directory_free_search.c ****                             }
 778              		.loc 1 497 33 is_stmt 1 view .LVU293
 497:Middlewares/ST/filex/common/src/fx_directory_free_search.c ****                             }
 779              		.loc 1 497 76 is_stmt 0 view .LVU294
 780 02fa 0223     		movs	r3, #2
 781 02fc C8F88030 		str	r3, [r8, #128]
 782              	.L32:
 501:Middlewares/ST/filex/common/src/fx_directory_free_search.c ****                         }
 783              		.loc 1 501 29 is_stmt 1 view .LVU295
 523:Middlewares/ST/filex/common/src/fx_directory_free_search.c ****                                        ((((ULONG) FAT_index) - FX_FAT_ENTRY_START) *
 784              		.loc 1 523 21 view .LVU296
 523:Middlewares/ST/filex/common/src/fx_directory_free_search.c ****                                        ((((ULONG) FAT_index) - FX_FAT_ENTRY_START) *
 785              		.loc 1 523 58 is_stmt 0 view .LVU297
 786 0300 D8F85030 		ldr	r3, [r8, #80]
 524:Middlewares/ST/filex/common/src/fx_directory_free_search.c ****                                        ((ULONG) media_ptr -> fx_media_sectors_per_cluster));
 787              		.loc 1 524 62 view .LVU298
 788 0304 A4F10209 		sub	r9, r4, #2
 525:Middlewares/ST/filex/common/src/fx_directory_free_search.c **** 
 789              		.loc 1 525 59 view .LVU299
 790 0308 D8F85470 		ldr	r7, [r8, #84]
 523:Middlewares/ST/filex/common/src/fx_directory_free_search.c ****                                        ((((ULONG) FAT_index) - FX_FAT_ENTRY_START) *
 791              		.loc 1 523 36 view .LVU300
 792 030c 07FB0939 		mla	r9, r7, r9, r3
 793              	.LVL60:
 528:Middlewares/ST/filex/common/src/fx_directory_free_search.c **** 
 794              		.loc 1 528 21 is_stmt 1 view .LVU301
 531:Middlewares/ST/filex/common/src/fx_directory_free_search.c ****                                                               media_ptr -> fx_media_memory_buffer, 
 795              		.loc 1 531 21 view .LVU302
 532:Middlewares/ST/filex/common/src/fx_directory_free_search.c **** 
 796              		.loc 1 532 73 is_stmt 0 view .LVU303
 797 0310 D8F80830 		ldr	r3, [r8, #8]
 531:Middlewares/ST/filex/common/src/fx_directory_free_search.c ****                                                               media_ptr -> fx_media_memory_buffer, 
 798              		.loc 1 531 31 view .LVU304
 799 0314 0322     		movs	r2, #3
 800 0316 0292     		str	r2, [sp, #8]
 801 0318 0122     		movs	r2, #1
 802 031a 0192     		str	r2, [sp, #4]
 803 031c 0093     		str	r3, [sp]
 804 031e 4A46     		mov	r2, r9
 805 0320 0023     		movs	r3, #0
ARM GAS  C:\Users\HP\AppData\Local\Temp\ccmUfyBM.s 			page 42


 806 0322 4046     		mov	r0, r8
 807              	.LVL61:
 531:Middlewares/ST/filex/common/src/fx_directory_free_search.c ****                                                               media_ptr -> fx_media_memory_buffer, 
 808              		.loc 1 531 31 view .LVU305
 809 0324 FFF7FEFF 		bl	_fx_utility_logical_sector_read
 810              	.LVL62:
 535:Middlewares/ST/filex/common/src/fx_directory_free_search.c ****                     {
 811              		.loc 1 535 21 is_stmt 1 view .LVU306
 535:Middlewares/ST/filex/common/src/fx_directory_free_search.c ****                     {
 812              		.loc 1 535 24 is_stmt 0 view .LVU307
 813 0328 0346     		mov	r3, r0
 814 032a 0028     		cmp	r0, #0
 815 032c 40F0DC80 		bne	.L1
 543:Middlewares/ST/filex/common/src/fx_directory_free_search.c ****                     i =  0;
 816              		.loc 1 543 21 is_stmt 1 view .LVU308
 543:Middlewares/ST/filex/common/src/fx_directory_free_search.c ****                     i =  0;
 817              		.loc 1 543 30 is_stmt 0 view .LVU309
 818 0330 D8F80810 		ldr	r1, [r8, #8]
 819              	.LVL63:
 544:Middlewares/ST/filex/common/src/fx_directory_free_search.c ****                     while (i < media_ptr -> fx_media_bytes_per_sector)
 820              		.loc 1 544 21 is_stmt 1 view .LVU310
 545:Middlewares/ST/filex/common/src/fx_directory_free_search.c ****                     {
 821              		.loc 1 545 21 view .LVU311
 822              	.L35:
 545:Middlewares/ST/filex/common/src/fx_directory_free_search.c ****                     {
 823              		.loc 1 545 27 view .LVU312
 545:Middlewares/ST/filex/common/src/fx_directory_free_search.c ****                     {
 824              		.loc 1 545 42 is_stmt 0 view .LVU313
 825 0334 D8F82820 		ldr	r2, [r8, #40]
 545:Middlewares/ST/filex/common/src/fx_directory_free_search.c ****                     {
 826              		.loc 1 545 27 view .LVU314
 827 0338 9A42     		cmp	r2, r3
 828 033a 04D9     		bls	.L90
 549:Middlewares/ST/filex/common/src/fx_directory_free_search.c **** 
 829              		.loc 1 549 25 is_stmt 1 view .LVU315
 549:Middlewares/ST/filex/common/src/fx_directory_free_search.c **** 
 830              		.loc 1 549 46 is_stmt 0 view .LVU316
 831 033c 0022     		movs	r2, #0
 832 033e 41F8042B 		str	r2, [r1], #4
 833              	.LVL64:
 552:Middlewares/ST/filex/common/src/fx_directory_free_search.c **** 
 834              		.loc 1 552 25 is_stmt 1 view .LVU317
 555:Middlewares/ST/filex/common/src/fx_directory_free_search.c ****                     }
 835              		.loc 1 555 25 view .LVU318
 555:Middlewares/ST/filex/common/src/fx_directory_free_search.c ****                     }
 836              		.loc 1 555 27 is_stmt 0 view .LVU319
 837 0342 0433     		adds	r3, r3, #4
 838              	.LVL65:
 555:Middlewares/ST/filex/common/src/fx_directory_free_search.c ****                     }
 839              		.loc 1 555 27 view .LVU320
 840 0344 F6E7     		b	.L35
 841              	.L90:
 559:Middlewares/ST/filex/common/src/fx_directory_free_search.c ****                                                                media_ptr -> fx_media_memory_buffer,
 842              		.loc 1 559 21 is_stmt 1 view .LVU321
 560:Middlewares/ST/filex/common/src/fx_directory_free_search.c **** 
 843              		.loc 1 560 74 is_stmt 0 view .LVU322
 844 0346 D8F80830 		ldr	r3, [r8, #8]
ARM GAS  C:\Users\HP\AppData\Local\Temp\ccmUfyBM.s 			page 43


 845              	.LVL66:
 559:Middlewares/ST/filex/common/src/fx_directory_free_search.c ****                                                                media_ptr -> fx_media_memory_buffer,
 846              		.loc 1 559 31 view .LVU323
 847 034a 0322     		movs	r2, #3
 848 034c 0292     		str	r2, [sp, #8]
 849 034e 0122     		movs	r2, #1
 850 0350 0192     		str	r2, [sp, #4]
 851 0352 0093     		str	r3, [sp]
 852 0354 4A46     		mov	r2, r9
 853 0356 0023     		movs	r3, #0
 854 0358 4046     		mov	r0, r8
 855              	.LVL67:
 559:Middlewares/ST/filex/common/src/fx_directory_free_search.c ****                                                                media_ptr -> fx_media_memory_buffer,
 856              		.loc 1 559 31 view .LVU324
 857 035a FFF7FEFF 		bl	_fx_utility_logical_sector_write
 858              	.LVL68:
 563:Middlewares/ST/filex/common/src/fx_directory_free_search.c ****                     {
 859              		.loc 1 563 21 is_stmt 1 view .LVU325
 563:Middlewares/ST/filex/common/src/fx_directory_free_search.c ****                     {
 860              		.loc 1 563 24 is_stmt 0 view .LVU326
 861 035e 0346     		mov	r3, r0
 862 0360 0028     		cmp	r0, #0
 863 0362 40F0C180 		bne	.L1
 572:Middlewares/ST/filex/common/src/fx_directory_free_search.c ****                     {
 864              		.loc 1 572 21 is_stmt 1 view .LVU327
 572:Middlewares/ST/filex/common/src/fx_directory_free_search.c ****                     {
 865              		.loc 1 572 24 is_stmt 0 view .LVU328
 866 0366 012F     		cmp	r7, #1
 867 0368 09D8     		bhi	.L91
 868              	.LVL69:
 869              	.L37:
 634:Middlewares/ST/filex/common/src/fx_directory_free_search.c ****                     {
 870              		.loc 1 634 21 is_stmt 1 view .LVU329
 634:Middlewares/ST/filex/common/src/fx_directory_free_search.c ****                     {
 871              		.loc 1 634 24 is_stmt 0 view .LVU330
 872 036a 059B     		ldr	r3, [sp, #20]
 873 036c 03B9     		cbnz	r3, .L40
 638:Middlewares/ST/filex/common/src/fx_directory_free_search.c ****                     }
 874              		.loc 1 638 43 view .LVU331
 875 036e 0594     		str	r4, [sp, #20]
 876              	.LVL70:
 877              	.L40:
 642:Middlewares/ST/filex/common/src/fx_directory_free_search.c ****                     {
 878              		.loc 1 642 21 is_stmt 1 view .LVU332
 642:Middlewares/ST/filex/common/src/fx_directory_free_search.c ****                     {
 879              		.loc 1 642 24 is_stmt 0 view .LVU333
 880 0370 0A9B     		ldr	r3, [sp, #40]
 881 0372 002B     		cmp	r3, #0
 882 0374 3AD1     		bne	.L92
 883              	.L41:
 659:Middlewares/ST/filex/common/src/fx_directory_free_search.c **** 
 884              		.loc 1 659 21 is_stmt 1 view .LVU334
 885              	.LVL71:
 662:Middlewares/ST/filex/common/src/fx_directory_free_search.c ****                 }
 886              		.loc 1 662 21 view .LVU335
 659:Middlewares/ST/filex/common/src/fx_directory_free_search.c **** 
 887              		.loc 1 659 34 is_stmt 0 view .LVU336
ARM GAS  C:\Users\HP\AppData\Local\Temp\ccmUfyBM.s 			page 44


 888 0376 0A94     		str	r4, [sp, #40]
 662:Middlewares/ST/filex/common/src/fx_directory_free_search.c ****                 }
 889              		.loc 1 662 31 view .LVU337
 890 0378 D8F88040 		ldr	r4, [r8, #128]
 891              	.LVL72:
 662:Middlewares/ST/filex/common/src/fx_directory_free_search.c ****                 }
 892              		.loc 1 662 31 view .LVU338
 893 037c 99E7     		b	.L29
 894              	.LVL73:
 895              	.L91:
 579:Middlewares/ST/filex/common/src/fx_directory_free_search.c **** 
 896              		.loc 1 579 25 is_stmt 1 view .LVU339
 579:Middlewares/ST/filex/common/src/fx_directory_free_search.c **** 
 897              		.loc 1 579 130 is_stmt 0 view .LVU340
 898 037e 013F     		subs	r7, r7, #1
 899              	.LVL74:
 579:Middlewares/ST/filex/common/src/fx_directory_free_search.c **** 
 900              		.loc 1 579 35 view .LVU341
 901 0380 0023     		movs	r3, #0
 902 0382 0122     		movs	r2, #1
 903 0384 0292     		str	r2, [sp, #8]
 904 0386 0097     		str	r7, [sp]
 905 0388 0193     		str	r3, [sp, #4]
 906 038a 4A44     		add	r2, r9, r2
 907 038c 4046     		mov	r0, r8
 908              	.LVL75:
 579:Middlewares/ST/filex/common/src/fx_directory_free_search.c **** 
 909              		.loc 1 579 35 view .LVU342
 910 038e FFF7FEFF 		bl	_fx_utility_logical_sector_flush
 911              	.LVL76:
 582:Middlewares/ST/filex/common/src/fx_directory_free_search.c ****                         {
 912              		.loc 1 582 25 is_stmt 1 view .LVU343
 582:Middlewares/ST/filex/common/src/fx_directory_free_search.c ****                         {
 913              		.loc 1 582 28 is_stmt 0 view .LVU344
 914 0392 0346     		mov	r3, r0
 915 0394 0028     		cmp	r0, #0
 916 0396 40F0A780 		bne	.L1
 917              	.LVL77:
 918              	.L38:
 591:Middlewares/ST/filex/common/src/fx_directory_free_search.c ****                         {
 919              		.loc 1 591 31 is_stmt 1 view .LVU345
 920 039a 002F     		cmp	r7, #0
 921 039c E5D0     		beq	.L37
 597:Middlewares/ST/filex/common/src/fx_directory_free_search.c **** #endif
 922              		.loc 1 597 29 view .LVU346
 597:Middlewares/ST/filex/common/src/fx_directory_free_search.c **** #endif
 923              		.loc 1 597 39 is_stmt 0 view .LVU347
 924 039e D8F8B031 		ldr	r3, [r8, #432]
 597:Middlewares/ST/filex/common/src/fx_directory_free_search.c **** #endif
 925              		.loc 1 597 72 view .LVU348
 926 03a2 0133     		adds	r3, r3, #1
 927 03a4 C8F8B031 		str	r3, [r8, #432]
 601:Middlewares/ST/filex/common/src/fx_directory_free_search.c ****                             media_ptr -> fx_media_driver_status =           FX_IO_ERROR;
 928              		.loc 1 601 29 is_stmt 1 view .LVU349
 601:Middlewares/ST/filex/common/src/fx_directory_free_search.c ****                             media_ptr -> fx_media_driver_status =           FX_IO_ERROR;
 929              		.loc 1 601 66 is_stmt 0 view .LVU350
 930 03a8 0123     		movs	r3, #1
ARM GAS  C:\Users\HP\AppData\Local\Temp\ccmUfyBM.s 			page 45


 931 03aa C8F88830 		str	r3, [r8, #136]
 602:Middlewares/ST/filex/common/src/fx_directory_free_search.c ****                             media_ptr -> fx_media_driver_buffer =           media_ptr -> fx_media_m
 932              		.loc 1 602 29 is_stmt 1 view .LVU351
 602:Middlewares/ST/filex/common/src/fx_directory_free_search.c ****                             media_ptr -> fx_media_driver_buffer =           media_ptr -> fx_media_m
 933              		.loc 1 602 65 is_stmt 0 view .LVU352
 934 03ae 9022     		movs	r2, #144
 935 03b0 C8F88C20 		str	r2, [r8, #140]
 603:Middlewares/ST/filex/common/src/fx_directory_free_search.c ****                             media_ptr -> fx_media_driver_logical_sector =   (ULONG)logical_sector +
 936              		.loc 1 603 29 is_stmt 1 view .LVU353
 603:Middlewares/ST/filex/common/src/fx_directory_free_search.c ****                             media_ptr -> fx_media_driver_logical_sector =   (ULONG)logical_sector +
 937              		.loc 1 603 87 is_stmt 0 view .LVU354
 938 03b4 D8F80820 		ldr	r2, [r8, #8]
 603:Middlewares/ST/filex/common/src/fx_directory_free_search.c ****                             media_ptr -> fx_media_driver_logical_sector =   (ULONG)logical_sector +
 939              		.loc 1 603 65 view .LVU355
 940 03b8 C8F89020 		str	r2, [r8, #144]
 604:Middlewares/ST/filex/common/src/fx_directory_free_search.c ****                             media_ptr -> fx_media_driver_sectors =          1;
 941              		.loc 1 604 29 is_stmt 1 view .LVU356
 604:Middlewares/ST/filex/common/src/fx_directory_free_search.c ****                             media_ptr -> fx_media_driver_sectors =          1;
 942              		.loc 1 604 99 is_stmt 0 view .LVU357
 943 03bc 07EB0902 		add	r2, r7, r9
 604:Middlewares/ST/filex/common/src/fx_directory_free_search.c ****                             media_ptr -> fx_media_driver_sectors =          1;
 944              		.loc 1 604 73 view .LVU358
 945 03c0 C8F89420 		str	r2, [r8, #148]
 605:Middlewares/ST/filex/common/src/fx_directory_free_search.c ****                             media_ptr -> fx_media_driver_sector_type =      FX_DIRECTORY_SECTOR;
 946              		.loc 1 605 29 is_stmt 1 view .LVU359
 605:Middlewares/ST/filex/common/src/fx_directory_free_search.c ****                             media_ptr -> fx_media_driver_sector_type =      FX_DIRECTORY_SECTOR;
 947              		.loc 1 605 66 is_stmt 0 view .LVU360
 948 03c4 C8F89830 		str	r3, [r8, #152]
 606:Middlewares/ST/filex/common/src/fx_directory_free_search.c **** 
 949              		.loc 1 606 29 is_stmt 1 view .LVU361
 606:Middlewares/ST/filex/common/src/fx_directory_free_search.c **** 
 950              		.loc 1 606 70 is_stmt 0 view .LVU362
 951 03c8 0322     		movs	r2, #3
 952 03ca C8F8B820 		str	r2, [r8, #184]
 609:Middlewares/ST/filex/common/src/fx_directory_free_search.c **** 
 953              		.loc 1 609 29 is_stmt 1 view .LVU363
 609:Middlewares/ST/filex/common/src/fx_directory_free_search.c **** 
 954              		.loc 1 609 71 is_stmt 0 view .LVU364
 955 03ce C8F8B030 		str	r3, [r8, #176]
 615:Middlewares/ST/filex/common/src/fx_directory_free_search.c **** 
 956              		.loc 1 615 29 is_stmt 1 view .LVU365
 615:Middlewares/ST/filex/common/src/fx_directory_free_search.c **** 
 957              		.loc 1 615 40 is_stmt 0 view .LVU366
 958 03d2 D8F8BC30 		ldr	r3, [r8, #188]
 959 03d6 4046     		mov	r0, r8
 960 03d8 9847     		blx	r3
 961              	.LVL78:
 618:Middlewares/ST/filex/common/src/fx_directory_free_search.c **** 
 962              		.loc 1 618 29 is_stmt 1 view .LVU367
 618:Middlewares/ST/filex/common/src/fx_directory_free_search.c **** 
 963              		.loc 1 618 71 is_stmt 0 view .LVU368
 964 03da 0023     		movs	r3, #0
 965 03dc C8F8B030 		str	r3, [r8, #176]
 621:Middlewares/ST/filex/common/src/fx_directory_free_search.c ****                             {
 966              		.loc 1 621 29 is_stmt 1 view .LVU369
 621:Middlewares/ST/filex/common/src/fx_directory_free_search.c ****                             {
 967              		.loc 1 621 43 is_stmt 0 view .LVU370
ARM GAS  C:\Users\HP\AppData\Local\Temp\ccmUfyBM.s 			page 46


 968 03e0 D8F88C30 		ldr	r3, [r8, #140]
 621:Middlewares/ST/filex/common/src/fx_directory_free_search.c ****                             {
 969              		.loc 1 621 32 view .LVU371
 970 03e4 002B     		cmp	r3, #0
 971 03e6 7FD1     		bne	.L1
 629:Middlewares/ST/filex/common/src/fx_directory_free_search.c ****                         }
 972              		.loc 1 629 29 is_stmt 1 view .LVU372
 629:Middlewares/ST/filex/common/src/fx_directory_free_search.c ****                         }
 973              		.loc 1 629 36 is_stmt 0 view .LVU373
 974 03e8 013F     		subs	r7, r7, #1
 975              	.LVL79:
 629:Middlewares/ST/filex/common/src/fx_directory_free_search.c ****                         }
 976              		.loc 1 629 36 view .LVU374
 977 03ea D6E7     		b	.L38
 978              	.L92:
 647:Middlewares/ST/filex/common/src/fx_directory_free_search.c **** 
 979              		.loc 1 647 25 is_stmt 1 view .LVU375
 647:Middlewares/ST/filex/common/src/fx_directory_free_search.c **** 
 980              		.loc 1 647 34 is_stmt 0 view .LVU376
 981 03ec 2246     		mov	r2, r4
 982 03ee 1946     		mov	r1, r3
 983 03f0 4046     		mov	r0, r8
 984 03f2 FFF7FEFF 		bl	_fx_utility_FAT_entry_write
 985              	.LVL80:
 650:Middlewares/ST/filex/common/src/fx_directory_free_search.c ****                         {
 986              		.loc 1 650 25 is_stmt 1 view .LVU377
 650:Middlewares/ST/filex/common/src/fx_directory_free_search.c ****                         {
 987              		.loc 1 650 28 is_stmt 0 view .LVU378
 988 03f6 0346     		mov	r3, r0
 989 03f8 0028     		cmp	r0, #0
 990 03fa BCD0     		beq	.L41
 991 03fc 74E0     		b	.L1
 992              	.L97:
 993 03fe 00BF     		.align	2
 994              	.L96:
 995 0400 4FECC44E 		.word	1321528399
 996 0404 00000000 		.word	_fx_system_time
 997 0408 00000000 		.word	_fx_system_date
 998              	.LVL81:
 999              	.L88:
 666:Middlewares/ST/filex/common/src/fx_directory_free_search.c **** 
 1000              		.loc 1 666 26 view .LVU379
 1001 040c 0B9F     		ldr	r7, [sp, #44]
 1002 040e DDF83090 		ldr	r9, [sp, #48]
 1003 0412 0D9E     		ldr	r6, [sp, #52]
 1004              	.LVL82:
 666:Middlewares/ST/filex/common/src/fx_directory_free_search.c **** 
 1005              		.loc 1 666 17 is_stmt 1 view .LVU380
 666:Middlewares/ST/filex/common/src/fx_directory_free_search.c **** 
 1006              		.loc 1 666 26 is_stmt 0 view .LVU381
 1007 0414 08F50053 		add	r3, r8, #8192
 1008 0418 D3F8AC24 		ldr	r2, [r3, #1196]
 1009 041c 0A99     		ldr	r1, [sp, #40]
 1010 041e 4046     		mov	r0, r8
 1011 0420 FFF7FEFF 		bl	_fx_utility_FAT_entry_write
 1012              	.LVL83:
 669:Middlewares/ST/filex/common/src/fx_directory_free_search.c ****                 {
ARM GAS  C:\Users\HP\AppData\Local\Temp\ccmUfyBM.s 			page 47


 1013              		.loc 1 669 17 is_stmt 1 view .LVU382
 669:Middlewares/ST/filex/common/src/fx_directory_free_search.c ****                 {
 1014              		.loc 1 669 20 is_stmt 0 view .LVU383
 1015 0424 0546     		mov	r5, r0
 1016              	.LVL84:
 669:Middlewares/ST/filex/common/src/fx_directory_free_search.c ****                 {
 1017              		.loc 1 669 20 view .LVU384
 1018 0426 0028     		cmp	r0, #0
 1019 0428 62D1     		bne	.L60
 685:Middlewares/ST/filex/common/src/fx_directory_free_search.c ****                 {
 1020              		.loc 1 685 17 is_stmt 1 view .LVU385
 685:Middlewares/ST/filex/common/src/fx_directory_free_search.c ****                 {
 1021              		.loc 1 685 20 is_stmt 0 view .LVU386
 1022 042a B9F1000F 		cmp	r9, #0
 1023 042e 1DD0     		beq	.L43
 687:Middlewares/ST/filex/common/src/fx_directory_free_search.c ****                 }
 1024              		.loc 1 687 21 is_stmt 1 view .LVU387
 687:Middlewares/ST/filex/common/src/fx_directory_free_search.c ****                 }
 1025              		.loc 1 687 29 is_stmt 0 view .LVU388
 1026 0430 D9F83440 		ldr	r4, [r9, #52]
 1027              	.LVL85:
 1028              	.L44:
 662:Middlewares/ST/filex/common/src/fx_directory_free_search.c ****                 }
 1029              		.loc 1 662 31 view .LVU389
 1030 0434 2946     		mov	r1, r5
 1031              	.LVL86:
 1032              	.L45:
 699:Middlewares/ST/filex/common/src/fx_directory_free_search.c ****                 {
 1033              		.loc 1 699 23 is_stmt 1 view .LVU390
 699:Middlewares/ST/filex/common/src/fx_directory_free_search.c ****                 {
 1034              		.loc 1 699 44 is_stmt 0 view .LVU391
 1035 0436 08F50053 		add	r3, r8, #8192
 1036 043a D3F8A834 		ldr	r3, [r3, #1192]
 699:Middlewares/ST/filex/common/src/fx_directory_free_search.c ****                 {
 1037              		.loc 1 699 23 view .LVU392
 1038 043e A342     		cmp	r3, r4
 1039 0440 17D9     		bls	.L93
 703:Middlewares/ST/filex/common/src/fx_directory_free_search.c ****                     i++;
 1040              		.loc 1 703 21 is_stmt 1 view .LVU393
 703:Middlewares/ST/filex/common/src/fx_directory_free_search.c ****                     i++;
 1041              		.loc 1 703 31 is_stmt 0 view .LVU394
 1042 0442 0FAA     		add	r2, sp, #60
 1043 0444 2146     		mov	r1, r4
 1044              	.LVL87:
 703:Middlewares/ST/filex/common/src/fx_directory_free_search.c ****                     i++;
 1045              		.loc 1 703 31 view .LVU395
 1046 0446 4046     		mov	r0, r8
 1047              	.LVL88:
 703:Middlewares/ST/filex/common/src/fx_directory_free_search.c ****                     i++;
 1048              		.loc 1 703 31 view .LVU396
 1049 0448 FFF7FEFF 		bl	_fx_utility_FAT_entry_read
 1050              	.LVL89:
 704:Middlewares/ST/filex/common/src/fx_directory_free_search.c **** 
 1051              		.loc 1 704 21 is_stmt 1 view .LVU397
 704:Middlewares/ST/filex/common/src/fx_directory_free_search.c **** 
 1052              		.loc 1 704 22 is_stmt 0 view .LVU398
 1053 044c 0135     		adds	r5, r5, #1
ARM GAS  C:\Users\HP\AppData\Local\Temp\ccmUfyBM.s 			page 48


 1054              	.LVL90:
 707:Middlewares/ST/filex/common/src/fx_directory_free_search.c ****                     {
 1055              		.loc 1 707 21 is_stmt 1 view .LVU399
 707:Middlewares/ST/filex/common/src/fx_directory_free_search.c ****                     {
 1056              		.loc 1 707 24 is_stmt 0 view .LVU400
 1057 044e 0346     		mov	r3, r0
 1058 0450 0028     		cmp	r0, #0
 1059 0452 49D1     		bne	.L1
 715:Middlewares/ST/filex/common/src/fx_directory_free_search.c ****                     {
 1060              		.loc 1 715 21 is_stmt 1 view .LVU401
 715:Middlewares/ST/filex/common/src/fx_directory_free_search.c ****                     {
 1061              		.loc 1 715 24 is_stmt 0 view .LVU402
 1062 0454 012C     		cmp	r4, #1
 1063 0456 4DD9     		bls	.L61
 715:Middlewares/ST/filex/common/src/fx_directory_free_search.c ****                     {
 1064              		.loc 1 715 68 discriminator 1 view .LVU403
 1065 0458 0F9B     		ldr	r3, [sp, #60]
 715:Middlewares/ST/filex/common/src/fx_directory_free_search.c ****                     {
 1066              		.loc 1 715 56 discriminator 1 view .LVU404
 1067 045a A342     		cmp	r3, r4
 1068 045c 4CD0     		beq	.L62
 715:Middlewares/ST/filex/common/src/fx_directory_free_search.c ****                     {
 1069              		.loc 1 715 100 discriminator 2 view .LVU405
 1070 045e D8F84020 		ldr	r2, [r8, #64]
 723:Middlewares/ST/filex/common/src/fx_directory_free_search.c **** 
 1071              		.loc 1 723 34 discriminator 2 view .LVU406
 1072 0462 2146     		mov	r1, r4
 715:Middlewares/ST/filex/common/src/fx_directory_free_search.c ****                     {
 1073              		.loc 1 715 82 discriminator 2 view .LVU407
 1074 0464 AA42     		cmp	r2, r5
 1075 0466 49D3     		bcc	.L63
 726:Middlewares/ST/filex/common/src/fx_directory_free_search.c ****                 }
 1076              		.loc 1 726 29 view .LVU408
 1077 0468 1C46     		mov	r4, r3
 1078              	.LVL91:
 726:Middlewares/ST/filex/common/src/fx_directory_free_search.c ****                 }
 1079              		.loc 1 726 29 view .LVU409
 1080 046a E4E7     		b	.L45
 1081              	.LVL92:
 1082              	.L43:
 691:Middlewares/ST/filex/common/src/fx_directory_free_search.c ****                 }
 1083              		.loc 1 691 21 is_stmt 1 view .LVU410
 691:Middlewares/ST/filex/common/src/fx_directory_free_search.c ****                 }
 1084              		.loc 1 691 29 is_stmt 0 view .LVU411
 1085 046c D8F87440 		ldr	r4, [r8, #116]
 1086              	.LVL93:
 691:Middlewares/ST/filex/common/src/fx_directory_free_search.c ****                 }
 1087              		.loc 1 691 29 view .LVU412
 1088 0470 E0E7     		b	.L44
 1089              	.LVL94:
 1090              	.L93:
 730:Middlewares/ST/filex/common/src/fx_directory_free_search.c **** 
 1091              		.loc 1 730 17 is_stmt 1 view .LVU413
 730:Middlewares/ST/filex/common/src/fx_directory_free_search.c **** 
 1092              		.loc 1 730 71 is_stmt 0 view .LVU414
 1093 0472 D8F87C30 		ldr	r3, [r8, #124]
 730:Middlewares/ST/filex/common/src/fx_directory_free_search.c **** 
ARM GAS  C:\Users\HP\AppData\Local\Temp\ccmUfyBM.s 			page 49


 1094              		.loc 1 730 102 view .LVU415
 1095 0476 069A     		ldr	r2, [sp, #24]
 1096 0478 9B1A     		subs	r3, r3, r2
 730:Middlewares/ST/filex/common/src/fx_directory_free_search.c **** 
 1097              		.loc 1 730 58 view .LVU416
 1098 047a C8F87C30 		str	r3, [r8, #124]
 733:Middlewares/ST/filex/common/src/fx_directory_free_search.c **** 
 1099              		.loc 1 733 17 is_stmt 1 view .LVU417
 733:Middlewares/ST/filex/common/src/fx_directory_free_search.c **** 
 1100              		.loc 1 733 88 is_stmt 0 view .LVU418
 1101 047e D8F85430 		ldr	r3, [r8, #84]
 733:Middlewares/ST/filex/common/src/fx_directory_free_search.c **** 
 1102              		.loc 1 733 76 view .LVU419
 1103 0482 02FB03F3 		mul	r3, r2, r3
 733:Middlewares/ST/filex/common/src/fx_directory_free_search.c **** 
 1104              		.loc 1 733 133 view .LVU420
 1105 0486 D8F82820 		ldr	r2, [r8, #40]
 733:Middlewares/ST/filex/common/src/fx_directory_free_search.c **** 
 1106              		.loc 1 733 121 view .LVU421
 1107 048a 02FB03F3 		mul	r3, r2, r3
 733:Middlewares/ST/filex/common/src/fx_directory_free_search.c **** 
 1108              		.loc 1 733 35 view .LVU422
 1109 048e 07EB5317 		add	r7, r7, r3, lsr #5
 1110              	.LVL95:
 738:Middlewares/ST/filex/common/src/fx_directory_free_search.c ****                 {
 1111              		.loc 1 738 17 is_stmt 1 view .LVU423
 738:Middlewares/ST/filex/common/src/fx_directory_free_search.c ****                 {
 1112              		.loc 1 738 41 is_stmt 0 view .LVU424
 1113 0492 DBF80030 		ldr	r3, [fp]
 738:Middlewares/ST/filex/common/src/fx_directory_free_search.c ****                 {
 1114              		.loc 1 738 61 view .LVU425
 1115 0496 1B78     		ldrb	r3, [r3]	@ zero_extendqisi2
 738:Middlewares/ST/filex/common/src/fx_directory_free_search.c ****                 {
 1116              		.loc 1 738 20 view .LVU426
 1117 0498 E52B     		cmp	r3, #229
 1118 049a 13D0     		beq	.L94
 742:Middlewares/ST/filex/common/src/fx_directory_free_search.c ****                 }
 1119              		.loc 1 742 38 view .LVU427
 1120 049c 3E46     		mov	r6, r7
 1121              	.L47:
 1122              	.LVL96:
 746:Middlewares/ST/filex/common/src/fx_directory_free_search.c **** 
 1123              		.loc 1 746 17 is_stmt 1 view .LVU428
 746:Middlewares/ST/filex/common/src/fx_directory_free_search.c **** 
 1124              		.loc 1 746 57 is_stmt 0 view .LVU429
 1125 049e 099A     		ldr	r2, [sp, #36]
 1126 04a0 9763     		str	r7, [r2, #56]
 1127 04a2 0023     		movs	r3, #0
 1128 04a4 D363     		str	r3, [r2, #60]
 752:Middlewares/ST/filex/common/src/fx_directory_free_search.c ****                 {
 1129              		.loc 1 752 17 is_stmt 1 view .LVU430
 752:Middlewares/ST/filex/common/src/fx_directory_free_search.c ****                 {
 1130              		.loc 1 752 32 is_stmt 0 view .LVU431
 1131 04a6 D8F86430 		ldr	r3, [r8, #100]
 752:Middlewares/ST/filex/common/src/fx_directory_free_search.c ****                 {
 1132              		.loc 1 752 20 view .LVU432
 1133 04aa 13B1     		cbz	r3, .L48
ARM GAS  C:\Users\HP\AppData\Local\Temp\ccmUfyBM.s 			page 50


 752:Middlewares/ST/filex/common/src/fx_directory_free_search.c ****                 {
 1134              		.loc 1 752 56 discriminator 1 view .LVU433
 1135 04ac B9F1000F 		cmp	r9, #0
 1136 04b0 0ED0     		beq	.L95
 1137              	.L48:
 760:Middlewares/ST/filex/common/src/fx_directory_free_search.c **** 
 1138              		.loc 1 760 17 is_stmt 1 view .LVU434
 760:Middlewares/ST/filex/common/src/fx_directory_free_search.c **** 
 1139              		.loc 1 760 27 is_stmt 0 view .LVU435
 1140 04b2 059A     		ldr	r2, [sp, #20]
 1141 04b4 4046     		mov	r0, r8
 1142              	.LVL97:
 760:Middlewares/ST/filex/common/src/fx_directory_free_search.c **** 
 1143              		.loc 1 760 27 view .LVU436
 1144 04b6 FFF7FEFF 		bl	_fx_utility_FAT_entry_write
 1145              	.LVL98:
 763:Middlewares/ST/filex/common/src/fx_directory_free_search.c ****                 {
 1146              		.loc 1 763 17 is_stmt 1 view .LVU437
 763:Middlewares/ST/filex/common/src/fx_directory_free_search.c ****                 {
 1147              		.loc 1 763 20 is_stmt 0 view .LVU438
 1148 04ba 0346     		mov	r3, r0
 1149 04bc 0028     		cmp	r0, #0
 1150 04be 3FF48CAE 		beq	.L27
 1151 04c2 11E0     		b	.L1
 1152              	.LVL99:
 1153              	.L94:
 738:Middlewares/ST/filex/common/src/fx_directory_free_search.c ****                 {
 1154              		.loc 1 738 135 discriminator 1 view .LVU439
 1155 04c4 9BF80430 		ldrb	r3, [fp, #4]	@ zero_extendqisi2
 738:Middlewares/ST/filex/common/src/fx_directory_free_search.c ****                 {
 1156              		.loc 1 738 21 discriminator 1 view .LVU440
 1157 04c8 002B     		cmp	r3, #0
 1158 04ca E8D0     		beq	.L47
 742:Middlewares/ST/filex/common/src/fx_directory_free_search.c ****                 }
 1159              		.loc 1 742 38 view .LVU441
 1160 04cc 3E46     		mov	r6, r7
 1161 04ce E6E7     		b	.L47
 1162              	.LVL100:
 1163              	.L95:
 756:Middlewares/ST/filex/common/src/fx_directory_free_search.c ****                 }
 1164              		.loc 1 756 21 is_stmt 1 view .LVU442
 756:Middlewares/ST/filex/common/src/fx_directory_free_search.c ****                 }
 1165              		.loc 1 756 66 is_stmt 0 view .LVU443
 1166 04d0 C8F87870 		str	r7, [r8, #120]
 1167 04d4 EDE7     		b	.L48
 1168              	.LVL101:
 1169              	.L85:
 778:Middlewares/ST/filex/common/src/fx_directory_free_search.c **** 
 779:Middlewares/ST/filex/common/src/fx_directory_free_search.c ****     /* Return FX_NO_MORE_SPACE status to the caller.  */
 780:Middlewares/ST/filex/common/src/fx_directory_free_search.c ****     return(FX_NO_MORE_SPACE);
 1170              		.loc 1 780 11 view .LVU444
 1171 04d6 0A23     		movs	r3, #10
 1172 04d8 06E0     		b	.L1
 1173              	.LVL102:
 1174              	.L51:
 141:Middlewares/ST/filex/common/src/fx_directory_free_search.c ****         }
 1175              		.loc 1 141 19 view .LVU445
ARM GAS  C:\Users\HP\AppData\Local\Temp\ccmUfyBM.s 			page 51


 1176 04da 0C23     		movs	r3, #12
 1177 04dc 04E0     		b	.L1
 1178              	.LVL103:
 1179              	.L53:
 235:Middlewares/ST/filex/common/src/fx_directory_free_search.c ****         }
 1180              		.loc 1 235 19 view .LVU446
 1181 04de 0C23     		movs	r3, #12
 1182 04e0 02E0     		b	.L1
 1183              	.LVL104:
 1184              	.L55:
 336:Middlewares/ST/filex/common/src/fx_directory_free_search.c ****         }
 1185              		.loc 1 336 19 view .LVU447
 1186 04e2 059B     		ldr	r3, [sp, #20]
 1187 04e4 00E0     		b	.L1
 1188              	.LVL105:
 1189              	.L57:
 468:Middlewares/ST/filex/common/src/fx_directory_free_search.c ****                         }
 1190              		.loc 1 468 35 view .LVU448
 1191 04e6 0A23     		movs	r3, #10
 1192              	.LVL106:
 1193              	.L1:
 781:Middlewares/ST/filex/common/src/fx_directory_free_search.c **** }
 1194              		.loc 1 781 1 view .LVU449
 1195 04e8 1846     		mov	r0, r3
 1196 04ea 11B0     		add	sp, sp, #68
 1197              	.LCFI2:
 1198              		.cfi_remember_state
 1199              		.cfi_def_cfa_offset 36
 1200              		@ sp needed
 1201 04ec BDE8F08F 		pop	{r4, r5, r6, r7, r8, r9, r10, fp, pc}
 1202              	.LVL107:
 1203              	.L60:
 1204              	.LCFI3:
 1205              		.cfi_restore_state
 673:Middlewares/ST/filex/common/src/fx_directory_free_search.c ****                 }
 1206              		.loc 1 673 27 view .LVU450
 1207 04f0 0346     		mov	r3, r0
 1208 04f2 F9E7     		b	.L1
 1209              	.LVL108:
 1210              	.L61:
 719:Middlewares/ST/filex/common/src/fx_directory_free_search.c ****                     }
 1211              		.loc 1 719 31 view .LVU451
 1212 04f4 0323     		movs	r3, #3
 1213 04f6 F7E7     		b	.L1
 1214              	.L62:
 1215 04f8 0323     		movs	r3, #3
 1216 04fa F5E7     		b	.L1
 1217              	.LVL109:
 1218              	.L63:
 719:Middlewares/ST/filex/common/src/fx_directory_free_search.c ****                     }
 1219              		.loc 1 719 31 view .LVU452
 1220 04fc 0323     		movs	r3, #3
 1221 04fe F3E7     		b	.L1
 1222              		.cfi_endproc
 1223              	.LFE8:
 1225              		.text
 1226              	.Letext0:
ARM GAS  C:\Users\HP\AppData\Local\Temp\ccmUfyBM.s 			page 52


 1227              		.file 3 "Middlewares/ST/threadx/common/inc/tx_api.h"
 1228              		.file 4 "Middlewares/ST/filex/common/inc/fx_api.h"
 1229              		.file 5 "Middlewares/ST/filex/common/inc/fx_system.h"
 1230              		.file 6 "Middlewares/ST/filex/common/inc/fx_directory.h"
 1231              		.file 7 "Middlewares/ST/filex/common/inc/fx_utility.h"
ARM GAS  C:\Users\HP\AppData\Local\Temp\ccmUfyBM.s 			page 53

