ARM GAS  C:\Users\HP\AppData\Local\Temp\ccYHGp0f.s 			page 1


   1              		.cpu cortex-m4
   2              		.arch armv7e-m
   3              		.fpu fpv4-sp-d16
   4              		.eabi_attribute 27, 1
   5              		.eabi_attribute 28, 1
   6              		.eabi_attribute 20, 1
   7              		.eabi_attribute 21, 1
   8              		.eabi_attribute 23, 3
   9              		.eabi_attribute 24, 1
  10              		.eabi_attribute 25, 1
  11              		.eabi_attribute 26, 1
  12              		.eabi_attribute 30, 1
  13              		.eabi_attribute 34, 1
  14              		.eabi_attribute 18, 4
  15              		.file	"fx_directory_first_entry_find.c"
  16              		.text
  17              	.Ltext0:
  18              		.cfi_sections	.debug_frame
  19              		.section	.text._fx_directory_first_entry_find,"ax",%progbits
  20              		.align	1
  21              		.global	_fx_directory_first_entry_find
  22              		.syntax unified
  23              		.thumb
  24              		.thumb_func
  26              	_fx_directory_first_entry_find:
  27              	.LVL0:
  28              	.LFB8:
  29              		.file 1 "Middlewares/ST/filex/common/src/fx_directory_first_entry_find.c"
   1:Middlewares/ST/filex/common/src/fx_directory_first_entry_find.c **** /**************************************************************************/
   2:Middlewares/ST/filex/common/src/fx_directory_first_entry_find.c **** /*                                                                        */
   3:Middlewares/ST/filex/common/src/fx_directory_first_entry_find.c **** /*       Copyright (c) Microsoft Corporation. All rights reserved.        */
   4:Middlewares/ST/filex/common/src/fx_directory_first_entry_find.c **** /*                                                                        */
   5:Middlewares/ST/filex/common/src/fx_directory_first_entry_find.c **** /*       This software is licensed under the Microsoft Software License   */
   6:Middlewares/ST/filex/common/src/fx_directory_first_entry_find.c **** /*       Terms for Microsoft Azure RTOS. Full text of the license can be  */
   7:Middlewares/ST/filex/common/src/fx_directory_first_entry_find.c **** /*       found in the LICENSE file at https://aka.ms/AzureRTOS_EULA       */
   8:Middlewares/ST/filex/common/src/fx_directory_first_entry_find.c **** /*       and in the root directory of this software.                      */
   9:Middlewares/ST/filex/common/src/fx_directory_first_entry_find.c **** /*                                                                        */
  10:Middlewares/ST/filex/common/src/fx_directory_first_entry_find.c **** /**************************************************************************/
  11:Middlewares/ST/filex/common/src/fx_directory_first_entry_find.c **** 
  12:Middlewares/ST/filex/common/src/fx_directory_first_entry_find.c **** 
  13:Middlewares/ST/filex/common/src/fx_directory_first_entry_find.c **** /**************************************************************************/
  14:Middlewares/ST/filex/common/src/fx_directory_first_entry_find.c **** /**************************************************************************/
  15:Middlewares/ST/filex/common/src/fx_directory_first_entry_find.c **** /**                                                                       */
  16:Middlewares/ST/filex/common/src/fx_directory_first_entry_find.c **** /** FileX Component                                                       */
  17:Middlewares/ST/filex/common/src/fx_directory_first_entry_find.c **** /**                                                                       */
  18:Middlewares/ST/filex/common/src/fx_directory_first_entry_find.c **** /**   Directory                                                           */
  19:Middlewares/ST/filex/common/src/fx_directory_first_entry_find.c **** /**                                                                       */
  20:Middlewares/ST/filex/common/src/fx_directory_first_entry_find.c **** /**************************************************************************/
  21:Middlewares/ST/filex/common/src/fx_directory_first_entry_find.c **** /**************************************************************************/
  22:Middlewares/ST/filex/common/src/fx_directory_first_entry_find.c **** 
  23:Middlewares/ST/filex/common/src/fx_directory_first_entry_find.c **** #define FX_SOURCE_CODE
  24:Middlewares/ST/filex/common/src/fx_directory_first_entry_find.c **** 
  25:Middlewares/ST/filex/common/src/fx_directory_first_entry_find.c **** 
  26:Middlewares/ST/filex/common/src/fx_directory_first_entry_find.c **** /* Include necessary system files.  */
  27:Middlewares/ST/filex/common/src/fx_directory_first_entry_find.c **** 
  28:Middlewares/ST/filex/common/src/fx_directory_first_entry_find.c **** #include "fx_api.h"
  29:Middlewares/ST/filex/common/src/fx_directory_first_entry_find.c **** #include "fx_system.h"
ARM GAS  C:\Users\HP\AppData\Local\Temp\ccYHGp0f.s 			page 2


  30:Middlewares/ST/filex/common/src/fx_directory_first_entry_find.c **** #include "fx_directory.h"
  31:Middlewares/ST/filex/common/src/fx_directory_first_entry_find.c **** #include "fx_utility.h"
  32:Middlewares/ST/filex/common/src/fx_directory_first_entry_find.c **** 
  33:Middlewares/ST/filex/common/src/fx_directory_first_entry_find.c **** #ifndef FX_NO_LOCAL_PATH
  34:Middlewares/ST/filex/common/src/fx_directory_first_entry_find.c **** FX_LOCAL_PATH_SETUP
  35:Middlewares/ST/filex/common/src/fx_directory_first_entry_find.c **** #endif
  36:Middlewares/ST/filex/common/src/fx_directory_first_entry_find.c **** 
  37:Middlewares/ST/filex/common/src/fx_directory_first_entry_find.c **** 
  38:Middlewares/ST/filex/common/src/fx_directory_first_entry_find.c **** /**************************************************************************/
  39:Middlewares/ST/filex/common/src/fx_directory_first_entry_find.c **** /*                                                                        */
  40:Middlewares/ST/filex/common/src/fx_directory_first_entry_find.c **** /*  FUNCTION                                               RELEASE        */
  41:Middlewares/ST/filex/common/src/fx_directory_first_entry_find.c **** /*                                                                        */
  42:Middlewares/ST/filex/common/src/fx_directory_first_entry_find.c **** /*    _fx_directory_first_entry_find                      PORTABLE C      */
  43:Middlewares/ST/filex/common/src/fx_directory_first_entry_find.c **** /*                                                           6.1          */
  44:Middlewares/ST/filex/common/src/fx_directory_first_entry_find.c **** /*  AUTHOR                                                                */
  45:Middlewares/ST/filex/common/src/fx_directory_first_entry_find.c **** /*                                                                        */
  46:Middlewares/ST/filex/common/src/fx_directory_first_entry_find.c **** /*    William E. Lamie, Microsoft Corporation                             */
  47:Middlewares/ST/filex/common/src/fx_directory_first_entry_find.c **** /*                                                                        */
  48:Middlewares/ST/filex/common/src/fx_directory_first_entry_find.c **** /*  DESCRIPTION                                                           */
  49:Middlewares/ST/filex/common/src/fx_directory_first_entry_find.c **** /*                                                                        */
  50:Middlewares/ST/filex/common/src/fx_directory_first_entry_find.c **** /*    This function returns the first directory entry of the current      */
  51:Middlewares/ST/filex/common/src/fx_directory_first_entry_find.c **** /*    working directory.                                                  */
  52:Middlewares/ST/filex/common/src/fx_directory_first_entry_find.c **** /*                                                                        */
  53:Middlewares/ST/filex/common/src/fx_directory_first_entry_find.c **** /*  INPUT                                                                 */
  54:Middlewares/ST/filex/common/src/fx_directory_first_entry_find.c **** /*                                                                        */
  55:Middlewares/ST/filex/common/src/fx_directory_first_entry_find.c **** /*    media_ptr                             Media control block pointer   */
  56:Middlewares/ST/filex/common/src/fx_directory_first_entry_find.c **** /*    directory_name                        Destination for directory     */
  57:Middlewares/ST/filex/common/src/fx_directory_first_entry_find.c **** /*                                            name                        */
  58:Middlewares/ST/filex/common/src/fx_directory_first_entry_find.c **** /*                                                                        */
  59:Middlewares/ST/filex/common/src/fx_directory_first_entry_find.c **** /*  OUTPUT                                                                */
  60:Middlewares/ST/filex/common/src/fx_directory_first_entry_find.c **** /*                                                                        */
  61:Middlewares/ST/filex/common/src/fx_directory_first_entry_find.c **** /*    return status                                                       */
  62:Middlewares/ST/filex/common/src/fx_directory_first_entry_find.c **** /*                                                                        */
  63:Middlewares/ST/filex/common/src/fx_directory_first_entry_find.c **** /*  CALLS                                                                 */
  64:Middlewares/ST/filex/common/src/fx_directory_first_entry_find.c **** /*                                                                        */
  65:Middlewares/ST/filex/common/src/fx_directory_first_entry_find.c **** /*    _fx_directory_next_entry_find         Find next directory entry     */
  66:Middlewares/ST/filex/common/src/fx_directory_first_entry_find.c **** /*                                                                        */
  67:Middlewares/ST/filex/common/src/fx_directory_first_entry_find.c **** /*  CALLED BY                                                             */
  68:Middlewares/ST/filex/common/src/fx_directory_first_entry_find.c **** /*                                                                        */
  69:Middlewares/ST/filex/common/src/fx_directory_first_entry_find.c **** /*    FileX System Functions                                              */
  70:Middlewares/ST/filex/common/src/fx_directory_first_entry_find.c **** /*                                                                        */
  71:Middlewares/ST/filex/common/src/fx_directory_first_entry_find.c **** /*  RELEASE HISTORY                                                       */
  72:Middlewares/ST/filex/common/src/fx_directory_first_entry_find.c **** /*                                                                        */
  73:Middlewares/ST/filex/common/src/fx_directory_first_entry_find.c **** /*    DATE              NAME                      DESCRIPTION             */
  74:Middlewares/ST/filex/common/src/fx_directory_first_entry_find.c **** /*                                                                        */
  75:Middlewares/ST/filex/common/src/fx_directory_first_entry_find.c **** /*  05-19-2020     William E. Lamie         Initial Version 6.0           */
  76:Middlewares/ST/filex/common/src/fx_directory_first_entry_find.c **** /*  09-30-2020     William E. Lamie         Modified comment(s),          */
  77:Middlewares/ST/filex/common/src/fx_directory_first_entry_find.c **** /*                                            resulting in version 6.1    */
  78:Middlewares/ST/filex/common/src/fx_directory_first_entry_find.c **** /*                                                                        */
  79:Middlewares/ST/filex/common/src/fx_directory_first_entry_find.c **** /**************************************************************************/
  80:Middlewares/ST/filex/common/src/fx_directory_first_entry_find.c **** UINT  _fx_directory_first_entry_find(FX_MEDIA *media_ptr, CHAR *directory_name)
  81:Middlewares/ST/filex/common/src/fx_directory_first_entry_find.c **** {
  30              		.loc 1 81 1 view -0
  31              		.cfi_startproc
  32              		@ args = 0, pretend = 0, frame = 0
  33              		@ frame_needed = 0, uses_anonymous_args = 0
  82:Middlewares/ST/filex/common/src/fx_directory_first_entry_find.c **** 
ARM GAS  C:\Users\HP\AppData\Local\Temp\ccYHGp0f.s 			page 3


  83:Middlewares/ST/filex/common/src/fx_directory_first_entry_find.c **** UINT status;
  34              		.loc 1 83 1 view .LVU1
  84:Middlewares/ST/filex/common/src/fx_directory_first_entry_find.c **** 
  85:Middlewares/ST/filex/common/src/fx_directory_first_entry_find.c **** 
  86:Middlewares/ST/filex/common/src/fx_directory_first_entry_find.c **** #ifndef FX_MEDIA_STATISTICS_DISABLE
  87:Middlewares/ST/filex/common/src/fx_directory_first_entry_find.c **** 
  88:Middlewares/ST/filex/common/src/fx_directory_first_entry_find.c ****     /* Increment the number of times this service has been called.  */
  89:Middlewares/ST/filex/common/src/fx_directory_first_entry_find.c ****     media_ptr -> fx_media_directory_first_entry_finds++;
  35              		.loc 1 89 5 view .LVU2
  36              		.loc 1 89 15 is_stmt 0 view .LVU3
  37 0000 D0F8F030 		ldr	r3, [r0, #240]
  38              		.loc 1 89 54 view .LVU4
  39 0004 0133     		adds	r3, r3, #1
  40 0006 C0F8F030 		str	r3, [r0, #240]
  90:Middlewares/ST/filex/common/src/fx_directory_first_entry_find.c **** #endif
  91:Middlewares/ST/filex/common/src/fx_directory_first_entry_find.c **** 
  92:Middlewares/ST/filex/common/src/fx_directory_first_entry_find.c ****     /* Check the media to make sure it is open.  */
  93:Middlewares/ST/filex/common/src/fx_directory_first_entry_find.c ****     if (media_ptr -> fx_media_id != FX_MEDIA_ID)
  41              		.loc 1 93 5 is_stmt 1 view .LVU5
  42              		.loc 1 93 19 is_stmt 0 view .LVU6
  43 000a 0268     		ldr	r2, [r0]
  44              		.loc 1 93 8 view .LVU7
  45 000c 124B     		ldr	r3, .L12
  46 000e 9A42     		cmp	r2, r3
  47 0010 01D0     		beq	.L11
  94:Middlewares/ST/filex/common/src/fx_directory_first_entry_find.c ****     {
  95:Middlewares/ST/filex/common/src/fx_directory_first_entry_find.c **** 
  96:Middlewares/ST/filex/common/src/fx_directory_first_entry_find.c ****         /* Return the media not opened error.  */
  97:Middlewares/ST/filex/common/src/fx_directory_first_entry_find.c ****         return(FX_MEDIA_NOT_OPEN);
  48              		.loc 1 97 15 view .LVU8
  49 0012 1120     		movs	r0, #17
  50              	.LVL1:
  98:Middlewares/ST/filex/common/src/fx_directory_first_entry_find.c ****     }
  99:Middlewares/ST/filex/common/src/fx_directory_first_entry_find.c **** 
 100:Middlewares/ST/filex/common/src/fx_directory_first_entry_find.c ****     /* If trace is enabled, insert this event into the trace buffer.  */
 101:Middlewares/ST/filex/common/src/fx_directory_first_entry_find.c ****     FX_TRACE_IN_LINE_INSERT(FX_TRACE_DIRECTORY_FIRST_ENTRY_FIND, media_ptr, directory_name, 0, 0, F
 102:Middlewares/ST/filex/common/src/fx_directory_first_entry_find.c **** 
 103:Middlewares/ST/filex/common/src/fx_directory_first_entry_find.c ****     /* Protect against other threads accessing the media.  */
 104:Middlewares/ST/filex/common/src/fx_directory_first_entry_find.c ****     FX_PROTECT
 105:Middlewares/ST/filex/common/src/fx_directory_first_entry_find.c **** 
 106:Middlewares/ST/filex/common/src/fx_directory_first_entry_find.c ****     /* Determine if a local path is in effect at this point.  */
 107:Middlewares/ST/filex/common/src/fx_directory_first_entry_find.c **** #ifndef FX_NO_LOCAL_PATH
 108:Middlewares/ST/filex/common/src/fx_directory_first_entry_find.c ****     if (_tx_thread_current_ptr -> tx_thread_filex_ptr)
 109:Middlewares/ST/filex/common/src/fx_directory_first_entry_find.c ****     {
 110:Middlewares/ST/filex/common/src/fx_directory_first_entry_find.c **** 
 111:Middlewares/ST/filex/common/src/fx_directory_first_entry_find.c ****         /* Yes, there is a local path.  Set the current entry to zero.  */
 112:Middlewares/ST/filex/common/src/fx_directory_first_entry_find.c ****         ((FX_PATH *)_tx_thread_current_ptr -> tx_thread_filex_ptr) -> fx_path_current_entry =  0;
 113:Middlewares/ST/filex/common/src/fx_directory_first_entry_find.c ****     }
 114:Middlewares/ST/filex/common/src/fx_directory_first_entry_find.c ****     else
 115:Middlewares/ST/filex/common/src/fx_directory_first_entry_find.c ****     {
 116:Middlewares/ST/filex/common/src/fx_directory_first_entry_find.c **** 
 117:Middlewares/ST/filex/common/src/fx_directory_first_entry_find.c ****         /* Use global default directory.  Set the current entry to 0 in
 118:Middlewares/ST/filex/common/src/fx_directory_first_entry_find.c ****            order to pickup the first entry.  */
 119:Middlewares/ST/filex/common/src/fx_directory_first_entry_find.c ****         media_ptr -> fx_media_default_path.fx_path_current_entry =  0;
 120:Middlewares/ST/filex/common/src/fx_directory_first_entry_find.c ****     }
 121:Middlewares/ST/filex/common/src/fx_directory_first_entry_find.c **** #else
 122:Middlewares/ST/filex/common/src/fx_directory_first_entry_find.c **** 
ARM GAS  C:\Users\HP\AppData\Local\Temp\ccYHGp0f.s 			page 4


 123:Middlewares/ST/filex/common/src/fx_directory_first_entry_find.c ****     /* Set the current entry to 0 in order to pickup the first entry.  */
 124:Middlewares/ST/filex/common/src/fx_directory_first_entry_find.c ****     media_ptr -> fx_media_default_path.fx_path_current_entry =  0;
 125:Middlewares/ST/filex/common/src/fx_directory_first_entry_find.c **** #endif
 126:Middlewares/ST/filex/common/src/fx_directory_first_entry_find.c **** 
 127:Middlewares/ST/filex/common/src/fx_directory_first_entry_find.c ****     /* Release media protection.  */
 128:Middlewares/ST/filex/common/src/fx_directory_first_entry_find.c ****     FX_UNPROTECT
 129:Middlewares/ST/filex/common/src/fx_directory_first_entry_find.c **** 
 130:Middlewares/ST/filex/common/src/fx_directory_first_entry_find.c ****     /* Call the next directory entry to pickup the first entry.  */
 131:Middlewares/ST/filex/common/src/fx_directory_first_entry_find.c ****     status =  _fx_directory_next_entry_find(media_ptr, directory_name);
 132:Middlewares/ST/filex/common/src/fx_directory_first_entry_find.c **** 
 133:Middlewares/ST/filex/common/src/fx_directory_first_entry_find.c ****     /* Return status to the caller.  */
 134:Middlewares/ST/filex/common/src/fx_directory_first_entry_find.c ****     return(status);
 135:Middlewares/ST/filex/common/src/fx_directory_first_entry_find.c **** }
  51              		.loc 1 135 1 view .LVU9
  52 0014 7047     		bx	lr
  53              	.LVL2:
  54              	.L11:
  81:Middlewares/ST/filex/common/src/fx_directory_first_entry_find.c **** 
  55              		.loc 1 81 1 discriminator 2 view .LVU10
  56 0016 70B5     		push	{r4, r5, r6, lr}
  57              	.LCFI0:
  58              		.cfi_def_cfa_offset 16
  59              		.cfi_offset 4, -16
  60              		.cfi_offset 5, -12
  61              		.cfi_offset 6, -8
  62              		.cfi_offset 14, -4
  63 0018 0446     		mov	r4, r0
  64 001a 0D46     		mov	r5, r1
 104:Middlewares/ST/filex/common/src/fx_directory_first_entry_find.c **** 
  65              		.loc 1 104 5 is_stmt 1 discriminator 2 view .LVU11
 104:Middlewares/ST/filex/common/src/fx_directory_first_entry_find.c **** 
  66              		.loc 1 104 5 discriminator 2 view .LVU12
  67 001c 00F5E476 		add	r6, r0, #456
  68 0020 4FF0FF31 		mov	r1, #-1
  69              	.LVL3:
 104:Middlewares/ST/filex/common/src/fx_directory_first_entry_find.c **** 
  70              		.loc 1 104 5 is_stmt 0 discriminator 2 view .LVU13
  71 0024 3046     		mov	r0, r6
  72              	.LVL4:
 104:Middlewares/ST/filex/common/src/fx_directory_first_entry_find.c **** 
  73              		.loc 1 104 5 discriminator 2 view .LVU14
  74 0026 FFF7FEFF 		bl	_tx_mutex_get
  75              	.LVL5:
  76 002a 98B9     		cbnz	r0, .L6
 108:Middlewares/ST/filex/common/src/fx_directory_first_entry_find.c ****     {
  77              		.loc 1 108 5 is_stmt 1 view .LVU15
 108:Middlewares/ST/filex/common/src/fx_directory_first_entry_find.c ****     {
  78              		.loc 1 108 32 is_stmt 0 view .LVU16
  79 002c 0B4B     		ldr	r3, .L12+4
  80 002e 1B68     		ldr	r3, [r3]
  81 0030 D3F89030 		ldr	r3, [r3, #144]
 108:Middlewares/ST/filex/common/src/fx_directory_first_entry_find.c ****     {
  82              		.loc 1 108 8 view .LVU17
  83 0034 53B1     		cbz	r3, .L3
 112:Middlewares/ST/filex/common/src/fx_directory_first_entry_find.c ****     }
  84              		.loc 1 112 9 is_stmt 1 view .LVU18
 112:Middlewares/ST/filex/common/src/fx_directory_first_entry_find.c ****     }
ARM GAS  C:\Users\HP\AppData\Local\Temp\ccYHGp0f.s 			page 5


  85              		.loc 1 112 93 is_stmt 0 view .LVU19
  86 0036 0022     		movs	r2, #0
  87 0038 C3F87022 		str	r2, [r3, #624]
  88              	.L4:
 128:Middlewares/ST/filex/common/src/fx_directory_first_entry_find.c **** 
  89              		.loc 1 128 5 is_stmt 1 view .LVU20
  90 003c 3046     		mov	r0, r6
  91 003e FFF7FEFF 		bl	_tx_mutex_put
  92              	.LVL6:
 131:Middlewares/ST/filex/common/src/fx_directory_first_entry_find.c **** 
  93              		.loc 1 131 5 view .LVU21
 131:Middlewares/ST/filex/common/src/fx_directory_first_entry_find.c **** 
  94              		.loc 1 131 15 is_stmt 0 view .LVU22
  95 0042 2946     		mov	r1, r5
  96 0044 2046     		mov	r0, r4
  97 0046 FFF7FEFF 		bl	_fx_directory_next_entry_find
  98              	.LVL7:
 134:Middlewares/ST/filex/common/src/fx_directory_first_entry_find.c **** }
  99              		.loc 1 134 5 is_stmt 1 view .LVU23
 100              	.L1:
 101              		.loc 1 135 1 is_stmt 0 view .LVU24
 102 004a 70BD     		pop	{r4, r5, r6, pc}
 103              	.LVL8:
 104              	.L3:
 119:Middlewares/ST/filex/common/src/fx_directory_first_entry_find.c ****     }
 105              		.loc 1 119 9 is_stmt 1 view .LVU25
 119:Middlewares/ST/filex/common/src/fx_directory_first_entry_find.c ****     }
 106              		.loc 1 119 66 is_stmt 0 view .LVU26
 107 004c 0023     		movs	r3, #0
 108 004e C4F85037 		str	r3, [r4, #1872]
 109 0052 F3E7     		b	.L4
 110              	.L6:
 104:Middlewares/ST/filex/common/src/fx_directory_first_entry_find.c **** 
 111              		.loc 1 104 5 view .LVU27
 112 0054 1120     		movs	r0, #17
 113 0056 F8E7     		b	.L1
 114              	.L13:
 115              		.align	2
 116              	.L12:
 117 0058 4944454D 		.word	1296385097
 118 005c 00000000 		.word	_tx_thread_current_ptr
 119              		.cfi_endproc
 120              	.LFE8:
 122              		.text
 123              	.Letext0:
 124              		.file 2 "Middlewares/ST/threadx/ports/cortex_m4/gnu/inc/tx_port.h"
 125              		.file 3 "Middlewares/ST/threadx/common/inc/tx_api.h"
 126              		.file 4 "Middlewares/ST/filex/common/inc/fx_api.h"
 127              		.file 5 "Middlewares/ST/filex/common/inc/fx_directory.h"
ARM GAS  C:\Users\HP\AppData\Local\Temp\ccYHGp0f.s 			page 6

