ARM GAS  C:\Users\HP\AppData\Local\Temp\ccs6anBT.s 			page 1


   1              		.cpu cortex-m4
   2              		.arch armv7e-m
   3              		.fpu fpv4-sp-d16
   4              		.eabi_attribute 27, 1
   5              		.eabi_attribute 28, 1
   6              		.eabi_attribute 20, 1
   7              		.eabi_attribute 21, 1
   8              		.eabi_attribute 23, 3
   9              		.eabi_attribute 24, 1
  10              		.eabi_attribute 25, 1
  11              		.eabi_attribute 26, 1
  12              		.eabi_attribute 30, 1
  13              		.eabi_attribute 34, 1
  14              		.eabi_attribute 18, 4
  15              		.file	"fx_directory_entry_write.c"
  16              		.text
  17              	.Ltext0:
  18              		.cfi_sections	.debug_frame
  19              		.section	.text._fx_directory_entry_write,"ax",%progbits
  20              		.align	1
  21              		.global	_fx_directory_entry_write
  22              		.syntax unified
  23              		.thumb
  24              		.thumb_func
  26              	_fx_directory_entry_write:
  27              	.LVL0:
  28              	.LFB8:
  29              		.file 1 "Middlewares/ST/filex/common/src/fx_directory_entry_write.c"
   1:Middlewares/ST/filex/common/src/fx_directory_entry_write.c **** /**************************************************************************/
   2:Middlewares/ST/filex/common/src/fx_directory_entry_write.c **** /*                                                                        */
   3:Middlewares/ST/filex/common/src/fx_directory_entry_write.c **** /*       Copyright (c) Microsoft Corporation. All rights reserved.        */
   4:Middlewares/ST/filex/common/src/fx_directory_entry_write.c **** /*                                                                        */
   5:Middlewares/ST/filex/common/src/fx_directory_entry_write.c **** /*       This software is licensed under the Microsoft Software License   */
   6:Middlewares/ST/filex/common/src/fx_directory_entry_write.c **** /*       Terms for Microsoft Azure RTOS. Full text of the license can be  */
   7:Middlewares/ST/filex/common/src/fx_directory_entry_write.c **** /*       found in the LICENSE file at https://aka.ms/AzureRTOS_EULA       */
   8:Middlewares/ST/filex/common/src/fx_directory_entry_write.c **** /*       and in the root directory of this software.                      */
   9:Middlewares/ST/filex/common/src/fx_directory_entry_write.c **** /*                                                                        */
  10:Middlewares/ST/filex/common/src/fx_directory_entry_write.c **** /**************************************************************************/
  11:Middlewares/ST/filex/common/src/fx_directory_entry_write.c **** 
  12:Middlewares/ST/filex/common/src/fx_directory_entry_write.c **** 
  13:Middlewares/ST/filex/common/src/fx_directory_entry_write.c **** /**************************************************************************/
  14:Middlewares/ST/filex/common/src/fx_directory_entry_write.c **** /**************************************************************************/
  15:Middlewares/ST/filex/common/src/fx_directory_entry_write.c **** /**                                                                       */
  16:Middlewares/ST/filex/common/src/fx_directory_entry_write.c **** /** FileX Component                                                       */
  17:Middlewares/ST/filex/common/src/fx_directory_entry_write.c **** /**                                                                       */
  18:Middlewares/ST/filex/common/src/fx_directory_entry_write.c **** /**   Directory                                                           */
  19:Middlewares/ST/filex/common/src/fx_directory_entry_write.c **** /**                                                                       */
  20:Middlewares/ST/filex/common/src/fx_directory_entry_write.c **** /**************************************************************************/
  21:Middlewares/ST/filex/common/src/fx_directory_entry_write.c **** /**************************************************************************/
  22:Middlewares/ST/filex/common/src/fx_directory_entry_write.c **** 
  23:Middlewares/ST/filex/common/src/fx_directory_entry_write.c **** #define FX_SOURCE_CODE
  24:Middlewares/ST/filex/common/src/fx_directory_entry_write.c **** 
  25:Middlewares/ST/filex/common/src/fx_directory_entry_write.c **** 
  26:Middlewares/ST/filex/common/src/fx_directory_entry_write.c **** /* Include necessary system files.  */
  27:Middlewares/ST/filex/common/src/fx_directory_entry_write.c **** 
  28:Middlewares/ST/filex/common/src/fx_directory_entry_write.c **** #include "fx_api.h"
  29:Middlewares/ST/filex/common/src/fx_directory_entry_write.c **** #include "fx_system.h"
ARM GAS  C:\Users\HP\AppData\Local\Temp\ccs6anBT.s 			page 2


  30:Middlewares/ST/filex/common/src/fx_directory_entry_write.c **** #include "fx_directory.h"
  31:Middlewares/ST/filex/common/src/fx_directory_entry_write.c **** #include "fx_utility.h"
  32:Middlewares/ST/filex/common/src/fx_directory_entry_write.c **** #ifdef FX_ENABLE_FAULT_TOLERANT
  33:Middlewares/ST/filex/common/src/fx_directory_entry_write.c **** #include "fx_fault_tolerant.h"
  34:Middlewares/ST/filex/common/src/fx_directory_entry_write.c **** #endif /* FX_ENABLE_FAULT_TOLERANT */
  35:Middlewares/ST/filex/common/src/fx_directory_entry_write.c **** 
  36:Middlewares/ST/filex/common/src/fx_directory_entry_write.c **** 
  37:Middlewares/ST/filex/common/src/fx_directory_entry_write.c **** /**************************************************************************/
  38:Middlewares/ST/filex/common/src/fx_directory_entry_write.c **** /*                                                                        */
  39:Middlewares/ST/filex/common/src/fx_directory_entry_write.c **** /*  FUNCTION                                               RELEASE        */
  40:Middlewares/ST/filex/common/src/fx_directory_entry_write.c **** /*                                                                        */
  41:Middlewares/ST/filex/common/src/fx_directory_entry_write.c **** /*    _fx_directory_entry_write                           PORTABLE C      */
  42:Middlewares/ST/filex/common/src/fx_directory_entry_write.c **** /*                                                           6.1.5        */
  43:Middlewares/ST/filex/common/src/fx_directory_entry_write.c **** /*  AUTHOR                                                                */
  44:Middlewares/ST/filex/common/src/fx_directory_entry_write.c **** /*                                                                        */
  45:Middlewares/ST/filex/common/src/fx_directory_entry_write.c **** /*    William E. Lamie, Microsoft Corporation                             */
  46:Middlewares/ST/filex/common/src/fx_directory_entry_write.c **** /*                                                                        */
  47:Middlewares/ST/filex/common/src/fx_directory_entry_write.c **** /*  DESCRIPTION                                                           */
  48:Middlewares/ST/filex/common/src/fx_directory_entry_write.c **** /*                                                                        */
  49:Middlewares/ST/filex/common/src/fx_directory_entry_write.c **** /*    This function writes the supplied directory entry to the specified  */
  50:Middlewares/ST/filex/common/src/fx_directory_entry_write.c **** /*    logical sector and offset.                                          */
  51:Middlewares/ST/filex/common/src/fx_directory_entry_write.c **** /*                                                                        */
  52:Middlewares/ST/filex/common/src/fx_directory_entry_write.c **** /*  INPUT                                                                 */
  53:Middlewares/ST/filex/common/src/fx_directory_entry_write.c **** /*                                                                        */
  54:Middlewares/ST/filex/common/src/fx_directory_entry_write.c **** /*    media_ptr                             Media control block pointer   */
  55:Middlewares/ST/filex/common/src/fx_directory_entry_write.c **** /*    entry_ptr                             Pointer to directory entry    */
  56:Middlewares/ST/filex/common/src/fx_directory_entry_write.c **** /*                                                                        */
  57:Middlewares/ST/filex/common/src/fx_directory_entry_write.c **** /*  OUTPUT                                                                */
  58:Middlewares/ST/filex/common/src/fx_directory_entry_write.c **** /*                                                                        */
  59:Middlewares/ST/filex/common/src/fx_directory_entry_write.c **** /*    return status                                                       */
  60:Middlewares/ST/filex/common/src/fx_directory_entry_write.c **** /*                                                                        */
  61:Middlewares/ST/filex/common/src/fx_directory_entry_write.c **** /*  CALLS                                                                 */
  62:Middlewares/ST/filex/common/src/fx_directory_entry_write.c **** /*                                                                        */
  63:Middlewares/ST/filex/common/src/fx_directory_entry_write.c **** /*    _fx_utility_FAT_entry_read            Read a new FAT entry          */
  64:Middlewares/ST/filex/common/src/fx_directory_entry_write.c **** /*    _fx_utility_logical_sector_read       Read directory sector         */
  65:Middlewares/ST/filex/common/src/fx_directory_entry_write.c **** /*    _fx_utility_logical_sector_write      Write directory sector        */
  66:Middlewares/ST/filex/common/src/fx_directory_entry_write.c **** /*    _fx_utility_16_unsigned_write         Write a UINT from memory      */
  67:Middlewares/ST/filex/common/src/fx_directory_entry_write.c **** /*    _fx_utility_32_unsigned_write         Write a ULONG from memory     */
  68:Middlewares/ST/filex/common/src/fx_directory_entry_write.c **** /*    _fx_fault_tolerant_add_dir_log        Add directory redo log        */
  69:Middlewares/ST/filex/common/src/fx_directory_entry_write.c **** /*                                                                        */
  70:Middlewares/ST/filex/common/src/fx_directory_entry_write.c **** /*  CALLED BY                                                             */
  71:Middlewares/ST/filex/common/src/fx_directory_entry_write.c **** /*                                                                        */
  72:Middlewares/ST/filex/common/src/fx_directory_entry_write.c **** /*    FileX System Functions                                              */
  73:Middlewares/ST/filex/common/src/fx_directory_entry_write.c **** /*                                                                        */
  74:Middlewares/ST/filex/common/src/fx_directory_entry_write.c **** /*  RELEASE HISTORY                                                       */
  75:Middlewares/ST/filex/common/src/fx_directory_entry_write.c **** /*                                                                        */
  76:Middlewares/ST/filex/common/src/fx_directory_entry_write.c **** /*    DATE              NAME                      DESCRIPTION             */
  77:Middlewares/ST/filex/common/src/fx_directory_entry_write.c **** /*                                                                        */
  78:Middlewares/ST/filex/common/src/fx_directory_entry_write.c **** /*  05-19-2020     William E. Lamie         Initial Version 6.0           */
  79:Middlewares/ST/filex/common/src/fx_directory_entry_write.c **** /*  09-30-2020     William E. Lamie         Modified comment(s),          */
  80:Middlewares/ST/filex/common/src/fx_directory_entry_write.c **** /*                                            resulting in version 6.1    */
  81:Middlewares/ST/filex/common/src/fx_directory_entry_write.c **** /*  03-02-2021     William E. Lamie         Modified comment(s),          */
  82:Middlewares/ST/filex/common/src/fx_directory_entry_write.c **** /*                                            resulting in version 6.1.5  */
  83:Middlewares/ST/filex/common/src/fx_directory_entry_write.c **** /*                                                                        */
  84:Middlewares/ST/filex/common/src/fx_directory_entry_write.c **** /**************************************************************************/
  85:Middlewares/ST/filex/common/src/fx_directory_entry_write.c **** UINT  _fx_directory_entry_write(FX_MEDIA *media_ptr, FX_DIR_ENTRY *entry_ptr)
  86:Middlewares/ST/filex/common/src/fx_directory_entry_write.c **** {
ARM GAS  C:\Users\HP\AppData\Local\Temp\ccs6anBT.s 			page 3


  30              		.loc 1 86 1 view -0
  31              		.cfi_startproc
  32              		@ args = 0, pretend = 0, frame = 40
  33              		@ frame_needed = 0, uses_anonymous_args = 0
  34              		.loc 1 86 1 is_stmt 0 view .LVU1
  35 0000 2DE9F04F 		push	{r4, r5, r6, r7, r8, r9, r10, fp, lr}
  36              	.LCFI0:
  37              		.cfi_def_cfa_offset 36
  38              		.cfi_offset 4, -36
  39              		.cfi_offset 5, -32
  40              		.cfi_offset 6, -28
  41              		.cfi_offset 7, -24
  42              		.cfi_offset 8, -20
  43              		.cfi_offset 9, -16
  44              		.cfi_offset 10, -12
  45              		.cfi_offset 11, -8
  46              		.cfi_offset 14, -4
  47 0004 8FB0     		sub	sp, sp, #60
  48              	.LCFI1:
  49              		.cfi_def_cfa_offset 96
  50 0006 8046     		mov	r8, r0
  51 0008 0D46     		mov	r5, r1
  87:Middlewares/ST/filex/common/src/fx_directory_entry_write.c **** 
  88:Middlewares/ST/filex/common/src/fx_directory_entry_write.c **** UCHAR *work_ptr, *sector_base_ptr;
  52              		.loc 1 88 1 is_stmt 1 view .LVU2
  89:Middlewares/ST/filex/common/src/fx_directory_entry_write.c **** UINT   status, temp, entry, delete_flag;
  53              		.loc 1 89 1 view .LVU3
  90:Middlewares/ST/filex/common/src/fx_directory_entry_write.c **** UINT   i, j, k, l, card, len, dotfound, dotpos, match;
  54              		.loc 1 90 1 view .LVU4
  91:Middlewares/ST/filex/common/src/fx_directory_entry_write.c **** UCHAR  checksum, eof_marker;
  55              		.loc 1 91 1 view .LVU5
  92:Middlewares/ST/filex/common/src/fx_directory_entry_write.c **** CHAR   alpha;
  56              		.loc 1 92 1 view .LVU6
  93:Middlewares/ST/filex/common/src/fx_directory_entry_write.c **** CHAR   shortname[FX_DIR_NAME_SIZE + FX_DIR_EXT_SIZE + 1];
  57              		.loc 1 93 1 view .LVU7
  94:Middlewares/ST/filex/common/src/fx_directory_entry_write.c **** ULONG  logical_sector, relative_sector;
  58              		.loc 1 94 1 view .LVU8
  95:Middlewares/ST/filex/common/src/fx_directory_entry_write.c **** ULONG  byte_offset;
  59              		.loc 1 95 1 view .LVU9
  96:Middlewares/ST/filex/common/src/fx_directory_entry_write.c **** ULONG  cluster, next_cluster;
  60              		.loc 1 96 1 view .LVU10
  97:Middlewares/ST/filex/common/src/fx_directory_entry_write.c **** 
  98:Middlewares/ST/filex/common/src/fx_directory_entry_write.c **** 
  99:Middlewares/ST/filex/common/src/fx_directory_entry_write.c **** #ifdef FX_ENABLE_FAULT_TOLERANT
 100:Middlewares/ST/filex/common/src/fx_directory_entry_write.c **** UCHAR *changed_ptr;
 101:Middlewares/ST/filex/common/src/fx_directory_entry_write.c **** UINT   changed_size;
 102:Middlewares/ST/filex/common/src/fx_directory_entry_write.c **** ULONG  changed_offset;
 103:Middlewares/ST/filex/common/src/fx_directory_entry_write.c **** #endif /* FX_ENABLE_FAULT_TOLERANT */
 104:Middlewares/ST/filex/common/src/fx_directory_entry_write.c **** 
 105:Middlewares/ST/filex/common/src/fx_directory_entry_write.c **** 
 106:Middlewares/ST/filex/common/src/fx_directory_entry_write.c **** #ifndef FX_MEDIA_STATISTICS_DISABLE
 107:Middlewares/ST/filex/common/src/fx_directory_entry_write.c **** 
 108:Middlewares/ST/filex/common/src/fx_directory_entry_write.c ****     /* Increment the number of directory entry write requests.  */
 109:Middlewares/ST/filex/common/src/fx_directory_entry_write.c ****     media_ptr -> fx_media_directory_entry_writes++;
  61              		.loc 1 109 5 view .LVU11
  62              		.loc 1 109 15 is_stmt 0 view .LVU12
  63 000a D0F86C31 		ldr	r3, [r0, #364]
ARM GAS  C:\Users\HP\AppData\Local\Temp\ccs6anBT.s 			page 4


  64              		.loc 1 109 49 view .LVU13
  65 000e 0133     		adds	r3, r3, #1
  66 0010 C0F86C31 		str	r3, [r0, #364]
 110:Middlewares/ST/filex/common/src/fx_directory_entry_write.c **** #endif
 111:Middlewares/ST/filex/common/src/fx_directory_entry_write.c **** 
 112:Middlewares/ST/filex/common/src/fx_directory_entry_write.c ****     /* Extended port-specific processing macro, which is by default defined to white space.  */
 113:Middlewares/ST/filex/common/src/fx_directory_entry_write.c ****     FX_DIRECTORY_ENTRY_WRITE_EXTENSION
 114:Middlewares/ST/filex/common/src/fx_directory_entry_write.c **** 
 115:Middlewares/ST/filex/common/src/fx_directory_entry_write.c ****     /* If trace is enabled, insert this event into the trace buffer.  */
 116:Middlewares/ST/filex/common/src/fx_directory_entry_write.c ****     FX_TRACE_IN_LINE_INSERT(FX_TRACE_INTERNAL_DIR_ENTRY_WRITE, media_ptr, 0, 0, 0, FX_TRACE_INTERNA
 117:Middlewares/ST/filex/common/src/fx_directory_entry_write.c **** 
 118:Middlewares/ST/filex/common/src/fx_directory_entry_write.c ****     /* Determine if this is entry is being deleted.  */
 119:Middlewares/ST/filex/common/src/fx_directory_entry_write.c ****     if (((UCHAR)entry_ptr -> fx_dir_entry_name[0] == (UCHAR)FX_DIR_ENTRY_FREE) &&
  67              		.loc 1 119 5 is_stmt 1 view .LVU14
  68              		.loc 1 119 27 is_stmt 0 view .LVU15
  69 0014 0B68     		ldr	r3, [r1]
  70              		.loc 1 119 47 view .LVU16
  71 0016 1B78     		ldrb	r3, [r3]	@ zero_extendqisi2
  72              		.loc 1 119 8 view .LVU17
  73 0018 E52B     		cmp	r3, #229
  74 001a 16D0     		beq	.L136
 120:Middlewares/ST/filex/common/src/fx_directory_entry_write.c ****         ((UCHAR)entry_ptr -> fx_dir_entry_short_name[0] == (UCHAR)FX_DIR_ENTRY_FREE))
 121:Middlewares/ST/filex/common/src/fx_directory_entry_write.c ****     {
 122:Middlewares/ST/filex/common/src/fx_directory_entry_write.c **** 
 123:Middlewares/ST/filex/common/src/fx_directory_entry_write.c ****         /* Yes, this is a request to delete the entry. Set the flag to remember this.  */
 124:Middlewares/ST/filex/common/src/fx_directory_entry_write.c ****         delete_flag =  FX_TRUE;
 125:Middlewares/ST/filex/common/src/fx_directory_entry_write.c **** 
 126:Middlewares/ST/filex/common/src/fx_directory_entry_write.c ****         /* Null the short file name.  */
 127:Middlewares/ST/filex/common/src/fx_directory_entry_write.c ****         entry_ptr -> fx_dir_entry_short_name[0] =  0;
 128:Middlewares/ST/filex/common/src/fx_directory_entry_write.c ****     }
 129:Middlewares/ST/filex/common/src/fx_directory_entry_write.c ****     else
 130:Middlewares/ST/filex/common/src/fx_directory_entry_write.c ****     {
 131:Middlewares/ST/filex/common/src/fx_directory_entry_write.c **** 
 132:Middlewares/ST/filex/common/src/fx_directory_entry_write.c ****         /* Not a deleted entry. Set the flag to false.  */
 133:Middlewares/ST/filex/common/src/fx_directory_entry_write.c ****         delete_flag =  FX_FALSE;
  75              		.loc 1 133 21 view .LVU18
  76 001c 0023     		movs	r3, #0
  77 001e 0893     		str	r3, [sp, #32]
  78              	.L2:
  79              	.LVL1:
 134:Middlewares/ST/filex/common/src/fx_directory_entry_write.c ****     }
 135:Middlewares/ST/filex/common/src/fx_directory_entry_write.c **** 
 136:Middlewares/ST/filex/common/src/fx_directory_entry_write.c ****     /* Pickup the byte offset of the entry.  */
 137:Middlewares/ST/filex/common/src/fx_directory_entry_write.c ****     byte_offset = entry_ptr -> fx_dir_entry_byte_offset;
  80              		.loc 1 137 5 is_stmt 1 view .LVU19
  81              		.loc 1 137 17 is_stmt 0 view .LVU20
  82 0020 D5F84890 		ldr	r9, [r5, #72]
  83              	.LVL2:
 138:Middlewares/ST/filex/common/src/fx_directory_entry_write.c **** 
 139:Middlewares/ST/filex/common/src/fx_directory_entry_write.c ****     /* Pickup the logical sector of the entry.  */
 140:Middlewares/ST/filex/common/src/fx_directory_entry_write.c ****     logical_sector = (ULONG)entry_ptr -> fx_dir_entry_log_sector;
  84              		.loc 1 140 5 is_stmt 1 view .LVU21
  85              		.loc 1 140 39 is_stmt 0 view .LVU22
  86 0024 2A6C     		ldr	r2, [r5, #64]
  87 0026 6B6C     		ldr	r3, [r5, #68]
  88              		.loc 1 140 20 view .LVU23
  89 0028 9346     		mov	fp, r2
ARM GAS  C:\Users\HP\AppData\Local\Temp\ccs6anBT.s 			page 5


  90              	.LVL3:
 141:Middlewares/ST/filex/common/src/fx_directory_entry_write.c **** 
 142:Middlewares/ST/filex/common/src/fx_directory_entry_write.c ****     /* Figure out where what cluster we are in.  */
 143:Middlewares/ST/filex/common/src/fx_directory_entry_write.c ****     if (logical_sector >= (ULONG)(media_ptr -> fx_media_data_sector_start))
  91              		.loc 1 143 5 is_stmt 1 view .LVU24
  92              		.loc 1 143 45 is_stmt 0 view .LVU25
  93 002a D8F85010 		ldr	r1, [r8, #80]
  94              	.LVL4:
  95              		.loc 1 143 8 view .LVU26
  96 002e 9142     		cmp	r1, r2
  97 0030 16D8     		bhi	.L103
 144:Middlewares/ST/filex/common/src/fx_directory_entry_write.c ****     {
 145:Middlewares/ST/filex/common/src/fx_directory_entry_write.c **** 
 146:Middlewares/ST/filex/common/src/fx_directory_entry_write.c ****         /* Calculate the cluster that this logical sector is in.  */
 147:Middlewares/ST/filex/common/src/fx_directory_entry_write.c ****         cluster =  (logical_sector - media_ptr -> fx_media_data_sector_start) / (media_ptr -> fx_me
  98              		.loc 1 147 9 is_stmt 1 view .LVU27
  99              		.loc 1 147 36 is_stmt 0 view .LVU28
 100 0032 501A     		subs	r0, r2, r1
 101              	.LVL5:
 102              		.loc 1 147 92 view .LVU29
 103 0034 D8F85440 		ldr	r4, [r8, #84]
 104              		.loc 1 147 79 view .LVU30
 105 0038 B0FBF4F0 		udiv	r0, r0, r4
 106              		.loc 1 147 17 view .LVU31
 107 003c 861C     		adds	r6, r0, #2
 108 003e 0596     		str	r6, [sp, #20]
 109              	.LVL6:
 148:Middlewares/ST/filex/common/src/fx_directory_entry_write.c **** 
 149:Middlewares/ST/filex/common/src/fx_directory_entry_write.c ****         /* Calculate the relative cluster.  */
 150:Middlewares/ST/filex/common/src/fx_directory_entry_write.c ****         relative_sector =  logical_sector -  (((ULONG)media_ptr -> fx_media_data_sector_start) +
 110              		.loc 1 150 9 is_stmt 1 view .LVU32
 111              		.loc 1 150 96 is_stmt 0 view .LVU33
 112 0040 00FB0411 		mla	r1, r0, r4, r1
 113              		.loc 1 150 25 view .LVU34
 114 0044 511A     		subs	r1, r2, r1
 115 0046 0791     		str	r1, [sp, #28]
 116              	.LVL7:
 117              		.loc 1 150 25 view .LVU35
 118 0048 0DE0     		b	.L3
 119              	.LVL8:
 120              	.L136:
 120:Middlewares/ST/filex/common/src/fx_directory_entry_write.c ****     {
 121              		.loc 1 120 53 discriminator 1 view .LVU36
 122 004a 0B79     		ldrb	r3, [r1, #4]	@ zero_extendqisi2
 119:Middlewares/ST/filex/common/src/fx_directory_entry_write.c ****         ((UCHAR)entry_ptr -> fx_dir_entry_short_name[0] == (UCHAR)FX_DIR_ENTRY_FREE))
 123              		.loc 1 119 80 discriminator 1 view .LVU37
 124 004c E52B     		cmp	r3, #229
 125 004e 02D0     		beq	.L137
 133:Middlewares/ST/filex/common/src/fx_directory_entry_write.c ****     }
 126              		.loc 1 133 21 view .LVU38
 127 0050 0023     		movs	r3, #0
 128 0052 0893     		str	r3, [sp, #32]
 129 0054 E4E7     		b	.L2
 130              	.L137:
 124:Middlewares/ST/filex/common/src/fx_directory_entry_write.c **** 
 131              		.loc 1 124 9 is_stmt 1 view .LVU39
 132              	.LVL9:
ARM GAS  C:\Users\HP\AppData\Local\Temp\ccs6anBT.s 			page 6


 127:Middlewares/ST/filex/common/src/fx_directory_entry_write.c ****     }
 133              		.loc 1 127 9 view .LVU40
 127:Middlewares/ST/filex/common/src/fx_directory_entry_write.c ****     }
 134              		.loc 1 127 49 is_stmt 0 view .LVU41
 135 0056 0023     		movs	r3, #0
 136 0058 0B71     		strb	r3, [r1, #4]
 124:Middlewares/ST/filex/common/src/fx_directory_entry_write.c **** 
 137              		.loc 1 124 21 view .LVU42
 138 005a 0123     		movs	r3, #1
 139 005c 0893     		str	r3, [sp, #32]
 127:Middlewares/ST/filex/common/src/fx_directory_entry_write.c ****     }
 140              		.loc 1 127 49 view .LVU43
 141 005e DFE7     		b	.L2
 142              	.LVL10:
 143              	.L103:
 151:Middlewares/ST/filex/common/src/fx_directory_entry_write.c ****                                               (((ULONG)cluster - FX_FAT_ENTRY_START) *
 152:Middlewares/ST/filex/common/src/fx_directory_entry_write.c ****                                                ((ULONG)media_ptr -> fx_media_sectors_per_cluster)))
 153:Middlewares/ST/filex/common/src/fx_directory_entry_write.c ****     }
 154:Middlewares/ST/filex/common/src/fx_directory_entry_write.c ****     else
 155:Middlewares/ST/filex/common/src/fx_directory_entry_write.c ****     {
 156:Middlewares/ST/filex/common/src/fx_directory_entry_write.c **** 
 157:Middlewares/ST/filex/common/src/fx_directory_entry_write.c ****         /* Clear the cluster and the relative sector.  */
 158:Middlewares/ST/filex/common/src/fx_directory_entry_write.c ****         cluster =  0;
 144              		.loc 1 158 17 view .LVU44
 145 0060 0021     		movs	r1, #0
 146 0062 0591     		str	r1, [sp, #20]
 159:Middlewares/ST/filex/common/src/fx_directory_entry_write.c ****         relative_sector =  0;
 147              		.loc 1 159 25 view .LVU45
 148 0064 0791     		str	r1, [sp, #28]
 149              	.LVL11:
 150              	.L3:
 160:Middlewares/ST/filex/common/src/fx_directory_entry_write.c ****     }
 161:Middlewares/ST/filex/common/src/fx_directory_entry_write.c **** 
 162:Middlewares/ST/filex/common/src/fx_directory_entry_write.c ****     /* Read the logical directory sector.  */
 163:Middlewares/ST/filex/common/src/fx_directory_entry_write.c ****     status =  _fx_utility_logical_sector_read(media_ptr, (ULONG64) entry_ptr -> fx_dir_entry_log_se
 151              		.loc 1 163 5 is_stmt 1 view .LVU46
 164:Middlewares/ST/filex/common/src/fx_directory_entry_write.c ****                                               media_ptr -> fx_media_memory_buffer, ((ULONG) 1), FX_
 152              		.loc 1 164 57 is_stmt 0 view .LVU47
 153 0066 D8F80810 		ldr	r1, [r8, #8]
 163:Middlewares/ST/filex/common/src/fx_directory_entry_write.c ****                                               media_ptr -> fx_media_memory_buffer, ((ULONG) 1), FX_
 154              		.loc 1 163 15 view .LVU48
 155 006a 0320     		movs	r0, #3
 156 006c 0290     		str	r0, [sp, #8]
 157 006e 0120     		movs	r0, #1
 158 0070 0190     		str	r0, [sp, #4]
 159 0072 0091     		str	r1, [sp]
 160 0074 4046     		mov	r0, r8
 161 0076 FFF7FEFF 		bl	_fx_utility_logical_sector_read
 162              	.LVL12:
 165:Middlewares/ST/filex/common/src/fx_directory_entry_write.c **** 
 166:Middlewares/ST/filex/common/src/fx_directory_entry_write.c ****     /* Determine if an error occurred.  */
 167:Middlewares/ST/filex/common/src/fx_directory_entry_write.c ****     if (status != FX_SUCCESS)
 163              		.loc 1 167 5 is_stmt 1 view .LVU49
 164              		.loc 1 167 8 is_stmt 0 view .LVU50
 165 007a 0346     		mov	r3, r0
 166 007c 0028     		cmp	r0, #0
 167 007e 40F03283 		bne	.L1
ARM GAS  C:\Users\HP\AppData\Local\Temp\ccs6anBT.s 			page 7


 168:Middlewares/ST/filex/common/src/fx_directory_entry_write.c ****     {
 169:Middlewares/ST/filex/common/src/fx_directory_entry_write.c **** 
 170:Middlewares/ST/filex/common/src/fx_directory_entry_write.c ****         /* Return the error status.  */
 171:Middlewares/ST/filex/common/src/fx_directory_entry_write.c ****         return(status);
 172:Middlewares/ST/filex/common/src/fx_directory_entry_write.c ****     }
 173:Middlewares/ST/filex/common/src/fx_directory_entry_write.c **** 
 174:Middlewares/ST/filex/common/src/fx_directory_entry_write.c ****     /* Setup a pointer into the buffer.  */
 175:Middlewares/ST/filex/common/src/fx_directory_entry_write.c ****     sector_base_ptr = (UCHAR *)media_ptr -> fx_media_memory_buffer;
 168              		.loc 1 175 5 is_stmt 1 view .LVU51
 169              		.loc 1 175 21 is_stmt 0 view .LVU52
 170 0082 D8F80820 		ldr	r2, [r8, #8]
 171 0086 0692     		str	r2, [sp, #24]
 172              	.LVL13:
 176:Middlewares/ST/filex/common/src/fx_directory_entry_write.c ****     work_ptr =  sector_base_ptr + (UINT)entry_ptr -> fx_dir_entry_byte_offset;
 173              		.loc 1 176 5 is_stmt 1 view .LVU53
 174              		.loc 1 176 51 is_stmt 0 view .LVU54
 175 0088 AC6C     		ldr	r4, [r5, #72]
 176              		.loc 1 176 14 view .LVU55
 177 008a 1444     		add	r4, r4, r2
 178              	.LVL14:
 177:Middlewares/ST/filex/common/src/fx_directory_entry_write.c **** 
 178:Middlewares/ST/filex/common/src/fx_directory_entry_write.c **** #ifdef FX_ENABLE_FAULT_TOLERANT
 179:Middlewares/ST/filex/common/src/fx_directory_entry_write.c ****     /* Initialize data for fault tolerant. */
 180:Middlewares/ST/filex/common/src/fx_directory_entry_write.c ****     changed_ptr = work_ptr;
 181:Middlewares/ST/filex/common/src/fx_directory_entry_write.c ****     changed_size = 0;
 182:Middlewares/ST/filex/common/src/fx_directory_entry_write.c ****     changed_offset = entry_ptr -> fx_dir_entry_byte_offset;
 183:Middlewares/ST/filex/common/src/fx_directory_entry_write.c **** #endif /* FX_ENABLE_FAULT_TOLERANT */
 184:Middlewares/ST/filex/common/src/fx_directory_entry_write.c **** 
 185:Middlewares/ST/filex/common/src/fx_directory_entry_write.c ****     /* Determine if a long file name is present.  */
 186:Middlewares/ST/filex/common/src/fx_directory_entry_write.c ****     if (entry_ptr -> fx_dir_entry_long_name_present)
 179              		.loc 1 186 5 is_stmt 1 view .LVU56
 180              		.loc 1 186 19 is_stmt 0 view .LVU57
 181 008c 6E69     		ldr	r6, [r5, #20]
 182              		.loc 1 186 8 view .LVU58
 183 008e FEB9     		cbnz	r6, .L104
 187:Middlewares/ST/filex/common/src/fx_directory_entry_write.c ****     {
 188:Middlewares/ST/filex/common/src/fx_directory_entry_write.c **** 
 189:Middlewares/ST/filex/common/src/fx_directory_entry_write.c ****         /* Yes, long name is present - prepare short name and write out this name.  */
 190:Middlewares/ST/filex/common/src/fx_directory_entry_write.c ****         for (len = 0, i = 0, dotpos = 0, dotfound = 0; entry_ptr -> fx_dir_entry_name[len]; len++)
 191:Middlewares/ST/filex/common/src/fx_directory_entry_write.c ****         {
 192:Middlewares/ST/filex/common/src/fx_directory_entry_write.c **** 
 193:Middlewares/ST/filex/common/src/fx_directory_entry_write.c ****             /* Check for a dot.  */
 194:Middlewares/ST/filex/common/src/fx_directory_entry_write.c ****             if (entry_ptr -> fx_dir_entry_name[len] == '.')
 195:Middlewares/ST/filex/common/src/fx_directory_entry_write.c ****             {
 196:Middlewares/ST/filex/common/src/fx_directory_entry_write.c **** 
 197:Middlewares/ST/filex/common/src/fx_directory_entry_write.c ****                 /* Check for leading dot. */
 198:Middlewares/ST/filex/common/src/fx_directory_entry_write.c ****                 if (len == 0)
 199:Middlewares/ST/filex/common/src/fx_directory_entry_write.c ****                 {
 200:Middlewares/ST/filex/common/src/fx_directory_entry_write.c ****                     /* Yes, this is a leading dot. */
 201:Middlewares/ST/filex/common/src/fx_directory_entry_write.c ****                     continue;
 202:Middlewares/ST/filex/common/src/fx_directory_entry_write.c ****                 }
 203:Middlewares/ST/filex/common/src/fx_directory_entry_write.c **** 
 204:Middlewares/ST/filex/common/src/fx_directory_entry_write.c ****                 /* Yes, a dot is present.  From this position the extension will
 205:Middlewares/ST/filex/common/src/fx_directory_entry_write.c ****                    be written.  */
 206:Middlewares/ST/filex/common/src/fx_directory_entry_write.c ****                 dotfound = i;
 207:Middlewares/ST/filex/common/src/fx_directory_entry_write.c ****                 dotpos   = len + 1;
 208:Middlewares/ST/filex/common/src/fx_directory_entry_write.c ****                 continue;
ARM GAS  C:\Users\HP\AppData\Local\Temp\ccs6anBT.s 			page 8


 209:Middlewares/ST/filex/common/src/fx_directory_entry_write.c ****             }
 210:Middlewares/ST/filex/common/src/fx_directory_entry_write.c **** 
 211:Middlewares/ST/filex/common/src/fx_directory_entry_write.c ****             /* Check for non-space and within the short file name length.  */
 212:Middlewares/ST/filex/common/src/fx_directory_entry_write.c ****             if ((entry_ptr -> fx_dir_entry_name[len] != ' ') && (i < 8))
 213:Middlewares/ST/filex/common/src/fx_directory_entry_write.c ****             {
 214:Middlewares/ST/filex/common/src/fx_directory_entry_write.c **** 
 215:Middlewares/ST/filex/common/src/fx_directory_entry_write.c ****                 /* Copy characters into the short file name area.  */
 216:Middlewares/ST/filex/common/src/fx_directory_entry_write.c ****                 shortname[i] = entry_ptr -> fx_dir_entry_name[len];
 217:Middlewares/ST/filex/common/src/fx_directory_entry_write.c ****                 i++;
 218:Middlewares/ST/filex/common/src/fx_directory_entry_write.c ****             }
 219:Middlewares/ST/filex/common/src/fx_directory_entry_write.c ****         }
 220:Middlewares/ST/filex/common/src/fx_directory_entry_write.c **** 
 221:Middlewares/ST/filex/common/src/fx_directory_entry_write.c ****         /* Fill remaining short file name with spaces.  */
 222:Middlewares/ST/filex/common/src/fx_directory_entry_write.c ****         for (j = i; j < FX_DIR_NAME_SIZE + FX_DIR_EXT_SIZE; j++)
 223:Middlewares/ST/filex/common/src/fx_directory_entry_write.c ****         {
 224:Middlewares/ST/filex/common/src/fx_directory_entry_write.c ****             shortname[j] =  ' ';
 225:Middlewares/ST/filex/common/src/fx_directory_entry_write.c ****         }
 226:Middlewares/ST/filex/common/src/fx_directory_entry_write.c **** 
 227:Middlewares/ST/filex/common/src/fx_directory_entry_write.c ****         /* Determine if a dot was encountered.  */
 228:Middlewares/ST/filex/common/src/fx_directory_entry_write.c ****         if (dotpos)
 229:Middlewares/ST/filex/common/src/fx_directory_entry_write.c ****         {
 230:Middlewares/ST/filex/common/src/fx_directory_entry_write.c **** 
 231:Middlewares/ST/filex/common/src/fx_directory_entry_write.c ****             /* Process relative to the dot position.  */
 232:Middlewares/ST/filex/common/src/fx_directory_entry_write.c ****             if (entry_ptr -> fx_dir_entry_name[dotpos])
 233:Middlewares/ST/filex/common/src/fx_directory_entry_write.c ****             {
 234:Middlewares/ST/filex/common/src/fx_directory_entry_write.c ****                 shortname[8] = entry_ptr -> fx_dir_entry_name[dotpos++];
 235:Middlewares/ST/filex/common/src/fx_directory_entry_write.c ****             }
 236:Middlewares/ST/filex/common/src/fx_directory_entry_write.c ****             if (entry_ptr -> fx_dir_entry_name[dotpos])
 237:Middlewares/ST/filex/common/src/fx_directory_entry_write.c ****             {
 238:Middlewares/ST/filex/common/src/fx_directory_entry_write.c ****                 shortname[9] = entry_ptr -> fx_dir_entry_name[dotpos++];
 239:Middlewares/ST/filex/common/src/fx_directory_entry_write.c ****             }
 240:Middlewares/ST/filex/common/src/fx_directory_entry_write.c ****             if (entry_ptr -> fx_dir_entry_name[dotpos])
 241:Middlewares/ST/filex/common/src/fx_directory_entry_write.c ****             {
 242:Middlewares/ST/filex/common/src/fx_directory_entry_write.c ****                 shortname[10] = entry_ptr -> fx_dir_entry_name[dotpos++];
 243:Middlewares/ST/filex/common/src/fx_directory_entry_write.c ****             }
 244:Middlewares/ST/filex/common/src/fx_directory_entry_write.c **** 
 245:Middlewares/ST/filex/common/src/fx_directory_entry_write.c ****             /* Determine if additional spaces are needed.  */
 246:Middlewares/ST/filex/common/src/fx_directory_entry_write.c ****             i = dotfound;
 247:Middlewares/ST/filex/common/src/fx_directory_entry_write.c **** 
 248:Middlewares/ST/filex/common/src/fx_directory_entry_write.c ****             for (; dotfound <= 7; dotfound++)
 249:Middlewares/ST/filex/common/src/fx_directory_entry_write.c ****             {
 250:Middlewares/ST/filex/common/src/fx_directory_entry_write.c ****                 /* Add space...  */
 251:Middlewares/ST/filex/common/src/fx_directory_entry_write.c ****                 shortname[dotfound] = ' ';
 252:Middlewares/ST/filex/common/src/fx_directory_entry_write.c ****             }
 253:Middlewares/ST/filex/common/src/fx_directory_entry_write.c ****         }
 254:Middlewares/ST/filex/common/src/fx_directory_entry_write.c **** 
 255:Middlewares/ST/filex/common/src/fx_directory_entry_write.c ****         /* Each entry contains 13 unicode entries.  Calculate the remainder.  */
 256:Middlewares/ST/filex/common/src/fx_directory_entry_write.c ****         if (len % 13 == 0)
 257:Middlewares/ST/filex/common/src/fx_directory_entry_write.c ****         {
 258:Middlewares/ST/filex/common/src/fx_directory_entry_write.c ****             card =  len / 13;
 259:Middlewares/ST/filex/common/src/fx_directory_entry_write.c ****         }
 260:Middlewares/ST/filex/common/src/fx_directory_entry_write.c ****         else
 261:Middlewares/ST/filex/common/src/fx_directory_entry_write.c ****         {
 262:Middlewares/ST/filex/common/src/fx_directory_entry_write.c ****             card =  len / 13 + 1;
 263:Middlewares/ST/filex/common/src/fx_directory_entry_write.c ****         }
 264:Middlewares/ST/filex/common/src/fx_directory_entry_write.c **** 
 265:Middlewares/ST/filex/common/src/fx_directory_entry_write.c ****         /* Default the name match to true.  */
ARM GAS  C:\Users\HP\AppData\Local\Temp\ccs6anBT.s 			page 9


 266:Middlewares/ST/filex/common/src/fx_directory_entry_write.c ****         match =  FX_TRUE;
 267:Middlewares/ST/filex/common/src/fx_directory_entry_write.c **** 
 268:Middlewares/ST/filex/common/src/fx_directory_entry_write.c ****         /* Loop through the newly derived short name and the original name and look
 269:Middlewares/ST/filex/common/src/fx_directory_entry_write.c ****            for a non-matching character.  */
 270:Middlewares/ST/filex/common/src/fx_directory_entry_write.c ****         l =  0;
 271:Middlewares/ST/filex/common/src/fx_directory_entry_write.c ****         k =  0;
 272:Middlewares/ST/filex/common/src/fx_directory_entry_write.c ****         while (k < FX_DIR_NAME_SIZE + FX_DIR_EXT_SIZE)
 273:Middlewares/ST/filex/common/src/fx_directory_entry_write.c ****         {
 274:Middlewares/ST/filex/common/src/fx_directory_entry_write.c **** 
 275:Middlewares/ST/filex/common/src/fx_directory_entry_write.c ****             /* Determine if a space is detected in the short name. If so,
 276:Middlewares/ST/filex/common/src/fx_directory_entry_write.c ****                advance to the extension index.  */
 277:Middlewares/ST/filex/common/src/fx_directory_entry_write.c ****             if (shortname[k] == ' ')
 278:Middlewares/ST/filex/common/src/fx_directory_entry_write.c ****             {
 279:Middlewares/ST/filex/common/src/fx_directory_entry_write.c **** 
 280:Middlewares/ST/filex/common/src/fx_directory_entry_write.c ****                 /* The first pad space was detected. First, check for a name
 281:Middlewares/ST/filex/common/src/fx_directory_entry_write.c ****                    without an extension.  */
 282:Middlewares/ST/filex/common/src/fx_directory_entry_write.c ****                 if (entry_ptr -> fx_dir_entry_name[l] == FX_NULL)
 283:Middlewares/ST/filex/common/src/fx_directory_entry_write.c ****                 {
 284:Middlewares/ST/filex/common/src/fx_directory_entry_write.c **** 
 285:Middlewares/ST/filex/common/src/fx_directory_entry_write.c ****                     /* All is okay, get out of the loop!  */
 286:Middlewares/ST/filex/common/src/fx_directory_entry_write.c ****                     break;
 287:Middlewares/ST/filex/common/src/fx_directory_entry_write.c ****                 }
 288:Middlewares/ST/filex/common/src/fx_directory_entry_write.c **** 
 289:Middlewares/ST/filex/common/src/fx_directory_entry_write.c ****                 /* Now check for a period in the long name... if not, there is a non-match!  */
 290:Middlewares/ST/filex/common/src/fx_directory_entry_write.c ****                 if (entry_ptr -> fx_dir_entry_name[l] != '.')
 291:Middlewares/ST/filex/common/src/fx_directory_entry_write.c ****                 {
 292:Middlewares/ST/filex/common/src/fx_directory_entry_write.c **** 
 293:Middlewares/ST/filex/common/src/fx_directory_entry_write.c ****                     /* Set the match flag to false and exit the loop.  */
 294:Middlewares/ST/filex/common/src/fx_directory_entry_write.c ****                     match =  FX_FALSE;
 295:Middlewares/ST/filex/common/src/fx_directory_entry_write.c ****                     break;
 296:Middlewares/ST/filex/common/src/fx_directory_entry_write.c ****                 }
 297:Middlewares/ST/filex/common/src/fx_directory_entry_write.c **** 
 298:Middlewares/ST/filex/common/src/fx_directory_entry_write.c ****                 /* Otherwise move short file name index to the extension area and
 299:Middlewares/ST/filex/common/src/fx_directory_entry_write.c ****                    increment the long file name index.  */
 300:Middlewares/ST/filex/common/src/fx_directory_entry_write.c ****                 k =  8;
 301:Middlewares/ST/filex/common/src/fx_directory_entry_write.c ****                 l++;
 302:Middlewares/ST/filex/common/src/fx_directory_entry_write.c **** 
 303:Middlewares/ST/filex/common/src/fx_directory_entry_write.c ****                 /* Restart the loop at the top.  */
 304:Middlewares/ST/filex/common/src/fx_directory_entry_write.c ****                 continue;
 305:Middlewares/ST/filex/common/src/fx_directory_entry_write.c ****             }
 306:Middlewares/ST/filex/common/src/fx_directory_entry_write.c **** 
 307:Middlewares/ST/filex/common/src/fx_directory_entry_write.c ****             /* Check for the dot for the 8.3 match... it is no longer in the
 308:Middlewares/ST/filex/common/src/fx_directory_entry_write.c ****                shortname but possibly still present in the long name.  */
 309:Middlewares/ST/filex/common/src/fx_directory_entry_write.c ****             if ((k == 8) && (entry_ptr -> fx_dir_entry_name[l] == '.'))
 310:Middlewares/ST/filex/common/src/fx_directory_entry_write.c ****             {
 311:Middlewares/ST/filex/common/src/fx_directory_entry_write.c **** 
 312:Middlewares/ST/filex/common/src/fx_directory_entry_write.c ****                 /* Yes, handle the implicit dot in the shortname by
 313:Middlewares/ST/filex/common/src/fx_directory_entry_write.c ****                    positioning past it in the long name.  */
 314:Middlewares/ST/filex/common/src/fx_directory_entry_write.c ****                 l++;
 315:Middlewares/ST/filex/common/src/fx_directory_entry_write.c ****             }
 316:Middlewares/ST/filex/common/src/fx_directory_entry_write.c **** 
 317:Middlewares/ST/filex/common/src/fx_directory_entry_write.c ****             /* Do the names match?  */
 318:Middlewares/ST/filex/common/src/fx_directory_entry_write.c ****             if (shortname[k] != entry_ptr -> fx_dir_entry_name[l])
 319:Middlewares/ST/filex/common/src/fx_directory_entry_write.c ****             {
 320:Middlewares/ST/filex/common/src/fx_directory_entry_write.c **** 
 321:Middlewares/ST/filex/common/src/fx_directory_entry_write.c ****                 /* No, the names do not match, set the match flag to false and
 322:Middlewares/ST/filex/common/src/fx_directory_entry_write.c ****                    exit the loop.  */
ARM GAS  C:\Users\HP\AppData\Local\Temp\ccs6anBT.s 			page 10


 323:Middlewares/ST/filex/common/src/fx_directory_entry_write.c ****                 match =  FX_FALSE;
 324:Middlewares/ST/filex/common/src/fx_directory_entry_write.c ****                 break;
 325:Middlewares/ST/filex/common/src/fx_directory_entry_write.c ****             }
 326:Middlewares/ST/filex/common/src/fx_directory_entry_write.c **** 
 327:Middlewares/ST/filex/common/src/fx_directory_entry_write.c ****             /* Move the indices forward.  */
 328:Middlewares/ST/filex/common/src/fx_directory_entry_write.c ****             k++;
 329:Middlewares/ST/filex/common/src/fx_directory_entry_write.c ****             l++;
 330:Middlewares/ST/filex/common/src/fx_directory_entry_write.c ****         }
 331:Middlewares/ST/filex/common/src/fx_directory_entry_write.c **** 
 332:Middlewares/ST/filex/common/src/fx_directory_entry_write.c ****         /* Check if there is a dot in the name, but no extension in the short name.  In this case, 
 333:Middlewares/ST/filex/common/src/fx_directory_entry_write.c ****            we should create a mangled short name.  */
 334:Middlewares/ST/filex/common/src/fx_directory_entry_write.c ****         if ((dotpos) && (shortname[8] == ' '))
 335:Middlewares/ST/filex/common/src/fx_directory_entry_write.c ****         {
 336:Middlewares/ST/filex/common/src/fx_directory_entry_write.c ****         
 337:Middlewares/ST/filex/common/src/fx_directory_entry_write.c ****             /* Something left.. the names do not match!  */
 338:Middlewares/ST/filex/common/src/fx_directory_entry_write.c ****             match =  FX_FALSE;
 339:Middlewares/ST/filex/common/src/fx_directory_entry_write.c ****         }
 340:Middlewares/ST/filex/common/src/fx_directory_entry_write.c **** 
 341:Middlewares/ST/filex/common/src/fx_directory_entry_write.c ****         /* One final check to make sure there is nothing left on the long file name.  */
 342:Middlewares/ST/filex/common/src/fx_directory_entry_write.c ****         if (entry_ptr -> fx_dir_entry_name[l])
 343:Middlewares/ST/filex/common/src/fx_directory_entry_write.c ****         {
 344:Middlewares/ST/filex/common/src/fx_directory_entry_write.c **** 
 345:Middlewares/ST/filex/common/src/fx_directory_entry_write.c ****             /* Something left.. the names do not match!  */
 346:Middlewares/ST/filex/common/src/fx_directory_entry_write.c ****             match =  FX_FALSE;
 347:Middlewares/ST/filex/common/src/fx_directory_entry_write.c ****         }
 348:Middlewares/ST/filex/common/src/fx_directory_entry_write.c **** 
 349:Middlewares/ST/filex/common/src/fx_directory_entry_write.c ****         /* Determine if the derived short name matches exactly the long file name. If so
 350:Middlewares/ST/filex/common/src/fx_directory_entry_write.c ****            we don't need to mangle the name with a numeric value based on its entry.  */
 351:Middlewares/ST/filex/common/src/fx_directory_entry_write.c ****         if (match == FX_FALSE)
 352:Middlewares/ST/filex/common/src/fx_directory_entry_write.c ****         {
 353:Middlewares/ST/filex/common/src/fx_directory_entry_write.c **** 
 354:Middlewares/ST/filex/common/src/fx_directory_entry_write.c ****             /* Name does not match, create a mangled name.  */
 355:Middlewares/ST/filex/common/src/fx_directory_entry_write.c **** 
 356:Middlewares/ST/filex/common/src/fx_directory_entry_write.c ****             /* Generate short file name from LFN.  */
 357:Middlewares/ST/filex/common/src/fx_directory_entry_write.c ****             entry = entry_ptr -> fx_dir_entry_number;
 358:Middlewares/ST/filex/common/src/fx_directory_entry_write.c **** 
 359:Middlewares/ST/filex/common/src/fx_directory_entry_write.c ****             /* Name suffice is between 000 and FFFF in hex, calculate this short file
 360:Middlewares/ST/filex/common/src/fx_directory_entry_write.c ****                name's numeric component.  */
 361:Middlewares/ST/filex/common/src/fx_directory_entry_write.c ****             entry = entry % 0x10000;
 362:Middlewares/ST/filex/common/src/fx_directory_entry_write.c **** 
 363:Middlewares/ST/filex/common/src/fx_directory_entry_write.c ****             /* Build short name of the format xxx~NNNN.ext.  */
 364:Middlewares/ST/filex/common/src/fx_directory_entry_write.c ****             if (i > 3)
 365:Middlewares/ST/filex/common/src/fx_directory_entry_write.c ****             {
 366:Middlewares/ST/filex/common/src/fx_directory_entry_write.c ****                 i = 3;
 367:Middlewares/ST/filex/common/src/fx_directory_entry_write.c ****             }
 368:Middlewares/ST/filex/common/src/fx_directory_entry_write.c ****             shortname[i++] = '~';
 369:Middlewares/ST/filex/common/src/fx_directory_entry_write.c **** 
 370:Middlewares/ST/filex/common/src/fx_directory_entry_write.c ****             /* Loop to build the numeric part of the name.  */
 371:Middlewares/ST/filex/common/src/fx_directory_entry_write.c ****             for (l = 0; l < 4; l++)
 372:Middlewares/ST/filex/common/src/fx_directory_entry_write.c ****             {
 373:Middlewares/ST/filex/common/src/fx_directory_entry_write.c ****                 
 374:Middlewares/ST/filex/common/src/fx_directory_entry_write.c ****                 /* Shift down the entry number based on the numeric position.  */
 375:Middlewares/ST/filex/common/src/fx_directory_entry_write.c ****                 if (l == 0)
 376:Middlewares/ST/filex/common/src/fx_directory_entry_write.c ****                 {
 377:Middlewares/ST/filex/common/src/fx_directory_entry_write.c ****                     temp =  ((entry >> 12) & 0xf);
 378:Middlewares/ST/filex/common/src/fx_directory_entry_write.c ****                 }
 379:Middlewares/ST/filex/common/src/fx_directory_entry_write.c ****                 else if (l == 1)
ARM GAS  C:\Users\HP\AppData\Local\Temp\ccs6anBT.s 			page 11


 380:Middlewares/ST/filex/common/src/fx_directory_entry_write.c ****                 {
 381:Middlewares/ST/filex/common/src/fx_directory_entry_write.c ****                      temp = ((entry >> 8) & 0xf);
 382:Middlewares/ST/filex/common/src/fx_directory_entry_write.c ****                 }
 383:Middlewares/ST/filex/common/src/fx_directory_entry_write.c ****                 else if (l == 2)
 384:Middlewares/ST/filex/common/src/fx_directory_entry_write.c ****                 {
 385:Middlewares/ST/filex/common/src/fx_directory_entry_write.c ****                      temp = ((entry >> 4) & 0xf);
 386:Middlewares/ST/filex/common/src/fx_directory_entry_write.c ****                 }
 387:Middlewares/ST/filex/common/src/fx_directory_entry_write.c ****                 else
 388:Middlewares/ST/filex/common/src/fx_directory_entry_write.c ****                 {
 389:Middlewares/ST/filex/common/src/fx_directory_entry_write.c ****                      temp = ((entry) & 0xf);
 390:Middlewares/ST/filex/common/src/fx_directory_entry_write.c ****                 }
 391:Middlewares/ST/filex/common/src/fx_directory_entry_write.c ****                 
 392:Middlewares/ST/filex/common/src/fx_directory_entry_write.c ****                 /* Now build hex value.  */
 393:Middlewares/ST/filex/common/src/fx_directory_entry_write.c ****                 if (temp > 9)
 394:Middlewares/ST/filex/common/src/fx_directory_entry_write.c ****                     shortname[i++] =  (CHAR)('A' + (temp - 10));
 395:Middlewares/ST/filex/common/src/fx_directory_entry_write.c ****                 else
 396:Middlewares/ST/filex/common/src/fx_directory_entry_write.c ****                     shortname[i++] =  (CHAR)('0' + temp);
 397:Middlewares/ST/filex/common/src/fx_directory_entry_write.c ****             }
 398:Middlewares/ST/filex/common/src/fx_directory_entry_write.c ****         }
 399:Middlewares/ST/filex/common/src/fx_directory_entry_write.c **** 
 400:Middlewares/ST/filex/common/src/fx_directory_entry_write.c ****         /* Set end of short string to NULL.   */
 401:Middlewares/ST/filex/common/src/fx_directory_entry_write.c ****         shortname[11] = 0;
 402:Middlewares/ST/filex/common/src/fx_directory_entry_write.c **** 
 403:Middlewares/ST/filex/common/src/fx_directory_entry_write.c ****         /* Determine if the first character of the short file name is the directory free
 404:Middlewares/ST/filex/common/src/fx_directory_entry_write.c ****            value. If so, it must be changed.  */
 405:Middlewares/ST/filex/common/src/fx_directory_entry_write.c ****         if (((UCHAR)shortname[0] == (UCHAR)FX_DIR_ENTRY_FREE) && (delete_flag == FX_FALSE))
 406:Middlewares/ST/filex/common/src/fx_directory_entry_write.c ****         {
 407:Middlewares/ST/filex/common/src/fx_directory_entry_write.c **** 
 408:Middlewares/ST/filex/common/src/fx_directory_entry_write.c ****             /* Change to 0x8F to be compatible with what DOS does.  */
 409:Middlewares/ST/filex/common/src/fx_directory_entry_write.c ****             shortname[0] =  (CHAR)0x8F;
 410:Middlewares/ST/filex/common/src/fx_directory_entry_write.c ****         }
 411:Middlewares/ST/filex/common/src/fx_directory_entry_write.c **** 
 412:Middlewares/ST/filex/common/src/fx_directory_entry_write.c ****         /* Loop to convert the new short file name to upper case.  */
 413:Middlewares/ST/filex/common/src/fx_directory_entry_write.c ****         for (i = 0; i < (FX_DIR_NAME_SIZE + FX_DIR_EXT_SIZE); i++)
 414:Middlewares/ST/filex/common/src/fx_directory_entry_write.c ****         {
 415:Middlewares/ST/filex/common/src/fx_directory_entry_write.c **** 
 416:Middlewares/ST/filex/common/src/fx_directory_entry_write.c ****             /* Pickup shortname character.  */
 417:Middlewares/ST/filex/common/src/fx_directory_entry_write.c ****             alpha = shortname[i];
 418:Middlewares/ST/filex/common/src/fx_directory_entry_write.c **** 
 419:Middlewares/ST/filex/common/src/fx_directory_entry_write.c ****             /* Determine if character is lower case.  */
 420:Middlewares/ST/filex/common/src/fx_directory_entry_write.c ****             if ((alpha >= 'a') && (alpha <= 'z'))
 421:Middlewares/ST/filex/common/src/fx_directory_entry_write.c ****             {
 422:Middlewares/ST/filex/common/src/fx_directory_entry_write.c **** 
 423:Middlewares/ST/filex/common/src/fx_directory_entry_write.c ****                 /* Store the character - converted to upper case.  */
 424:Middlewares/ST/filex/common/src/fx_directory_entry_write.c ****                 alpha =  (CHAR)(alpha - ((CHAR)0x20));
 425:Middlewares/ST/filex/common/src/fx_directory_entry_write.c ****             }
 426:Middlewares/ST/filex/common/src/fx_directory_entry_write.c **** 
 427:Middlewares/ST/filex/common/src/fx_directory_entry_write.c ****             /* Now store the short name character.  */
 428:Middlewares/ST/filex/common/src/fx_directory_entry_write.c ****             shortname[i] =  alpha;
 429:Middlewares/ST/filex/common/src/fx_directory_entry_write.c ****         }
 430:Middlewares/ST/filex/common/src/fx_directory_entry_write.c **** 
 431:Middlewares/ST/filex/common/src/fx_directory_entry_write.c ****         /* Determine if there already is a short name and we are not deleting the entry.  */
 432:Middlewares/ST/filex/common/src/fx_directory_entry_write.c ****         if (entry_ptr -> fx_dir_entry_short_name[0] != 0)
 433:Middlewares/ST/filex/common/src/fx_directory_entry_write.c ****         {
 434:Middlewares/ST/filex/common/src/fx_directory_entry_write.c **** 
 435:Middlewares/ST/filex/common/src/fx_directory_entry_write.c ****             /* Yes, override the calculated shortname with the original 8.3 name.  */
 436:Middlewares/ST/filex/common/src/fx_directory_entry_write.c **** 
ARM GAS  C:\Users\HP\AppData\Local\Temp\ccs6anBT.s 			page 12


 437:Middlewares/ST/filex/common/src/fx_directory_entry_write.c ****             /* Clear the short file name area.  */
 438:Middlewares/ST/filex/common/src/fx_directory_entry_write.c ****             for (i = 0; i < FX_DIR_NAME_SIZE + FX_DIR_EXT_SIZE; i++)
 439:Middlewares/ST/filex/common/src/fx_directory_entry_write.c ****             {
 440:Middlewares/ST/filex/common/src/fx_directory_entry_write.c ****                 shortname[i] = ' ';
 441:Middlewares/ST/filex/common/src/fx_directory_entry_write.c ****             }
 442:Middlewares/ST/filex/common/src/fx_directory_entry_write.c **** 
 443:Middlewares/ST/filex/common/src/fx_directory_entry_write.c ****             /* Loop to copy the original short file name.  */
 444:Middlewares/ST/filex/common/src/fx_directory_entry_write.c ****             for (i = 0, j = 0; j < FX_DIR_NAME_SIZE; i++, j++)
 445:Middlewares/ST/filex/common/src/fx_directory_entry_write.c ****             {
 446:Middlewares/ST/filex/common/src/fx_directory_entry_write.c **** 
 447:Middlewares/ST/filex/common/src/fx_directory_entry_write.c ****                 /* Check for end of copy conditions.  */
 448:Middlewares/ST/filex/common/src/fx_directory_entry_write.c ****                 if ((UCHAR)entry_ptr -> fx_dir_entry_short_name[i] == '.')
 449:Middlewares/ST/filex/common/src/fx_directory_entry_write.c ****                 {
 450:Middlewares/ST/filex/common/src/fx_directory_entry_write.c ****                     break;
 451:Middlewares/ST/filex/common/src/fx_directory_entry_write.c ****                 }
 452:Middlewares/ST/filex/common/src/fx_directory_entry_write.c ****                 if ((UCHAR)entry_ptr -> fx_dir_entry_short_name[i] == 0)
 453:Middlewares/ST/filex/common/src/fx_directory_entry_write.c ****                 {
 454:Middlewares/ST/filex/common/src/fx_directory_entry_write.c ****                     break;
 455:Middlewares/ST/filex/common/src/fx_directory_entry_write.c ****                 }
 456:Middlewares/ST/filex/common/src/fx_directory_entry_write.c **** 
 457:Middlewares/ST/filex/common/src/fx_directory_entry_write.c ****                 /* Pickup the character.  */
 458:Middlewares/ST/filex/common/src/fx_directory_entry_write.c ****                 alpha =  entry_ptr -> fx_dir_entry_short_name[i];
 459:Middlewares/ST/filex/common/src/fx_directory_entry_write.c **** 
 460:Middlewares/ST/filex/common/src/fx_directory_entry_write.c ****                 /* Copy file name character.  */
 461:Middlewares/ST/filex/common/src/fx_directory_entry_write.c ****                 shortname[j] =  alpha;
 462:Middlewares/ST/filex/common/src/fx_directory_entry_write.c ****             }
 463:Middlewares/ST/filex/common/src/fx_directory_entry_write.c **** 
 464:Middlewares/ST/filex/common/src/fx_directory_entry_write.c ****             /* Determine if there is anything left in the short file name.  */
 465:Middlewares/ST/filex/common/src/fx_directory_entry_write.c ****             if ((UCHAR)entry_ptr -> fx_dir_entry_short_name[i] != 0)
 466:Middlewares/ST/filex/common/src/fx_directory_entry_write.c ****             {
 467:Middlewares/ST/filex/common/src/fx_directory_entry_write.c **** 
 468:Middlewares/ST/filex/common/src/fx_directory_entry_write.c ****                 /* Pickup remaining characters.  */
 469:Middlewares/ST/filex/common/src/fx_directory_entry_write.c ****                 for (i++, j = FX_DIR_NAME_SIZE; j < FX_DIR_NAME_SIZE + FX_DIR_EXT_SIZE; i++, j++)
 470:Middlewares/ST/filex/common/src/fx_directory_entry_write.c ****                 {
 471:Middlewares/ST/filex/common/src/fx_directory_entry_write.c **** 
 472:Middlewares/ST/filex/common/src/fx_directory_entry_write.c ****                     /* If NULL is encountered, stop the copying.  */
 473:Middlewares/ST/filex/common/src/fx_directory_entry_write.c ****                     if ((UCHAR)entry_ptr -> fx_dir_entry_short_name[i] == 0)
 474:Middlewares/ST/filex/common/src/fx_directory_entry_write.c ****                     {
 475:Middlewares/ST/filex/common/src/fx_directory_entry_write.c ****                         break;
 476:Middlewares/ST/filex/common/src/fx_directory_entry_write.c ****                     }
 477:Middlewares/ST/filex/common/src/fx_directory_entry_write.c **** 
 478:Middlewares/ST/filex/common/src/fx_directory_entry_write.c ****                     /* Pickup the character.  */
 479:Middlewares/ST/filex/common/src/fx_directory_entry_write.c ****                     alpha =  entry_ptr -> fx_dir_entry_short_name[i];
 480:Middlewares/ST/filex/common/src/fx_directory_entry_write.c **** 
 481:Middlewares/ST/filex/common/src/fx_directory_entry_write.c ****                     /* Copy file name character.  */
 482:Middlewares/ST/filex/common/src/fx_directory_entry_write.c ****                     shortname[j] =  alpha;
 483:Middlewares/ST/filex/common/src/fx_directory_entry_write.c ****                 }
 484:Middlewares/ST/filex/common/src/fx_directory_entry_write.c ****             }
 485:Middlewares/ST/filex/common/src/fx_directory_entry_write.c **** 
 486:Middlewares/ST/filex/common/src/fx_directory_entry_write.c ****             /* Loop to make sure the short name is upper case.  */
 487:Middlewares/ST/filex/common/src/fx_directory_entry_write.c ****             for (j = 0; j < (FX_DIR_NAME_SIZE + FX_DIR_EXT_SIZE); j++)
 488:Middlewares/ST/filex/common/src/fx_directory_entry_write.c ****             {
 489:Middlewares/ST/filex/common/src/fx_directory_entry_write.c **** 
 490:Middlewares/ST/filex/common/src/fx_directory_entry_write.c ****                 /* Pickup the character.  */
 491:Middlewares/ST/filex/common/src/fx_directory_entry_write.c ****                 alpha =  shortname[j];
 492:Middlewares/ST/filex/common/src/fx_directory_entry_write.c **** 
 493:Middlewares/ST/filex/common/src/fx_directory_entry_write.c ****                 /* Determine if character is lower case.  */
ARM GAS  C:\Users\HP\AppData\Local\Temp\ccs6anBT.s 			page 13


 494:Middlewares/ST/filex/common/src/fx_directory_entry_write.c ****                 if ((alpha >= 'a') && (alpha <= 'z'))
 495:Middlewares/ST/filex/common/src/fx_directory_entry_write.c ****                 {
 496:Middlewares/ST/filex/common/src/fx_directory_entry_write.c **** 
 497:Middlewares/ST/filex/common/src/fx_directory_entry_write.c ****                     /* Store the character - converted to upper case.  */
 498:Middlewares/ST/filex/common/src/fx_directory_entry_write.c ****                     alpha =  (CHAR)(alpha - ((CHAR)0x20));
 499:Middlewares/ST/filex/common/src/fx_directory_entry_write.c ****                 }
 500:Middlewares/ST/filex/common/src/fx_directory_entry_write.c **** 
 501:Middlewares/ST/filex/common/src/fx_directory_entry_write.c ****                 /* Copy file name character.  */
 502:Middlewares/ST/filex/common/src/fx_directory_entry_write.c ****                 shortname[j] =  alpha;
 503:Middlewares/ST/filex/common/src/fx_directory_entry_write.c ****             }
 504:Middlewares/ST/filex/common/src/fx_directory_entry_write.c **** 
 505:Middlewares/ST/filex/common/src/fx_directory_entry_write.c ****             /* Determine if the first character of the short file name is the directory free
 506:Middlewares/ST/filex/common/src/fx_directory_entry_write.c ****                value. If so, it must be changed.  */
 507:Middlewares/ST/filex/common/src/fx_directory_entry_write.c ****             if (((UCHAR)shortname[0]) == ((UCHAR)FX_DIR_ENTRY_FREE))
 508:Middlewares/ST/filex/common/src/fx_directory_entry_write.c ****             {
 509:Middlewares/ST/filex/common/src/fx_directory_entry_write.c **** 
 510:Middlewares/ST/filex/common/src/fx_directory_entry_write.c ****                 /* Change to 0x8F to be compatible with what DOS does.  */
 511:Middlewares/ST/filex/common/src/fx_directory_entry_write.c ****                 shortname[0] =  (CHAR)0x8F;
 512:Middlewares/ST/filex/common/src/fx_directory_entry_write.c ****             }
 513:Middlewares/ST/filex/common/src/fx_directory_entry_write.c ****         }
 514:Middlewares/ST/filex/common/src/fx_directory_entry_write.c **** 
 515:Middlewares/ST/filex/common/src/fx_directory_entry_write.c ****         /* Loop to calculate the checksum.  */
 516:Middlewares/ST/filex/common/src/fx_directory_entry_write.c ****         for (i = checksum = 0; i < FX_DIR_NAME_SIZE + FX_DIR_EXT_SIZE; i++)
 517:Middlewares/ST/filex/common/src/fx_directory_entry_write.c ****         {
 518:Middlewares/ST/filex/common/src/fx_directory_entry_write.c **** 
 519:Middlewares/ST/filex/common/src/fx_directory_entry_write.c ****             /* Calculate the checksum.  */
 520:Middlewares/ST/filex/common/src/fx_directory_entry_write.c ****             checksum = (UCHAR)((UCHAR)(((checksum & 1) << 7) | ((checksum & (UCHAR)0xfe) >> 1)) + s
 521:Middlewares/ST/filex/common/src/fx_directory_entry_write.c ****         }
 522:Middlewares/ST/filex/common/src/fx_directory_entry_write.c **** 
 523:Middlewares/ST/filex/common/src/fx_directory_entry_write.c ****         /* Set the last entry mark.  */
 524:Middlewares/ST/filex/common/src/fx_directory_entry_write.c ****         work_ptr[0] =  (UCHAR)(0x40 | card);
 525:Middlewares/ST/filex/common/src/fx_directory_entry_write.c **** 
 526:Middlewares/ST/filex/common/src/fx_directory_entry_write.c ****         /* Loop to process remainder of long file name entry.  */
 527:Middlewares/ST/filex/common/src/fx_directory_entry_write.c ****         while (card > 0)
 528:Middlewares/ST/filex/common/src/fx_directory_entry_write.c ****         {
 529:Middlewares/ST/filex/common/src/fx_directory_entry_write.c **** 
 530:Middlewares/ST/filex/common/src/fx_directory_entry_write.c ****             /* Clear eof marker.  */
 531:Middlewares/ST/filex/common/src/fx_directory_entry_write.c ****             eof_marker = 0;
 532:Middlewares/ST/filex/common/src/fx_directory_entry_write.c **** 
 533:Middlewares/ST/filex/common/src/fx_directory_entry_write.c ****             /* Determine if the entry is free.  */
 534:Middlewares/ST/filex/common/src/fx_directory_entry_write.c ****             if ((UCHAR)shortname[0] == (UCHAR)FX_DIR_ENTRY_FREE)
 535:Middlewares/ST/filex/common/src/fx_directory_entry_write.c ****             {
 536:Middlewares/ST/filex/common/src/fx_directory_entry_write.c ****                 /* Yes, place delete marker.  */
 537:Middlewares/ST/filex/common/src/fx_directory_entry_write.c ****                 work_ptr[0] =  (UCHAR)FX_DIR_ENTRY_FREE;
 538:Middlewares/ST/filex/common/src/fx_directory_entry_write.c ****             }
 539:Middlewares/ST/filex/common/src/fx_directory_entry_write.c **** 
 540:Middlewares/ST/filex/common/src/fx_directory_entry_write.c ****             /* Setup various long file name fields.  */
 541:Middlewares/ST/filex/common/src/fx_directory_entry_write.c ****             work_ptr[11] = FX_LONG_NAME;
 542:Middlewares/ST/filex/common/src/fx_directory_entry_write.c ****             work_ptr[12] = 0;
 543:Middlewares/ST/filex/common/src/fx_directory_entry_write.c ****             work_ptr[13] = checksum;
 544:Middlewares/ST/filex/common/src/fx_directory_entry_write.c ****             work_ptr[26] = 0;
 545:Middlewares/ST/filex/common/src/fx_directory_entry_write.c ****             work_ptr[27] = 0;
 546:Middlewares/ST/filex/common/src/fx_directory_entry_write.c **** 
 547:Middlewares/ST/filex/common/src/fx_directory_entry_write.c ****             /* Loop through file name fields.  */
 548:Middlewares/ST/filex/common/src/fx_directory_entry_write.c ****             for (i = 1, j = 13 * (card - 1); i < FX_DIR_ENTRY_SIZE; i += 2)
 549:Middlewares/ST/filex/common/src/fx_directory_entry_write.c ****             {
 550:Middlewares/ST/filex/common/src/fx_directory_entry_write.c **** 
ARM GAS  C:\Users\HP\AppData\Local\Temp\ccs6anBT.s 			page 14


 551:Middlewares/ST/filex/common/src/fx_directory_entry_write.c ****                 /* Process relative to specific fields.  */
 552:Middlewares/ST/filex/common/src/fx_directory_entry_write.c ****                 if ((i == 11) || (i == 26))
 553:Middlewares/ST/filex/common/src/fx_directory_entry_write.c ****                 {
 554:Middlewares/ST/filex/common/src/fx_directory_entry_write.c ****                     continue;
 555:Middlewares/ST/filex/common/src/fx_directory_entry_write.c ****                 }
 556:Middlewares/ST/filex/common/src/fx_directory_entry_write.c **** 
 557:Middlewares/ST/filex/common/src/fx_directory_entry_write.c ****                 if (i == 13)
 558:Middlewares/ST/filex/common/src/fx_directory_entry_write.c ****                 {
 559:Middlewares/ST/filex/common/src/fx_directory_entry_write.c ****                     i = 12;
 560:Middlewares/ST/filex/common/src/fx_directory_entry_write.c ****                     continue;
 561:Middlewares/ST/filex/common/src/fx_directory_entry_write.c ****                 }
 562:Middlewares/ST/filex/common/src/fx_directory_entry_write.c **** 
 563:Middlewares/ST/filex/common/src/fx_directory_entry_write.c ****                 /* Determine if the EOF marker is present.  */
 564:Middlewares/ST/filex/common/src/fx_directory_entry_write.c ****                 if (eof_marker)
 565:Middlewares/ST/filex/common/src/fx_directory_entry_write.c ****                 {
 566:Middlewares/ST/filex/common/src/fx_directory_entry_write.c **** 
 567:Middlewares/ST/filex/common/src/fx_directory_entry_write.c ****                     work_ptr[i] = eof_marker;
 568:Middlewares/ST/filex/common/src/fx_directory_entry_write.c ****                     work_ptr[i + 1] = eof_marker;
 569:Middlewares/ST/filex/common/src/fx_directory_entry_write.c ****                 }
 570:Middlewares/ST/filex/common/src/fx_directory_entry_write.c ****                 else
 571:Middlewares/ST/filex/common/src/fx_directory_entry_write.c ****                 {
 572:Middlewares/ST/filex/common/src/fx_directory_entry_write.c ****                     work_ptr[i] = (UCHAR)entry_ptr -> fx_dir_entry_name[j];
 573:Middlewares/ST/filex/common/src/fx_directory_entry_write.c ****                     work_ptr[i + 1] = 0;
 574:Middlewares/ST/filex/common/src/fx_directory_entry_write.c ****                 }
 575:Middlewares/ST/filex/common/src/fx_directory_entry_write.c **** 
 576:Middlewares/ST/filex/common/src/fx_directory_entry_write.c ****                 if (entry_ptr -> fx_dir_entry_name[j] == 0)
 577:Middlewares/ST/filex/common/src/fx_directory_entry_write.c ****                 {
 578:Middlewares/ST/filex/common/src/fx_directory_entry_write.c **** 
 579:Middlewares/ST/filex/common/src/fx_directory_entry_write.c ****                     /* end of name, pad with 0xff.  */
 580:Middlewares/ST/filex/common/src/fx_directory_entry_write.c ****                     eof_marker =  (UCHAR)0xff;
 581:Middlewares/ST/filex/common/src/fx_directory_entry_write.c ****                 }
 582:Middlewares/ST/filex/common/src/fx_directory_entry_write.c **** 
 583:Middlewares/ST/filex/common/src/fx_directory_entry_write.c ****                 j++;
 584:Middlewares/ST/filex/common/src/fx_directory_entry_write.c ****             }
 585:Middlewares/ST/filex/common/src/fx_directory_entry_write.c **** 
 586:Middlewares/ST/filex/common/src/fx_directory_entry_write.c ****             /* Move to the next directory entry.  */
 587:Middlewares/ST/filex/common/src/fx_directory_entry_write.c ****             work_ptr += FX_DIR_ENTRY_SIZE;
 588:Middlewares/ST/filex/common/src/fx_directory_entry_write.c ****             byte_offset += FX_DIR_ENTRY_SIZE;
 589:Middlewares/ST/filex/common/src/fx_directory_entry_write.c **** 
 590:Middlewares/ST/filex/common/src/fx_directory_entry_write.c **** #ifdef FX_ENABLE_FAULT_TOLERANT
 591:Middlewares/ST/filex/common/src/fx_directory_entry_write.c ****             /* Update changed_size. */
 592:Middlewares/ST/filex/common/src/fx_directory_entry_write.c ****             changed_size += FX_DIR_ENTRY_SIZE;
 593:Middlewares/ST/filex/common/src/fx_directory_entry_write.c **** #endif /* FX_ENABLE_FAULT_TOLERANT */
 594:Middlewares/ST/filex/common/src/fx_directory_entry_write.c **** 
 595:Middlewares/ST/filex/common/src/fx_directory_entry_write.c ****             /* Determine if the entry overlaps into the next sector.  */
 596:Middlewares/ST/filex/common/src/fx_directory_entry_write.c ****             if (byte_offset >= media_ptr -> fx_media_bytes_per_sector)
 597:Middlewares/ST/filex/common/src/fx_directory_entry_write.c ****             {
 598:Middlewares/ST/filex/common/src/fx_directory_entry_write.c **** #ifdef FX_ENABLE_FAULT_TOLERANT
 599:Middlewares/ST/filex/common/src/fx_directory_entry_write.c ****                 if (media_ptr -> fx_media_fault_tolerant_enabled)
 600:Middlewares/ST/filex/common/src/fx_directory_entry_write.c ****                 {
 601:Middlewares/ST/filex/common/src/fx_directory_entry_write.c **** 
 602:Middlewares/ST/filex/common/src/fx_directory_entry_write.c ****                     /* Redirect this request to log file. */
 603:Middlewares/ST/filex/common/src/fx_directory_entry_write.c ****                     status = _fx_fault_tolerant_add_dir_log(media_ptr, logical_sector, changed_offs
 604:Middlewares/ST/filex/common/src/fx_directory_entry_write.c ****                 }
 605:Middlewares/ST/filex/common/src/fx_directory_entry_write.c ****                 else
 606:Middlewares/ST/filex/common/src/fx_directory_entry_write.c ****                 {
 607:Middlewares/ST/filex/common/src/fx_directory_entry_write.c **** #endif /* FX_ENABLE_FAULT_TOLERANT */
ARM GAS  C:\Users\HP\AppData\Local\Temp\ccs6anBT.s 			page 15


 608:Middlewares/ST/filex/common/src/fx_directory_entry_write.c **** 
 609:Middlewares/ST/filex/common/src/fx_directory_entry_write.c ****                     /* Write current logical sector out.  */
 610:Middlewares/ST/filex/common/src/fx_directory_entry_write.c ****                     status =  _fx_utility_logical_sector_write(media_ptr, (ULONG64) logical_sector,
 611:Middlewares/ST/filex/common/src/fx_directory_entry_write.c ****                                                                sector_base_ptr, ((ULONG) 1), FX_DIR
 612:Middlewares/ST/filex/common/src/fx_directory_entry_write.c **** #ifdef FX_ENABLE_FAULT_TOLERANT
 613:Middlewares/ST/filex/common/src/fx_directory_entry_write.c ****                 }
 614:Middlewares/ST/filex/common/src/fx_directory_entry_write.c **** #endif /* FX_ENABLE_FAULT_TOLERANT */
 615:Middlewares/ST/filex/common/src/fx_directory_entry_write.c **** 
 616:Middlewares/ST/filex/common/src/fx_directory_entry_write.c ****                 /* Determine if an error occurred.  */
 617:Middlewares/ST/filex/common/src/fx_directory_entry_write.c ****                 if (status != FX_SUCCESS)
 618:Middlewares/ST/filex/common/src/fx_directory_entry_write.c ****                 {
 619:Middlewares/ST/filex/common/src/fx_directory_entry_write.c **** 
 620:Middlewares/ST/filex/common/src/fx_directory_entry_write.c ****                     /* Return the error status.  */
 621:Middlewares/ST/filex/common/src/fx_directory_entry_write.c ****                     return(status);
 622:Middlewares/ST/filex/common/src/fx_directory_entry_write.c ****                 }
 623:Middlewares/ST/filex/common/src/fx_directory_entry_write.c **** 
 624:Middlewares/ST/filex/common/src/fx_directory_entry_write.c ****                 /* Determine if we are in the root directory.  */
 625:Middlewares/ST/filex/common/src/fx_directory_entry_write.c ****                 if (logical_sector >= (ULONG)(media_ptr -> fx_media_data_sector_start))
 626:Middlewares/ST/filex/common/src/fx_directory_entry_write.c ****                 {
 627:Middlewares/ST/filex/common/src/fx_directory_entry_write.c **** 
 628:Middlewares/ST/filex/common/src/fx_directory_entry_write.c ****                     /* Determine the next sector of the directory entry.  */
 629:Middlewares/ST/filex/common/src/fx_directory_entry_write.c ****                     if (relative_sector < (media_ptr -> fx_media_sectors_per_cluster - 1))
 630:Middlewares/ST/filex/common/src/fx_directory_entry_write.c ****                     {
 631:Middlewares/ST/filex/common/src/fx_directory_entry_write.c **** 
 632:Middlewares/ST/filex/common/src/fx_directory_entry_write.c ****                         /* More sectors in this cluster.  */
 633:Middlewares/ST/filex/common/src/fx_directory_entry_write.c **** 
 634:Middlewares/ST/filex/common/src/fx_directory_entry_write.c ****                         /* Simply increment the logical sector.  */
 635:Middlewares/ST/filex/common/src/fx_directory_entry_write.c ****                         logical_sector++;
 636:Middlewares/ST/filex/common/src/fx_directory_entry_write.c **** 
 637:Middlewares/ST/filex/common/src/fx_directory_entry_write.c ****                         /* Increment the relative sector.  */
 638:Middlewares/ST/filex/common/src/fx_directory_entry_write.c ****                         relative_sector++;
 639:Middlewares/ST/filex/common/src/fx_directory_entry_write.c ****                     }
 640:Middlewares/ST/filex/common/src/fx_directory_entry_write.c ****                     else
 641:Middlewares/ST/filex/common/src/fx_directory_entry_write.c ****                     {
 642:Middlewares/ST/filex/common/src/fx_directory_entry_write.c **** 
 643:Middlewares/ST/filex/common/src/fx_directory_entry_write.c ****                         /* We need to move to the next cluster.  */
 644:Middlewares/ST/filex/common/src/fx_directory_entry_write.c **** 
 645:Middlewares/ST/filex/common/src/fx_directory_entry_write.c ****                         /* Pickup the next cluster.  */
 646:Middlewares/ST/filex/common/src/fx_directory_entry_write.c ****                         status =  _fx_utility_FAT_entry_read(media_ptr, cluster, &next_cluster);
 647:Middlewares/ST/filex/common/src/fx_directory_entry_write.c **** 
 648:Middlewares/ST/filex/common/src/fx_directory_entry_write.c ****                         /* Check for I/O error.  */
 649:Middlewares/ST/filex/common/src/fx_directory_entry_write.c ****                         if (status != FX_SUCCESS)
 650:Middlewares/ST/filex/common/src/fx_directory_entry_write.c ****                         {
 651:Middlewares/ST/filex/common/src/fx_directory_entry_write.c **** 
 652:Middlewares/ST/filex/common/src/fx_directory_entry_write.c ****                             /* Return error code.  */
 653:Middlewares/ST/filex/common/src/fx_directory_entry_write.c ****                             return(status);
 654:Middlewares/ST/filex/common/src/fx_directory_entry_write.c ****                         }
 655:Middlewares/ST/filex/common/src/fx_directory_entry_write.c **** 
 656:Middlewares/ST/filex/common/src/fx_directory_entry_write.c ****                         /* Copy next cluster to the current cluster.  */
 657:Middlewares/ST/filex/common/src/fx_directory_entry_write.c ****                         cluster =  next_cluster;
 658:Middlewares/ST/filex/common/src/fx_directory_entry_write.c **** 
 659:Middlewares/ST/filex/common/src/fx_directory_entry_write.c ****                         /* Check the value of the new cluster - it must be a valid cluster number
 660:Middlewares/ST/filex/common/src/fx_directory_entry_write.c ****                            or something is really wrong!  */
 661:Middlewares/ST/filex/common/src/fx_directory_entry_write.c ****                         if ((cluster < FX_FAT_ENTRY_START) || (cluster >= media_ptr -> fx_media_fat
 662:Middlewares/ST/filex/common/src/fx_directory_entry_write.c ****                         {
 663:Middlewares/ST/filex/common/src/fx_directory_entry_write.c **** 
 664:Middlewares/ST/filex/common/src/fx_directory_entry_write.c ****                             /* Send error message back to caller.  */
ARM GAS  C:\Users\HP\AppData\Local\Temp\ccs6anBT.s 			page 16


 665:Middlewares/ST/filex/common/src/fx_directory_entry_write.c ****                             return(FX_FILE_CORRUPT);
 666:Middlewares/ST/filex/common/src/fx_directory_entry_write.c ****                         }
 667:Middlewares/ST/filex/common/src/fx_directory_entry_write.c **** 
 668:Middlewares/ST/filex/common/src/fx_directory_entry_write.c ****                         /* Setup the relative sector (this is zero for subsequent cluster.  */
 669:Middlewares/ST/filex/common/src/fx_directory_entry_write.c ****                         relative_sector =  0;
 670:Middlewares/ST/filex/common/src/fx_directory_entry_write.c **** 
 671:Middlewares/ST/filex/common/src/fx_directory_entry_write.c ****                         /* Calculate the next logical sector.  */
 672:Middlewares/ST/filex/common/src/fx_directory_entry_write.c ****                         logical_sector =   ((ULONG)media_ptr -> fx_media_data_sector_start) +
 673:Middlewares/ST/filex/common/src/fx_directory_entry_write.c ****                             (((ULONG)cluster - FX_FAT_ENTRY_START) *
 674:Middlewares/ST/filex/common/src/fx_directory_entry_write.c ****                              ((ULONG)media_ptr -> fx_media_sectors_per_cluster));
 675:Middlewares/ST/filex/common/src/fx_directory_entry_write.c ****                     }
 676:Middlewares/ST/filex/common/src/fx_directory_entry_write.c ****                 }
 677:Middlewares/ST/filex/common/src/fx_directory_entry_write.c ****                 else
 678:Middlewares/ST/filex/common/src/fx_directory_entry_write.c ****                 {
 679:Middlewares/ST/filex/common/src/fx_directory_entry_write.c **** 
 680:Middlewares/ST/filex/common/src/fx_directory_entry_write.c ****                     /* Increment the logical sector.  */
 681:Middlewares/ST/filex/common/src/fx_directory_entry_write.c ****                     logical_sector++;
 682:Middlewares/ST/filex/common/src/fx_directory_entry_write.c **** 
 683:Middlewares/ST/filex/common/src/fx_directory_entry_write.c ****                     /* Determine if the logical sector is valid.  */
 684:Middlewares/ST/filex/common/src/fx_directory_entry_write.c ****                     if (logical_sector >= (ULONG)(media_ptr -> fx_media_data_sector_start))
 685:Middlewares/ST/filex/common/src/fx_directory_entry_write.c ****                     {
 686:Middlewares/ST/filex/common/src/fx_directory_entry_write.c **** 
 687:Middlewares/ST/filex/common/src/fx_directory_entry_write.c ****                         /* We have exceeded the root directory.  */
 688:Middlewares/ST/filex/common/src/fx_directory_entry_write.c **** 
 689:Middlewares/ST/filex/common/src/fx_directory_entry_write.c ****                         /* Send error message back to caller.  */
 690:Middlewares/ST/filex/common/src/fx_directory_entry_write.c ****                         return(FX_FILE_CORRUPT);
 691:Middlewares/ST/filex/common/src/fx_directory_entry_write.c ****                     }
 692:Middlewares/ST/filex/common/src/fx_directory_entry_write.c ****                 }
 693:Middlewares/ST/filex/common/src/fx_directory_entry_write.c **** 
 694:Middlewares/ST/filex/common/src/fx_directory_entry_write.c ****                 /* Read the sector.  */
 695:Middlewares/ST/filex/common/src/fx_directory_entry_write.c ****                 status =  _fx_utility_logical_sector_read(media_ptr, (ULONG64) logical_sector,
 696:Middlewares/ST/filex/common/src/fx_directory_entry_write.c ****                                                           media_ptr -> fx_media_memory_buffer, ((UL
 697:Middlewares/ST/filex/common/src/fx_directory_entry_write.c **** 
 698:Middlewares/ST/filex/common/src/fx_directory_entry_write.c ****                 /* Determine if an error occurred.  */
 699:Middlewares/ST/filex/common/src/fx_directory_entry_write.c ****                 if (status != FX_SUCCESS)
 700:Middlewares/ST/filex/common/src/fx_directory_entry_write.c ****                 {
 701:Middlewares/ST/filex/common/src/fx_directory_entry_write.c **** 
 702:Middlewares/ST/filex/common/src/fx_directory_entry_write.c ****                     /* Return the error status.  */
 703:Middlewares/ST/filex/common/src/fx_directory_entry_write.c ****                     return(status);
 704:Middlewares/ST/filex/common/src/fx_directory_entry_write.c ****                 }
 705:Middlewares/ST/filex/common/src/fx_directory_entry_write.c **** 
 706:Middlewares/ST/filex/common/src/fx_directory_entry_write.c ****                 /* Setup logical sector.  */
 707:Middlewares/ST/filex/common/src/fx_directory_entry_write.c ****                 sector_base_ptr = media_ptr -> fx_media_memory_buffer;
 708:Middlewares/ST/filex/common/src/fx_directory_entry_write.c **** 
 709:Middlewares/ST/filex/common/src/fx_directory_entry_write.c ****                 /* Setup a fresh byte offset.  */
 710:Middlewares/ST/filex/common/src/fx_directory_entry_write.c ****                 byte_offset = 0;
 711:Middlewares/ST/filex/common/src/fx_directory_entry_write.c **** 
 712:Middlewares/ST/filex/common/src/fx_directory_entry_write.c ****                 /* Setup a new pointer into the buffer.  */
 713:Middlewares/ST/filex/common/src/fx_directory_entry_write.c ****                 work_ptr = sector_base_ptr;
 714:Middlewares/ST/filex/common/src/fx_directory_entry_write.c **** 
 715:Middlewares/ST/filex/common/src/fx_directory_entry_write.c **** #ifdef FX_ENABLE_FAULT_TOLERANT
 716:Middlewares/ST/filex/common/src/fx_directory_entry_write.c ****                 /* Initialize data for fault tolerant. */
 717:Middlewares/ST/filex/common/src/fx_directory_entry_write.c ****                 changed_ptr = work_ptr;
 718:Middlewares/ST/filex/common/src/fx_directory_entry_write.c ****                 changed_size = 0;
 719:Middlewares/ST/filex/common/src/fx_directory_entry_write.c ****                 changed_offset = 0;
 720:Middlewares/ST/filex/common/src/fx_directory_entry_write.c **** #endif /* FX_ENABLE_FAULT_TOLERANT */
 721:Middlewares/ST/filex/common/src/fx_directory_entry_write.c ****             }
ARM GAS  C:\Users\HP\AppData\Local\Temp\ccs6anBT.s 			page 17


 722:Middlewares/ST/filex/common/src/fx_directory_entry_write.c **** 
 723:Middlewares/ST/filex/common/src/fx_directory_entry_write.c ****             /* Decrement loop control.  */
 724:Middlewares/ST/filex/common/src/fx_directory_entry_write.c ****             card--;
 725:Middlewares/ST/filex/common/src/fx_directory_entry_write.c ****             work_ptr[0] = (UCHAR)card;
 726:Middlewares/ST/filex/common/src/fx_directory_entry_write.c ****         }
 727:Middlewares/ST/filex/common/src/fx_directory_entry_write.c **** 
 728:Middlewares/ST/filex/common/src/fx_directory_entry_write.c ****         /* Determine if there is a short name.  */
 729:Middlewares/ST/filex/common/src/fx_directory_entry_write.c ****         if (entry_ptr -> fx_dir_entry_short_name[0] == 0)
 730:Middlewares/ST/filex/common/src/fx_directory_entry_write.c ****         {
 731:Middlewares/ST/filex/common/src/fx_directory_entry_write.c **** 
 732:Middlewares/ST/filex/common/src/fx_directory_entry_write.c ****             /* Loop to copy the new short file name.  */
 733:Middlewares/ST/filex/common/src/fx_directory_entry_write.c ****             for (i = 0; i < (FX_DIR_NAME_SIZE + FX_DIR_EXT_SIZE); i++)
 734:Middlewares/ST/filex/common/src/fx_directory_entry_write.c ****             {
 735:Middlewares/ST/filex/common/src/fx_directory_entry_write.c **** 
 736:Middlewares/ST/filex/common/src/fx_directory_entry_write.c ****                 /* Pickup shortname character.  */
 737:Middlewares/ST/filex/common/src/fx_directory_entry_write.c ****                 alpha = shortname[i];
 738:Middlewares/ST/filex/common/src/fx_directory_entry_write.c **** 
 739:Middlewares/ST/filex/common/src/fx_directory_entry_write.c ****                 /* Now store the short name character.  */
 740:Middlewares/ST/filex/common/src/fx_directory_entry_write.c ****                 *work_ptr++ =  (UCHAR)alpha;
 741:Middlewares/ST/filex/common/src/fx_directory_entry_write.c ****             }
 742:Middlewares/ST/filex/common/src/fx_directory_entry_write.c ****         }
 743:Middlewares/ST/filex/common/src/fx_directory_entry_write.c ****         else
 744:Middlewares/ST/filex/common/src/fx_directory_entry_write.c ****         {
 745:Middlewares/ST/filex/common/src/fx_directory_entry_write.c **** 
 746:Middlewares/ST/filex/common/src/fx_directory_entry_write.c ****             /* Clear the short file name area.  */
 747:Middlewares/ST/filex/common/src/fx_directory_entry_write.c ****             for (i = 0; i < FX_DIR_NAME_SIZE + FX_DIR_EXT_SIZE; i++)
 748:Middlewares/ST/filex/common/src/fx_directory_entry_write.c ****             {
 749:Middlewares/ST/filex/common/src/fx_directory_entry_write.c ****                 work_ptr[i] = ' ';
 750:Middlewares/ST/filex/common/src/fx_directory_entry_write.c ****             }
 751:Middlewares/ST/filex/common/src/fx_directory_entry_write.c **** 
 752:Middlewares/ST/filex/common/src/fx_directory_entry_write.c ****             /* Loop to copy the old short file name.  */
 753:Middlewares/ST/filex/common/src/fx_directory_entry_write.c ****             for (i = 0, j = 0; j < FX_DIR_NAME_SIZE; i++, j++)
 754:Middlewares/ST/filex/common/src/fx_directory_entry_write.c ****             {
 755:Middlewares/ST/filex/common/src/fx_directory_entry_write.c **** 
 756:Middlewares/ST/filex/common/src/fx_directory_entry_write.c ****                 /* Check for end of copy conditions.  */
 757:Middlewares/ST/filex/common/src/fx_directory_entry_write.c ****                 if ((UCHAR)entry_ptr -> fx_dir_entry_short_name[i] == '.')
 758:Middlewares/ST/filex/common/src/fx_directory_entry_write.c ****                 {
 759:Middlewares/ST/filex/common/src/fx_directory_entry_write.c ****                     break;
 760:Middlewares/ST/filex/common/src/fx_directory_entry_write.c ****                 }
 761:Middlewares/ST/filex/common/src/fx_directory_entry_write.c ****                 if ((UCHAR)entry_ptr -> fx_dir_entry_short_name[i] == 0)
 762:Middlewares/ST/filex/common/src/fx_directory_entry_write.c ****                 {
 763:Middlewares/ST/filex/common/src/fx_directory_entry_write.c ****                     break;
 764:Middlewares/ST/filex/common/src/fx_directory_entry_write.c ****                 }
 765:Middlewares/ST/filex/common/src/fx_directory_entry_write.c **** 
 766:Middlewares/ST/filex/common/src/fx_directory_entry_write.c ****                 /* Copy file name character.  */
 767:Middlewares/ST/filex/common/src/fx_directory_entry_write.c ****                 work_ptr[j] =  (UCHAR)entry_ptr -> fx_dir_entry_short_name[i];
 768:Middlewares/ST/filex/common/src/fx_directory_entry_write.c ****             }
 769:Middlewares/ST/filex/common/src/fx_directory_entry_write.c **** 
 770:Middlewares/ST/filex/common/src/fx_directory_entry_write.c ****             /* Determine if there is anything left in the short file name.  */
 771:Middlewares/ST/filex/common/src/fx_directory_entry_write.c ****             if ((UCHAR)entry_ptr -> fx_dir_entry_short_name[i] != 0)
 772:Middlewares/ST/filex/common/src/fx_directory_entry_write.c ****             {
 773:Middlewares/ST/filex/common/src/fx_directory_entry_write.c **** 
 774:Middlewares/ST/filex/common/src/fx_directory_entry_write.c ****                 /* Pickup remaining characters.  */
 775:Middlewares/ST/filex/common/src/fx_directory_entry_write.c ****                 for (i++, j = FX_DIR_NAME_SIZE; j < FX_DIR_NAME_SIZE + FX_DIR_EXT_SIZE; i++, j++)
 776:Middlewares/ST/filex/common/src/fx_directory_entry_write.c ****                 {
 777:Middlewares/ST/filex/common/src/fx_directory_entry_write.c **** 
 778:Middlewares/ST/filex/common/src/fx_directory_entry_write.c ****                     /* If NULL is encountered, stop the copying.  */
ARM GAS  C:\Users\HP\AppData\Local\Temp\ccs6anBT.s 			page 18


 779:Middlewares/ST/filex/common/src/fx_directory_entry_write.c ****                     if ((UCHAR)entry_ptr -> fx_dir_entry_short_name[i] == 0)
 780:Middlewares/ST/filex/common/src/fx_directory_entry_write.c ****                     {
 781:Middlewares/ST/filex/common/src/fx_directory_entry_write.c ****                         break;
 782:Middlewares/ST/filex/common/src/fx_directory_entry_write.c ****                     }
 783:Middlewares/ST/filex/common/src/fx_directory_entry_write.c **** 
 784:Middlewares/ST/filex/common/src/fx_directory_entry_write.c ****                     /* Copy file name character.  */
 785:Middlewares/ST/filex/common/src/fx_directory_entry_write.c ****                     work_ptr[j] =  (UCHAR)entry_ptr -> fx_dir_entry_short_name[i];
 786:Middlewares/ST/filex/common/src/fx_directory_entry_write.c ****                 }
 787:Middlewares/ST/filex/common/src/fx_directory_entry_write.c ****             }
 788:Middlewares/ST/filex/common/src/fx_directory_entry_write.c **** 
 789:Middlewares/ST/filex/common/src/fx_directory_entry_write.c ****             /* Adjust the work pointer accordingly.  */
 790:Middlewares/ST/filex/common/src/fx_directory_entry_write.c ****             work_ptr += (FX_DIR_NAME_SIZE + FX_DIR_EXT_SIZE);
 791:Middlewares/ST/filex/common/src/fx_directory_entry_write.c ****         }
 792:Middlewares/ST/filex/common/src/fx_directory_entry_write.c ****     }
 793:Middlewares/ST/filex/common/src/fx_directory_entry_write.c ****     else
 794:Middlewares/ST/filex/common/src/fx_directory_entry_write.c ****     {
 795:Middlewares/ST/filex/common/src/fx_directory_entry_write.c **** 
 796:Middlewares/ST/filex/common/src/fx_directory_entry_write.c ****         /* Determine if long name was shorted.  */
 797:Middlewares/ST/filex/common/src/fx_directory_entry_write.c ****         if (entry_ptr -> fx_dir_entry_long_name_shorted > 0)
 184              		.loc 1 797 9 is_stmt 1 view .LVU59
 185              		.loc 1 797 23 is_stmt 0 view .LVU60
 186 0090 AB69     		ldr	r3, [r5, #24]
 187              		.loc 1 797 12 view .LVU61
 188 0092 33B1     		cbz	r3, .L79
 798:Middlewares/ST/filex/common/src/fx_directory_entry_write.c ****         {
 799:Middlewares/ST/filex/common/src/fx_directory_entry_write.c **** 
 800:Middlewares/ST/filex/common/src/fx_directory_entry_write.c ****             /* Check for a valid short name.  */
 801:Middlewares/ST/filex/common/src/fx_directory_entry_write.c ****             if ((UCHAR)(0x40 | entry_ptr -> fx_dir_entry_long_name_shorted) == (UCHAR)(*work_ptr))
 189              		.loc 1 801 13 is_stmt 1 view .LVU62
 190              		.loc 1 801 17 is_stmt 0 view .LVU63
 191 0094 43F04003 		orr	r3, r3, #64
 192 0098 DBB2     		uxtb	r3, r3
 193              		.loc 1 801 88 view .LVU64
 194 009a 2278     		ldrb	r2, [r4]	@ zero_extendqisi2
 195              	.LVL15:
 196              		.loc 1 801 16 view .LVU65
 197 009c 9342     		cmp	r3, r2
 198 009e 00F09382 		beq	.L138
 199              	.LVL16:
 200              	.L79:
 802:Middlewares/ST/filex/common/src/fx_directory_entry_write.c ****             {
 803:Middlewares/ST/filex/common/src/fx_directory_entry_write.c **** 
 804:Middlewares/ST/filex/common/src/fx_directory_entry_write.c ****                 /* Loop through the file name.  */
 805:Middlewares/ST/filex/common/src/fx_directory_entry_write.c ****                 for (j = 0; j < entry_ptr -> fx_dir_entry_long_name_shorted; j++)
 806:Middlewares/ST/filex/common/src/fx_directory_entry_write.c ****                 {
 807:Middlewares/ST/filex/common/src/fx_directory_entry_write.c **** 
 808:Middlewares/ST/filex/common/src/fx_directory_entry_write.c ****                     /* Check for a free entry to be written.  */
 809:Middlewares/ST/filex/common/src/fx_directory_entry_write.c ****                     if ((UCHAR)entry_ptr -> fx_dir_entry_name[0] == (UCHAR)FX_DIR_ENTRY_FREE)
 810:Middlewares/ST/filex/common/src/fx_directory_entry_write.c ****                     {
 811:Middlewares/ST/filex/common/src/fx_directory_entry_write.c ****                         /* Delete long parts.  */
 812:Middlewares/ST/filex/common/src/fx_directory_entry_write.c ****                         work_ptr[0] =  (UCHAR)FX_DIR_ENTRY_FREE;
 813:Middlewares/ST/filex/common/src/fx_directory_entry_write.c ****                     }
 814:Middlewares/ST/filex/common/src/fx_directory_entry_write.c **** 
 815:Middlewares/ST/filex/common/src/fx_directory_entry_write.c ****                     /* Setup pointers for the name write.  */
 816:Middlewares/ST/filex/common/src/fx_directory_entry_write.c ****                     work_ptr += FX_DIR_ENTRY_SIZE;
 817:Middlewares/ST/filex/common/src/fx_directory_entry_write.c ****                     byte_offset += FX_DIR_ENTRY_SIZE;
 818:Middlewares/ST/filex/common/src/fx_directory_entry_write.c **** 
ARM GAS  C:\Users\HP\AppData\Local\Temp\ccs6anBT.s 			page 19


 819:Middlewares/ST/filex/common/src/fx_directory_entry_write.c **** #ifdef FX_ENABLE_FAULT_TOLERANT
 820:Middlewares/ST/filex/common/src/fx_directory_entry_write.c ****                     /* Update changed_size. */
 821:Middlewares/ST/filex/common/src/fx_directory_entry_write.c ****                     changed_size += FX_DIR_ENTRY_SIZE;
 822:Middlewares/ST/filex/common/src/fx_directory_entry_write.c **** #endif /* FX_ENABLE_FAULT_TOLERANT */
 823:Middlewares/ST/filex/common/src/fx_directory_entry_write.c **** 
 824:Middlewares/ST/filex/common/src/fx_directory_entry_write.c ****                     /* Determine if the write is within the current sector.   */
 825:Middlewares/ST/filex/common/src/fx_directory_entry_write.c ****                     if (byte_offset >= media_ptr -> fx_media_bytes_per_sector)
 826:Middlewares/ST/filex/common/src/fx_directory_entry_write.c ****                     {
 827:Middlewares/ST/filex/common/src/fx_directory_entry_write.c **** #ifdef FX_ENABLE_FAULT_TOLERANT
 828:Middlewares/ST/filex/common/src/fx_directory_entry_write.c ****                         if (media_ptr -> fx_media_fault_tolerant_enabled)
 829:Middlewares/ST/filex/common/src/fx_directory_entry_write.c ****                         {
 830:Middlewares/ST/filex/common/src/fx_directory_entry_write.c **** 
 831:Middlewares/ST/filex/common/src/fx_directory_entry_write.c ****                             /* Redirect this request to log file. */
 832:Middlewares/ST/filex/common/src/fx_directory_entry_write.c ****                             status = _fx_fault_tolerant_add_dir_log(media_ptr, (ULONG64) logical_se
 833:Middlewares/ST/filex/common/src/fx_directory_entry_write.c ****                         }
 834:Middlewares/ST/filex/common/src/fx_directory_entry_write.c ****                         else
 835:Middlewares/ST/filex/common/src/fx_directory_entry_write.c ****                         {
 836:Middlewares/ST/filex/common/src/fx_directory_entry_write.c **** #endif /* FX_ENABLE_FAULT_TOLERANT */
 837:Middlewares/ST/filex/common/src/fx_directory_entry_write.c **** 
 838:Middlewares/ST/filex/common/src/fx_directory_entry_write.c ****                             /* Write the current sector out.  */
 839:Middlewares/ST/filex/common/src/fx_directory_entry_write.c ****                             status =  _fx_utility_logical_sector_write(media_ptr, (ULONG64) logical
 840:Middlewares/ST/filex/common/src/fx_directory_entry_write.c ****                                                                        sector_base_ptr, ((ULONG) 1)
 841:Middlewares/ST/filex/common/src/fx_directory_entry_write.c **** #ifdef FX_ENABLE_FAULT_TOLERANT
 842:Middlewares/ST/filex/common/src/fx_directory_entry_write.c ****                         }
 843:Middlewares/ST/filex/common/src/fx_directory_entry_write.c **** #endif /* FX_ENABLE_FAULT_TOLERANT */
 844:Middlewares/ST/filex/common/src/fx_directory_entry_write.c **** 
 845:Middlewares/ST/filex/common/src/fx_directory_entry_write.c ****                         /* Determine if an error occurred.  */
 846:Middlewares/ST/filex/common/src/fx_directory_entry_write.c ****                         if (status != FX_SUCCESS)
 847:Middlewares/ST/filex/common/src/fx_directory_entry_write.c ****                         {
 848:Middlewares/ST/filex/common/src/fx_directory_entry_write.c **** 
 849:Middlewares/ST/filex/common/src/fx_directory_entry_write.c ****                             /* Return the error status.  */
 850:Middlewares/ST/filex/common/src/fx_directory_entry_write.c ****                             return(status);
 851:Middlewares/ST/filex/common/src/fx_directory_entry_write.c ****                         }
 852:Middlewares/ST/filex/common/src/fx_directory_entry_write.c **** 
 853:Middlewares/ST/filex/common/src/fx_directory_entry_write.c ****                         /* Determine if we are in the root directory.  */
 854:Middlewares/ST/filex/common/src/fx_directory_entry_write.c ****                         if (logical_sector >= (ULONG)(media_ptr -> fx_media_data_sector_start))
 855:Middlewares/ST/filex/common/src/fx_directory_entry_write.c ****                         {
 856:Middlewares/ST/filex/common/src/fx_directory_entry_write.c **** 
 857:Middlewares/ST/filex/common/src/fx_directory_entry_write.c ****                             /* Determine the next sector of the directory entry.  */
 858:Middlewares/ST/filex/common/src/fx_directory_entry_write.c ****                             if (relative_sector < (media_ptr -> fx_media_sectors_per_cluster - 1))
 859:Middlewares/ST/filex/common/src/fx_directory_entry_write.c ****                             {
 860:Middlewares/ST/filex/common/src/fx_directory_entry_write.c **** 
 861:Middlewares/ST/filex/common/src/fx_directory_entry_write.c ****                                 /* More sectors in this cluster.  */
 862:Middlewares/ST/filex/common/src/fx_directory_entry_write.c **** 
 863:Middlewares/ST/filex/common/src/fx_directory_entry_write.c ****                                 /* Simply increment the logical sector.  */
 864:Middlewares/ST/filex/common/src/fx_directory_entry_write.c ****                                 logical_sector++;
 865:Middlewares/ST/filex/common/src/fx_directory_entry_write.c **** 
 866:Middlewares/ST/filex/common/src/fx_directory_entry_write.c ****                                 /* Increment the relative sector.  */
 867:Middlewares/ST/filex/common/src/fx_directory_entry_write.c ****                                 relative_sector++;
 868:Middlewares/ST/filex/common/src/fx_directory_entry_write.c ****                             }
 869:Middlewares/ST/filex/common/src/fx_directory_entry_write.c ****                             else
 870:Middlewares/ST/filex/common/src/fx_directory_entry_write.c ****                             {
 871:Middlewares/ST/filex/common/src/fx_directory_entry_write.c **** 
 872:Middlewares/ST/filex/common/src/fx_directory_entry_write.c ****                                 /* We need to move to the next cluster.  */
 873:Middlewares/ST/filex/common/src/fx_directory_entry_write.c **** 
 874:Middlewares/ST/filex/common/src/fx_directory_entry_write.c ****                                 /* Pickup the next cluster.  */
 875:Middlewares/ST/filex/common/src/fx_directory_entry_write.c ****                                 status =  _fx_utility_FAT_entry_read(media_ptr, cluster, &next_clus
ARM GAS  C:\Users\HP\AppData\Local\Temp\ccs6anBT.s 			page 20


 876:Middlewares/ST/filex/common/src/fx_directory_entry_write.c **** 
 877:Middlewares/ST/filex/common/src/fx_directory_entry_write.c ****                                 /* Check for I/O error.  */
 878:Middlewares/ST/filex/common/src/fx_directory_entry_write.c ****                                 if (status != FX_SUCCESS)
 879:Middlewares/ST/filex/common/src/fx_directory_entry_write.c ****                                 {
 880:Middlewares/ST/filex/common/src/fx_directory_entry_write.c **** 
 881:Middlewares/ST/filex/common/src/fx_directory_entry_write.c ****                                     /* Return error code.  */
 882:Middlewares/ST/filex/common/src/fx_directory_entry_write.c ****                                     return(status);
 883:Middlewares/ST/filex/common/src/fx_directory_entry_write.c ****                                 }
 884:Middlewares/ST/filex/common/src/fx_directory_entry_write.c **** 
 885:Middlewares/ST/filex/common/src/fx_directory_entry_write.c ****                                 /* Copy next cluster to the current cluster.  */
 886:Middlewares/ST/filex/common/src/fx_directory_entry_write.c ****                                 cluster =  next_cluster;
 887:Middlewares/ST/filex/common/src/fx_directory_entry_write.c **** 
 888:Middlewares/ST/filex/common/src/fx_directory_entry_write.c ****                                 /* Check the value of the new cluster - it must be a valid cluster 
 889:Middlewares/ST/filex/common/src/fx_directory_entry_write.c ****                                    or something is really wrong!  */
 890:Middlewares/ST/filex/common/src/fx_directory_entry_write.c ****                                 if ((cluster < FX_FAT_ENTRY_START) || (cluster >= media_ptr -> fx_m
 891:Middlewares/ST/filex/common/src/fx_directory_entry_write.c ****                                 {
 892:Middlewares/ST/filex/common/src/fx_directory_entry_write.c **** 
 893:Middlewares/ST/filex/common/src/fx_directory_entry_write.c ****                                     /* Send error message back to caller.  */
 894:Middlewares/ST/filex/common/src/fx_directory_entry_write.c ****                                     return(FX_FILE_CORRUPT);
 895:Middlewares/ST/filex/common/src/fx_directory_entry_write.c ****                                 }
 896:Middlewares/ST/filex/common/src/fx_directory_entry_write.c **** 
 897:Middlewares/ST/filex/common/src/fx_directory_entry_write.c ****                                 /* Setup the relative sector (this is zero for subsequent cluster. 
 898:Middlewares/ST/filex/common/src/fx_directory_entry_write.c ****                                 relative_sector =  0;
 899:Middlewares/ST/filex/common/src/fx_directory_entry_write.c **** 
 900:Middlewares/ST/filex/common/src/fx_directory_entry_write.c ****                                 /* Calculate the next logical sector.  */
 901:Middlewares/ST/filex/common/src/fx_directory_entry_write.c ****                                 logical_sector =   ((ULONG)media_ptr -> fx_media_data_sector_start)
 902:Middlewares/ST/filex/common/src/fx_directory_entry_write.c ****                                     (((ULONG)cluster - FX_FAT_ENTRY_START) *
 903:Middlewares/ST/filex/common/src/fx_directory_entry_write.c ****                                      ((ULONG)media_ptr -> fx_media_sectors_per_cluster));
 904:Middlewares/ST/filex/common/src/fx_directory_entry_write.c ****                             }
 905:Middlewares/ST/filex/common/src/fx_directory_entry_write.c ****                         }
 906:Middlewares/ST/filex/common/src/fx_directory_entry_write.c ****                         else
 907:Middlewares/ST/filex/common/src/fx_directory_entry_write.c ****                         {
 908:Middlewares/ST/filex/common/src/fx_directory_entry_write.c **** 
 909:Middlewares/ST/filex/common/src/fx_directory_entry_write.c ****                             /* Increment the logical sector.  */
 910:Middlewares/ST/filex/common/src/fx_directory_entry_write.c ****                             logical_sector++;
 911:Middlewares/ST/filex/common/src/fx_directory_entry_write.c **** 
 912:Middlewares/ST/filex/common/src/fx_directory_entry_write.c ****                             /* Determine if the logical sector is valid.  */
 913:Middlewares/ST/filex/common/src/fx_directory_entry_write.c ****                             if (logical_sector >= (ULONG)(media_ptr -> fx_media_data_sector_start))
 914:Middlewares/ST/filex/common/src/fx_directory_entry_write.c ****                             {
 915:Middlewares/ST/filex/common/src/fx_directory_entry_write.c **** 
 916:Middlewares/ST/filex/common/src/fx_directory_entry_write.c ****                                 /* We have exceeded the root directory.  */
 917:Middlewares/ST/filex/common/src/fx_directory_entry_write.c **** 
 918:Middlewares/ST/filex/common/src/fx_directory_entry_write.c ****                                 /* Send error message back to caller.  */
 919:Middlewares/ST/filex/common/src/fx_directory_entry_write.c ****                                 return(FX_FILE_CORRUPT);
 920:Middlewares/ST/filex/common/src/fx_directory_entry_write.c ****                             }
 921:Middlewares/ST/filex/common/src/fx_directory_entry_write.c ****                         }
 922:Middlewares/ST/filex/common/src/fx_directory_entry_write.c **** 
 923:Middlewares/ST/filex/common/src/fx_directory_entry_write.c ****                         /* Read the next logical sector.  */
 924:Middlewares/ST/filex/common/src/fx_directory_entry_write.c ****                         status =  _fx_utility_logical_sector_read(media_ptr, (ULONG64) logical_sect
 925:Middlewares/ST/filex/common/src/fx_directory_entry_write.c ****                                                                   media_ptr -> fx_media_memory_buff
 926:Middlewares/ST/filex/common/src/fx_directory_entry_write.c **** 
 927:Middlewares/ST/filex/common/src/fx_directory_entry_write.c ****                         /* Determine if an error occurred.  */
 928:Middlewares/ST/filex/common/src/fx_directory_entry_write.c ****                         if (status != FX_SUCCESS)
 929:Middlewares/ST/filex/common/src/fx_directory_entry_write.c ****                         {
 930:Middlewares/ST/filex/common/src/fx_directory_entry_write.c **** 
 931:Middlewares/ST/filex/common/src/fx_directory_entry_write.c ****                             /* Return the error status.  */
 932:Middlewares/ST/filex/common/src/fx_directory_entry_write.c ****                             return(status);
ARM GAS  C:\Users\HP\AppData\Local\Temp\ccs6anBT.s 			page 21


 933:Middlewares/ST/filex/common/src/fx_directory_entry_write.c ****                         }
 934:Middlewares/ST/filex/common/src/fx_directory_entry_write.c **** 
 935:Middlewares/ST/filex/common/src/fx_directory_entry_write.c ****                         /* Move to the next sector buffer.  */
 936:Middlewares/ST/filex/common/src/fx_directory_entry_write.c ****                         sector_base_ptr = media_ptr -> fx_media_memory_buffer;
 937:Middlewares/ST/filex/common/src/fx_directory_entry_write.c **** 
 938:Middlewares/ST/filex/common/src/fx_directory_entry_write.c ****                         /* Setup new buffer pointers.  */
 939:Middlewares/ST/filex/common/src/fx_directory_entry_write.c ****                         byte_offset =  0;
 940:Middlewares/ST/filex/common/src/fx_directory_entry_write.c ****                         work_ptr = sector_base_ptr;
 941:Middlewares/ST/filex/common/src/fx_directory_entry_write.c **** 
 942:Middlewares/ST/filex/common/src/fx_directory_entry_write.c **** #ifdef FX_ENABLE_FAULT_TOLERANT
 943:Middlewares/ST/filex/common/src/fx_directory_entry_write.c ****                         /* Initialize data for fault tolerant. */
 944:Middlewares/ST/filex/common/src/fx_directory_entry_write.c ****                         changed_ptr = work_ptr;
 945:Middlewares/ST/filex/common/src/fx_directory_entry_write.c ****                         changed_size = 0;
 946:Middlewares/ST/filex/common/src/fx_directory_entry_write.c ****                         changed_offset = 0;
 947:Middlewares/ST/filex/common/src/fx_directory_entry_write.c **** #endif /* FX_ENABLE_FAULT_TOLERANT */
 948:Middlewares/ST/filex/common/src/fx_directory_entry_write.c ****                     }
 949:Middlewares/ST/filex/common/src/fx_directory_entry_write.c ****                 }
 950:Middlewares/ST/filex/common/src/fx_directory_entry_write.c ****             }
 951:Middlewares/ST/filex/common/src/fx_directory_entry_write.c ****         }
 952:Middlewares/ST/filex/common/src/fx_directory_entry_write.c **** 
 953:Middlewares/ST/filex/common/src/fx_directory_entry_write.c ****         /* This is an 8.3 name.  First clear the directory name.  */
 954:Middlewares/ST/filex/common/src/fx_directory_entry_write.c ****         for (j = 0; j < FX_DIR_NAME_SIZE + FX_DIR_EXT_SIZE; j++)
 201              		.loc 1 954 9 is_stmt 1 view .LVU66
 202              		.loc 1 954 16 is_stmt 0 view .LVU67
 203 00a2 3346     		mov	r3, r6
 204              		.loc 1 954 9 view .LVU68
 205 00a4 9DE2     		b	.L87
 206              	.LVL17:
 207              	.L140:
 198:Middlewares/ST/filex/common/src/fx_directory_entry_write.c ****                 {
 208              		.loc 1 198 17 is_stmt 1 view .LVU69
 198:Middlewares/ST/filex/common/src/fx_directory_entry_write.c ****                 {
 209              		.loc 1 198 20 is_stmt 0 view .LVU70
 210 00a6 12B1     		cbz	r2, .L8
 206:Middlewares/ST/filex/common/src/fx_directory_entry_write.c ****                 dotpos   = len + 1;
 211              		.loc 1 206 17 is_stmt 1 view .LVU71
 212              	.LVL18:
 207:Middlewares/ST/filex/common/src/fx_directory_entry_write.c ****                 continue;
 213              		.loc 1 207 17 view .LVU72
 207:Middlewares/ST/filex/common/src/fx_directory_entry_write.c ****                 continue;
 214              		.loc 1 207 26 is_stmt 0 view .LVU73
 215 00a8 02F1010E 		add	lr, r2, #1
 216              	.LVL19:
 208:Middlewares/ST/filex/common/src/fx_directory_entry_write.c ****             }
 217              		.loc 1 208 17 is_stmt 1 view .LVU74
 206:Middlewares/ST/filex/common/src/fx_directory_entry_write.c ****                 dotpos   = len + 1;
 218              		.loc 1 206 26 is_stmt 0 view .LVU75
 219 00ac 0497     		str	r7, [sp, #16]
 220              	.LVL20:
 221              	.L8:
 190:Middlewares/ST/filex/common/src/fx_directory_entry_write.c ****         {
 222              		.loc 1 190 93 is_stmt 1 discriminator 2 view .LVU76
 190:Middlewares/ST/filex/common/src/fx_directory_entry_write.c ****         {
 223              		.loc 1 190 96 is_stmt 0 discriminator 2 view .LVU77
 224 00ae 0132     		adds	r2, r2, #1
 225              	.LVL21:
 226              	.L5:
ARM GAS  C:\Users\HP\AppData\Local\Temp\ccs6anBT.s 			page 22


 190:Middlewares/ST/filex/common/src/fx_directory_entry_write.c ****         {
 227              		.loc 1 190 56 is_stmt 1 discriminator 1 view .LVU78
 190:Middlewares/ST/filex/common/src/fx_directory_entry_write.c ****         {
 228              		.loc 1 190 66 is_stmt 0 discriminator 1 view .LVU79
 229 00b0 2868     		ldr	r0, [r5]
 190:Middlewares/ST/filex/common/src/fx_directory_entry_write.c ****         {
 230              		.loc 1 190 86 discriminator 1 view .LVU80
 231 00b2 815C     		ldrb	r1, [r0, r2]	@ zero_extendqisi2
 190:Middlewares/ST/filex/common/src/fx_directory_entry_write.c ****         {
 232              		.loc 1 190 9 discriminator 1 view .LVU81
 233 00b4 89B1     		cbz	r1, .L139
 194:Middlewares/ST/filex/common/src/fx_directory_entry_write.c ****             {
 234              		.loc 1 194 13 is_stmt 1 view .LVU82
 194:Middlewares/ST/filex/common/src/fx_directory_entry_write.c ****             {
 235              		.loc 1 194 16 is_stmt 0 view .LVU83
 236 00b6 2E29     		cmp	r1, #46
 237 00b8 F5D0     		beq	.L140
 212:Middlewares/ST/filex/common/src/fx_directory_entry_write.c ****             {
 238              		.loc 1 212 13 is_stmt 1 view .LVU84
 212:Middlewares/ST/filex/common/src/fx_directory_entry_write.c ****             {
 239              		.loc 1 212 16 is_stmt 0 view .LVU85
 240 00ba 2029     		cmp	r1, #32
 241 00bc F7D0     		beq	.L8
 212:Middlewares/ST/filex/common/src/fx_directory_entry_write.c ****             {
 242              		.loc 1 212 62 discriminator 1 view .LVU86
 243 00be 072F     		cmp	r7, #7
 244 00c0 F5D8     		bhi	.L8
 216:Middlewares/ST/filex/common/src/fx_directory_entry_write.c ****                 i++;
 245              		.loc 1 216 17 is_stmt 1 view .LVU87
 216:Middlewares/ST/filex/common/src/fx_directory_entry_write.c ****                 i++;
 246              		.loc 1 216 30 is_stmt 0 view .LVU88
 247 00c2 07F13800 		add	r0, r7, #56
 248 00c6 6844     		add	r0, sp, r0
 249 00c8 00F80C1C 		strb	r1, [r0, #-12]
 217:Middlewares/ST/filex/common/src/fx_directory_entry_write.c ****             }
 250              		.loc 1 217 17 is_stmt 1 view .LVU89
 217:Middlewares/ST/filex/common/src/fx_directory_entry_write.c ****             }
 251              		.loc 1 217 18 is_stmt 0 view .LVU90
 252 00cc 0137     		adds	r7, r7, #1
 253              	.LVL22:
 217:Middlewares/ST/filex/common/src/fx_directory_entry_write.c ****             }
 254              		.loc 1 217 18 view .LVU91
 255 00ce EEE7     		b	.L8
 256              	.LVL23:
 257              	.L104:
 190:Middlewares/ST/filex/common/src/fx_directory_entry_write.c ****         {
 258              		.loc 1 190 37 view .LVU92
 259 00d0 8646     		mov	lr, r0
 190:Middlewares/ST/filex/common/src/fx_directory_entry_write.c ****         {
 260              		.loc 1 190 51 view .LVU93
 261 00d2 0490     		str	r0, [sp, #16]
 190:Middlewares/ST/filex/common/src/fx_directory_entry_write.c ****         {
 262              		.loc 1 190 18 view .LVU94
 263 00d4 0246     		mov	r2, r0
 264              	.LVL24:
 190:Middlewares/ST/filex/common/src/fx_directory_entry_write.c ****         {
 265              		.loc 1 190 25 view .LVU95
ARM GAS  C:\Users\HP\AppData\Local\Temp\ccs6anBT.s 			page 23


 266 00d6 0746     		mov	r7, r0
 267 00d8 EAE7     		b	.L5
 268              	.LVL25:
 269              	.L139:
 222:Middlewares/ST/filex/common/src/fx_directory_entry_write.c ****         {
 270              		.loc 1 222 16 view .LVU96
 271 00da 8A46     		mov	r10, r1
 272 00dc 3946     		mov	r1, r7
 273 00de 07E0     		b	.L10
 274              	.LVL26:
 275              	.L11:
 224:Middlewares/ST/filex/common/src/fx_directory_entry_write.c ****         }
 276              		.loc 1 224 13 is_stmt 1 discriminator 3 view .LVU97
 224:Middlewares/ST/filex/common/src/fx_directory_entry_write.c ****         }
 277              		.loc 1 224 26 is_stmt 0 discriminator 3 view .LVU98
 278 00e0 01F13806 		add	r6, r1, #56
 279 00e4 6E44     		add	r6, sp, r6
 280 00e6 4FF0200C 		mov	ip, #32
 281 00ea 06F80CCC 		strb	ip, [r6, #-12]
 222:Middlewares/ST/filex/common/src/fx_directory_entry_write.c ****         {
 282              		.loc 1 222 61 is_stmt 1 discriminator 3 view .LVU99
 222:Middlewares/ST/filex/common/src/fx_directory_entry_write.c ****         {
 283              		.loc 1 222 62 is_stmt 0 discriminator 3 view .LVU100
 284 00ee 0131     		adds	r1, r1, #1
 285              	.LVL27:
 286              	.L10:
 222:Middlewares/ST/filex/common/src/fx_directory_entry_write.c ****         {
 287              		.loc 1 222 21 is_stmt 1 discriminator 1 view .LVU101
 222:Middlewares/ST/filex/common/src/fx_directory_entry_write.c ****         {
 288              		.loc 1 222 9 is_stmt 0 discriminator 1 view .LVU102
 289 00f0 0A29     		cmp	r1, #10
 290 00f2 F5D9     		bls	.L11
 228:Middlewares/ST/filex/common/src/fx_directory_entry_write.c ****         {
 291              		.loc 1 228 9 is_stmt 1 view .LVU103
 228:Middlewares/ST/filex/common/src/fx_directory_entry_write.c ****         {
 292              		.loc 1 228 12 is_stmt 0 view .LVU104
 293 00f4 BEF1000F 		cmp	lr, #0
 294 00f8 20D0     		beq	.L12
 232:Middlewares/ST/filex/common/src/fx_directory_entry_write.c ****             {
 295              		.loc 1 232 13 is_stmt 1 view .LVU105
 232:Middlewares/ST/filex/common/src/fx_directory_entry_write.c ****             {
 296              		.loc 1 232 47 is_stmt 0 view .LVU106
 297 00fa 10F80E10 		ldrb	r1, [r0, lr]	@ zero_extendqisi2
 298              	.LVL28:
 232:Middlewares/ST/filex/common/src/fx_directory_entry_write.c ****             {
 299              		.loc 1 232 16 view .LVU107
 300 00fe 19B1     		cbz	r1, .L13
 234:Middlewares/ST/filex/common/src/fx_directory_entry_write.c ****             }
 301              		.loc 1 234 17 is_stmt 1 view .LVU108
 234:Middlewares/ST/filex/common/src/fx_directory_entry_write.c ****             }
 302              		.loc 1 234 69 is_stmt 0 view .LVU109
 303 0100 0EF1010E 		add	lr, lr, #1
 304              	.LVL29:
 234:Middlewares/ST/filex/common/src/fx_directory_entry_write.c ****             }
 305              		.loc 1 234 30 view .LVU110
 306 0104 8DF83410 		strb	r1, [sp, #52]
 307              	.L13:
ARM GAS  C:\Users\HP\AppData\Local\Temp\ccs6anBT.s 			page 24


 236:Middlewares/ST/filex/common/src/fx_directory_entry_write.c ****             {
 308              		.loc 1 236 13 is_stmt 1 view .LVU111
 236:Middlewares/ST/filex/common/src/fx_directory_entry_write.c ****             {
 309              		.loc 1 236 47 is_stmt 0 view .LVU112
 310 0108 10F80E10 		ldrb	r1, [r0, lr]	@ zero_extendqisi2
 236:Middlewares/ST/filex/common/src/fx_directory_entry_write.c ****             {
 311              		.loc 1 236 16 view .LVU113
 312 010c 19B1     		cbz	r1, .L14
 238:Middlewares/ST/filex/common/src/fx_directory_entry_write.c ****             }
 313              		.loc 1 238 17 is_stmt 1 view .LVU114
 238:Middlewares/ST/filex/common/src/fx_directory_entry_write.c ****             }
 314              		.loc 1 238 69 is_stmt 0 view .LVU115
 315 010e 0EF1010E 		add	lr, lr, #1
 316              	.LVL30:
 238:Middlewares/ST/filex/common/src/fx_directory_entry_write.c ****             }
 317              		.loc 1 238 30 view .LVU116
 318 0112 8DF83510 		strb	r1, [sp, #53]
 319              	.L14:
 240:Middlewares/ST/filex/common/src/fx_directory_entry_write.c ****             {
 320              		.loc 1 240 13 is_stmt 1 view .LVU117
 240:Middlewares/ST/filex/common/src/fx_directory_entry_write.c ****             {
 321              		.loc 1 240 47 is_stmt 0 view .LVU118
 322 0116 10F80E10 		ldrb	r1, [r0, lr]	@ zero_extendqisi2
 240:Middlewares/ST/filex/common/src/fx_directory_entry_write.c ****             {
 323              		.loc 1 240 16 view .LVU119
 324 011a 19B1     		cbz	r1, .L15
 242:Middlewares/ST/filex/common/src/fx_directory_entry_write.c ****             }
 325              		.loc 1 242 17 is_stmt 1 view .LVU120
 242:Middlewares/ST/filex/common/src/fx_directory_entry_write.c ****             }
 326              		.loc 1 242 70 is_stmt 0 view .LVU121
 327 011c 0EF1010E 		add	lr, lr, #1
 328              	.LVL31:
 242:Middlewares/ST/filex/common/src/fx_directory_entry_write.c ****             }
 329              		.loc 1 242 31 view .LVU122
 330 0120 8DF83610 		strb	r1, [sp, #54]
 331              	.L15:
 246:Middlewares/ST/filex/common/src/fx_directory_entry_write.c **** 
 332              		.loc 1 246 13 is_stmt 1 view .LVU123
 333              	.LVL32:
 248:Middlewares/ST/filex/common/src/fx_directory_entry_write.c ****             {
 334              		.loc 1 248 13 view .LVU124
 335 0124 0499     		ldr	r1, [sp, #16]
 336 0126 06E0     		b	.L16
 337              	.LVL33:
 338              	.L17:
 251:Middlewares/ST/filex/common/src/fx_directory_entry_write.c ****             }
 339              		.loc 1 251 17 discriminator 2 view .LVU125
 251:Middlewares/ST/filex/common/src/fx_directory_entry_write.c ****             }
 340              		.loc 1 251 37 is_stmt 0 discriminator 2 view .LVU126
 341 0128 01F13806 		add	r6, r1, #56
 342 012c 6E44     		add	r6, sp, r6
 343 012e 2027     		movs	r7, #32
 344 0130 06F80C7C 		strb	r7, [r6, #-12]
 248:Middlewares/ST/filex/common/src/fx_directory_entry_write.c ****             {
 345              		.loc 1 248 35 is_stmt 1 discriminator 2 view .LVU127
 248:Middlewares/ST/filex/common/src/fx_directory_entry_write.c ****             {
 346              		.loc 1 248 43 is_stmt 0 discriminator 2 view .LVU128
ARM GAS  C:\Users\HP\AppData\Local\Temp\ccs6anBT.s 			page 25


 347 0134 0131     		adds	r1, r1, #1
 348              	.LVL34:
 349              	.L16:
 248:Middlewares/ST/filex/common/src/fx_directory_entry_write.c ****             {
 350              		.loc 1 248 20 is_stmt 1 discriminator 1 view .LVU129
 248:Middlewares/ST/filex/common/src/fx_directory_entry_write.c ****             {
 351              		.loc 1 248 13 is_stmt 0 discriminator 1 view .LVU130
 352 0136 0729     		cmp	r1, #7
 353 0138 F6D9     		bls	.L17
 246:Middlewares/ST/filex/common/src/fx_directory_entry_write.c **** 
 354              		.loc 1 246 15 view .LVU131
 355 013a 049F     		ldr	r7, [sp, #16]
 356              	.LVL35:
 357              	.L12:
 256:Middlewares/ST/filex/common/src/fx_directory_entry_write.c ****         {
 358              		.loc 1 256 9 is_stmt 1 view .LVU132
 256:Middlewares/ST/filex/common/src/fx_directory_entry_write.c ****         {
 359              		.loc 1 256 17 is_stmt 0 view .LVU133
 360 013c AB49     		ldr	r1, .L158
 361 013e A1FB0261 		umull	r6, r1, r1, r2
 362 0142 8908     		lsrs	r1, r1, #2
 363 0144 01EB4106 		add	r6, r1, r1, lsl #1
 364 0148 01EB8601 		add	r1, r1, r6, lsl #2
 256:Middlewares/ST/filex/common/src/fx_directory_entry_write.c ****         {
 365              		.loc 1 256 12 view .LVU134
 366 014c 8A42     		cmp	r2, r1
 367 014e 34D1     		bne	.L18
 258:Middlewares/ST/filex/common/src/fx_directory_entry_write.c ****         }
 368              		.loc 1 258 13 is_stmt 1 view .LVU135
 258:Middlewares/ST/filex/common/src/fx_directory_entry_write.c ****         }
 369              		.loc 1 258 18 is_stmt 0 view .LVU136
 370 0150 A64E     		ldr	r6, .L158
 371 0152 A6FB0212 		umull	r1, r2, r6, r2
 372              	.LVL36:
 258:Middlewares/ST/filex/common/src/fx_directory_entry_write.c ****         }
 373              		.loc 1 258 18 view .LVU137
 374 0156 9608     		lsrs	r6, r2, #2
 375              	.LVL37:
 376              	.L19:
 266:Middlewares/ST/filex/common/src/fx_directory_entry_write.c **** 
 377              		.loc 1 266 9 is_stmt 1 view .LVU138
 270:Middlewares/ST/filex/common/src/fx_directory_entry_write.c ****         k =  0;
 378              		.loc 1 270 9 view .LVU139
 271:Middlewares/ST/filex/common/src/fx_directory_entry_write.c ****         while (k < FX_DIR_NAME_SIZE + FX_DIR_EXT_SIZE)
 379              		.loc 1 271 9 view .LVU140
 272:Middlewares/ST/filex/common/src/fx_directory_entry_write.c ****         {
 380              		.loc 1 272 9 view .LVU141
 270:Middlewares/ST/filex/common/src/fx_directory_entry_write.c ****         k =  0;
 381              		.loc 1 270 11 is_stmt 0 view .LVU142
 382 0158 9C46     		mov	ip, r3
 271:Middlewares/ST/filex/common/src/fx_directory_entry_write.c ****         while (k < FX_DIR_NAME_SIZE + FX_DIR_EXT_SIZE)
 383              		.loc 1 271 11 view .LVU143
 384 015a 1A46     		mov	r2, r3
 385 015c 0493     		str	r3, [sp, #16]
 386              	.LVL38:
 387              	.L20:
 272:Middlewares/ST/filex/common/src/fx_directory_entry_write.c ****         {
ARM GAS  C:\Users\HP\AppData\Local\Temp\ccs6anBT.s 			page 26


 388              		.loc 1 272 15 is_stmt 1 view .LVU144
 389 015e 0A2A     		cmp	r2, #10
 390 0160 49D8     		bhi	.L141
 391 0162 049B     		ldr	r3, [sp, #16]
 392              	.LVL39:
 393              	.L23:
 277:Middlewares/ST/filex/common/src/fx_directory_entry_write.c ****             {
 394              		.loc 1 277 13 view .LVU145
 277:Middlewares/ST/filex/common/src/fx_directory_entry_write.c ****             {
 395              		.loc 1 277 26 is_stmt 0 view .LVU146
 396 0164 02F13801 		add	r1, r2, #56
 397 0168 6944     		add	r1, sp, r1
 398 016a 11F80C1C 		ldrb	r1, [r1, #-12]	@ zero_extendqisi2
 277:Middlewares/ST/filex/common/src/fx_directory_entry_write.c ****             {
 399              		.loc 1 277 16 view .LVU147
 400 016e 2029     		cmp	r1, #32
 401 0170 2DD1     		bne	.L21
 282:Middlewares/ST/filex/common/src/fx_directory_entry_write.c ****                 {
 402              		.loc 1 282 17 is_stmt 1 view .LVU148
 282:Middlewares/ST/filex/common/src/fx_directory_entry_write.c ****                 {
 403              		.loc 1 282 51 is_stmt 0 view .LVU149
 404 0172 10F80C20 		ldrb	r2, [r0, ip]	@ zero_extendqisi2
 282:Middlewares/ST/filex/common/src/fx_directory_entry_write.c ****                 {
 405              		.loc 1 282 20 view .LVU150
 406 0176 002A     		cmp	r2, #0
 407 0178 40D0     		beq	.L105
 290:Middlewares/ST/filex/common/src/fx_directory_entry_write.c ****                 {
 408              		.loc 1 290 17 is_stmt 1 view .LVU151
 290:Middlewares/ST/filex/common/src/fx_directory_entry_write.c ****                 {
 409              		.loc 1 290 20 is_stmt 0 view .LVU152
 410 017a 2E2A     		cmp	r2, #46
 411 017c 23D0     		beq	.L142
 294:Middlewares/ST/filex/common/src/fx_directory_entry_write.c ****                     break;
 412              		.loc 1 294 27 view .LVU153
 413 017e 1A46     		mov	r2, r3
 414              	.L22:
 415              	.LVL40:
 334:Middlewares/ST/filex/common/src/fx_directory_entry_write.c ****         {
 416              		.loc 1 334 9 is_stmt 1 view .LVU154
 334:Middlewares/ST/filex/common/src/fx_directory_entry_write.c ****         {
 417              		.loc 1 334 12 is_stmt 0 view .LVU155
 418 0180 BEF1000F 		cmp	lr, #0
 419 0184 03D0     		beq	.L25
 334:Middlewares/ST/filex/common/src/fx_directory_entry_write.c ****         {
 420              		.loc 1 334 35 discriminator 1 view .LVU156
 421 0186 9DF83410 		ldrb	r1, [sp, #52]	@ zero_extendqisi2
 334:Middlewares/ST/filex/common/src/fx_directory_entry_write.c ****         {
 422              		.loc 1 334 22 discriminator 1 view .LVU157
 423 018a 2029     		cmp	r1, #32
 424 018c 3BD0     		beq	.L143
 425              	.LVL41:
 426              	.L25:
 342:Middlewares/ST/filex/common/src/fx_directory_entry_write.c ****         {
 427              		.loc 1 342 9 is_stmt 1 view .LVU158
 342:Middlewares/ST/filex/common/src/fx_directory_entry_write.c ****         {
 428              		.loc 1 342 43 is_stmt 0 view .LVU159
 429 018e 10F80C10 		ldrb	r1, [r0, ip]	@ zero_extendqisi2
ARM GAS  C:\Users\HP\AppData\Local\Temp\ccs6anBT.s 			page 27


 342:Middlewares/ST/filex/common/src/fx_directory_entry_write.c ****         {
 430              		.loc 1 342 12 view .LVU160
 431 0192 09B9     		cbnz	r1, .L26
 351:Middlewares/ST/filex/common/src/fx_directory_entry_write.c ****         {
 432              		.loc 1 351 9 is_stmt 1 view .LVU161
 351:Middlewares/ST/filex/common/src/fx_directory_entry_write.c ****         {
 433              		.loc 1 351 12 is_stmt 0 view .LVU162
 434 0194 002A     		cmp	r2, #0
 435 0196 5DD1     		bne	.L27
 436              	.L26:
 437              	.LVL42:
 357:Middlewares/ST/filex/common/src/fx_directory_entry_write.c **** 
 438              		.loc 1 357 13 is_stmt 1 view .LVU163
 357:Middlewares/ST/filex/common/src/fx_directory_entry_write.c **** 
 439              		.loc 1 357 19 is_stmt 0 view .LVU164
 440 0198 D5F84CE0 		ldr	lr, [r5, #76]
 441              	.LVL43:
 361:Middlewares/ST/filex/common/src/fx_directory_entry_write.c **** 
 442              		.loc 1 361 13 is_stmt 1 view .LVU165
 361:Middlewares/ST/filex/common/src/fx_directory_entry_write.c **** 
 443              		.loc 1 361 19 is_stmt 0 view .LVU166
 444 019c 1FFA8EFC 		uxth	ip, lr
 445              	.LVL44:
 364:Middlewares/ST/filex/common/src/fx_directory_entry_write.c ****             {
 446              		.loc 1 364 13 is_stmt 1 view .LVU167
 364:Middlewares/ST/filex/common/src/fx_directory_entry_write.c ****             {
 447              		.loc 1 364 16 is_stmt 0 view .LVU168
 448 01a0 032F     		cmp	r7, #3
 449 01a2 00D9     		bls	.L28
 366:Middlewares/ST/filex/common/src/fx_directory_entry_write.c ****             }
 450              		.loc 1 366 19 view .LVU169
 451 01a4 0327     		movs	r7, #3
 452              	.LVL45:
 453              	.L28:
 368:Middlewares/ST/filex/common/src/fx_directory_entry_write.c **** 
 454              		.loc 1 368 13 is_stmt 1 view .LVU170
 368:Middlewares/ST/filex/common/src/fx_directory_entry_write.c **** 
 455              		.loc 1 368 24 is_stmt 0 view .LVU171
 456 01a6 781C     		adds	r0, r7, #1
 457              	.LVL46:
 368:Middlewares/ST/filex/common/src/fx_directory_entry_write.c **** 
 458              		.loc 1 368 28 view .LVU172
 459 01a8 07F13802 		add	r2, r7, #56
 460 01ac 0DEB0207 		add	r7, sp, r2
 461 01b0 7E22     		movs	r2, #126
 462 01b2 07F80C2C 		strb	r2, [r7, #-12]
 371:Middlewares/ST/filex/common/src/fx_directory_entry_write.c ****             {
 463              		.loc 1 371 13 is_stmt 1 view .LVU173
 464              	.LVL47:
 371:Middlewares/ST/filex/common/src/fx_directory_entry_write.c ****             {
 465              		.loc 1 371 20 is_stmt 0 view .LVU174
 466 01b6 1A46     		mov	r2, r3
 371:Middlewares/ST/filex/common/src/fx_directory_entry_write.c ****             {
 467              		.loc 1 371 13 view .LVU175
 468 01b8 33E0     		b	.L29
 469              	.LVL48:
 470              	.L18:
ARM GAS  C:\Users\HP\AppData\Local\Temp\ccs6anBT.s 			page 28


 262:Middlewares/ST/filex/common/src/fx_directory_entry_write.c ****         }
 471              		.loc 1 262 13 is_stmt 1 view .LVU176
 262:Middlewares/ST/filex/common/src/fx_directory_entry_write.c ****         }
 472              		.loc 1 262 25 is_stmt 0 view .LVU177
 473 01ba 8C4E     		ldr	r6, .L158
 474 01bc A6FB0226 		umull	r2, r6, r6, r2
 475              	.LVL49:
 262:Middlewares/ST/filex/common/src/fx_directory_entry_write.c ****         }
 476              		.loc 1 262 25 view .LVU178
 477 01c0 B608     		lsrs	r6, r6, #2
 262:Middlewares/ST/filex/common/src/fx_directory_entry_write.c ****         }
 478              		.loc 1 262 18 view .LVU179
 479 01c2 0136     		adds	r6, r6, #1
 480              	.LVL50:
 262:Middlewares/ST/filex/common/src/fx_directory_entry_write.c ****         }
 481              		.loc 1 262 18 view .LVU180
 482 01c4 C8E7     		b	.L19
 483              	.LVL51:
 484              	.L142:
 300:Middlewares/ST/filex/common/src/fx_directory_entry_write.c ****                 l++;
 485              		.loc 1 300 17 is_stmt 1 view .LVU181
 301:Middlewares/ST/filex/common/src/fx_directory_entry_write.c **** 
 486              		.loc 1 301 17 view .LVU182
 301:Middlewares/ST/filex/common/src/fx_directory_entry_write.c **** 
 487              		.loc 1 301 18 is_stmt 0 view .LVU183
 488 01c6 0CF1010C 		add	ip, ip, #1
 489              	.LVL52:
 304:Middlewares/ST/filex/common/src/fx_directory_entry_write.c ****             }
 490              		.loc 1 304 17 is_stmt 1 view .LVU184
 272:Middlewares/ST/filex/common/src/fx_directory_entry_write.c ****         {
 491              		.loc 1 272 15 view .LVU185
 300:Middlewares/ST/filex/common/src/fx_directory_entry_write.c ****                 l++;
 492              		.loc 1 300 19 is_stmt 0 view .LVU186
 493 01ca 0822     		movs	r2, #8
 494 01cc CAE7     		b	.L23
 495              	.LVL53:
 496              	.L21:
 309:Middlewares/ST/filex/common/src/fx_directory_entry_write.c ****             {
 497              		.loc 1 309 16 view .LVU187
 498 01ce 0991     		str	r1, [sp, #36]
 499 01d0 0493     		str	r3, [sp, #16]
 309:Middlewares/ST/filex/common/src/fx_directory_entry_write.c ****             {
 500              		.loc 1 309 13 is_stmt 1 view .LVU188
 309:Middlewares/ST/filex/common/src/fx_directory_entry_write.c ****             {
 501              		.loc 1 309 16 is_stmt 0 view .LVU189
 502 01d2 082A     		cmp	r2, #8
 503 01d4 08D0     		beq	.L144
 504              	.L24:
 318:Middlewares/ST/filex/common/src/fx_directory_entry_write.c ****             {
 505              		.loc 1 318 13 is_stmt 1 view .LVU190
 318:Middlewares/ST/filex/common/src/fx_directory_entry_write.c ****             {
 506              		.loc 1 318 63 is_stmt 0 view .LVU191
 507 01d6 10F80C10 		ldrb	r1, [r0, ip]	@ zero_extendqisi2
 318:Middlewares/ST/filex/common/src/fx_directory_entry_write.c ****             {
 508              		.loc 1 318 16 view .LVU192
 509 01da 099B     		ldr	r3, [sp, #36]
 510 01dc 8B42     		cmp	r3, r1
ARM GAS  C:\Users\HP\AppData\Local\Temp\ccs6anBT.s 			page 29


 511 01de 0FD1     		bne	.L107
 328:Middlewares/ST/filex/common/src/fx_directory_entry_write.c ****             l++;
 512              		.loc 1 328 13 is_stmt 1 view .LVU193
 328:Middlewares/ST/filex/common/src/fx_directory_entry_write.c ****             l++;
 513              		.loc 1 328 14 is_stmt 0 view .LVU194
 514 01e0 0132     		adds	r2, r2, #1
 515              	.LVL54:
 329:Middlewares/ST/filex/common/src/fx_directory_entry_write.c ****         }
 516              		.loc 1 329 13 is_stmt 1 view .LVU195
 329:Middlewares/ST/filex/common/src/fx_directory_entry_write.c ****         }
 517              		.loc 1 329 14 is_stmt 0 view .LVU196
 518 01e2 0CF1010C 		add	ip, ip, #1
 519              	.LVL55:
 329:Middlewares/ST/filex/common/src/fx_directory_entry_write.c ****         }
 520              		.loc 1 329 14 view .LVU197
 521 01e6 BAE7     		b	.L20
 522              	.LVL56:
 523              	.L144:
 309:Middlewares/ST/filex/common/src/fx_directory_entry_write.c ****             {
 524              		.loc 1 309 60 discriminator 1 view .LVU198
 525 01e8 10F80C10 		ldrb	r1, [r0, ip]	@ zero_extendqisi2
 309:Middlewares/ST/filex/common/src/fx_directory_entry_write.c ****             {
 526              		.loc 1 309 26 discriminator 1 view .LVU199
 527 01ec 2E29     		cmp	r1, #46
 528 01ee F2D1     		bne	.L24
 314:Middlewares/ST/filex/common/src/fx_directory_entry_write.c ****             }
 529              		.loc 1 314 17 is_stmt 1 view .LVU200
 314:Middlewares/ST/filex/common/src/fx_directory_entry_write.c ****             }
 530              		.loc 1 314 18 is_stmt 0 view .LVU201
 531 01f0 0CF1010C 		add	ip, ip, #1
 532              	.LVL57:
 314:Middlewares/ST/filex/common/src/fx_directory_entry_write.c ****             }
 533              		.loc 1 314 18 view .LVU202
 534 01f4 EFE7     		b	.L24
 535              	.LVL58:
 536              	.L141:
 266:Middlewares/ST/filex/common/src/fx_directory_entry_write.c **** 
 537              		.loc 1 266 15 view .LVU203
 538 01f6 049B     		ldr	r3, [sp, #16]
 539 01f8 0122     		movs	r2, #1
 540              	.LVL59:
 266:Middlewares/ST/filex/common/src/fx_directory_entry_write.c **** 
 541              		.loc 1 266 15 view .LVU204
 542 01fa C1E7     		b	.L22
 543              	.L105:
 266:Middlewares/ST/filex/common/src/fx_directory_entry_write.c **** 
 544              		.loc 1 266 15 view .LVU205
 545 01fc 0122     		movs	r2, #1
 546 01fe BFE7     		b	.L22
 547              	.L107:
 323:Middlewares/ST/filex/common/src/fx_directory_entry_write.c ****                 break;
 548              		.loc 1 323 23 view .LVU206
 549 0200 049B     		ldr	r3, [sp, #16]
 550 0202 1A46     		mov	r2, r3
 551 0204 BCE7     		b	.L22
 552              	.LVL60:
 553              	.L143:
ARM GAS  C:\Users\HP\AppData\Local\Temp\ccs6anBT.s 			page 30


 338:Middlewares/ST/filex/common/src/fx_directory_entry_write.c ****         }
 554              		.loc 1 338 19 view .LVU207
 555 0206 1A46     		mov	r2, r3
 556              	.LVL61:
 338:Middlewares/ST/filex/common/src/fx_directory_entry_write.c ****         }
 557              		.loc 1 338 19 view .LVU208
 558 0208 C1E7     		b	.L25
 559              	.LVL62:
 560              	.L145:
 377:Middlewares/ST/filex/common/src/fx_directory_entry_write.c ****                 }
 561              		.loc 1 377 21 is_stmt 1 view .LVU209
 377:Middlewares/ST/filex/common/src/fx_directory_entry_write.c ****                 }
 562              		.loc 1 377 26 is_stmt 0 view .LVU210
 563 020a 4FEA1C31 		lsr	r1, ip, #12
 564              	.LVL63:
 565              	.L31:
 393:Middlewares/ST/filex/common/src/fx_directory_entry_write.c ****                     shortname[i++] =  (CHAR)('A' + (temp - 10));
 566              		.loc 1 393 17 is_stmt 1 view .LVU211
 393:Middlewares/ST/filex/common/src/fx_directory_entry_write.c ****                     shortname[i++] =  (CHAR)('A' + (temp - 10));
 567              		.loc 1 393 20 is_stmt 0 view .LVU212
 568 020e 0929     		cmp	r1, #9
 569 0210 18D9     		bls	.L34
 394:Middlewares/ST/filex/common/src/fx_directory_entry_write.c ****                 else
 570              		.loc 1 394 21 is_stmt 1 view .LVU213
 571              	.LVL64:
 394:Middlewares/ST/filex/common/src/fx_directory_entry_write.c ****                 else
 572              		.loc 1 394 39 is_stmt 0 view .LVU214
 573 0212 3731     		adds	r1, r1, #55
 574              	.LVL65:
 394:Middlewares/ST/filex/common/src/fx_directory_entry_write.c ****                 else
 575              		.loc 1 394 36 view .LVU215
 576 0214 00F13807 		add	r7, r0, #56
 577 0218 6F44     		add	r7, sp, r7
 578 021a 07F80C1C 		strb	r1, [r7, #-12]
 394:Middlewares/ST/filex/common/src/fx_directory_entry_write.c ****                 else
 579              		.loc 1 394 32 view .LVU216
 580 021e 0130     		adds	r0, r0, #1
 581              	.LVL66:
 582              	.L35:
 371:Middlewares/ST/filex/common/src/fx_directory_entry_write.c ****             {
 583              		.loc 1 371 32 is_stmt 1 discriminator 2 view .LVU217
 371:Middlewares/ST/filex/common/src/fx_directory_entry_write.c ****             {
 584              		.loc 1 371 33 is_stmt 0 discriminator 2 view .LVU218
 585 0220 0132     		adds	r2, r2, #1
 586              	.LVL67:
 587              	.L29:
 371:Middlewares/ST/filex/common/src/fx_directory_entry_write.c ****             {
 588              		.loc 1 371 25 is_stmt 1 discriminator 1 view .LVU219
 371:Middlewares/ST/filex/common/src/fx_directory_entry_write.c ****             {
 589              		.loc 1 371 13 is_stmt 0 discriminator 1 view .LVU220
 590 0222 032A     		cmp	r2, #3
 591 0224 16D8     		bhi	.L27
 375:Middlewares/ST/filex/common/src/fx_directory_entry_write.c ****                 {
 592              		.loc 1 375 17 is_stmt 1 view .LVU221
 375:Middlewares/ST/filex/common/src/fx_directory_entry_write.c ****                 {
 593              		.loc 1 375 20 is_stmt 0 view .LVU222
 594 0226 002A     		cmp	r2, #0
ARM GAS  C:\Users\HP\AppData\Local\Temp\ccs6anBT.s 			page 31


 595 0228 EFD0     		beq	.L145
 379:Middlewares/ST/filex/common/src/fx_directory_entry_write.c ****                 {
 596              		.loc 1 379 22 is_stmt 1 view .LVU223
 379:Middlewares/ST/filex/common/src/fx_directory_entry_write.c ****                 {
 597              		.loc 1 379 25 is_stmt 0 view .LVU224
 598 022a 012A     		cmp	r2, #1
 599 022c 04D0     		beq	.L146
 383:Middlewares/ST/filex/common/src/fx_directory_entry_write.c ****                 {
 600              		.loc 1 383 22 is_stmt 1 view .LVU225
 383:Middlewares/ST/filex/common/src/fx_directory_entry_write.c ****                 {
 601              		.loc 1 383 25 is_stmt 0 view .LVU226
 602 022e 022A     		cmp	r2, #2
 603 0230 05D0     		beq	.L147
 389:Middlewares/ST/filex/common/src/fx_directory_entry_write.c ****                 }
 604              		.loc 1 389 22 is_stmt 1 view .LVU227
 389:Middlewares/ST/filex/common/src/fx_directory_entry_write.c ****                 }
 605              		.loc 1 389 27 is_stmt 0 view .LVU228
 606 0232 0EF00F01 		and	r1, lr, #15
 607              	.LVL68:
 389:Middlewares/ST/filex/common/src/fx_directory_entry_write.c ****                 }
 608              		.loc 1 389 27 view .LVU229
 609 0236 EAE7     		b	.L31
 610              	.LVL69:
 611              	.L146:
 381:Middlewares/ST/filex/common/src/fx_directory_entry_write.c ****                 }
 612              		.loc 1 381 22 is_stmt 1 view .LVU230
 381:Middlewares/ST/filex/common/src/fx_directory_entry_write.c ****                 }
 613              		.loc 1 381 27 is_stmt 0 view .LVU231
 614 0238 CCF30321 		ubfx	r1, ip, #8, #4
 615              	.LVL70:
 381:Middlewares/ST/filex/common/src/fx_directory_entry_write.c ****                 }
 616              		.loc 1 381 27 view .LVU232
 617 023c E7E7     		b	.L31
 618              	.LVL71:
 619              	.L147:
 385:Middlewares/ST/filex/common/src/fx_directory_entry_write.c ****                 }
 620              		.loc 1 385 22 is_stmt 1 view .LVU233
 385:Middlewares/ST/filex/common/src/fx_directory_entry_write.c ****                 }
 621              		.loc 1 385 27 is_stmt 0 view .LVU234
 622 023e CCF30311 		ubfx	r1, ip, #4, #4
 623              	.LVL72:
 385:Middlewares/ST/filex/common/src/fx_directory_entry_write.c ****                 }
 624              		.loc 1 385 27 view .LVU235
 625 0242 E4E7     		b	.L31
 626              	.L34:
 396:Middlewares/ST/filex/common/src/fx_directory_entry_write.c ****             }
 627              		.loc 1 396 21 is_stmt 1 view .LVU236
 628              	.LVL73:
 396:Middlewares/ST/filex/common/src/fx_directory_entry_write.c ****             }
 629              		.loc 1 396 39 is_stmt 0 view .LVU237
 630 0244 3031     		adds	r1, r1, #48
 631              	.LVL74:
 396:Middlewares/ST/filex/common/src/fx_directory_entry_write.c ****             }
 632              		.loc 1 396 36 view .LVU238
 633 0246 00F13807 		add	r7, r0, #56
 634 024a 6F44     		add	r7, sp, r7
 635 024c 07F80C1C 		strb	r1, [r7, #-12]
ARM GAS  C:\Users\HP\AppData\Local\Temp\ccs6anBT.s 			page 32


 396:Middlewares/ST/filex/common/src/fx_directory_entry_write.c ****             }
 636              		.loc 1 396 32 view .LVU239
 637 0250 0130     		adds	r0, r0, #1
 638              	.LVL75:
 396:Middlewares/ST/filex/common/src/fx_directory_entry_write.c ****             }
 639              		.loc 1 396 32 view .LVU240
 640 0252 E5E7     		b	.L35
 641              	.LVL76:
 642              	.L27:
 401:Middlewares/ST/filex/common/src/fx_directory_entry_write.c **** 
 643              		.loc 1 401 9 is_stmt 1 view .LVU241
 401:Middlewares/ST/filex/common/src/fx_directory_entry_write.c **** 
 644              		.loc 1 401 23 is_stmt 0 view .LVU242
 645 0254 0022     		movs	r2, #0
 646 0256 8DF83720 		strb	r2, [sp, #55]
 405:Middlewares/ST/filex/common/src/fx_directory_entry_write.c ****         {
 647              		.loc 1 405 9 is_stmt 1 view .LVU243
 405:Middlewares/ST/filex/common/src/fx_directory_entry_write.c ****         {
 648              		.loc 1 405 30 is_stmt 0 view .LVU244
 649 025a 9DF82C20 		ldrb	r2, [sp, #44]	@ zero_extendqisi2
 405:Middlewares/ST/filex/common/src/fx_directory_entry_write.c ****         {
 650              		.loc 1 405 12 view .LVU245
 651 025e E52A     		cmp	r2, #229
 652 0260 01D0     		beq	.L148
 653              	.L37:
 371:Middlewares/ST/filex/common/src/fx_directory_entry_write.c ****             {
 654              		.loc 1 371 20 discriminator 1 view .LVU246
 655 0262 1A46     		mov	r2, r3
 656 0264 0CE0     		b	.L39
 657              	.L148:
 405:Middlewares/ST/filex/common/src/fx_directory_entry_write.c ****         {
 658              		.loc 1 405 63 discriminator 1 view .LVU247
 659 0266 089A     		ldr	r2, [sp, #32]
 660 0268 002A     		cmp	r2, #0
 661 026a FAD1     		bne	.L37
 409:Middlewares/ST/filex/common/src/fx_directory_entry_write.c ****         }
 662              		.loc 1 409 13 is_stmt 1 view .LVU248
 409:Middlewares/ST/filex/common/src/fx_directory_entry_write.c ****         }
 663              		.loc 1 409 26 is_stmt 0 view .LVU249
 664 026c 8F22     		movs	r2, #143
 665 026e 8DF82C20 		strb	r2, [sp, #44]
 666 0272 F6E7     		b	.L37
 667              	.LVL77:
 668              	.L38:
 428:Middlewares/ST/filex/common/src/fx_directory_entry_write.c ****         }
 669              		.loc 1 428 13 is_stmt 1 discriminator 2 view .LVU250
 428:Middlewares/ST/filex/common/src/fx_directory_entry_write.c ****         }
 670              		.loc 1 428 26 is_stmt 0 discriminator 2 view .LVU251
 671 0274 02F13800 		add	r0, r2, #56
 672 0278 6844     		add	r0, sp, r0
 673 027a 00F80C1C 		strb	r1, [r0, #-12]
 413:Middlewares/ST/filex/common/src/fx_directory_entry_write.c ****         {
 674              		.loc 1 413 63 is_stmt 1 discriminator 2 view .LVU252
 413:Middlewares/ST/filex/common/src/fx_directory_entry_write.c ****         {
 675              		.loc 1 413 64 is_stmt 0 discriminator 2 view .LVU253
 676 027e 0132     		adds	r2, r2, #1
 677              	.LVL78:
ARM GAS  C:\Users\HP\AppData\Local\Temp\ccs6anBT.s 			page 33


 678              	.L39:
 413:Middlewares/ST/filex/common/src/fx_directory_entry_write.c ****         {
 679              		.loc 1 413 21 is_stmt 1 discriminator 1 view .LVU254
 413:Middlewares/ST/filex/common/src/fx_directory_entry_write.c ****         {
 680              		.loc 1 413 9 is_stmt 0 discriminator 1 view .LVU255
 681 0280 0A2A     		cmp	r2, #10
 682 0282 0CD8     		bhi	.L149
 417:Middlewares/ST/filex/common/src/fx_directory_entry_write.c **** 
 683              		.loc 1 417 13 is_stmt 1 view .LVU256
 417:Middlewares/ST/filex/common/src/fx_directory_entry_write.c **** 
 684              		.loc 1 417 19 is_stmt 0 view .LVU257
 685 0284 02F13801 		add	r1, r2, #56
 686 0288 6944     		add	r1, sp, r1
 687 028a 11F80C1C 		ldrb	r1, [r1, #-12]	@ zero_extendqisi2
 688              	.LVL79:
 420:Middlewares/ST/filex/common/src/fx_directory_entry_write.c ****             {
 689              		.loc 1 420 13 is_stmt 1 view .LVU258
 420:Middlewares/ST/filex/common/src/fx_directory_entry_write.c ****             {
 690              		.loc 1 420 32 is_stmt 0 view .LVU259
 691 028e A1F16100 		sub	r0, r1, #97
 692 0292 C0B2     		uxtb	r0, r0
 420:Middlewares/ST/filex/common/src/fx_directory_entry_write.c ****             {
 693              		.loc 1 420 16 view .LVU260
 694 0294 1928     		cmp	r0, #25
 695 0296 EDD8     		bhi	.L38
 424:Middlewares/ST/filex/common/src/fx_directory_entry_write.c ****             }
 696              		.loc 1 424 17 is_stmt 1 view .LVU261
 424:Middlewares/ST/filex/common/src/fx_directory_entry_write.c ****             }
 697              		.loc 1 424 23 is_stmt 0 view .LVU262
 698 0298 2039     		subs	r1, r1, #32
 699              	.LVL80:
 424:Middlewares/ST/filex/common/src/fx_directory_entry_write.c ****             }
 700              		.loc 1 424 23 view .LVU263
 701 029a C9B2     		uxtb	r1, r1
 702              	.LVL81:
 424:Middlewares/ST/filex/common/src/fx_directory_entry_write.c ****             }
 703              		.loc 1 424 23 view .LVU264
 704 029c EAE7     		b	.L38
 705              	.LVL82:
 706              	.L149:
 432:Middlewares/ST/filex/common/src/fx_directory_entry_write.c ****         {
 707              		.loc 1 432 9 is_stmt 1 view .LVU265
 432:Middlewares/ST/filex/common/src/fx_directory_entry_write.c ****         {
 708              		.loc 1 432 49 is_stmt 0 view .LVU266
 709 029e 2A79     		ldrb	r2, [r5, #4]	@ zero_extendqisi2
 710              	.LVL83:
 432:Middlewares/ST/filex/common/src/fx_directory_entry_write.c ****         {
 711              		.loc 1 432 12 view .LVU267
 712 02a0 DAB9     		cbnz	r2, .L110
 713              	.L42:
 516:Middlewares/ST/filex/common/src/fx_directory_entry_write.c ****         {
 714              		.loc 1 516 9 is_stmt 1 view .LVU268
 715              	.LVL84:
 516:Middlewares/ST/filex/common/src/fx_directory_entry_write.c ****         {
 716              		.loc 1 516 27 is_stmt 0 view .LVU269
 717 02a2 5746     		mov	r7, r10
 516:Middlewares/ST/filex/common/src/fx_directory_entry_write.c ****         {
ARM GAS  C:\Users\HP\AppData\Local\Temp\ccs6anBT.s 			page 34


 718              		.loc 1 516 9 view .LVU270
 719 02a4 58E0     		b	.L53
 720              	.LVL85:
 721              	.L43:
 440:Middlewares/ST/filex/common/src/fx_directory_entry_write.c ****             }
 722              		.loc 1 440 17 is_stmt 1 discriminator 3 view .LVU271
 440:Middlewares/ST/filex/common/src/fx_directory_entry_write.c ****             }
 723              		.loc 1 440 30 is_stmt 0 discriminator 3 view .LVU272
 724 02a6 02F13801 		add	r1, r2, #56
 725 02aa 6944     		add	r1, sp, r1
 726 02ac 2020     		movs	r0, #32
 727 02ae 01F80C0C 		strb	r0, [r1, #-12]
 438:Middlewares/ST/filex/common/src/fx_directory_entry_write.c ****             {
 728              		.loc 1 438 65 is_stmt 1 discriminator 3 view .LVU273
 438:Middlewares/ST/filex/common/src/fx_directory_entry_write.c ****             {
 729              		.loc 1 438 66 is_stmt 0 discriminator 3 view .LVU274
 730 02b2 0132     		adds	r2, r2, #1
 731              	.LVL86:
 732              	.L41:
 438:Middlewares/ST/filex/common/src/fx_directory_entry_write.c ****             {
 733              		.loc 1 438 25 is_stmt 1 discriminator 1 view .LVU275
 438:Middlewares/ST/filex/common/src/fx_directory_entry_write.c ****             {
 734              		.loc 1 438 13 is_stmt 0 discriminator 1 view .LVU276
 735 02b4 0A2A     		cmp	r2, #10
 736 02b6 F6D9     		bls	.L43
 444:Middlewares/ST/filex/common/src/fx_directory_entry_write.c ****             {
 737              		.loc 1 444 27 view .LVU277
 738 02b8 1A46     		mov	r2, r3
 739              	.LVL87:
 444:Middlewares/ST/filex/common/src/fx_directory_entry_write.c ****             {
 740              		.loc 1 444 20 view .LVU278
 741 02ba 1946     		mov	r1, r3
 742              	.L44:
 743              	.LVL88:
 444:Middlewares/ST/filex/common/src/fx_directory_entry_write.c ****             {
 744              		.loc 1 444 32 is_stmt 1 discriminator 1 view .LVU279
 444:Middlewares/ST/filex/common/src/fx_directory_entry_write.c ****             {
 745              		.loc 1 444 13 is_stmt 0 discriminator 1 view .LVU280
 746 02bc 072A     		cmp	r2, #7
 747 02be 0ED8     		bhi	.L45
 448:Middlewares/ST/filex/common/src/fx_directory_entry_write.c ****                 {
 748              		.loc 1 448 17 is_stmt 1 view .LVU281
 448:Middlewares/ST/filex/common/src/fx_directory_entry_write.c ****                 {
 749              		.loc 1 448 64 is_stmt 0 view .LVU282
 750 02c0 6818     		adds	r0, r5, r1
 751 02c2 0079     		ldrb	r0, [r0, #4]	@ zero_extendqisi2
 448:Middlewares/ST/filex/common/src/fx_directory_entry_write.c ****                 {
 752              		.loc 1 448 20 view .LVU283
 753 02c4 2E28     		cmp	r0, #46
 754 02c6 0AD0     		beq	.L45
 452:Middlewares/ST/filex/common/src/fx_directory_entry_write.c ****                 {
 755              		.loc 1 452 17 is_stmt 1 view .LVU284
 452:Middlewares/ST/filex/common/src/fx_directory_entry_write.c ****                 {
 756              		.loc 1 452 20 is_stmt 0 view .LVU285
 757 02c8 48B1     		cbz	r0, .L45
 458:Middlewares/ST/filex/common/src/fx_directory_entry_write.c **** 
 758              		.loc 1 458 17 is_stmt 1 discriminator 2 view .LVU286
ARM GAS  C:\Users\HP\AppData\Local\Temp\ccs6anBT.s 			page 35


 759              	.LVL89:
 461:Middlewares/ST/filex/common/src/fx_directory_entry_write.c ****             }
 760              		.loc 1 461 17 discriminator 2 view .LVU287
 461:Middlewares/ST/filex/common/src/fx_directory_entry_write.c ****             }
 761              		.loc 1 461 30 is_stmt 0 discriminator 2 view .LVU288
 762 02ca 02F13807 		add	r7, r2, #56
 763 02ce 6F44     		add	r7, sp, r7
 764 02d0 07F80C0C 		strb	r0, [r7, #-12]
 444:Middlewares/ST/filex/common/src/fx_directory_entry_write.c ****             {
 765              		.loc 1 444 54 is_stmt 1 discriminator 2 view .LVU289
 444:Middlewares/ST/filex/common/src/fx_directory_entry_write.c ****             {
 766              		.loc 1 444 55 is_stmt 0 discriminator 2 view .LVU290
 767 02d4 0131     		adds	r1, r1, #1
 768              	.LVL90:
 444:Middlewares/ST/filex/common/src/fx_directory_entry_write.c ****             {
 769              		.loc 1 444 60 discriminator 2 view .LVU291
 770 02d6 0132     		adds	r2, r2, #1
 771              	.LVL91:
 444:Middlewares/ST/filex/common/src/fx_directory_entry_write.c ****             {
 772              		.loc 1 444 60 discriminator 2 view .LVU292
 773 02d8 F0E7     		b	.L44
 774              	.LVL92:
 775              	.L110:
 438:Middlewares/ST/filex/common/src/fx_directory_entry_write.c ****             {
 776              		.loc 1 438 20 view .LVU293
 777 02da 1A46     		mov	r2, r3
 778 02dc EAE7     		b	.L41
 779              	.LVL93:
 780              	.L45:
 465:Middlewares/ST/filex/common/src/fx_directory_entry_write.c ****             {
 781              		.loc 1 465 13 is_stmt 1 view .LVU294
 465:Middlewares/ST/filex/common/src/fx_directory_entry_write.c ****             {
 782              		.loc 1 465 60 is_stmt 0 view .LVU295
 783 02de 6A18     		adds	r2, r5, r1
 784              	.LVL94:
 465:Middlewares/ST/filex/common/src/fx_directory_entry_write.c ****             {
 785              		.loc 1 465 60 view .LVU296
 786 02e0 1279     		ldrb	r2, [r2, #4]	@ zero_extendqisi2
 465:Middlewares/ST/filex/common/src/fx_directory_entry_write.c ****             {
 787              		.loc 1 465 16 view .LVU297
 788 02e2 1AB3     		cbz	r2, .L47
 469:Middlewares/ST/filex/common/src/fx_directory_entry_write.c ****                 {
 789              		.loc 1 469 17 is_stmt 1 view .LVU298
 469:Middlewares/ST/filex/common/src/fx_directory_entry_write.c ****                 {
 790              		.loc 1 469 23 is_stmt 0 view .LVU299
 791 02e4 0131     		adds	r1, r1, #1
 792              	.LVL95:
 469:Middlewares/ST/filex/common/src/fx_directory_entry_write.c ****                 {
 793              		.loc 1 469 29 view .LVU300
 794 02e6 0822     		movs	r2, #8
 795              	.LVL96:
 796              	.L48:
 469:Middlewares/ST/filex/common/src/fx_directory_entry_write.c ****                 {
 797              		.loc 1 469 49 is_stmt 1 discriminator 1 view .LVU301
 469:Middlewares/ST/filex/common/src/fx_directory_entry_write.c ****                 {
 798              		.loc 1 469 17 is_stmt 0 discriminator 1 view .LVU302
 799 02e8 0A2A     		cmp	r2, #10
ARM GAS  C:\Users\HP\AppData\Local\Temp\ccs6anBT.s 			page 36


 800 02ea 1FD8     		bhi	.L47
 473:Middlewares/ST/filex/common/src/fx_directory_entry_write.c ****                     {
 801              		.loc 1 473 21 is_stmt 1 view .LVU303
 473:Middlewares/ST/filex/common/src/fx_directory_entry_write.c ****                     {
 802              		.loc 1 473 68 is_stmt 0 view .LVU304
 803 02ec 6818     		adds	r0, r5, r1
 804 02ee 0079     		ldrb	r0, [r0, #4]	@ zero_extendqisi2
 473:Middlewares/ST/filex/common/src/fx_directory_entry_write.c ****                     {
 805              		.loc 1 473 24 view .LVU305
 806 02f0 E0B1     		cbz	r0, .L47
 479:Middlewares/ST/filex/common/src/fx_directory_entry_write.c **** 
 807              		.loc 1 479 21 is_stmt 1 discriminator 2 view .LVU306
 808              	.LVL97:
 482:Middlewares/ST/filex/common/src/fx_directory_entry_write.c ****                 }
 809              		.loc 1 482 21 discriminator 2 view .LVU307
 482:Middlewares/ST/filex/common/src/fx_directory_entry_write.c ****                 }
 810              		.loc 1 482 34 is_stmt 0 discriminator 2 view .LVU308
 811 02f2 02F13807 		add	r7, r2, #56
 812 02f6 6F44     		add	r7, sp, r7
 813 02f8 07F80C0C 		strb	r0, [r7, #-12]
 469:Middlewares/ST/filex/common/src/fx_directory_entry_write.c ****                 {
 814              		.loc 1 469 89 is_stmt 1 discriminator 2 view .LVU309
 469:Middlewares/ST/filex/common/src/fx_directory_entry_write.c ****                 {
 815              		.loc 1 469 90 is_stmt 0 discriminator 2 view .LVU310
 816 02fc 0131     		adds	r1, r1, #1
 817              	.LVL98:
 469:Middlewares/ST/filex/common/src/fx_directory_entry_write.c ****                 {
 818              		.loc 1 469 95 discriminator 2 view .LVU311
 819 02fe 0132     		adds	r2, r2, #1
 820              	.LVL99:
 469:Middlewares/ST/filex/common/src/fx_directory_entry_write.c ****                 {
 821              		.loc 1 469 95 discriminator 2 view .LVU312
 822 0300 F2E7     		b	.L48
 823              	.LVL100:
 824              	.L50:
 502:Middlewares/ST/filex/common/src/fx_directory_entry_write.c ****             }
 825              		.loc 1 502 17 is_stmt 1 discriminator 2 view .LVU313
 502:Middlewares/ST/filex/common/src/fx_directory_entry_write.c ****             }
 826              		.loc 1 502 30 is_stmt 0 discriminator 2 view .LVU314
 827 0302 02F13800 		add	r0, r2, #56
 828 0306 6844     		add	r0, sp, r0
 829 0308 00F80C1C 		strb	r1, [r0, #-12]
 487:Middlewares/ST/filex/common/src/fx_directory_entry_write.c ****             {
 830              		.loc 1 487 67 is_stmt 1 discriminator 2 view .LVU315
 487:Middlewares/ST/filex/common/src/fx_directory_entry_write.c ****             {
 831              		.loc 1 487 68 is_stmt 0 discriminator 2 view .LVU316
 832 030c 0132     		adds	r2, r2, #1
 833              	.LVL101:
 834              	.L51:
 487:Middlewares/ST/filex/common/src/fx_directory_entry_write.c ****             {
 835              		.loc 1 487 25 is_stmt 1 discriminator 1 view .LVU317
 487:Middlewares/ST/filex/common/src/fx_directory_entry_write.c ****             {
 836              		.loc 1 487 13 is_stmt 0 discriminator 1 view .LVU318
 837 030e 0A2A     		cmp	r2, #10
 838 0310 0ED8     		bhi	.L150
 491:Middlewares/ST/filex/common/src/fx_directory_entry_write.c **** 
 839              		.loc 1 491 17 is_stmt 1 view .LVU319
ARM GAS  C:\Users\HP\AppData\Local\Temp\ccs6anBT.s 			page 37


 491:Middlewares/ST/filex/common/src/fx_directory_entry_write.c **** 
 840              		.loc 1 491 23 is_stmt 0 view .LVU320
 841 0312 02F13801 		add	r1, r2, #56
 842 0316 6944     		add	r1, sp, r1
 843 0318 11F80C1C 		ldrb	r1, [r1, #-12]	@ zero_extendqisi2
 844              	.LVL102:
 494:Middlewares/ST/filex/common/src/fx_directory_entry_write.c ****                 {
 845              		.loc 1 494 17 is_stmt 1 view .LVU321
 494:Middlewares/ST/filex/common/src/fx_directory_entry_write.c ****                 {
 846              		.loc 1 494 36 is_stmt 0 view .LVU322
 847 031c A1F16100 		sub	r0, r1, #97
 848 0320 C0B2     		uxtb	r0, r0
 494:Middlewares/ST/filex/common/src/fx_directory_entry_write.c ****                 {
 849              		.loc 1 494 20 view .LVU323
 850 0322 1928     		cmp	r0, #25
 851 0324 EDD8     		bhi	.L50
 498:Middlewares/ST/filex/common/src/fx_directory_entry_write.c ****                 }
 852              		.loc 1 498 21 is_stmt 1 view .LVU324
 498:Middlewares/ST/filex/common/src/fx_directory_entry_write.c ****                 }
 853              		.loc 1 498 27 is_stmt 0 view .LVU325
 854 0326 2039     		subs	r1, r1, #32
 855              	.LVL103:
 498:Middlewares/ST/filex/common/src/fx_directory_entry_write.c ****                 }
 856              		.loc 1 498 27 view .LVU326
 857 0328 C9B2     		uxtb	r1, r1
 858              	.LVL104:
 498:Middlewares/ST/filex/common/src/fx_directory_entry_write.c ****                 }
 859              		.loc 1 498 27 view .LVU327
 860 032a EAE7     		b	.L50
 861              	.LVL105:
 862              	.L47:
 469:Middlewares/ST/filex/common/src/fx_directory_entry_write.c ****                 {
 863              		.loc 1 469 29 discriminator 1 view .LVU328
 864 032c 1A46     		mov	r2, r3
 865 032e EEE7     		b	.L51
 866              	.LVL106:
 867              	.L150:
 507:Middlewares/ST/filex/common/src/fx_directory_entry_write.c ****             {
 868              		.loc 1 507 13 is_stmt 1 view .LVU329
 507:Middlewares/ST/filex/common/src/fx_directory_entry_write.c ****             {
 869              		.loc 1 507 34 is_stmt 0 view .LVU330
 870 0330 9DF82C20 		ldrb	r2, [sp, #44]	@ zero_extendqisi2
 871              	.LVL107:
 507:Middlewares/ST/filex/common/src/fx_directory_entry_write.c ****             {
 872              		.loc 1 507 16 view .LVU331
 873 0334 E52A     		cmp	r2, #229
 874 0336 B4D1     		bne	.L42
 511:Middlewares/ST/filex/common/src/fx_directory_entry_write.c ****             }
 875              		.loc 1 511 17 is_stmt 1 view .LVU332
 511:Middlewares/ST/filex/common/src/fx_directory_entry_write.c ****             }
 876              		.loc 1 511 30 is_stmt 0 view .LVU333
 877 0338 8F22     		movs	r2, #143
 878 033a 8DF82C20 		strb	r2, [sp, #44]
 879 033e B0E7     		b	.L42
 880              	.LVL108:
 881              	.L54:
 520:Middlewares/ST/filex/common/src/fx_directory_entry_write.c ****         }
ARM GAS  C:\Users\HP\AppData\Local\Temp\ccs6anBT.s 			page 38


 882              		.loc 1 520 13 is_stmt 1 discriminator 3 view .LVU334
 520:Middlewares/ST/filex/common/src/fx_directory_entry_write.c ****         }
 883              		.loc 1 520 90 is_stmt 0 discriminator 3 view .LVU335
 884 0340 7A08     		lsrs	r2, r7, #1
 520:Middlewares/ST/filex/common/src/fx_directory_entry_write.c ****         }
 885              		.loc 1 520 62 discriminator 3 view .LVU336
 886 0342 42EAC712 		orr	r2, r2, r7, lsl #7
 520:Middlewares/ST/filex/common/src/fx_directory_entry_write.c ****         }
 887              		.loc 1 520 108 discriminator 3 view .LVU337
 888 0346 03F13801 		add	r1, r3, #56
 889 034a 6944     		add	r1, sp, r1
 890 034c 11F80C1C 		ldrb	r1, [r1, #-12]	@ zero_extendqisi2
 520:Middlewares/ST/filex/common/src/fx_directory_entry_write.c ****         }
 891              		.loc 1 520 22 discriminator 3 view .LVU338
 892 0350 51FA82F2 		uxtab	r2, r1, r2
 893 0354 D7B2     		uxtb	r7, r2
 894              	.LVL109:
 516:Middlewares/ST/filex/common/src/fx_directory_entry_write.c ****         {
 895              		.loc 1 516 72 is_stmt 1 discriminator 3 view .LVU339
 516:Middlewares/ST/filex/common/src/fx_directory_entry_write.c ****         {
 896              		.loc 1 516 73 is_stmt 0 discriminator 3 view .LVU340
 897 0356 0133     		adds	r3, r3, #1
 898              	.LVL110:
 899              	.L53:
 516:Middlewares/ST/filex/common/src/fx_directory_entry_write.c ****         {
 900              		.loc 1 516 32 is_stmt 1 discriminator 1 view .LVU341
 516:Middlewares/ST/filex/common/src/fx_directory_entry_write.c ****         {
 901              		.loc 1 516 9 is_stmt 0 discriminator 1 view .LVU342
 902 0358 0A2B     		cmp	r3, #10
 903 035a F1D9     		bls	.L54
 524:Middlewares/ST/filex/common/src/fx_directory_entry_write.c **** 
 904              		.loc 1 524 9 is_stmt 1 view .LVU343
 524:Middlewares/ST/filex/common/src/fx_directory_entry_write.c **** 
 905              		.loc 1 524 24 is_stmt 0 view .LVU344
 906 035c 46F04003 		orr	r3, r6, #64
 907              	.LVL111:
 524:Middlewares/ST/filex/common/src/fx_directory_entry_write.c **** 
 908              		.loc 1 524 21 view .LVU345
 909 0360 2370     		strb	r3, [r4]
 910              	.LVL112:
 527:Middlewares/ST/filex/common/src/fx_directory_entry_write.c ****         {
 911              		.loc 1 527 9 is_stmt 1 view .LVU346
 912 0362 CDF810A0 		str	r10, [sp, #16]
 913 0366 DDF818C0 		ldr	ip, [sp, #24]
 914 036a DDF81CA0 		ldr	r10, [sp, #28]
 527:Middlewares/ST/filex/common/src/fx_directory_entry_write.c ****         {
 915              		.loc 1 527 15 is_stmt 0 view .LVU347
 916 036e 28E0     		b	.L55
 917              	.LVL113:
 918              	.L154:
 537:Middlewares/ST/filex/common/src/fx_directory_entry_write.c ****             }
 919              		.loc 1 537 17 is_stmt 1 view .LVU348
 537:Middlewares/ST/filex/common/src/fx_directory_entry_write.c ****             }
 920              		.loc 1 537 29 is_stmt 0 view .LVU349
 921 0370 2370     		strb	r3, [r4]
 922 0372 2CE0     		b	.L56
 923              	.LVL114:
ARM GAS  C:\Users\HP\AppData\Local\Temp\ccs6anBT.s 			page 39


 924              	.L59:
 572:Middlewares/ST/filex/common/src/fx_directory_entry_write.c ****                     work_ptr[i + 1] = 0;
 925              		.loc 1 572 21 is_stmt 1 view .LVU350
 572:Middlewares/ST/filex/common/src/fx_directory_entry_write.c ****                     work_ptr[i + 1] = 0;
 926              		.loc 1 572 52 is_stmt 0 view .LVU351
 927 0374 2968     		ldr	r1, [r5]
 572:Middlewares/ST/filex/common/src/fx_directory_entry_write.c ****                     work_ptr[i + 1] = 0;
 928              		.loc 1 572 35 view .LVU352
 929 0376 895C     		ldrb	r1, [r1, r2]	@ zero_extendqisi2
 572:Middlewares/ST/filex/common/src/fx_directory_entry_write.c ****                     work_ptr[i + 1] = 0;
 930              		.loc 1 572 33 view .LVU353
 931 0378 E154     		strb	r1, [r4, r3]
 573:Middlewares/ST/filex/common/src/fx_directory_entry_write.c ****                 }
 932              		.loc 1 573 21 is_stmt 1 view .LVU354
 573:Middlewares/ST/filex/common/src/fx_directory_entry_write.c ****                 }
 933              		.loc 1 573 29 is_stmt 0 view .LVU355
 934 037a 591C     		adds	r1, r3, #1
 573:Middlewares/ST/filex/common/src/fx_directory_entry_write.c ****                 }
 935              		.loc 1 573 37 view .LVU356
 936 037c 4FF0000E 		mov	lr, #0
 937 0380 04F801E0 		strb	lr, [r4, r1]
 938              	.L60:
 576:Middlewares/ST/filex/common/src/fx_directory_entry_write.c ****                 {
 939              		.loc 1 576 17 is_stmt 1 view .LVU357
 576:Middlewares/ST/filex/common/src/fx_directory_entry_write.c ****                 {
 940              		.loc 1 576 31 is_stmt 0 view .LVU358
 941 0384 2968     		ldr	r1, [r5]
 576:Middlewares/ST/filex/common/src/fx_directory_entry_write.c ****                 {
 942              		.loc 1 576 51 view .LVU359
 943 0386 895C     		ldrb	r1, [r1, r2]	@ zero_extendqisi2
 576:Middlewares/ST/filex/common/src/fx_directory_entry_write.c ****                 {
 944              		.loc 1 576 20 view .LVU360
 945 0388 01B9     		cbnz	r1, .L61
 580:Middlewares/ST/filex/common/src/fx_directory_entry_write.c ****                 }
 946              		.loc 1 580 32 view .LVU361
 947 038a FF20     		movs	r0, #255
 948              	.LVL115:
 949              	.L61:
 583:Middlewares/ST/filex/common/src/fx_directory_entry_write.c ****             }
 950              		.loc 1 583 17 is_stmt 1 view .LVU362
 583:Middlewares/ST/filex/common/src/fx_directory_entry_write.c ****             }
 951              		.loc 1 583 18 is_stmt 0 view .LVU363
 952 038c 0132     		adds	r2, r2, #1
 953              	.LVL116:
 954              	.L58:
 548:Middlewares/ST/filex/common/src/fx_directory_entry_write.c ****             {
 955              		.loc 1 548 69 is_stmt 1 discriminator 2 view .LVU364
 548:Middlewares/ST/filex/common/src/fx_directory_entry_write.c ****             {
 956              		.loc 1 548 71 is_stmt 0 discriminator 2 view .LVU365
 957 038e 0233     		adds	r3, r3, #2
 958              	.LVL117:
 959              	.L57:
 548:Middlewares/ST/filex/common/src/fx_directory_entry_write.c ****             {
 960              		.loc 1 548 46 is_stmt 1 discriminator 1 view .LVU366
 548:Middlewares/ST/filex/common/src/fx_directory_entry_write.c ****             {
 961              		.loc 1 548 13 is_stmt 0 discriminator 1 view .LVU367
 962 0390 1F2B     		cmp	r3, #31
ARM GAS  C:\Users\HP\AppData\Local\Temp\ccs6anBT.s 			page 40


 963 0392 0DD8     		bhi	.L151
 552:Middlewares/ST/filex/common/src/fx_directory_entry_write.c ****                 {
 964              		.loc 1 552 17 is_stmt 1 view .LVU368
 552:Middlewares/ST/filex/common/src/fx_directory_entry_write.c ****                 {
 965              		.loc 1 552 20 is_stmt 0 view .LVU369
 966 0394 0B2B     		cmp	r3, #11
 967 0396 FAD0     		beq	.L58
 552:Middlewares/ST/filex/common/src/fx_directory_entry_write.c ****                 {
 968              		.loc 1 552 31 discriminator 1 view .LVU370
 969 0398 1A2B     		cmp	r3, #26
 970 039a F8D0     		beq	.L58
 557:Middlewares/ST/filex/common/src/fx_directory_entry_write.c ****                 {
 971              		.loc 1 557 17 is_stmt 1 view .LVU371
 557:Middlewares/ST/filex/common/src/fx_directory_entry_write.c ****                 {
 972              		.loc 1 557 20 is_stmt 0 view .LVU372
 973 039c 0D2B     		cmp	r3, #13
 974 039e 05D0     		beq	.L111
 564:Middlewares/ST/filex/common/src/fx_directory_entry_write.c ****                 {
 975              		.loc 1 564 17 is_stmt 1 view .LVU373
 564:Middlewares/ST/filex/common/src/fx_directory_entry_write.c ****                 {
 976              		.loc 1 564 20 is_stmt 0 view .LVU374
 977 03a0 0028     		cmp	r0, #0
 978 03a2 E7D0     		beq	.L59
 567:Middlewares/ST/filex/common/src/fx_directory_entry_write.c ****                     work_ptr[i + 1] = eof_marker;
 979              		.loc 1 567 21 is_stmt 1 view .LVU375
 567:Middlewares/ST/filex/common/src/fx_directory_entry_write.c ****                     work_ptr[i + 1] = eof_marker;
 980              		.loc 1 567 33 is_stmt 0 view .LVU376
 981 03a4 E054     		strb	r0, [r4, r3]
 568:Middlewares/ST/filex/common/src/fx_directory_entry_write.c ****                 }
 982              		.loc 1 568 21 is_stmt 1 view .LVU377
 568:Middlewares/ST/filex/common/src/fx_directory_entry_write.c ****                 }
 983              		.loc 1 568 29 is_stmt 0 view .LVU378
 984 03a6 591C     		adds	r1, r3, #1
 568:Middlewares/ST/filex/common/src/fx_directory_entry_write.c ****                 }
 985              		.loc 1 568 37 view .LVU379
 986 03a8 6054     		strb	r0, [r4, r1]
 987 03aa EBE7     		b	.L60
 988              	.L111:
 559:Middlewares/ST/filex/common/src/fx_directory_entry_write.c ****                     continue;
 989              		.loc 1 559 23 view .LVU380
 990 03ac 0C23     		movs	r3, #12
 991              	.LVL118:
 559:Middlewares/ST/filex/common/src/fx_directory_entry_write.c ****                     continue;
 992              		.loc 1 559 23 view .LVU381
 993 03ae EEE7     		b	.L58
 994              	.LVL119:
 995              	.L151:
 587:Middlewares/ST/filex/common/src/fx_directory_entry_write.c ****             byte_offset += FX_DIR_ENTRY_SIZE;
 996              		.loc 1 587 13 is_stmt 1 view .LVU382
 587:Middlewares/ST/filex/common/src/fx_directory_entry_write.c ****             byte_offset += FX_DIR_ENTRY_SIZE;
 997              		.loc 1 587 22 is_stmt 0 view .LVU383
 998 03b0 2034     		adds	r4, r4, #32
 999              	.LVL120:
 588:Middlewares/ST/filex/common/src/fx_directory_entry_write.c **** 
 1000              		.loc 1 588 13 is_stmt 1 view .LVU384
 588:Middlewares/ST/filex/common/src/fx_directory_entry_write.c **** 
 1001              		.loc 1 588 25 is_stmt 0 view .LVU385
ARM GAS  C:\Users\HP\AppData\Local\Temp\ccs6anBT.s 			page 41


 1002 03b2 09F12009 		add	r9, r9, #32
 1003              	.LVL121:
 596:Middlewares/ST/filex/common/src/fx_directory_entry_write.c ****             {
 1004              		.loc 1 596 13 is_stmt 1 view .LVU386
 596:Middlewares/ST/filex/common/src/fx_directory_entry_write.c ****             {
 1005              		.loc 1 596 42 is_stmt 0 view .LVU387
 1006 03b6 D8F82830 		ldr	r3, [r8, #40]
 1007              	.LVL122:
 596:Middlewares/ST/filex/common/src/fx_directory_entry_write.c ****             {
 1008              		.loc 1 596 16 view .LVU388
 1009 03ba 4B45     		cmp	r3, r9
 1010 03bc 18D9     		bls	.L152
 1011              	.LVL123:
 1012              	.L63:
 724:Middlewares/ST/filex/common/src/fx_directory_entry_write.c ****             work_ptr[0] = (UCHAR)card;
 1013              		.loc 1 724 13 is_stmt 1 view .LVU389
 724:Middlewares/ST/filex/common/src/fx_directory_entry_write.c ****             work_ptr[0] = (UCHAR)card;
 1014              		.loc 1 724 17 is_stmt 0 view .LVU390
 1015 03be 013E     		subs	r6, r6, #1
 1016              	.LVL124:
 725:Middlewares/ST/filex/common/src/fx_directory_entry_write.c ****         }
 1017              		.loc 1 725 13 is_stmt 1 view .LVU391
 725:Middlewares/ST/filex/common/src/fx_directory_entry_write.c ****         }
 1018              		.loc 1 725 25 is_stmt 0 view .LVU392
 1019 03c0 2670     		strb	r6, [r4]
 1020              	.LVL125:
 1021              	.L55:
 527:Middlewares/ST/filex/common/src/fx_directory_entry_write.c ****         {
 1022              		.loc 1 527 15 is_stmt 1 view .LVU393
 1023 03c2 002E     		cmp	r6, #0
 1024 03c4 68D0     		beq	.L153
 531:Middlewares/ST/filex/common/src/fx_directory_entry_write.c **** 
 1025              		.loc 1 531 13 view .LVU394
 1026              	.LVL126:
 534:Middlewares/ST/filex/common/src/fx_directory_entry_write.c ****             {
 1027              		.loc 1 534 13 view .LVU395
 534:Middlewares/ST/filex/common/src/fx_directory_entry_write.c ****             {
 1028              		.loc 1 534 33 is_stmt 0 view .LVU396
 1029 03c6 9DF82C30 		ldrb	r3, [sp, #44]	@ zero_extendqisi2
 534:Middlewares/ST/filex/common/src/fx_directory_entry_write.c ****             {
 1030              		.loc 1 534 16 view .LVU397
 1031 03ca E52B     		cmp	r3, #229
 1032 03cc D0D0     		beq	.L154
 1033              	.L56:
 541:Middlewares/ST/filex/common/src/fx_directory_entry_write.c ****             work_ptr[12] = 0;
 1034              		.loc 1 541 13 is_stmt 1 view .LVU398
 541:Middlewares/ST/filex/common/src/fx_directory_entry_write.c ****             work_ptr[12] = 0;
 1035              		.loc 1 541 26 is_stmt 0 view .LVU399
 1036 03ce 0F23     		movs	r3, #15
 1037 03d0 E372     		strb	r3, [r4, #11]
 542:Middlewares/ST/filex/common/src/fx_directory_entry_write.c ****             work_ptr[13] = checksum;
 1038              		.loc 1 542 13 is_stmt 1 view .LVU400
 542:Middlewares/ST/filex/common/src/fx_directory_entry_write.c ****             work_ptr[13] = checksum;
 1039              		.loc 1 542 26 is_stmt 0 view .LVU401
 1040 03d2 0023     		movs	r3, #0
 1041 03d4 2373     		strb	r3, [r4, #12]
 543:Middlewares/ST/filex/common/src/fx_directory_entry_write.c ****             work_ptr[26] = 0;
ARM GAS  C:\Users\HP\AppData\Local\Temp\ccs6anBT.s 			page 42


 1042              		.loc 1 543 13 is_stmt 1 view .LVU402
 543:Middlewares/ST/filex/common/src/fx_directory_entry_write.c ****             work_ptr[26] = 0;
 1043              		.loc 1 543 26 is_stmt 0 view .LVU403
 1044 03d6 6773     		strb	r7, [r4, #13]
 544:Middlewares/ST/filex/common/src/fx_directory_entry_write.c ****             work_ptr[27] = 0;
 1045              		.loc 1 544 13 is_stmt 1 view .LVU404
 544:Middlewares/ST/filex/common/src/fx_directory_entry_write.c ****             work_ptr[27] = 0;
 1046              		.loc 1 544 26 is_stmt 0 view .LVU405
 1047 03d8 A376     		strb	r3, [r4, #26]
 545:Middlewares/ST/filex/common/src/fx_directory_entry_write.c **** 
 1048              		.loc 1 545 13 is_stmt 1 view .LVU406
 545:Middlewares/ST/filex/common/src/fx_directory_entry_write.c **** 
 1049              		.loc 1 545 26 is_stmt 0 view .LVU407
 1050 03da E376     		strb	r3, [r4, #27]
 548:Middlewares/ST/filex/common/src/fx_directory_entry_write.c ****             {
 1051              		.loc 1 548 13 is_stmt 1 view .LVU408
 1052              	.LVL127:
 548:Middlewares/ST/filex/common/src/fx_directory_entry_write.c ****             {
 1053              		.loc 1 548 32 is_stmt 0 view .LVU409
 1054 03dc 06EB4602 		add	r2, r6, r6, lsl #1
 1055 03e0 06EB8202 		add	r2, r6, r2, lsl #2
 548:Middlewares/ST/filex/common/src/fx_directory_entry_write.c ****             {
 1056              		.loc 1 548 27 view .LVU410
 1057 03e4 0D3A     		subs	r2, r2, #13
 1058              	.LVL128:
 531:Middlewares/ST/filex/common/src/fx_directory_entry_write.c **** 
 1059              		.loc 1 531 24 view .LVU411
 1060 03e6 0498     		ldr	r0, [sp, #16]
 548:Middlewares/ST/filex/common/src/fx_directory_entry_write.c ****             {
 1061              		.loc 1 548 20 view .LVU412
 1062 03e8 0123     		movs	r3, #1
 548:Middlewares/ST/filex/common/src/fx_directory_entry_write.c ****             {
 1063              		.loc 1 548 13 view .LVU413
 1064 03ea D1E7     		b	.L57
 1065              	.L159:
 1066              		.align	2
 1067              	.L158:
 1068 03ec 4FECC44E 		.word	1321528399
 1069              	.LVL129:
 1070              	.L152:
 610:Middlewares/ST/filex/common/src/fx_directory_entry_write.c ****                                                                sector_base_ptr, ((ULONG) 1), FX_DIR
 1071              		.loc 1 610 21 is_stmt 1 view .LVU414
 610:Middlewares/ST/filex/common/src/fx_directory_entry_write.c ****                                                                sector_base_ptr, ((ULONG) 1), FX_DIR
 1072              		.loc 1 610 31 is_stmt 0 view .LVU415
 1073 03f0 0323     		movs	r3, #3
 1074 03f2 0293     		str	r3, [sp, #8]
 1075 03f4 0123     		movs	r3, #1
 1076 03f6 0193     		str	r3, [sp, #4]
 1077 03f8 CDF800C0 		str	ip, [sp]
 1078 03fc 5A46     		mov	r2, fp
 1079              	.LVL130:
 610:Middlewares/ST/filex/common/src/fx_directory_entry_write.c ****                                                                sector_base_ptr, ((ULONG) 1), FX_DIR
 1080              		.loc 1 610 31 view .LVU416
 1081 03fe 0023     		movs	r3, #0
 1082 0400 4046     		mov	r0, r8
 1083              	.LVL131:
 610:Middlewares/ST/filex/common/src/fx_directory_entry_write.c ****                                                                sector_base_ptr, ((ULONG) 1), FX_DIR
ARM GAS  C:\Users\HP\AppData\Local\Temp\ccs6anBT.s 			page 43


 1084              		.loc 1 610 31 view .LVU417
 1085 0402 FFF7FEFF 		bl	_fx_utility_logical_sector_write
 1086              	.LVL132:
 617:Middlewares/ST/filex/common/src/fx_directory_entry_write.c ****                 {
 1087              		.loc 1 617 17 is_stmt 1 view .LVU418
 617:Middlewares/ST/filex/common/src/fx_directory_entry_write.c ****                 {
 1088              		.loc 1 617 20 is_stmt 0 view .LVU419
 1089 0406 0346     		mov	r3, r0
 1090 0408 0028     		cmp	r0, #0
 1091 040a 40F06C81 		bne	.L1
 625:Middlewares/ST/filex/common/src/fx_directory_entry_write.c ****                 {
 1092              		.loc 1 625 17 is_stmt 1 view .LVU420
 625:Middlewares/ST/filex/common/src/fx_directory_entry_write.c ****                 {
 1093              		.loc 1 625 57 is_stmt 0 view .LVU421
 1094 040e D8F85030 		ldr	r3, [r8, #80]
 625:Middlewares/ST/filex/common/src/fx_directory_entry_write.c ****                 {
 1095              		.loc 1 625 20 view .LVU422
 1096 0412 5B45     		cmp	r3, fp
 1097 0414 27D8     		bhi	.L64
 629:Middlewares/ST/filex/common/src/fx_directory_entry_write.c ****                     {
 1098              		.loc 1 629 21 is_stmt 1 view .LVU423
 629:Middlewares/ST/filex/common/src/fx_directory_entry_write.c ****                     {
 1099              		.loc 1 629 54 is_stmt 0 view .LVU424
 1100 0416 D8F85430 		ldr	r3, [r8, #84]
 629:Middlewares/ST/filex/common/src/fx_directory_entry_write.c ****                     {
 1101              		.loc 1 629 86 view .LVU425
 1102 041a 013B     		subs	r3, r3, #1
 629:Middlewares/ST/filex/common/src/fx_directory_entry_write.c ****                     {
 1103              		.loc 1 629 24 view .LVU426
 1104 041c 5345     		cmp	r3, r10
 1105 041e 04D9     		bls	.L65
 635:Middlewares/ST/filex/common/src/fx_directory_entry_write.c **** 
 1106              		.loc 1 635 25 is_stmt 1 view .LVU427
 635:Middlewares/ST/filex/common/src/fx_directory_entry_write.c **** 
 1107              		.loc 1 635 39 is_stmt 0 view .LVU428
 1108 0420 0BF1010B 		add	fp, fp, #1
 1109              	.LVL133:
 638:Middlewares/ST/filex/common/src/fx_directory_entry_write.c ****                     }
 1110              		.loc 1 638 25 is_stmt 1 view .LVU429
 638:Middlewares/ST/filex/common/src/fx_directory_entry_write.c ****                     }
 1111              		.loc 1 638 40 is_stmt 0 view .LVU430
 1112 0424 0AF1010A 		add	r10, r10, #1
 1113              	.LVL134:
 638:Middlewares/ST/filex/common/src/fx_directory_entry_write.c ****                     }
 1114              		.loc 1 638 40 view .LVU431
 1115 0428 22E0     		b	.L66
 1116              	.L65:
 646:Middlewares/ST/filex/common/src/fx_directory_entry_write.c **** 
 1117              		.loc 1 646 25 is_stmt 1 view .LVU432
 646:Middlewares/ST/filex/common/src/fx_directory_entry_write.c **** 
 1118              		.loc 1 646 35 is_stmt 0 view .LVU433
 1119 042a 0AAA     		add	r2, sp, #40
 1120 042c 0599     		ldr	r1, [sp, #20]
 1121 042e 4046     		mov	r0, r8
 1122              	.LVL135:
 646:Middlewares/ST/filex/common/src/fx_directory_entry_write.c **** 
 1123              		.loc 1 646 35 view .LVU434
ARM GAS  C:\Users\HP\AppData\Local\Temp\ccs6anBT.s 			page 44


 1124 0430 FFF7FEFF 		bl	_fx_utility_FAT_entry_read
 1125              	.LVL136:
 649:Middlewares/ST/filex/common/src/fx_directory_entry_write.c ****                         {
 1126              		.loc 1 649 25 is_stmt 1 view .LVU435
 649:Middlewares/ST/filex/common/src/fx_directory_entry_write.c ****                         {
 1127              		.loc 1 649 28 is_stmt 0 view .LVU436
 1128 0434 8246     		mov	r10, r0
 1129              	.LVL137:
 649:Middlewares/ST/filex/common/src/fx_directory_entry_write.c ****                         {
 1130              		.loc 1 649 28 view .LVU437
 1131 0436 0028     		cmp	r0, #0
 1132 0438 40F07F81 		bne	.L113
 657:Middlewares/ST/filex/common/src/fx_directory_entry_write.c **** 
 1133              		.loc 1 657 25 is_stmt 1 view .LVU438
 657:Middlewares/ST/filex/common/src/fx_directory_entry_write.c **** 
 1134              		.loc 1 657 33 is_stmt 0 view .LVU439
 1135 043c 0A9A     		ldr	r2, [sp, #40]
 1136 043e 0592     		str	r2, [sp, #20]
 1137              	.LVL138:
 661:Middlewares/ST/filex/common/src/fx_directory_entry_write.c ****                         {
 1138              		.loc 1 661 25 is_stmt 1 view .LVU440
 661:Middlewares/ST/filex/common/src/fx_directory_entry_write.c ****                         {
 1139              		.loc 1 661 28 is_stmt 0 view .LVU441
 1140 0440 012A     		cmp	r2, #1
 1141 0442 40F27C81 		bls	.L114
 661:Middlewares/ST/filex/common/src/fx_directory_entry_write.c ****                         {
 1142              		.loc 1 661 85 discriminator 1 view .LVU442
 1143 0446 08F50053 		add	r3, r8, #8192
 1144 044a D3F8A834 		ldr	r3, [r3, #1192]
 661:Middlewares/ST/filex/common/src/fx_directory_entry_write.c ****                         {
 1145              		.loc 1 661 60 discriminator 1 view .LVU443
 1146 044e 9342     		cmp	r3, r2
 1147 0450 40F27781 		bls	.L115
 669:Middlewares/ST/filex/common/src/fx_directory_entry_write.c **** 
 1148              		.loc 1 669 25 is_stmt 1 view .LVU444
 1149              	.LVL139:
 672:Middlewares/ST/filex/common/src/fx_directory_entry_write.c ****                             (((ULONG)cluster - FX_FAT_ENTRY_START) *
 1150              		.loc 1 672 25 view .LVU445
 672:Middlewares/ST/filex/common/src/fx_directory_entry_write.c ****                             (((ULONG)cluster - FX_FAT_ENTRY_START) *
 1151              		.loc 1 672 62 is_stmt 0 view .LVU446
 1152 0454 D8F85030 		ldr	r3, [r8, #80]
 673:Middlewares/ST/filex/common/src/fx_directory_entry_write.c ****                              ((ULONG)media_ptr -> fx_media_sectors_per_cluster));
 1153              		.loc 1 673 46 view .LVU447
 1154 0458 A2F1020B 		sub	fp, r2, #2
 1155              	.LVL140:
 674:Middlewares/ST/filex/common/src/fx_directory_entry_write.c ****                     }
 1156              		.loc 1 674 48 view .LVU448
 1157 045c D8F85420 		ldr	r2, [r8, #84]
 1158              	.LVL141:
 672:Middlewares/ST/filex/common/src/fx_directory_entry_write.c ****                             (((ULONG)cluster - FX_FAT_ENTRY_START) *
 1159              		.loc 1 672 40 view .LVU449
 1160 0460 02FB0B3B 		mla	fp, r2, fp, r3
 1161              	.LVL142:
 672:Middlewares/ST/filex/common/src/fx_directory_entry_write.c ****                             (((ULONG)cluster - FX_FAT_ENTRY_START) *
 1162              		.loc 1 672 40 view .LVU450
 1163 0464 04E0     		b	.L66
 1164              	.LVL143:
ARM GAS  C:\Users\HP\AppData\Local\Temp\ccs6anBT.s 			page 45


 1165              	.L64:
 681:Middlewares/ST/filex/common/src/fx_directory_entry_write.c **** 
 1166              		.loc 1 681 21 is_stmt 1 view .LVU451
 681:Middlewares/ST/filex/common/src/fx_directory_entry_write.c **** 
 1167              		.loc 1 681 35 is_stmt 0 view .LVU452
 1168 0466 0BF1010B 		add	fp, fp, #1
 1169              	.LVL144:
 684:Middlewares/ST/filex/common/src/fx_directory_entry_write.c ****                     {
 1170              		.loc 1 684 21 is_stmt 1 view .LVU453
 684:Middlewares/ST/filex/common/src/fx_directory_entry_write.c ****                     {
 1171              		.loc 1 684 24 is_stmt 0 view .LVU454
 1172 046a 5B45     		cmp	r3, fp
 1173 046c 40F26B81 		bls	.L116
 1174              	.LVL145:
 1175              	.L66:
 695:Middlewares/ST/filex/common/src/fx_directory_entry_write.c ****                                                           media_ptr -> fx_media_memory_buffer, ((UL
 1176              		.loc 1 695 17 is_stmt 1 view .LVU455
 696:Middlewares/ST/filex/common/src/fx_directory_entry_write.c **** 
 1177              		.loc 1 696 69 is_stmt 0 view .LVU456
 1178 0470 D8F80830 		ldr	r3, [r8, #8]
 695:Middlewares/ST/filex/common/src/fx_directory_entry_write.c ****                                                           media_ptr -> fx_media_memory_buffer, ((UL
 1179              		.loc 1 695 27 view .LVU457
 1180 0474 0322     		movs	r2, #3
 1181 0476 0292     		str	r2, [sp, #8]
 1182 0478 0122     		movs	r2, #1
 1183 047a 0192     		str	r2, [sp, #4]
 1184 047c 0093     		str	r3, [sp]
 1185 047e 5A46     		mov	r2, fp
 1186 0480 0023     		movs	r3, #0
 1187 0482 4046     		mov	r0, r8
 1188              	.LVL146:
 695:Middlewares/ST/filex/common/src/fx_directory_entry_write.c ****                                                           media_ptr -> fx_media_memory_buffer, ((UL
 1189              		.loc 1 695 27 view .LVU458
 1190 0484 FFF7FEFF 		bl	_fx_utility_logical_sector_read
 1191              	.LVL147:
 699:Middlewares/ST/filex/common/src/fx_directory_entry_write.c ****                 {
 1192              		.loc 1 699 17 is_stmt 1 view .LVU459
 699:Middlewares/ST/filex/common/src/fx_directory_entry_write.c ****                 {
 1193              		.loc 1 699 20 is_stmt 0 view .LVU460
 1194 0488 8146     		mov	r9, r0
 1195              	.LVL148:
 699:Middlewares/ST/filex/common/src/fx_directory_entry_write.c ****                 {
 1196              		.loc 1 699 20 view .LVU461
 1197 048a 0028     		cmp	r0, #0
 1198 048c 40F05D81 		bne	.L117
 707:Middlewares/ST/filex/common/src/fx_directory_entry_write.c **** 
 1199              		.loc 1 707 17 is_stmt 1 view .LVU462
 707:Middlewares/ST/filex/common/src/fx_directory_entry_write.c **** 
 1200              		.loc 1 707 33 is_stmt 0 view .LVU463
 1201 0490 D8F80840 		ldr	r4, [r8, #8]
 1202              	.LVL149:
 710:Middlewares/ST/filex/common/src/fx_directory_entry_write.c **** 
 1203              		.loc 1 710 17 is_stmt 1 view .LVU464
 713:Middlewares/ST/filex/common/src/fx_directory_entry_write.c **** 
 1204              		.loc 1 713 17 view .LVU465
 707:Middlewares/ST/filex/common/src/fx_directory_entry_write.c **** 
 1205              		.loc 1 707 33 is_stmt 0 view .LVU466
ARM GAS  C:\Users\HP\AppData\Local\Temp\ccs6anBT.s 			page 46


 1206 0494 A446     		mov	ip, r4
 1207 0496 92E7     		b	.L63
 1208              	.LVL150:
 1209              	.L153:
 729:Middlewares/ST/filex/common/src/fx_directory_entry_write.c ****         {
 1210              		.loc 1 729 49 view .LVU467
 1211 0498 CDF818C0 		str	ip, [sp, #24]
 729:Middlewares/ST/filex/common/src/fx_directory_entry_write.c ****         {
 1212              		.loc 1 729 9 is_stmt 1 view .LVU468
 729:Middlewares/ST/filex/common/src/fx_directory_entry_write.c ****         {
 1213              		.loc 1 729 49 is_stmt 0 view .LVU469
 1214 049c 2B79     		ldrb	r3, [r5, #4]	@ zero_extendqisi2
 729:Middlewares/ST/filex/common/src/fx_directory_entry_write.c ****         {
 1215              		.loc 1 729 12 view .LVU470
 1216 049e 6BB1     		cbz	r3, .L129
 747:Middlewares/ST/filex/common/src/fx_directory_entry_write.c ****             {
 1217              		.loc 1 747 20 view .LVU471
 1218 04a0 3346     		mov	r3, r6
 1219 04a2 10E0     		b	.L69
 1220              	.LVL151:
 1221              	.L70:
 737:Middlewares/ST/filex/common/src/fx_directory_entry_write.c **** 
 1222              		.loc 1 737 17 is_stmt 1 discriminator 3 view .LVU472
 737:Middlewares/ST/filex/common/src/fx_directory_entry_write.c **** 
 1223              		.loc 1 737 23 is_stmt 0 discriminator 3 view .LVU473
 1224 04a4 06F13802 		add	r2, r6, #56
 1225 04a8 6A44     		add	r2, sp, r2
 1226 04aa 12F80C2C 		ldrb	r2, [r2, #-12]	@ zero_extendqisi2
 1227              	.LVL152:
 740:Middlewares/ST/filex/common/src/fx_directory_entry_write.c ****             }
 1228              		.loc 1 740 17 is_stmt 1 discriminator 3 view .LVU474
 740:Middlewares/ST/filex/common/src/fx_directory_entry_write.c ****             }
 1229              		.loc 1 740 29 is_stmt 0 discriminator 3 view .LVU475
 1230 04ae 03F8012B 		strb	r2, [r3], #1
 1231              	.LVL153:
 733:Middlewares/ST/filex/common/src/fx_directory_entry_write.c ****             {
 1232              		.loc 1 733 67 is_stmt 1 discriminator 3 view .LVU476
 733:Middlewares/ST/filex/common/src/fx_directory_entry_write.c ****             {
 1233              		.loc 1 733 68 is_stmt 0 discriminator 3 view .LVU477
 1234 04b2 0136     		adds	r6, r6, #1
 1235              	.LVL154:
 1236              	.L68:
 733:Middlewares/ST/filex/common/src/fx_directory_entry_write.c ****             {
 1237              		.loc 1 733 25 is_stmt 1 discriminator 1 view .LVU478
 733:Middlewares/ST/filex/common/src/fx_directory_entry_write.c ****             {
 1238              		.loc 1 733 13 is_stmt 0 discriminator 1 view .LVU479
 1239 04b4 0A2E     		cmp	r6, #10
 1240 04b6 F5D9     		bls	.L70
 733:Middlewares/ST/filex/common/src/fx_directory_entry_write.c ****             {
 1241              		.loc 1 733 13 discriminator 1 view .LVU480
 1242 04b8 1C46     		mov	r4, r3
 1243 04ba CBE0     		b	.L71
 1244              	.LVL155:
 1245              	.L129:
 733:Middlewares/ST/filex/common/src/fx_directory_entry_write.c ****             {
 1246              		.loc 1 733 13 discriminator 1 view .LVU481
 1247 04bc 2346     		mov	r3, r4
ARM GAS  C:\Users\HP\AppData\Local\Temp\ccs6anBT.s 			page 47


 1248 04be F9E7     		b	.L68
 1249              	.LVL156:
 1250              	.L72:
 749:Middlewares/ST/filex/common/src/fx_directory_entry_write.c ****             }
 1251              		.loc 1 749 17 is_stmt 1 discriminator 3 view .LVU482
 749:Middlewares/ST/filex/common/src/fx_directory_entry_write.c ****             }
 1252              		.loc 1 749 29 is_stmt 0 discriminator 3 view .LVU483
 1253 04c0 2022     		movs	r2, #32
 1254 04c2 E254     		strb	r2, [r4, r3]
 747:Middlewares/ST/filex/common/src/fx_directory_entry_write.c ****             {
 1255              		.loc 1 747 65 is_stmt 1 discriminator 3 view .LVU484
 747:Middlewares/ST/filex/common/src/fx_directory_entry_write.c ****             {
 1256              		.loc 1 747 66 is_stmt 0 discriminator 3 view .LVU485
 1257 04c4 0133     		adds	r3, r3, #1
 1258              	.LVL157:
 1259              	.L69:
 747:Middlewares/ST/filex/common/src/fx_directory_entry_write.c ****             {
 1260              		.loc 1 747 25 is_stmt 1 discriminator 1 view .LVU486
 747:Middlewares/ST/filex/common/src/fx_directory_entry_write.c ****             {
 1261              		.loc 1 747 13 is_stmt 0 discriminator 1 view .LVU487
 1262 04c6 0A2B     		cmp	r3, #10
 1263 04c8 FAD9     		bls	.L72
 753:Middlewares/ST/filex/common/src/fx_directory_entry_write.c ****             {
 1264              		.loc 1 753 27 view .LVU488
 1265 04ca 3346     		mov	r3, r6
 1266              	.LVL158:
 1267              	.L73:
 753:Middlewares/ST/filex/common/src/fx_directory_entry_write.c ****             {
 1268              		.loc 1 753 32 is_stmt 1 discriminator 1 view .LVU489
 753:Middlewares/ST/filex/common/src/fx_directory_entry_write.c ****             {
 1269              		.loc 1 753 13 is_stmt 0 discriminator 1 view .LVU490
 1270 04cc 072B     		cmp	r3, #7
 1271 04ce 08D8     		bhi	.L74
 757:Middlewares/ST/filex/common/src/fx_directory_entry_write.c ****                 {
 1272              		.loc 1 757 17 is_stmt 1 view .LVU491
 757:Middlewares/ST/filex/common/src/fx_directory_entry_write.c ****                 {
 1273              		.loc 1 757 64 is_stmt 0 view .LVU492
 1274 04d0 AA19     		adds	r2, r5, r6
 1275 04d2 1279     		ldrb	r2, [r2, #4]	@ zero_extendqisi2
 757:Middlewares/ST/filex/common/src/fx_directory_entry_write.c ****                 {
 1276              		.loc 1 757 20 view .LVU493
 1277 04d4 2E2A     		cmp	r2, #46
 1278 04d6 04D0     		beq	.L74
 761:Middlewares/ST/filex/common/src/fx_directory_entry_write.c ****                 {
 1279              		.loc 1 761 17 is_stmt 1 view .LVU494
 761:Middlewares/ST/filex/common/src/fx_directory_entry_write.c ****                 {
 1280              		.loc 1 761 20 is_stmt 0 view .LVU495
 1281 04d8 1AB1     		cbz	r2, .L74
 767:Middlewares/ST/filex/common/src/fx_directory_entry_write.c ****             }
 1282              		.loc 1 767 17 is_stmt 1 discriminator 2 view .LVU496
 767:Middlewares/ST/filex/common/src/fx_directory_entry_write.c ****             }
 1283              		.loc 1 767 29 is_stmt 0 discriminator 2 view .LVU497
 1284 04da E254     		strb	r2, [r4, r3]
 753:Middlewares/ST/filex/common/src/fx_directory_entry_write.c ****             {
 1285              		.loc 1 753 54 is_stmt 1 discriminator 2 view .LVU498
 753:Middlewares/ST/filex/common/src/fx_directory_entry_write.c ****             {
 1286              		.loc 1 753 55 is_stmt 0 discriminator 2 view .LVU499
ARM GAS  C:\Users\HP\AppData\Local\Temp\ccs6anBT.s 			page 48


 1287 04dc 0136     		adds	r6, r6, #1
 1288              	.LVL159:
 753:Middlewares/ST/filex/common/src/fx_directory_entry_write.c ****             {
 1289              		.loc 1 753 60 discriminator 2 view .LVU500
 1290 04de 0133     		adds	r3, r3, #1
 1291              	.LVL160:
 753:Middlewares/ST/filex/common/src/fx_directory_entry_write.c ****             {
 1292              		.loc 1 753 60 discriminator 2 view .LVU501
 1293 04e0 F4E7     		b	.L73
 1294              	.L74:
 771:Middlewares/ST/filex/common/src/fx_directory_entry_write.c ****             {
 1295              		.loc 1 771 13 is_stmt 1 view .LVU502
 771:Middlewares/ST/filex/common/src/fx_directory_entry_write.c ****             {
 1296              		.loc 1 771 60 is_stmt 0 view .LVU503
 1297 04e2 AB19     		adds	r3, r5, r6
 1298              	.LVL161:
 771:Middlewares/ST/filex/common/src/fx_directory_entry_write.c ****             {
 1299              		.loc 1 771 60 view .LVU504
 1300 04e4 1B79     		ldrb	r3, [r3, #4]	@ zero_extendqisi2
 771:Middlewares/ST/filex/common/src/fx_directory_entry_write.c ****             {
 1301              		.loc 1 771 16 view .LVU505
 1302 04e6 53B1     		cbz	r3, .L76
 775:Middlewares/ST/filex/common/src/fx_directory_entry_write.c ****                 {
 1303              		.loc 1 775 17 is_stmt 1 view .LVU506
 775:Middlewares/ST/filex/common/src/fx_directory_entry_write.c ****                 {
 1304              		.loc 1 775 23 is_stmt 0 view .LVU507
 1305 04e8 0136     		adds	r6, r6, #1
 1306              	.LVL162:
 775:Middlewares/ST/filex/common/src/fx_directory_entry_write.c ****                 {
 1307              		.loc 1 775 29 view .LVU508
 1308 04ea 0823     		movs	r3, #8
 1309              	.LVL163:
 1310              	.L77:
 775:Middlewares/ST/filex/common/src/fx_directory_entry_write.c ****                 {
 1311              		.loc 1 775 49 is_stmt 1 discriminator 1 view .LVU509
 775:Middlewares/ST/filex/common/src/fx_directory_entry_write.c ****                 {
 1312              		.loc 1 775 17 is_stmt 0 discriminator 1 view .LVU510
 1313 04ec 0A2B     		cmp	r3, #10
 1314 04ee 06D8     		bhi	.L76
 779:Middlewares/ST/filex/common/src/fx_directory_entry_write.c ****                     {
 1315              		.loc 1 779 21 is_stmt 1 view .LVU511
 779:Middlewares/ST/filex/common/src/fx_directory_entry_write.c ****                     {
 1316              		.loc 1 779 68 is_stmt 0 view .LVU512
 1317 04f0 AA19     		adds	r2, r5, r6
 1318 04f2 1279     		ldrb	r2, [r2, #4]	@ zero_extendqisi2
 779:Middlewares/ST/filex/common/src/fx_directory_entry_write.c ****                     {
 1319              		.loc 1 779 24 view .LVU513
 1320 04f4 1AB1     		cbz	r2, .L76
 785:Middlewares/ST/filex/common/src/fx_directory_entry_write.c ****                 }
 1321              		.loc 1 785 21 is_stmt 1 discriminator 2 view .LVU514
 785:Middlewares/ST/filex/common/src/fx_directory_entry_write.c ****                 }
 1322              		.loc 1 785 33 is_stmt 0 discriminator 2 view .LVU515
 1323 04f6 E254     		strb	r2, [r4, r3]
 775:Middlewares/ST/filex/common/src/fx_directory_entry_write.c ****                 {
 1324              		.loc 1 775 89 is_stmt 1 discriminator 2 view .LVU516
 775:Middlewares/ST/filex/common/src/fx_directory_entry_write.c ****                 {
 1325              		.loc 1 775 90 is_stmt 0 discriminator 2 view .LVU517
ARM GAS  C:\Users\HP\AppData\Local\Temp\ccs6anBT.s 			page 49


 1326 04f8 0136     		adds	r6, r6, #1
 1327              	.LVL164:
 775:Middlewares/ST/filex/common/src/fx_directory_entry_write.c ****                 {
 1328              		.loc 1 775 95 discriminator 2 view .LVU518
 1329 04fa 0133     		adds	r3, r3, #1
 1330              	.LVL165:
 775:Middlewares/ST/filex/common/src/fx_directory_entry_write.c ****                 {
 1331              		.loc 1 775 95 discriminator 2 view .LVU519
 1332 04fc F6E7     		b	.L77
 1333              	.LVL166:
 1334              	.L76:
 790:Middlewares/ST/filex/common/src/fx_directory_entry_write.c ****         }
 1335              		.loc 1 790 13 is_stmt 1 view .LVU520
 790:Middlewares/ST/filex/common/src/fx_directory_entry_write.c ****         }
 1336              		.loc 1 790 22 is_stmt 0 view .LVU521
 1337 04fe 0B34     		adds	r4, r4, #11
 1338              	.LVL167:
 790:Middlewares/ST/filex/common/src/fx_directory_entry_write.c ****         }
 1339              		.loc 1 790 22 view .LVU522
 1340 0500 A8E0     		b	.L71
 1341              	.LVL168:
 1342              	.L81:
 816:Middlewares/ST/filex/common/src/fx_directory_entry_write.c ****                     byte_offset += FX_DIR_ENTRY_SIZE;
 1343              		.loc 1 816 21 is_stmt 1 view .LVU523
 816:Middlewares/ST/filex/common/src/fx_directory_entry_write.c ****                     byte_offset += FX_DIR_ENTRY_SIZE;
 1344              		.loc 1 816 30 is_stmt 0 view .LVU524
 1345 0502 2033     		adds	r3, r3, #32
 1346              	.LVL169:
 817:Middlewares/ST/filex/common/src/fx_directory_entry_write.c **** 
 1347              		.loc 1 817 21 is_stmt 1 view .LVU525
 817:Middlewares/ST/filex/common/src/fx_directory_entry_write.c **** 
 1348              		.loc 1 817 33 is_stmt 0 view .LVU526
 1349 0504 09F12009 		add	r9, r9, #32
 1350              	.LVL170:
 825:Middlewares/ST/filex/common/src/fx_directory_entry_write.c ****                     {
 1351              		.loc 1 825 21 is_stmt 1 view .LVU527
 825:Middlewares/ST/filex/common/src/fx_directory_entry_write.c ****                     {
 1352              		.loc 1 825 50 is_stmt 0 view .LVU528
 1353 0508 D8F82820 		ldr	r2, [r8, #40]
 825:Middlewares/ST/filex/common/src/fx_directory_entry_write.c ****                     {
 1354              		.loc 1 825 24 view .LVU529
 1355 050c 4A45     		cmp	r2, r9
 1356 050e 09D9     		bls	.L155
 1357              	.LVL171:
 1358              	.L82:
 805:Middlewares/ST/filex/common/src/fx_directory_entry_write.c ****                 {
 1359              		.loc 1 805 78 is_stmt 1 discriminator 2 view .LVU530
 805:Middlewares/ST/filex/common/src/fx_directory_entry_write.c ****                 {
 1360              		.loc 1 805 79 is_stmt 0 discriminator 2 view .LVU531
 1361 0510 0137     		adds	r7, r7, #1
 1362              	.LVL172:
 1363              	.L80:
 805:Middlewares/ST/filex/common/src/fx_directory_entry_write.c ****                 {
 1364              		.loc 1 805 29 is_stmt 1 discriminator 1 view .LVU532
 805:Middlewares/ST/filex/common/src/fx_directory_entry_write.c ****                 {
 1365              		.loc 1 805 43 is_stmt 0 discriminator 1 view .LVU533
 1366 0512 AA69     		ldr	r2, [r5, #24]
ARM GAS  C:\Users\HP\AppData\Local\Temp\ccs6anBT.s 			page 50


 805:Middlewares/ST/filex/common/src/fx_directory_entry_write.c ****                 {
 1367              		.loc 1 805 17 discriminator 1 view .LVU534
 1368 0514 BA42     		cmp	r2, r7
 1369 0516 5ED9     		bls	.L156
 809:Middlewares/ST/filex/common/src/fx_directory_entry_write.c ****                     {
 1370              		.loc 1 809 21 is_stmt 1 view .LVU535
 809:Middlewares/ST/filex/common/src/fx_directory_entry_write.c ****                     {
 1371              		.loc 1 809 42 is_stmt 0 view .LVU536
 1372 0518 2A68     		ldr	r2, [r5]
 809:Middlewares/ST/filex/common/src/fx_directory_entry_write.c ****                     {
 1373              		.loc 1 809 62 view .LVU537
 1374 051a 1278     		ldrb	r2, [r2]	@ zero_extendqisi2
 809:Middlewares/ST/filex/common/src/fx_directory_entry_write.c ****                     {
 1375              		.loc 1 809 24 view .LVU538
 1376 051c E52A     		cmp	r2, #229
 1377 051e F0D1     		bne	.L81
 812:Middlewares/ST/filex/common/src/fx_directory_entry_write.c ****                     }
 1378              		.loc 1 812 25 is_stmt 1 view .LVU539
 812:Middlewares/ST/filex/common/src/fx_directory_entry_write.c ****                     }
 1379              		.loc 1 812 37 is_stmt 0 view .LVU540
 1380 0520 1A70     		strb	r2, [r3]
 1381 0522 EEE7     		b	.L81
 1382              	.L155:
 839:Middlewares/ST/filex/common/src/fx_directory_entry_write.c ****                                                                        sector_base_ptr, ((ULONG) 1)
 1383              		.loc 1 839 29 is_stmt 1 view .LVU541
 839:Middlewares/ST/filex/common/src/fx_directory_entry_write.c ****                                                                        sector_base_ptr, ((ULONG) 1)
 1384              		.loc 1 839 39 is_stmt 0 view .LVU542
 1385 0524 0323     		movs	r3, #3
 1386              	.LVL173:
 839:Middlewares/ST/filex/common/src/fx_directory_entry_write.c ****                                                                        sector_base_ptr, ((ULONG) 1)
 1387              		.loc 1 839 39 view .LVU543
 1388 0526 0293     		str	r3, [sp, #8]
 1389 0528 0123     		movs	r3, #1
 1390 052a 0193     		str	r3, [sp, #4]
 1391 052c 0091     		str	r1, [sp]
 1392 052e 5A46     		mov	r2, fp
 1393 0530 0023     		movs	r3, #0
 1394 0532 4046     		mov	r0, r8
 1395              	.LVL174:
 839:Middlewares/ST/filex/common/src/fx_directory_entry_write.c ****                                                                        sector_base_ptr, ((ULONG) 1)
 1396              		.loc 1 839 39 view .LVU544
 1397 0534 FFF7FEFF 		bl	_fx_utility_logical_sector_write
 1398              	.LVL175:
 846:Middlewares/ST/filex/common/src/fx_directory_entry_write.c ****                         {
 1399              		.loc 1 846 25 is_stmt 1 view .LVU545
 846:Middlewares/ST/filex/common/src/fx_directory_entry_write.c ****                         {
 1400              		.loc 1 846 28 is_stmt 0 view .LVU546
 1401 0538 0346     		mov	r3, r0
 1402 053a 0028     		cmp	r0, #0
 1403 053c 40F0D380 		bne	.L1
 854:Middlewares/ST/filex/common/src/fx_directory_entry_write.c ****                         {
 1404              		.loc 1 854 25 is_stmt 1 view .LVU547
 854:Middlewares/ST/filex/common/src/fx_directory_entry_write.c ****                         {
 1405              		.loc 1 854 65 is_stmt 0 view .LVU548
 1406 0540 D8F85030 		ldr	r3, [r8, #80]
 854:Middlewares/ST/filex/common/src/fx_directory_entry_write.c ****                         {
 1407              		.loc 1 854 28 view .LVU549
ARM GAS  C:\Users\HP\AppData\Local\Temp\ccs6anBT.s 			page 51


 1408 0544 5B45     		cmp	r3, fp
 1409 0546 26D8     		bhi	.L83
 858:Middlewares/ST/filex/common/src/fx_directory_entry_write.c ****                             {
 1410              		.loc 1 858 29 is_stmt 1 view .LVU550
 858:Middlewares/ST/filex/common/src/fx_directory_entry_write.c ****                             {
 1411              		.loc 1 858 62 is_stmt 0 view .LVU551
 1412 0548 D8F85430 		ldr	r3, [r8, #84]
 858:Middlewares/ST/filex/common/src/fx_directory_entry_write.c ****                             {
 1413              		.loc 1 858 94 view .LVU552
 1414 054c 013B     		subs	r3, r3, #1
 858:Middlewares/ST/filex/common/src/fx_directory_entry_write.c ****                             {
 1415              		.loc 1 858 32 view .LVU553
 1416 054e 5345     		cmp	r3, r10
 1417 0550 04D9     		bls	.L84
 864:Middlewares/ST/filex/common/src/fx_directory_entry_write.c **** 
 1418              		.loc 1 864 33 is_stmt 1 view .LVU554
 864:Middlewares/ST/filex/common/src/fx_directory_entry_write.c **** 
 1419              		.loc 1 864 47 is_stmt 0 view .LVU555
 1420 0552 0BF1010B 		add	fp, fp, #1
 1421              	.LVL176:
 867:Middlewares/ST/filex/common/src/fx_directory_entry_write.c ****                             }
 1422              		.loc 1 867 33 is_stmt 1 view .LVU556
 867:Middlewares/ST/filex/common/src/fx_directory_entry_write.c ****                             }
 1423              		.loc 1 867 48 is_stmt 0 view .LVU557
 1424 0556 0AF1010A 		add	r10, r10, #1
 1425              	.LVL177:
 867:Middlewares/ST/filex/common/src/fx_directory_entry_write.c ****                             }
 1426              		.loc 1 867 48 view .LVU558
 1427 055a 21E0     		b	.L85
 1428              	.L84:
 875:Middlewares/ST/filex/common/src/fx_directory_entry_write.c **** 
 1429              		.loc 1 875 33 is_stmt 1 view .LVU559
 875:Middlewares/ST/filex/common/src/fx_directory_entry_write.c **** 
 1430              		.loc 1 875 43 is_stmt 0 view .LVU560
 1431 055c 0AAA     		add	r2, sp, #40
 1432 055e 2146     		mov	r1, r4
 1433 0560 4046     		mov	r0, r8
 1434              	.LVL178:
 875:Middlewares/ST/filex/common/src/fx_directory_entry_write.c **** 
 1435              		.loc 1 875 43 view .LVU561
 1436 0562 FFF7FEFF 		bl	_fx_utility_FAT_entry_read
 1437              	.LVL179:
 878:Middlewares/ST/filex/common/src/fx_directory_entry_write.c ****                                 {
 1438              		.loc 1 878 33 is_stmt 1 view .LVU562
 878:Middlewares/ST/filex/common/src/fx_directory_entry_write.c ****                                 {
 1439              		.loc 1 878 36 is_stmt 0 view .LVU563
 1440 0566 8246     		mov	r10, r0
 1441              	.LVL180:
 878:Middlewares/ST/filex/common/src/fx_directory_entry_write.c ****                                 {
 1442              		.loc 1 878 36 view .LVU564
 1443 0568 0028     		cmp	r0, #0
 1444 056a 40F0F080 		bne	.L119
 886:Middlewares/ST/filex/common/src/fx_directory_entry_write.c **** 
 1445              		.loc 1 886 33 is_stmt 1 view .LVU565
 886:Middlewares/ST/filex/common/src/fx_directory_entry_write.c **** 
 1446              		.loc 1 886 41 is_stmt 0 view .LVU566
 1447 056e 0A9C     		ldr	r4, [sp, #40]
ARM GAS  C:\Users\HP\AppData\Local\Temp\ccs6anBT.s 			page 52


 1448              	.LVL181:
 890:Middlewares/ST/filex/common/src/fx_directory_entry_write.c ****                                 {
 1449              		.loc 1 890 33 is_stmt 1 view .LVU567
 890:Middlewares/ST/filex/common/src/fx_directory_entry_write.c ****                                 {
 1450              		.loc 1 890 36 is_stmt 0 view .LVU568
 1451 0570 012C     		cmp	r4, #1
 1452 0572 40F2EE80 		bls	.L120
 890:Middlewares/ST/filex/common/src/fx_directory_entry_write.c ****                                 {
 1453              		.loc 1 890 93 discriminator 1 view .LVU569
 1454 0576 08F50053 		add	r3, r8, #8192
 1455 057a D3F8A834 		ldr	r3, [r3, #1192]
 890:Middlewares/ST/filex/common/src/fx_directory_entry_write.c ****                                 {
 1456              		.loc 1 890 68 discriminator 1 view .LVU570
 1457 057e A342     		cmp	r3, r4
 1458 0580 40F2E980 		bls	.L121
 898:Middlewares/ST/filex/common/src/fx_directory_entry_write.c **** 
 1459              		.loc 1 898 33 is_stmt 1 view .LVU571
 1460              	.LVL182:
 901:Middlewares/ST/filex/common/src/fx_directory_entry_write.c ****                                     (((ULONG)cluster - FX_FAT_ENTRY_START) *
 1461              		.loc 1 901 33 view .LVU572
 901:Middlewares/ST/filex/common/src/fx_directory_entry_write.c ****                                     (((ULONG)cluster - FX_FAT_ENTRY_START) *
 1462              		.loc 1 901 70 is_stmt 0 view .LVU573
 1463 0584 D8F85030 		ldr	r3, [r8, #80]
 902:Middlewares/ST/filex/common/src/fx_directory_entry_write.c ****                                      ((ULONG)media_ptr -> fx_media_sectors_per_cluster));
 1464              		.loc 1 902 54 view .LVU574
 1465 0588 A4F1020B 		sub	fp, r4, #2
 1466              	.LVL183:
 903:Middlewares/ST/filex/common/src/fx_directory_entry_write.c ****                             }
 1467              		.loc 1 903 56 view .LVU575
 1468 058c D8F85420 		ldr	r2, [r8, #84]
 901:Middlewares/ST/filex/common/src/fx_directory_entry_write.c ****                                     (((ULONG)cluster - FX_FAT_ENTRY_START) *
 1469              		.loc 1 901 48 view .LVU576
 1470 0590 02FB0B3B 		mla	fp, r2, fp, r3
 1471              	.LVL184:
 901:Middlewares/ST/filex/common/src/fx_directory_entry_write.c ****                                     (((ULONG)cluster - FX_FAT_ENTRY_START) *
 1472              		.loc 1 901 48 view .LVU577
 1473 0594 04E0     		b	.L85
 1474              	.LVL185:
 1475              	.L83:
 910:Middlewares/ST/filex/common/src/fx_directory_entry_write.c **** 
 1476              		.loc 1 910 29 is_stmt 1 view .LVU578
 910:Middlewares/ST/filex/common/src/fx_directory_entry_write.c **** 
 1477              		.loc 1 910 43 is_stmt 0 view .LVU579
 1478 0596 0BF1010B 		add	fp, fp, #1
 1479              	.LVL186:
 913:Middlewares/ST/filex/common/src/fx_directory_entry_write.c ****                             {
 1480              		.loc 1 913 29 is_stmt 1 view .LVU580
 913:Middlewares/ST/filex/common/src/fx_directory_entry_write.c ****                             {
 1481              		.loc 1 913 32 is_stmt 0 view .LVU581
 1482 059a 5B45     		cmp	r3, fp
 1483 059c 40F2DD80 		bls	.L122
 1484              	.LVL187:
 1485              	.L85:
 924:Middlewares/ST/filex/common/src/fx_directory_entry_write.c ****                                                                   media_ptr -> fx_media_memory_buff
 1486              		.loc 1 924 25 is_stmt 1 view .LVU582
 925:Middlewares/ST/filex/common/src/fx_directory_entry_write.c **** 
 1487              		.loc 1 925 77 is_stmt 0 view .LVU583
ARM GAS  C:\Users\HP\AppData\Local\Temp\ccs6anBT.s 			page 53


 1488 05a0 D8F80830 		ldr	r3, [r8, #8]
 924:Middlewares/ST/filex/common/src/fx_directory_entry_write.c ****                                                                   media_ptr -> fx_media_memory_buff
 1489              		.loc 1 924 35 view .LVU584
 1490 05a4 0322     		movs	r2, #3
 1491 05a6 0292     		str	r2, [sp, #8]
 1492 05a8 0122     		movs	r2, #1
 1493 05aa 0192     		str	r2, [sp, #4]
 1494 05ac 0093     		str	r3, [sp]
 1495 05ae 5A46     		mov	r2, fp
 1496 05b0 0023     		movs	r3, #0
 1497 05b2 4046     		mov	r0, r8
 1498              	.LVL188:
 924:Middlewares/ST/filex/common/src/fx_directory_entry_write.c ****                                                                   media_ptr -> fx_media_memory_buff
 1499              		.loc 1 924 35 view .LVU585
 1500 05b4 FFF7FEFF 		bl	_fx_utility_logical_sector_read
 1501              	.LVL189:
 928:Middlewares/ST/filex/common/src/fx_directory_entry_write.c ****                         {
 1502              		.loc 1 928 25 is_stmt 1 view .LVU586
 928:Middlewares/ST/filex/common/src/fx_directory_entry_write.c ****                         {
 1503              		.loc 1 928 28 is_stmt 0 view .LVU587
 1504 05b8 8146     		mov	r9, r0
 1505              	.LVL190:
 928:Middlewares/ST/filex/common/src/fx_directory_entry_write.c ****                         {
 1506              		.loc 1 928 28 view .LVU588
 1507 05ba 0028     		cmp	r0, #0
 1508 05bc 40F0CF80 		bne	.L123
 936:Middlewares/ST/filex/common/src/fx_directory_entry_write.c **** 
 1509              		.loc 1 936 25 is_stmt 1 view .LVU589
 936:Middlewares/ST/filex/common/src/fx_directory_entry_write.c **** 
 1510              		.loc 1 936 41 is_stmt 0 view .LVU590
 1511 05c0 D8F80830 		ldr	r3, [r8, #8]
 1512              	.LVL191:
 939:Middlewares/ST/filex/common/src/fx_directory_entry_write.c ****                         work_ptr = sector_base_ptr;
 1513              		.loc 1 939 25 is_stmt 1 view .LVU591
 940:Middlewares/ST/filex/common/src/fx_directory_entry_write.c **** 
 1514              		.loc 1 940 25 view .LVU592
 936:Middlewares/ST/filex/common/src/fx_directory_entry_write.c **** 
 1515              		.loc 1 936 41 is_stmt 0 view .LVU593
 1516 05c4 1946     		mov	r1, r3
 1517 05c6 A3E7     		b	.L82
 1518              	.LVL192:
 1519              	.L138:
 805:Middlewares/ST/filex/common/src/fx_directory_entry_write.c ****                 {
 1520              		.loc 1 805 24 view .LVU594
 1521 05c8 3746     		mov	r7, r6
 1522 05ca 2346     		mov	r3, r4
 1523 05cc 0699     		ldr	r1, [sp, #24]
 1524 05ce DDF81CA0 		ldr	r10, [sp, #28]
 1525 05d2 059C     		ldr	r4, [sp, #20]
 1526              	.LVL193:
 805:Middlewares/ST/filex/common/src/fx_directory_entry_write.c ****                 {
 1527              		.loc 1 805 24 view .LVU595
 1528 05d4 9DE7     		b	.L80
 1529              	.LVL194:
 1530              	.L156:
 805:Middlewares/ST/filex/common/src/fx_directory_entry_write.c ****                 {
 1531              		.loc 1 805 24 view .LVU596
ARM GAS  C:\Users\HP\AppData\Local\Temp\ccs6anBT.s 			page 54


 1532 05d6 1C46     		mov	r4, r3
 1533              	.LVL195:
 805:Middlewares/ST/filex/common/src/fx_directory_entry_write.c ****                 {
 1534              		.loc 1 805 24 view .LVU597
 1535 05d8 0691     		str	r1, [sp, #24]
 1536 05da 62E5     		b	.L79
 1537              	.LVL196:
 1538              	.L88:
 955:Middlewares/ST/filex/common/src/fx_directory_entry_write.c ****         {
 956:Middlewares/ST/filex/common/src/fx_directory_entry_write.c ****             work_ptr[j] = ' ';
 1539              		.loc 1 956 13 is_stmt 1 discriminator 3 view .LVU598
 1540              		.loc 1 956 25 is_stmt 0 discriminator 3 view .LVU599
 1541 05dc 2022     		movs	r2, #32
 1542 05de E254     		strb	r2, [r4, r3]
 954:Middlewares/ST/filex/common/src/fx_directory_entry_write.c ****         {
 1543              		.loc 1 954 61 is_stmt 1 discriminator 3 view .LVU600
 954:Middlewares/ST/filex/common/src/fx_directory_entry_write.c ****         {
 1544              		.loc 1 954 62 is_stmt 0 discriminator 3 view .LVU601
 1545 05e0 0133     		adds	r3, r3, #1
 1546              	.LVL197:
 1547              	.L87:
 954:Middlewares/ST/filex/common/src/fx_directory_entry_write.c ****         {
 1548              		.loc 1 954 21 is_stmt 1 discriminator 1 view .LVU602
 954:Middlewares/ST/filex/common/src/fx_directory_entry_write.c ****         {
 1549              		.loc 1 954 9 is_stmt 0 discriminator 1 view .LVU603
 1550 05e2 0A2B     		cmp	r3, #10
 1551 05e4 FAD9     		bls	.L88
 957:Middlewares/ST/filex/common/src/fx_directory_entry_write.c ****         }
 958:Middlewares/ST/filex/common/src/fx_directory_entry_write.c **** 
 959:Middlewares/ST/filex/common/src/fx_directory_entry_write.c ****         /* Copy leading dots in case of first two entries of a directory.  */
 960:Middlewares/ST/filex/common/src/fx_directory_entry_write.c ****         for (i = 0; (UCHAR)entry_ptr -> fx_dir_entry_name[i] == '.'; i++)
 1552              		.loc 1 960 16 view .LVU604
 1553 05e6 3346     		mov	r3, r6
 1554              	.LVL198:
 1555              		.loc 1 960 16 view .LVU605
 1556 05e8 02E0     		b	.L89
 1557              	.LVL199:
 1558              	.L90:
 961:Middlewares/ST/filex/common/src/fx_directory_entry_write.c ****         {
 962:Middlewares/ST/filex/common/src/fx_directory_entry_write.c ****             work_ptr[i] = '.';
 1559              		.loc 1 962 13 is_stmt 1 discriminator 3 view .LVU606
 1560              		.loc 1 962 25 is_stmt 0 discriminator 3 view .LVU607
 1561 05ea 2E22     		movs	r2, #46
 1562 05ec E254     		strb	r2, [r4, r3]
 960:Middlewares/ST/filex/common/src/fx_directory_entry_write.c ****         {
 1563              		.loc 1 960 70 is_stmt 1 discriminator 3 view .LVU608
 960:Middlewares/ST/filex/common/src/fx_directory_entry_write.c ****         {
 1564              		.loc 1 960 71 is_stmt 0 discriminator 3 view .LVU609
 1565 05ee 0133     		adds	r3, r3, #1
 1566              	.LVL200:
 1567              	.L89:
 960:Middlewares/ST/filex/common/src/fx_directory_entry_write.c ****         {
 1568              		.loc 1 960 21 is_stmt 1 discriminator 1 view .LVU610
 960:Middlewares/ST/filex/common/src/fx_directory_entry_write.c ****         {
 1569              		.loc 1 960 38 is_stmt 0 discriminator 1 view .LVU611
 1570 05f0 2A68     		ldr	r2, [r5]
 960:Middlewares/ST/filex/common/src/fx_directory_entry_write.c ****         {
ARM GAS  C:\Users\HP\AppData\Local\Temp\ccs6anBT.s 			page 55


 1571              		.loc 1 960 58 discriminator 1 view .LVU612
 1572 05f2 D25C     		ldrb	r2, [r2, r3]	@ zero_extendqisi2
 960:Middlewares/ST/filex/common/src/fx_directory_entry_write.c ****         {
 1573              		.loc 1 960 9 discriminator 1 view .LVU613
 1574 05f4 2E2A     		cmp	r2, #46
 1575 05f6 F8D0     		beq	.L90
 963:Middlewares/ST/filex/common/src/fx_directory_entry_write.c ****         }
 964:Middlewares/ST/filex/common/src/fx_directory_entry_write.c **** 
 965:Middlewares/ST/filex/common/src/fx_directory_entry_write.c ****         /* Determine if there are more characters to copy.  */
 966:Middlewares/ST/filex/common/src/fx_directory_entry_write.c ****         if ((UCHAR)entry_ptr -> fx_dir_entry_name[i] != 0)
 1576              		.loc 1 966 9 is_stmt 1 view .LVU614
 1577              		.loc 1 966 12 is_stmt 0 view .LVU615
 1578 05f8 CAB9     		cbnz	r2, .L124
 1579 05fa 1E46     		mov	r6, r3
 1580              	.LVL201:
 1581              	.L92:
 967:Middlewares/ST/filex/common/src/fx_directory_entry_write.c ****         {
 968:Middlewares/ST/filex/common/src/fx_directory_entry_write.c **** 
 969:Middlewares/ST/filex/common/src/fx_directory_entry_write.c ****             /* Copy directory name.  */
 970:Middlewares/ST/filex/common/src/fx_directory_entry_write.c ****             for (i = 0, j = 0; j < FX_DIR_NAME_SIZE; i++, j++)
 971:Middlewares/ST/filex/common/src/fx_directory_entry_write.c ****             {
 972:Middlewares/ST/filex/common/src/fx_directory_entry_write.c **** 
 973:Middlewares/ST/filex/common/src/fx_directory_entry_write.c ****                 /* Check for end of copy conditions.  */
 974:Middlewares/ST/filex/common/src/fx_directory_entry_write.c ****                 if ((UCHAR)entry_ptr -> fx_dir_entry_name[i] == '.')
 975:Middlewares/ST/filex/common/src/fx_directory_entry_write.c ****                 {
 976:Middlewares/ST/filex/common/src/fx_directory_entry_write.c ****                     break;
 977:Middlewares/ST/filex/common/src/fx_directory_entry_write.c ****                 }
 978:Middlewares/ST/filex/common/src/fx_directory_entry_write.c ****                 if ((UCHAR)entry_ptr -> fx_dir_entry_name[i] == 0)
 979:Middlewares/ST/filex/common/src/fx_directory_entry_write.c ****                 {
 980:Middlewares/ST/filex/common/src/fx_directory_entry_write.c ****                     break;
 981:Middlewares/ST/filex/common/src/fx_directory_entry_write.c ****                 }
 982:Middlewares/ST/filex/common/src/fx_directory_entry_write.c **** 
 983:Middlewares/ST/filex/common/src/fx_directory_entry_write.c ****                 /* Pickup shortname character.  */
 984:Middlewares/ST/filex/common/src/fx_directory_entry_write.c ****                 alpha = entry_ptr -> fx_dir_entry_name[i];
 985:Middlewares/ST/filex/common/src/fx_directory_entry_write.c **** 
 986:Middlewares/ST/filex/common/src/fx_directory_entry_write.c ****                 /* Determine if character is lower case.  */
 987:Middlewares/ST/filex/common/src/fx_directory_entry_write.c ****                 if ((alpha >= 'a') && (alpha <= 'z'))
 988:Middlewares/ST/filex/common/src/fx_directory_entry_write.c ****                 {
 989:Middlewares/ST/filex/common/src/fx_directory_entry_write.c **** 
 990:Middlewares/ST/filex/common/src/fx_directory_entry_write.c ****                     /* Store the character - converted to upper case.  */
 991:Middlewares/ST/filex/common/src/fx_directory_entry_write.c ****                     alpha =  (CHAR)(alpha - ((CHAR)0x20));
 992:Middlewares/ST/filex/common/src/fx_directory_entry_write.c ****                 }
 993:Middlewares/ST/filex/common/src/fx_directory_entry_write.c **** 
 994:Middlewares/ST/filex/common/src/fx_directory_entry_write.c ****                 /* Copy a name character.  */
 995:Middlewares/ST/filex/common/src/fx_directory_entry_write.c ****                 work_ptr[j] =  (UCHAR)alpha;
 996:Middlewares/ST/filex/common/src/fx_directory_entry_write.c ****             }
 997:Middlewares/ST/filex/common/src/fx_directory_entry_write.c ****         }
 998:Middlewares/ST/filex/common/src/fx_directory_entry_write.c **** 
 999:Middlewares/ST/filex/common/src/fx_directory_entry_write.c ****         /* Determine if there are more characters in the name.  */
1000:Middlewares/ST/filex/common/src/fx_directory_entry_write.c ****         if ((UCHAR)entry_ptr -> fx_dir_entry_name[i] != 0)
 1582              		.loc 1 1000 9 is_stmt 1 view .LVU616
 1583              		.loc 1 1000 30 is_stmt 0 view .LVU617
 1584 05fc 2B68     		ldr	r3, [r5]
 1585              		.loc 1 1000 50 view .LVU618
 1586 05fe 9B5D     		ldrb	r3, [r3, r6]	@ zero_extendqisi2
 1587              		.loc 1 1000 12 view .LVU619
 1588 0600 3BB3     		cbz	r3, .L95
ARM GAS  C:\Users\HP\AppData\Local\Temp\ccs6anBT.s 			page 56


1001:Middlewares/ST/filex/common/src/fx_directory_entry_write.c ****         {
1002:Middlewares/ST/filex/common/src/fx_directory_entry_write.c **** 
1003:Middlewares/ST/filex/common/src/fx_directory_entry_write.c ****             /* Loop to copy the remainder of the name.  */
1004:Middlewares/ST/filex/common/src/fx_directory_entry_write.c ****             for (i++, j = FX_DIR_NAME_SIZE; j < FX_DIR_NAME_SIZE + FX_DIR_EXT_SIZE; i++, j++)
 1589              		.loc 1 1004 13 is_stmt 1 view .LVU620
 1590              		.loc 1 1004 19 is_stmt 0 view .LVU621
 1591 0602 0136     		adds	r6, r6, #1
 1592              	.LVL202:
 1593              		.loc 1 1004 25 view .LVU622
 1594 0604 0822     		movs	r2, #8
 1595              		.loc 1 1004 13 view .LVU623
 1596 0606 17E0     		b	.L96
 1597              	.LVL203:
 1598              	.L93:
 995:Middlewares/ST/filex/common/src/fx_directory_entry_write.c ****             }
 1599              		.loc 1 995 17 is_stmt 1 discriminator 2 view .LVU624
 995:Middlewares/ST/filex/common/src/fx_directory_entry_write.c ****             }
 1600              		.loc 1 995 29 is_stmt 0 discriminator 2 view .LVU625
 1601 0608 A354     		strb	r3, [r4, r2]
 970:Middlewares/ST/filex/common/src/fx_directory_entry_write.c ****             {
 1602              		.loc 1 970 54 is_stmt 1 discriminator 2 view .LVU626
 970:Middlewares/ST/filex/common/src/fx_directory_entry_write.c ****             {
 1603              		.loc 1 970 55 is_stmt 0 discriminator 2 view .LVU627
 1604 060a 0136     		adds	r6, r6, #1
 1605              	.LVL204:
 970:Middlewares/ST/filex/common/src/fx_directory_entry_write.c ****             {
 1606              		.loc 1 970 60 discriminator 2 view .LVU628
 1607 060c 0132     		adds	r2, r2, #1
 1608              	.LVL205:
 1609              	.L91:
 970:Middlewares/ST/filex/common/src/fx_directory_entry_write.c ****             {
 1610              		.loc 1 970 32 is_stmt 1 discriminator 1 view .LVU629
 970:Middlewares/ST/filex/common/src/fx_directory_entry_write.c ****             {
 1611              		.loc 1 970 13 is_stmt 0 discriminator 1 view .LVU630
 1612 060e 072A     		cmp	r2, #7
 1613 0610 F4D8     		bhi	.L92
 974:Middlewares/ST/filex/common/src/fx_directory_entry_write.c ****                 {
 1614              		.loc 1 974 17 is_stmt 1 view .LVU631
 974:Middlewares/ST/filex/common/src/fx_directory_entry_write.c ****                 {
 1615              		.loc 1 974 38 is_stmt 0 view .LVU632
 1616 0612 2B68     		ldr	r3, [r5]
 974:Middlewares/ST/filex/common/src/fx_directory_entry_write.c ****                 {
 1617              		.loc 1 974 58 view .LVU633
 1618 0614 9B5D     		ldrb	r3, [r3, r6]	@ zero_extendqisi2
 974:Middlewares/ST/filex/common/src/fx_directory_entry_write.c ****                 {
 1619              		.loc 1 974 20 view .LVU634
 1620 0616 2E2B     		cmp	r3, #46
 1621 0618 F0D0     		beq	.L92
 978:Middlewares/ST/filex/common/src/fx_directory_entry_write.c ****                 {
 1622              		.loc 1 978 17 is_stmt 1 view .LVU635
 978:Middlewares/ST/filex/common/src/fx_directory_entry_write.c ****                 {
 1623              		.loc 1 978 20 is_stmt 0 view .LVU636
 1624 061a 002B     		cmp	r3, #0
 1625 061c EED0     		beq	.L92
 984:Middlewares/ST/filex/common/src/fx_directory_entry_write.c **** 
 1626              		.loc 1 984 17 is_stmt 1 view .LVU637
 1627              	.LVL206:
ARM GAS  C:\Users\HP\AppData\Local\Temp\ccs6anBT.s 			page 57


 987:Middlewares/ST/filex/common/src/fx_directory_entry_write.c ****                 {
 1628              		.loc 1 987 17 view .LVU638
 987:Middlewares/ST/filex/common/src/fx_directory_entry_write.c ****                 {
 1629              		.loc 1 987 36 is_stmt 0 view .LVU639
 1630 061e A3F16101 		sub	r1, r3, #97
 1631 0622 C9B2     		uxtb	r1, r1
 987:Middlewares/ST/filex/common/src/fx_directory_entry_write.c ****                 {
 1632              		.loc 1 987 20 view .LVU640
 1633 0624 1929     		cmp	r1, #25
 1634 0626 EFD8     		bhi	.L93
 991:Middlewares/ST/filex/common/src/fx_directory_entry_write.c ****                 }
 1635              		.loc 1 991 21 is_stmt 1 view .LVU641
 991:Middlewares/ST/filex/common/src/fx_directory_entry_write.c ****                 }
 1636              		.loc 1 991 27 is_stmt 0 view .LVU642
 1637 0628 203B     		subs	r3, r3, #32
 1638              	.LVL207:
 991:Middlewares/ST/filex/common/src/fx_directory_entry_write.c ****                 }
 1639              		.loc 1 991 27 view .LVU643
 1640 062a DBB2     		uxtb	r3, r3
 1641              	.LVL208:
 991:Middlewares/ST/filex/common/src/fx_directory_entry_write.c ****                 }
 1642              		.loc 1 991 27 view .LVU644
 1643 062c ECE7     		b	.L93
 1644              	.LVL209:
 1645              	.L124:
 970:Middlewares/ST/filex/common/src/fx_directory_entry_write.c ****             {
 1646              		.loc 1 970 27 view .LVU645
 1647 062e 3246     		mov	r2, r6
 1648 0630 EDE7     		b	.L91
 1649              	.LVL210:
 1650              	.L97:
1005:Middlewares/ST/filex/common/src/fx_directory_entry_write.c ****             {
1006:Middlewares/ST/filex/common/src/fx_directory_entry_write.c **** 
1007:Middlewares/ST/filex/common/src/fx_directory_entry_write.c ****                 /* Check for end of copy conditions.  */
1008:Middlewares/ST/filex/common/src/fx_directory_entry_write.c ****                 if ((UCHAR)entry_ptr -> fx_dir_entry_name[i] == 0)
1009:Middlewares/ST/filex/common/src/fx_directory_entry_write.c ****                 {
1010:Middlewares/ST/filex/common/src/fx_directory_entry_write.c ****                     break;
1011:Middlewares/ST/filex/common/src/fx_directory_entry_write.c ****                 }
1012:Middlewares/ST/filex/common/src/fx_directory_entry_write.c **** 
1013:Middlewares/ST/filex/common/src/fx_directory_entry_write.c ****                 /* Pickup shortname character.  */
1014:Middlewares/ST/filex/common/src/fx_directory_entry_write.c ****                 alpha = entry_ptr -> fx_dir_entry_name[i];
1015:Middlewares/ST/filex/common/src/fx_directory_entry_write.c **** 
1016:Middlewares/ST/filex/common/src/fx_directory_entry_write.c ****                 /* Determine if character is lower case.  */
1017:Middlewares/ST/filex/common/src/fx_directory_entry_write.c ****                 if ((alpha >= 'a') && (alpha <= 'z'))
1018:Middlewares/ST/filex/common/src/fx_directory_entry_write.c ****                 {
1019:Middlewares/ST/filex/common/src/fx_directory_entry_write.c **** 
1020:Middlewares/ST/filex/common/src/fx_directory_entry_write.c ****                     /* Store the character - converted to upper case.  */
1021:Middlewares/ST/filex/common/src/fx_directory_entry_write.c ****                     alpha =  (CHAR)(alpha - ((CHAR)0x20));
1022:Middlewares/ST/filex/common/src/fx_directory_entry_write.c ****                 }
1023:Middlewares/ST/filex/common/src/fx_directory_entry_write.c **** 
1024:Middlewares/ST/filex/common/src/fx_directory_entry_write.c ****                 /* Copy a name character.  */
1025:Middlewares/ST/filex/common/src/fx_directory_entry_write.c ****                 work_ptr[j] =  (UCHAR)alpha;
 1651              		.loc 1 1025 17 is_stmt 1 discriminator 2 view .LVU646
 1652              		.loc 1 1025 29 is_stmt 0 discriminator 2 view .LVU647
 1653 0632 A354     		strb	r3, [r4, r2]
1004:Middlewares/ST/filex/common/src/fx_directory_entry_write.c ****             {
 1654              		.loc 1 1004 85 is_stmt 1 discriminator 2 view .LVU648
ARM GAS  C:\Users\HP\AppData\Local\Temp\ccs6anBT.s 			page 58


1004:Middlewares/ST/filex/common/src/fx_directory_entry_write.c ****             {
 1655              		.loc 1 1004 86 is_stmt 0 discriminator 2 view .LVU649
 1656 0634 0136     		adds	r6, r6, #1
 1657              	.LVL211:
1004:Middlewares/ST/filex/common/src/fx_directory_entry_write.c ****             {
 1658              		.loc 1 1004 91 discriminator 2 view .LVU650
 1659 0636 0132     		adds	r2, r2, #1
 1660              	.LVL212:
 1661              	.L96:
1004:Middlewares/ST/filex/common/src/fx_directory_entry_write.c ****             {
 1662              		.loc 1 1004 45 is_stmt 1 discriminator 1 view .LVU651
1004:Middlewares/ST/filex/common/src/fx_directory_entry_write.c ****             {
 1663              		.loc 1 1004 13 is_stmt 0 discriminator 1 view .LVU652
 1664 0638 0A2A     		cmp	r2, #10
 1665 063a 0AD8     		bhi	.L95
1008:Middlewares/ST/filex/common/src/fx_directory_entry_write.c ****                 {
 1666              		.loc 1 1008 17 is_stmt 1 view .LVU653
1008:Middlewares/ST/filex/common/src/fx_directory_entry_write.c ****                 {
 1667              		.loc 1 1008 38 is_stmt 0 view .LVU654
 1668 063c 2B68     		ldr	r3, [r5]
1008:Middlewares/ST/filex/common/src/fx_directory_entry_write.c ****                 {
 1669              		.loc 1 1008 58 view .LVU655
 1670 063e 9B5D     		ldrb	r3, [r3, r6]	@ zero_extendqisi2
1008:Middlewares/ST/filex/common/src/fx_directory_entry_write.c ****                 {
 1671              		.loc 1 1008 20 view .LVU656
 1672 0640 3BB1     		cbz	r3, .L95
1014:Middlewares/ST/filex/common/src/fx_directory_entry_write.c **** 
 1673              		.loc 1 1014 17 is_stmt 1 view .LVU657
 1674              	.LVL213:
1017:Middlewares/ST/filex/common/src/fx_directory_entry_write.c ****                 {
 1675              		.loc 1 1017 17 view .LVU658
1017:Middlewares/ST/filex/common/src/fx_directory_entry_write.c ****                 {
 1676              		.loc 1 1017 36 is_stmt 0 view .LVU659
 1677 0642 A3F16101 		sub	r1, r3, #97
 1678 0646 C9B2     		uxtb	r1, r1
1017:Middlewares/ST/filex/common/src/fx_directory_entry_write.c ****                 {
 1679              		.loc 1 1017 20 view .LVU660
 1680 0648 1929     		cmp	r1, #25
 1681 064a F2D8     		bhi	.L97
1021:Middlewares/ST/filex/common/src/fx_directory_entry_write.c ****                 }
 1682              		.loc 1 1021 21 is_stmt 1 view .LVU661
1021:Middlewares/ST/filex/common/src/fx_directory_entry_write.c ****                 }
 1683              		.loc 1 1021 27 is_stmt 0 view .LVU662
 1684 064c 203B     		subs	r3, r3, #32
 1685              	.LVL214:
1021:Middlewares/ST/filex/common/src/fx_directory_entry_write.c ****                 }
 1686              		.loc 1 1021 27 view .LVU663
 1687 064e DBB2     		uxtb	r3, r3
 1688              	.LVL215:
1021:Middlewares/ST/filex/common/src/fx_directory_entry_write.c ****                 }
 1689              		.loc 1 1021 27 view .LVU664
 1690 0650 EFE7     		b	.L97
 1691              	.LVL216:
 1692              	.L95:
1026:Middlewares/ST/filex/common/src/fx_directory_entry_write.c ****             }
1027:Middlewares/ST/filex/common/src/fx_directory_entry_write.c ****         }
1028:Middlewares/ST/filex/common/src/fx_directory_entry_write.c **** 
ARM GAS  C:\Users\HP\AppData\Local\Temp\ccs6anBT.s 			page 59


1029:Middlewares/ST/filex/common/src/fx_directory_entry_write.c ****         /* Move to the next entry.  */
1030:Middlewares/ST/filex/common/src/fx_directory_entry_write.c ****         work_ptr += (FX_DIR_NAME_SIZE + FX_DIR_EXT_SIZE);
 1693              		.loc 1 1030 9 is_stmt 1 view .LVU665
 1694              		.loc 1 1030 18 is_stmt 0 view .LVU666
 1695 0652 0B34     		adds	r4, r4, #11
 1696              	.LVL217:
 1697              	.L71:
1031:Middlewares/ST/filex/common/src/fx_directory_entry_write.c ****     }
1032:Middlewares/ST/filex/common/src/fx_directory_entry_write.c **** 
1033:Middlewares/ST/filex/common/src/fx_directory_entry_write.c ****     /* Write out the 8.3 part of the name. */
1034:Middlewares/ST/filex/common/src/fx_directory_entry_write.c **** 
1035:Middlewares/ST/filex/common/src/fx_directory_entry_write.c ****     /* Copy the attribute into the destination.  */
1036:Middlewares/ST/filex/common/src/fx_directory_entry_write.c ****     *work_ptr++ =  entry_ptr -> fx_dir_entry_attributes;
 1698              		.loc 1 1036 5 is_stmt 1 view .LVU667
 1699              		.loc 1 1036 30 is_stmt 0 view .LVU668
 1700 0654 2B7F     		ldrb	r3, [r5, #28]	@ zero_extendqisi2
 1701              		.loc 1 1036 17 view .LVU669
 1702 0656 2370     		strb	r3, [r4]
1037:Middlewares/ST/filex/common/src/fx_directory_entry_write.c **** 
1038:Middlewares/ST/filex/common/src/fx_directory_entry_write.c ****     /* Copy the reserved byte.  */
1039:Middlewares/ST/filex/common/src/fx_directory_entry_write.c ****     *work_ptr++ =  entry_ptr -> fx_dir_entry_reserved;
 1703              		.loc 1 1039 5 is_stmt 1 view .LVU670
 1704              	.LVL218:
 1705              		.loc 1 1039 30 is_stmt 0 view .LVU671
 1706 0658 6B7F     		ldrb	r3, [r5, #29]	@ zero_extendqisi2
 1707              		.loc 1 1039 17 view .LVU672
 1708 065a 6370     		strb	r3, [r4, #1]
1040:Middlewares/ST/filex/common/src/fx_directory_entry_write.c **** 
1041:Middlewares/ST/filex/common/src/fx_directory_entry_write.c ****     /* Copy the created time in milliseconds.  */
1042:Middlewares/ST/filex/common/src/fx_directory_entry_write.c ****     *work_ptr++ =  entry_ptr -> fx_dir_entry_created_time_ms;
 1709              		.loc 1 1042 5 is_stmt 1 view .LVU673
 1710              	.LVL219:
 1711              		.loc 1 1042 30 is_stmt 0 view .LVU674
 1712 065c AB7F     		ldrb	r3, [r5, #30]	@ zero_extendqisi2
 1713              		.loc 1 1042 17 view .LVU675
 1714 065e A370     		strb	r3, [r4, #2]
1043:Middlewares/ST/filex/common/src/fx_directory_entry_write.c **** 
1044:Middlewares/ST/filex/common/src/fx_directory_entry_write.c ****     /* Copy the created time.  */
1045:Middlewares/ST/filex/common/src/fx_directory_entry_write.c ****     _fx_utility_16_unsigned_write(work_ptr, entry_ptr -> fx_dir_entry_created_time);
 1715              		.loc 1 1045 5 is_stmt 1 view .LVU676
 1716 0660 296A     		ldr	r1, [r5, #32]
 1717 0662 E01C     		adds	r0, r4, #3
 1718              	.LVL220:
 1719              		.loc 1 1045 5 is_stmt 0 view .LVU677
 1720 0664 FFF7FEFF 		bl	_fx_utility_16_unsigned_write
 1721              	.LVL221:
1046:Middlewares/ST/filex/common/src/fx_directory_entry_write.c ****     work_ptr =  work_ptr + 2;  /* Always 2 bytes  */
 1722              		.loc 1 1046 5 is_stmt 1 view .LVU678
1047:Middlewares/ST/filex/common/src/fx_directory_entry_write.c **** 
1048:Middlewares/ST/filex/common/src/fx_directory_entry_write.c ****     /* Copy the created date.  */
1049:Middlewares/ST/filex/common/src/fx_directory_entry_write.c ****     _fx_utility_16_unsigned_write(work_ptr, entry_ptr -> fx_dir_entry_created_date);
 1723              		.loc 1 1049 5 view .LVU679
 1724 0668 696A     		ldr	r1, [r5, #36]
 1725 066a 601D     		adds	r0, r4, #5
 1726              	.LVL222:
 1727              		.loc 1 1049 5 is_stmt 0 view .LVU680
 1728 066c FFF7FEFF 		bl	_fx_utility_16_unsigned_write
ARM GAS  C:\Users\HP\AppData\Local\Temp\ccs6anBT.s 			page 60


 1729              	.LVL223:
1050:Middlewares/ST/filex/common/src/fx_directory_entry_write.c ****     work_ptr =  work_ptr + 2;  /* Always 2 bytes  */
 1730              		.loc 1 1050 5 is_stmt 1 view .LVU681
1051:Middlewares/ST/filex/common/src/fx_directory_entry_write.c **** 
1052:Middlewares/ST/filex/common/src/fx_directory_entry_write.c ****     /* Copy the last accessed date.  */
1053:Middlewares/ST/filex/common/src/fx_directory_entry_write.c ****     _fx_utility_16_unsigned_write(work_ptr, entry_ptr -> fx_dir_entry_last_accessed_date);
 1731              		.loc 1 1053 5 view .LVU682
 1732 0670 A96A     		ldr	r1, [r5, #40]
 1733 0672 E01D     		adds	r0, r4, #7
 1734              	.LVL224:
 1735              		.loc 1 1053 5 is_stmt 0 view .LVU683
 1736 0674 FFF7FEFF 		bl	_fx_utility_16_unsigned_write
 1737              	.LVL225:
1054:Middlewares/ST/filex/common/src/fx_directory_entry_write.c ****     work_ptr =  work_ptr + 2;  /* Always 2 bytes  */
 1738              		.loc 1 1054 5 is_stmt 1 view .LVU684
 1739              		.loc 1 1054 14 is_stmt 0 view .LVU685
 1740 0678 04F10900 		add	r0, r4, #9
 1741              	.LVL226:
1055:Middlewares/ST/filex/common/src/fx_directory_entry_write.c **** 
1056:Middlewares/ST/filex/common/src/fx_directory_entry_write.c ****     /* Determine if a FAT32 entry is present.  */
1057:Middlewares/ST/filex/common/src/fx_directory_entry_write.c ****     if (media_ptr -> fx_media_32_bit_FAT)
 1742              		.loc 1 1057 5 is_stmt 1 view .LVU686
 1743              		.loc 1 1057 19 is_stmt 0 view .LVU687
 1744 067c D8F86430 		ldr	r3, [r8, #100]
 1745              		.loc 1 1057 8 view .LVU688
 1746 0680 002B     		cmp	r3, #0
 1747 0682 34D0     		beq	.L99
1058:Middlewares/ST/filex/common/src/fx_directory_entry_write.c ****     {
1059:Middlewares/ST/filex/common/src/fx_directory_entry_write.c **** 
1060:Middlewares/ST/filex/common/src/fx_directory_entry_write.c ****         /* Yes, FAT32 is present, store upper half of cluster.  */
1061:Middlewares/ST/filex/common/src/fx_directory_entry_write.c ****         temp = (entry_ptr -> fx_dir_entry_cluster >> 16);
 1748              		.loc 1 1061 9 is_stmt 1 view .LVU689
 1749              	.LVL227:
1062:Middlewares/ST/filex/common/src/fx_directory_entry_write.c ****         _fx_utility_16_unsigned_write(work_ptr, temp);
 1750              		.loc 1 1062 9 view .LVU690
 1751 0684 E98E     		ldrh	r1, [r5, #54]
 1752              	.LVL228:
 1753              		.loc 1 1062 9 is_stmt 0 view .LVU691
 1754 0686 FFF7FEFF 		bl	_fx_utility_16_unsigned_write
 1755              	.LVL229:
 1756              	.L100:
1063:Middlewares/ST/filex/common/src/fx_directory_entry_write.c ****     }
1064:Middlewares/ST/filex/common/src/fx_directory_entry_write.c ****     else
1065:Middlewares/ST/filex/common/src/fx_directory_entry_write.c ****     {
1066:Middlewares/ST/filex/common/src/fx_directory_entry_write.c **** 
1067:Middlewares/ST/filex/common/src/fx_directory_entry_write.c ****         /* No, FAT16 or FAT12 is present, just write a 0 for
1068:Middlewares/ST/filex/common/src/fx_directory_entry_write.c ****            the upper half of the cluster.  */
1069:Middlewares/ST/filex/common/src/fx_directory_entry_write.c ****         _fx_utility_16_unsigned_write(work_ptr, 0);
1070:Middlewares/ST/filex/common/src/fx_directory_entry_write.c ****     }
1071:Middlewares/ST/filex/common/src/fx_directory_entry_write.c **** 
1072:Middlewares/ST/filex/common/src/fx_directory_entry_write.c ****     /* Advance the entry pointer.  */
1073:Middlewares/ST/filex/common/src/fx_directory_entry_write.c ****     work_ptr =  work_ptr + 2;  /* Always 2 bytes  */
 1757              		.loc 1 1073 5 is_stmt 1 view .LVU692
1074:Middlewares/ST/filex/common/src/fx_directory_entry_write.c **** 
1075:Middlewares/ST/filex/common/src/fx_directory_entry_write.c ****     /* Copy the time into the destination.  */
1076:Middlewares/ST/filex/common/src/fx_directory_entry_write.c ****     _fx_utility_16_unsigned_write(work_ptr, entry_ptr -> fx_dir_entry_time);
 1758              		.loc 1 1076 5 view .LVU693
ARM GAS  C:\Users\HP\AppData\Local\Temp\ccs6anBT.s 			page 61


 1759 068a E96A     		ldr	r1, [r5, #44]
 1760 068c 04F10B00 		add	r0, r4, #11
 1761              	.LVL230:
 1762              		.loc 1 1076 5 is_stmt 0 view .LVU694
 1763 0690 FFF7FEFF 		bl	_fx_utility_16_unsigned_write
 1764              	.LVL231:
1077:Middlewares/ST/filex/common/src/fx_directory_entry_write.c ****     work_ptr =  work_ptr + 2;  /* Always 2 bytes  */
 1765              		.loc 1 1077 5 is_stmt 1 view .LVU695
1078:Middlewares/ST/filex/common/src/fx_directory_entry_write.c **** 
1079:Middlewares/ST/filex/common/src/fx_directory_entry_write.c ****     /* Copy the date into the destination.  */
1080:Middlewares/ST/filex/common/src/fx_directory_entry_write.c ****     _fx_utility_16_unsigned_write(work_ptr, entry_ptr -> fx_dir_entry_date);
 1766              		.loc 1 1080 5 view .LVU696
 1767 0694 296B     		ldr	r1, [r5, #48]
 1768 0696 04F10D00 		add	r0, r4, #13
 1769              	.LVL232:
 1770              		.loc 1 1080 5 is_stmt 0 view .LVU697
 1771 069a FFF7FEFF 		bl	_fx_utility_16_unsigned_write
 1772              	.LVL233:
1081:Middlewares/ST/filex/common/src/fx_directory_entry_write.c ****     work_ptr =  work_ptr + 2;  /* Always 2 bytes  */
 1773              		.loc 1 1081 5 is_stmt 1 view .LVU698
1082:Middlewares/ST/filex/common/src/fx_directory_entry_write.c **** 
1083:Middlewares/ST/filex/common/src/fx_directory_entry_write.c ****     /* Copy the starting cluster into the destination.  */
1084:Middlewares/ST/filex/common/src/fx_directory_entry_write.c ****     _fx_utility_16_unsigned_write(work_ptr, (UINT)entry_ptr -> fx_dir_entry_cluster);
 1774              		.loc 1 1084 5 view .LVU699
 1775 069e 696B     		ldr	r1, [r5, #52]
 1776 06a0 04F10F00 		add	r0, r4, #15
 1777              	.LVL234:
 1778              		.loc 1 1084 5 is_stmt 0 view .LVU700
 1779 06a4 FFF7FEFF 		bl	_fx_utility_16_unsigned_write
 1780              	.LVL235:
1085:Middlewares/ST/filex/common/src/fx_directory_entry_write.c ****     work_ptr =  work_ptr + 2;  /* Always 2 bytes  */
 1781              		.loc 1 1085 5 is_stmt 1 view .LVU701
1086:Middlewares/ST/filex/common/src/fx_directory_entry_write.c **** 
1087:Middlewares/ST/filex/common/src/fx_directory_entry_write.c ****     /* Copy the file size into the destination.  */
1088:Middlewares/ST/filex/common/src/fx_directory_entry_write.c ****     _fx_utility_32_unsigned_write(work_ptr, (ULONG)entry_ptr -> fx_dir_entry_file_size);
 1782              		.loc 1 1088 5 view .LVU702
 1783 06a8 A96B     		ldr	r1, [r5, #56]
 1784 06aa 04F11100 		add	r0, r4, #17
 1785              	.LVL236:
 1786              		.loc 1 1088 5 is_stmt 0 view .LVU703
 1787 06ae FFF7FEFF 		bl	_fx_utility_32_unsigned_write
 1788              	.LVL237:
1089:Middlewares/ST/filex/common/src/fx_directory_entry_write.c **** 
1090:Middlewares/ST/filex/common/src/fx_directory_entry_write.c **** #ifdef FX_ENABLE_FAULT_TOLERANT
1091:Middlewares/ST/filex/common/src/fx_directory_entry_write.c ****     /* Update changed_size. */
1092:Middlewares/ST/filex/common/src/fx_directory_entry_write.c ****     changed_size += FX_DIR_ENTRY_SIZE;
1093:Middlewares/ST/filex/common/src/fx_directory_entry_write.c **** 
1094:Middlewares/ST/filex/common/src/fx_directory_entry_write.c ****     if (media_ptr -> fx_media_fault_tolerant_enabled &&
1095:Middlewares/ST/filex/common/src/fx_directory_entry_write.c ****         (media_ptr -> fx_media_fault_tolerant_state & FX_FAULT_TOLERANT_STATE_STARTED))
1096:Middlewares/ST/filex/common/src/fx_directory_entry_write.c ****     {
1097:Middlewares/ST/filex/common/src/fx_directory_entry_write.c **** 
1098:Middlewares/ST/filex/common/src/fx_directory_entry_write.c ****         /* Redirect this request to log file. */
1099:Middlewares/ST/filex/common/src/fx_directory_entry_write.c ****         status = _fx_fault_tolerant_add_dir_log(media_ptr, (ULONG64) logical_sector, changed_offset
1100:Middlewares/ST/filex/common/src/fx_directory_entry_write.c ****     }
1101:Middlewares/ST/filex/common/src/fx_directory_entry_write.c ****     else
1102:Middlewares/ST/filex/common/src/fx_directory_entry_write.c ****     {
1103:Middlewares/ST/filex/common/src/fx_directory_entry_write.c **** #endif /* FX_ENABLE_FAULT_TOLERANT */
ARM GAS  C:\Users\HP\AppData\Local\Temp\ccs6anBT.s 			page 62


1104:Middlewares/ST/filex/common/src/fx_directory_entry_write.c **** 
1105:Middlewares/ST/filex/common/src/fx_directory_entry_write.c ****         /* Write the directory sector to the media.  */
