ARM GAS  C:\Users\HP\AppData\Local\Temp\ccoJJjc7.s 			page 1


   1              		.cpu cortex-m4
   2              		.arch armv7e-m
   3              		.fpu fpv4-sp-d16
   4              		.eabi_attribute 27, 1
   5              		.eabi_attribute 28, 1
   6              		.eabi_attribute 20, 1
   7              		.eabi_attribute 21, 1
   8              		.eabi_attribute 23, 3
   9              		.eabi_attribute 24, 1
  10              		.eabi_attribute 25, 1
  11              		.eabi_attribute 26, 1
  12              		.eabi_attribute 30, 1
  13              		.eabi_attribute 34, 1
  14              		.eabi_attribute 18, 4
  15              		.file	"fx_directory_information_get.c"
  16              		.text
  17              	.Ltext0:
  18              		.cfi_sections	.debug_frame
  19              		.section	.text._fx_directory_information_get,"ax",%progbits
  20              		.align	1
  21              		.global	_fx_directory_information_get
  22              		.syntax unified
  23              		.thumb
  24              		.thumb_func
  26              	_fx_directory_information_get:
  27              	.LVL0:
  28              	.LFB8:
  29              		.file 1 "Middlewares/ST/filex/common/src/fx_directory_information_get.c"
   1:Middlewares/ST/filex/common/src/fx_directory_information_get.c **** /**************************************************************************/
   2:Middlewares/ST/filex/common/src/fx_directory_information_get.c **** /*                                                                        */
   3:Middlewares/ST/filex/common/src/fx_directory_information_get.c **** /*       Copyright (c) Microsoft Corporation. All rights reserved.        */
   4:Middlewares/ST/filex/common/src/fx_directory_information_get.c **** /*                                                                        */
   5:Middlewares/ST/filex/common/src/fx_directory_information_get.c **** /*       This software is licensed under the Microsoft Software License   */
   6:Middlewares/ST/filex/common/src/fx_directory_information_get.c **** /*       Terms for Microsoft Azure RTOS. Full text of the license can be  */
   7:Middlewares/ST/filex/common/src/fx_directory_information_get.c **** /*       found in the LICENSE file at https://aka.ms/AzureRTOS_EULA       */
   8:Middlewares/ST/filex/common/src/fx_directory_information_get.c **** /*       and in the root directory of this software.                      */
   9:Middlewares/ST/filex/common/src/fx_directory_information_get.c **** /*                                                                        */
  10:Middlewares/ST/filex/common/src/fx_directory_information_get.c **** /**************************************************************************/
  11:Middlewares/ST/filex/common/src/fx_directory_information_get.c **** 
  12:Middlewares/ST/filex/common/src/fx_directory_information_get.c **** 
  13:Middlewares/ST/filex/common/src/fx_directory_information_get.c **** /**************************************************************************/
  14:Middlewares/ST/filex/common/src/fx_directory_information_get.c **** /**************************************************************************/
  15:Middlewares/ST/filex/common/src/fx_directory_information_get.c **** /**                                                                       */
  16:Middlewares/ST/filex/common/src/fx_directory_information_get.c **** /** FileX Component                                                       */
  17:Middlewares/ST/filex/common/src/fx_directory_information_get.c **** /**                                                                       */
  18:Middlewares/ST/filex/common/src/fx_directory_information_get.c **** /**   Directory                                                           */
  19:Middlewares/ST/filex/common/src/fx_directory_information_get.c **** /**                                                                       */
  20:Middlewares/ST/filex/common/src/fx_directory_information_get.c **** /**************************************************************************/
  21:Middlewares/ST/filex/common/src/fx_directory_information_get.c **** /**************************************************************************/
  22:Middlewares/ST/filex/common/src/fx_directory_information_get.c **** 
  23:Middlewares/ST/filex/common/src/fx_directory_information_get.c **** #define FX_SOURCE_CODE
  24:Middlewares/ST/filex/common/src/fx_directory_information_get.c **** 
  25:Middlewares/ST/filex/common/src/fx_directory_information_get.c **** 
  26:Middlewares/ST/filex/common/src/fx_directory_information_get.c **** /* Include necessary system files.  */
  27:Middlewares/ST/filex/common/src/fx_directory_information_get.c **** 
  28:Middlewares/ST/filex/common/src/fx_directory_information_get.c **** #include "fx_api.h"
  29:Middlewares/ST/filex/common/src/fx_directory_information_get.c **** #include "fx_system.h"
ARM GAS  C:\Users\HP\AppData\Local\Temp\ccoJJjc7.s 			page 2


  30:Middlewares/ST/filex/common/src/fx_directory_information_get.c **** #include "fx_directory.h"
  31:Middlewares/ST/filex/common/src/fx_directory_information_get.c **** #include "fx_file.h"
  32:Middlewares/ST/filex/common/src/fx_directory_information_get.c **** #include "fx_utility.h"
  33:Middlewares/ST/filex/common/src/fx_directory_information_get.c **** 
  34:Middlewares/ST/filex/common/src/fx_directory_information_get.c **** 
  35:Middlewares/ST/filex/common/src/fx_directory_information_get.c **** /**************************************************************************/
  36:Middlewares/ST/filex/common/src/fx_directory_information_get.c **** /*                                                                        */
  37:Middlewares/ST/filex/common/src/fx_directory_information_get.c **** /*  FUNCTION                                               RELEASE        */
  38:Middlewares/ST/filex/common/src/fx_directory_information_get.c **** /*                                                                        */
  39:Middlewares/ST/filex/common/src/fx_directory_information_get.c **** /*    _fx_directory_information_get                       PORTABLE C      */
  40:Middlewares/ST/filex/common/src/fx_directory_information_get.c **** /*                                                           6.1          */
  41:Middlewares/ST/filex/common/src/fx_directory_information_get.c **** /*  AUTHOR                                                                */
  42:Middlewares/ST/filex/common/src/fx_directory_information_get.c **** /*                                                                        */
  43:Middlewares/ST/filex/common/src/fx_directory_information_get.c **** /*    William E. Lamie, Microsoft Corporation                             */
  44:Middlewares/ST/filex/common/src/fx_directory_information_get.c **** /*                                                                        */
  45:Middlewares/ST/filex/common/src/fx_directory_information_get.c **** /*  DESCRIPTION                                                           */
  46:Middlewares/ST/filex/common/src/fx_directory_information_get.c **** /*                                                                        */
  47:Middlewares/ST/filex/common/src/fx_directory_information_get.c **** /*    This function first attempts to find the specified directory name.  */
  48:Middlewares/ST/filex/common/src/fx_directory_information_get.c **** /*    If found, the complete file parameters are placed in all non-NULL   */
  49:Middlewares/ST/filex/common/src/fx_directory_information_get.c **** /*    return parameters.  If the file name is not found, the appropriate  */
  50:Middlewares/ST/filex/common/src/fx_directory_information_get.c **** /*    error code is returned to the caller.                               */
  51:Middlewares/ST/filex/common/src/fx_directory_information_get.c **** /*                                                                        */
  52:Middlewares/ST/filex/common/src/fx_directory_information_get.c **** /*  INPUT                                                                 */
  53:Middlewares/ST/filex/common/src/fx_directory_information_get.c **** /*                                                                        */
  54:Middlewares/ST/filex/common/src/fx_directory_information_get.c **** /*    media_ptr                             Media control block pointer   */
  55:Middlewares/ST/filex/common/src/fx_directory_information_get.c **** /*    directory_name                        Directory name pointer        */
  56:Middlewares/ST/filex/common/src/fx_directory_information_get.c **** /*    attributes                            Pointer to attributes         */
  57:Middlewares/ST/filex/common/src/fx_directory_information_get.c **** /*    size                                  Pointer to size               */
  58:Middlewares/ST/filex/common/src/fx_directory_information_get.c **** /*    year                                  Pointer to year               */
  59:Middlewares/ST/filex/common/src/fx_directory_information_get.c **** /*    month                                 Pointer to month              */
  60:Middlewares/ST/filex/common/src/fx_directory_information_get.c **** /*    day                                   Pointer to day                */
  61:Middlewares/ST/filex/common/src/fx_directory_information_get.c **** /*    hour                                  Pointer to hour               */
  62:Middlewares/ST/filex/common/src/fx_directory_information_get.c **** /*    minute                                Pointer to minute             */
  63:Middlewares/ST/filex/common/src/fx_directory_information_get.c **** /*    second                                Pointer to second             */
  64:Middlewares/ST/filex/common/src/fx_directory_information_get.c **** /*                                                                        */
  65:Middlewares/ST/filex/common/src/fx_directory_information_get.c **** /*  OUTPUT                                                                */
  66:Middlewares/ST/filex/common/src/fx_directory_information_get.c **** /*                                                                        */
  67:Middlewares/ST/filex/common/src/fx_directory_information_get.c **** /*    return status                                                       */
  68:Middlewares/ST/filex/common/src/fx_directory_information_get.c **** /*                                                                        */
  69:Middlewares/ST/filex/common/src/fx_directory_information_get.c **** /*  CALLS                                                                 */
  70:Middlewares/ST/filex/common/src/fx_directory_information_get.c **** /*                                                                        */
  71:Middlewares/ST/filex/common/src/fx_directory_information_get.c **** /*    _fx_directory_search                  Search for the file name in   */
  72:Middlewares/ST/filex/common/src/fx_directory_information_get.c **** /*                                          the directory structure       */
  73:Middlewares/ST/filex/common/src/fx_directory_information_get.c **** /*                                                                        */
  74:Middlewares/ST/filex/common/src/fx_directory_information_get.c **** /*  CALLED BY                                                             */
  75:Middlewares/ST/filex/common/src/fx_directory_information_get.c **** /*                                                                        */
  76:Middlewares/ST/filex/common/src/fx_directory_information_get.c **** /*    Application Code                                                    */
  77:Middlewares/ST/filex/common/src/fx_directory_information_get.c **** /*                                                                        */
  78:Middlewares/ST/filex/common/src/fx_directory_information_get.c **** /*  RELEASE HISTORY                                                       */
  79:Middlewares/ST/filex/common/src/fx_directory_information_get.c **** /*                                                                        */
  80:Middlewares/ST/filex/common/src/fx_directory_information_get.c **** /*    DATE              NAME                      DESCRIPTION             */
  81:Middlewares/ST/filex/common/src/fx_directory_information_get.c **** /*                                                                        */
  82:Middlewares/ST/filex/common/src/fx_directory_information_get.c **** /*  05-19-2020     William E. Lamie         Initial Version 6.0           */
  83:Middlewares/ST/filex/common/src/fx_directory_information_get.c **** /*  09-30-2020     William E. Lamie         Modified comment(s), verified */
  84:Middlewares/ST/filex/common/src/fx_directory_information_get.c **** /*                                            memcpy usage,               */
  85:Middlewares/ST/filex/common/src/fx_directory_information_get.c **** /*                                            resulting in version 6.1    */
  86:Middlewares/ST/filex/common/src/fx_directory_information_get.c **** /*                                                                        */
ARM GAS  C:\Users\HP\AppData\Local\Temp\ccoJJjc7.s 			page 3


  87:Middlewares/ST/filex/common/src/fx_directory_information_get.c **** /**************************************************************************/
  88:Middlewares/ST/filex/common/src/fx_directory_information_get.c **** UINT  _fx_directory_information_get(FX_MEDIA *media_ptr, CHAR *directory_name,
  89:Middlewares/ST/filex/common/src/fx_directory_information_get.c ****                                     UINT *attributes, ULONG *size,
  90:Middlewares/ST/filex/common/src/fx_directory_information_get.c ****                                     UINT *year, UINT *month, UINT *day,
  91:Middlewares/ST/filex/common/src/fx_directory_information_get.c ****                                     UINT *hour, UINT *minute, UINT *second)
  92:Middlewares/ST/filex/common/src/fx_directory_information_get.c **** {
  30              		.loc 1 92 1 view -0
  31              		.cfi_startproc
  32              		@ args = 24, pretend = 0, frame = 112
  33              		@ frame_needed = 0, uses_anonymous_args = 0
  34              		.loc 1 92 1 is_stmt 0 view .LVU1
  35 0000 2DE9F047 		push	{r4, r5, r6, r7, r8, r9, r10, lr}
  36              	.LCFI0:
  37              		.cfi_def_cfa_offset 32
  38              		.cfi_offset 4, -32
  39              		.cfi_offset 5, -28
  40              		.cfi_offset 6, -24
  41              		.cfi_offset 7, -20
  42              		.cfi_offset 8, -16
  43              		.cfi_offset 9, -12
  44              		.cfi_offset 10, -8
  45              		.cfi_offset 14, -4
  46 0004 9EB0     		sub	sp, sp, #120
  47              	.LCFI1:
  48              		.cfi_def_cfa_offset 152
  49 0006 1546     		mov	r5, r2
  50 0008 9946     		mov	r9, r3
  93:Middlewares/ST/filex/common/src/fx_directory_information_get.c **** 
  94:Middlewares/ST/filex/common/src/fx_directory_information_get.c **** UINT         status;
  51              		.loc 1 94 1 is_stmt 1 view .LVU2
  95:Middlewares/ST/filex/common/src/fx_directory_information_get.c **** FX_DIR_ENTRY dir_entry;
  52              		.loc 1 95 1 view .LVU3
  96:Middlewares/ST/filex/common/src/fx_directory_information_get.c **** ULONG        open_count;
  53              		.loc 1 96 1 view .LVU4
  97:Middlewares/ST/filex/common/src/fx_directory_information_get.c **** FX_FILE     *search_ptr;
  54              		.loc 1 97 1 view .LVU5
  98:Middlewares/ST/filex/common/src/fx_directory_information_get.c **** 
  99:Middlewares/ST/filex/common/src/fx_directory_information_get.c **** 
 100:Middlewares/ST/filex/common/src/fx_directory_information_get.c **** #ifndef FX_MEDIA_STATISTICS_DISABLE
 101:Middlewares/ST/filex/common/src/fx_directory_information_get.c **** 
 102:Middlewares/ST/filex/common/src/fx_directory_information_get.c ****     /* Increment the number of times this service has been called.  */
 103:Middlewares/ST/filex/common/src/fx_directory_information_get.c ****     media_ptr -> fx_media_directory_information_gets++;
  55              		.loc 1 103 5 view .LVU6
  56              		.loc 1 103 15 is_stmt 0 view .LVU7
  57 000a D0F8F830 		ldr	r3, [r0, #248]
  58              	.LVL1:
  59              		.loc 1 103 53 view .LVU8
  60 000e 0133     		adds	r3, r3, #1
  61 0010 C0F8F830 		str	r3, [r0, #248]
 104:Middlewares/ST/filex/common/src/fx_directory_information_get.c **** #endif
 105:Middlewares/ST/filex/common/src/fx_directory_information_get.c **** 
 106:Middlewares/ST/filex/common/src/fx_directory_information_get.c ****     /* Setup pointer to media name buffer.  */
 107:Middlewares/ST/filex/common/src/fx_directory_information_get.c ****     dir_entry.fx_dir_entry_name =  media_ptr -> fx_media_name_buffer + FX_MAX_LONG_NAME_LEN;
  62              		.loc 1 107 5 is_stmt 1 view .LVU9
  63              		.loc 1 107 70 is_stmt 0 view .LVU10
  64 0014 00F69C13 		addw	r3, r0, #2460
  65              		.loc 1 107 33 view .LVU11
ARM GAS  C:\Users\HP\AppData\Local\Temp\ccoJJjc7.s 			page 4


  66 0018 0293     		str	r3, [sp, #8]
 108:Middlewares/ST/filex/common/src/fx_directory_information_get.c **** 
 109:Middlewares/ST/filex/common/src/fx_directory_information_get.c ****     /* Clear the short name string.  */
 110:Middlewares/ST/filex/common/src/fx_directory_information_get.c ****     dir_entry.fx_dir_entry_short_name[0] =  0;
  67              		.loc 1 110 5 is_stmt 1 view .LVU12
  68              		.loc 1 110 42 is_stmt 0 view .LVU13
  69 001a 0023     		movs	r3, #0
  70 001c 8DF80C30 		strb	r3, [sp, #12]
 111:Middlewares/ST/filex/common/src/fx_directory_information_get.c **** 
 112:Middlewares/ST/filex/common/src/fx_directory_information_get.c ****     /* Check the media to make sure it is open.  */
 113:Middlewares/ST/filex/common/src/fx_directory_information_get.c ****     if (media_ptr -> fx_media_id != FX_MEDIA_ID)
  71              		.loc 1 113 5 is_stmt 1 view .LVU14
  72              		.loc 1 113 19 is_stmt 0 view .LVU15
  73 0020 0268     		ldr	r2, [r0]
  74              	.LVL2:
  75              		.loc 1 113 8 view .LVU16
  76 0022 3E4B     		ldr	r3, .L21
  77 0024 9A42     		cmp	r2, r3
  78 0026 04D0     		beq	.L19
 114:Middlewares/ST/filex/common/src/fx_directory_information_get.c ****     {
 115:Middlewares/ST/filex/common/src/fx_directory_information_get.c **** 
 116:Middlewares/ST/filex/common/src/fx_directory_information_get.c ****         /* Return the media not opened error.  */
 117:Middlewares/ST/filex/common/src/fx_directory_information_get.c ****         return(FX_MEDIA_NOT_OPEN);
  79              		.loc 1 117 15 view .LVU17
  80 0028 1126     		movs	r6, #17
  81              	.LVL3:
  82              	.L1:
 118:Middlewares/ST/filex/common/src/fx_directory_information_get.c ****     }
 119:Middlewares/ST/filex/common/src/fx_directory_information_get.c **** 
 120:Middlewares/ST/filex/common/src/fx_directory_information_get.c ****     /* If trace is enabled, insert this event into the trace buffer.  */
 121:Middlewares/ST/filex/common/src/fx_directory_information_get.c ****     FX_TRACE_IN_LINE_INSERT(FX_TRACE_DIRECTORY_INFORMATION_GET, media_ptr, directory_name, 0, 0, FX
 122:Middlewares/ST/filex/common/src/fx_directory_information_get.c **** 
 123:Middlewares/ST/filex/common/src/fx_directory_information_get.c ****     /* Protect against other threads accessing the media.  */
 124:Middlewares/ST/filex/common/src/fx_directory_information_get.c ****     FX_PROTECT
 125:Middlewares/ST/filex/common/src/fx_directory_information_get.c **** 
 126:Middlewares/ST/filex/common/src/fx_directory_information_get.c ****     /* Search the system for the supplied directory name.  */
 127:Middlewares/ST/filex/common/src/fx_directory_information_get.c ****     status =  _fx_directory_search(media_ptr, directory_name, &dir_entry, FX_NULL, FX_NULL);
 128:Middlewares/ST/filex/common/src/fx_directory_information_get.c **** 
 129:Middlewares/ST/filex/common/src/fx_directory_information_get.c ****     /* Determine if the search was successful.  */
 130:Middlewares/ST/filex/common/src/fx_directory_information_get.c ****     if (status != FX_SUCCESS)
 131:Middlewares/ST/filex/common/src/fx_directory_information_get.c ****     {
 132:Middlewares/ST/filex/common/src/fx_directory_information_get.c **** 
 133:Middlewares/ST/filex/common/src/fx_directory_information_get.c ****         /* Release media protection.  */
 134:Middlewares/ST/filex/common/src/fx_directory_information_get.c ****         FX_UNPROTECT
 135:Middlewares/ST/filex/common/src/fx_directory_information_get.c **** 
 136:Middlewares/ST/filex/common/src/fx_directory_information_get.c ****         /* Return the error code.  */
 137:Middlewares/ST/filex/common/src/fx_directory_information_get.c ****         return(status);
 138:Middlewares/ST/filex/common/src/fx_directory_information_get.c ****     }
 139:Middlewares/ST/filex/common/src/fx_directory_information_get.c **** 
 140:Middlewares/ST/filex/common/src/fx_directory_information_get.c ****     /* Check the list of open files for others open for writing.  */
 141:Middlewares/ST/filex/common/src/fx_directory_information_get.c ****     open_count =  media_ptr -> fx_media_opened_file_count;
 142:Middlewares/ST/filex/common/src/fx_directory_information_get.c ****     search_ptr =  media_ptr -> fx_media_opened_file_list;
 143:Middlewares/ST/filex/common/src/fx_directory_information_get.c ****     while (open_count)
 144:Middlewares/ST/filex/common/src/fx_directory_information_get.c ****     {
 145:Middlewares/ST/filex/common/src/fx_directory_information_get.c **** 
 146:Middlewares/ST/filex/common/src/fx_directory_information_get.c ****         /* Look at each opened file to see if the same file is opened
 147:Middlewares/ST/filex/common/src/fx_directory_information_get.c ****            for writing.  */
ARM GAS  C:\Users\HP\AppData\Local\Temp\ccoJJjc7.s 			page 5


 148:Middlewares/ST/filex/common/src/fx_directory_information_get.c ****         if ((search_ptr -> fx_file_dir_entry.fx_dir_entry_log_sector == dir_entry.fx_dir_entry_log_
 149:Middlewares/ST/filex/common/src/fx_directory_information_get.c ****             (search_ptr -> fx_file_dir_entry.fx_dir_entry_byte_offset == dir_entry.fx_dir_entry_byt
 150:Middlewares/ST/filex/common/src/fx_directory_information_get.c ****             (search_ptr -> fx_file_open_mode))
 151:Middlewares/ST/filex/common/src/fx_directory_information_get.c ****         {
 152:Middlewares/ST/filex/common/src/fx_directory_information_get.c **** 
 153:Middlewares/ST/filex/common/src/fx_directory_information_get.c ****             /* The file has been opened for writing by a previous call. Use the information used by
 154:Middlewares/ST/filex/common/src/fx_directory_information_get.c ****                the writer instead of what is currently on the media.  */
 155:Middlewares/ST/filex/common/src/fx_directory_information_get.c ****             _fx_utility_memory_copy((UCHAR *)&search_ptr -> fx_file_dir_entry, (UCHAR *)&dir_entry,
 156:Middlewares/ST/filex/common/src/fx_directory_information_get.c ****             break;
 157:Middlewares/ST/filex/common/src/fx_directory_information_get.c ****         }
 158:Middlewares/ST/filex/common/src/fx_directory_information_get.c **** 
 159:Middlewares/ST/filex/common/src/fx_directory_information_get.c ****         /* Adjust the pointer and decrement the search count.  */
 160:Middlewares/ST/filex/common/src/fx_directory_information_get.c ****         search_ptr =  search_ptr -> fx_file_opened_next;
 161:Middlewares/ST/filex/common/src/fx_directory_information_get.c ****         open_count--;
 162:Middlewares/ST/filex/common/src/fx_directory_information_get.c ****     }
 163:Middlewares/ST/filex/common/src/fx_directory_information_get.c **** 
 164:Middlewares/ST/filex/common/src/fx_directory_information_get.c ****     /* Check to see if attributes are required.  */
 165:Middlewares/ST/filex/common/src/fx_directory_information_get.c ****     if (attributes)
 166:Middlewares/ST/filex/common/src/fx_directory_information_get.c ****     {
 167:Middlewares/ST/filex/common/src/fx_directory_information_get.c **** 
 168:Middlewares/ST/filex/common/src/fx_directory_information_get.c ****         /* Pickup the attributes.  */
 169:Middlewares/ST/filex/common/src/fx_directory_information_get.c ****         *attributes =  dir_entry.fx_dir_entry_attributes;
 170:Middlewares/ST/filex/common/src/fx_directory_information_get.c ****     }
 171:Middlewares/ST/filex/common/src/fx_directory_information_get.c **** 
 172:Middlewares/ST/filex/common/src/fx_directory_information_get.c ****     /* Check to see if the size is required.  */
 173:Middlewares/ST/filex/common/src/fx_directory_information_get.c ****     if (size)
 174:Middlewares/ST/filex/common/src/fx_directory_information_get.c ****     {
 175:Middlewares/ST/filex/common/src/fx_directory_information_get.c **** 
 176:Middlewares/ST/filex/common/src/fx_directory_information_get.c ****         /* Pickup the size.  */
 177:Middlewares/ST/filex/common/src/fx_directory_information_get.c ****         *size =  (ULONG)dir_entry.fx_dir_entry_file_size;
 178:Middlewares/ST/filex/common/src/fx_directory_information_get.c ****     }
 179:Middlewares/ST/filex/common/src/fx_directory_information_get.c **** 
 180:Middlewares/ST/filex/common/src/fx_directory_information_get.c ****     /* Check to see if the year is required.  */
 181:Middlewares/ST/filex/common/src/fx_directory_information_get.c ****     if (year)
 182:Middlewares/ST/filex/common/src/fx_directory_information_get.c ****     {
 183:Middlewares/ST/filex/common/src/fx_directory_information_get.c **** 
 184:Middlewares/ST/filex/common/src/fx_directory_information_get.c ****         /* Pickup the year.  */
 185:Middlewares/ST/filex/common/src/fx_directory_information_get.c ****         *year =  ((dir_entry.fx_dir_entry_date >> FX_YEAR_SHIFT) & FX_YEAR_MASK) +
 186:Middlewares/ST/filex/common/src/fx_directory_information_get.c ****                                                                         FX_BASE_YEAR;
 187:Middlewares/ST/filex/common/src/fx_directory_information_get.c ****     }
 188:Middlewares/ST/filex/common/src/fx_directory_information_get.c **** 
 189:Middlewares/ST/filex/common/src/fx_directory_information_get.c ****     /* Check to see if the month is required.  */
 190:Middlewares/ST/filex/common/src/fx_directory_information_get.c ****     if (month)
 191:Middlewares/ST/filex/common/src/fx_directory_information_get.c ****     {
 192:Middlewares/ST/filex/common/src/fx_directory_information_get.c **** 
 193:Middlewares/ST/filex/common/src/fx_directory_information_get.c ****         /* Pickup the month.  */
 194:Middlewares/ST/filex/common/src/fx_directory_information_get.c ****         *month =  (dir_entry.fx_dir_entry_date >> FX_MONTH_SHIFT) & FX_MONTH_MASK;
 195:Middlewares/ST/filex/common/src/fx_directory_information_get.c ****     }
 196:Middlewares/ST/filex/common/src/fx_directory_information_get.c **** 
 197:Middlewares/ST/filex/common/src/fx_directory_information_get.c ****     /* Check to see if the day is required.  */
 198:Middlewares/ST/filex/common/src/fx_directory_information_get.c ****     if (day)
 199:Middlewares/ST/filex/common/src/fx_directory_information_get.c ****     {
 200:Middlewares/ST/filex/common/src/fx_directory_information_get.c **** 
 201:Middlewares/ST/filex/common/src/fx_directory_information_get.c ****         /* Pickup the day.  */
 202:Middlewares/ST/filex/common/src/fx_directory_information_get.c ****         *day =  dir_entry.fx_dir_entry_date & FX_DAY_MASK;
 203:Middlewares/ST/filex/common/src/fx_directory_information_get.c ****     }
 204:Middlewares/ST/filex/common/src/fx_directory_information_get.c **** 
ARM GAS  C:\Users\HP\AppData\Local\Temp\ccoJJjc7.s 			page 6


 205:Middlewares/ST/filex/common/src/fx_directory_information_get.c ****     /* Check to see if the hour is required.  */
 206:Middlewares/ST/filex/common/src/fx_directory_information_get.c ****     if (hour)
 207:Middlewares/ST/filex/common/src/fx_directory_information_get.c ****     {
 208:Middlewares/ST/filex/common/src/fx_directory_information_get.c **** 
 209:Middlewares/ST/filex/common/src/fx_directory_information_get.c ****         /* Pickup the hour.  */
 210:Middlewares/ST/filex/common/src/fx_directory_information_get.c ****         *hour =  (dir_entry.fx_dir_entry_time >> FX_HOUR_SHIFT) & FX_HOUR_MASK;
 211:Middlewares/ST/filex/common/src/fx_directory_information_get.c ****     }
 212:Middlewares/ST/filex/common/src/fx_directory_information_get.c **** 
 213:Middlewares/ST/filex/common/src/fx_directory_information_get.c ****     /* Check to see if the minute is required.  */
 214:Middlewares/ST/filex/common/src/fx_directory_information_get.c ****     if (minute)
 215:Middlewares/ST/filex/common/src/fx_directory_information_get.c ****     {
 216:Middlewares/ST/filex/common/src/fx_directory_information_get.c **** 
 217:Middlewares/ST/filex/common/src/fx_directory_information_get.c ****         /* Pickup the minute.  */
 218:Middlewares/ST/filex/common/src/fx_directory_information_get.c ****         *minute =  (dir_entry.fx_dir_entry_time >> FX_MINUTE_SHIFT) & FX_MINUTE_MASK;
 219:Middlewares/ST/filex/common/src/fx_directory_information_get.c ****     }
 220:Middlewares/ST/filex/common/src/fx_directory_information_get.c **** 
 221:Middlewares/ST/filex/common/src/fx_directory_information_get.c ****     /* Check to see if the second is required.  */
 222:Middlewares/ST/filex/common/src/fx_directory_information_get.c ****     if (second)
 223:Middlewares/ST/filex/common/src/fx_directory_information_get.c ****     {
 224:Middlewares/ST/filex/common/src/fx_directory_information_get.c **** 
 225:Middlewares/ST/filex/common/src/fx_directory_information_get.c ****         /* Pickup the second.  */
 226:Middlewares/ST/filex/common/src/fx_directory_information_get.c ****         *second =  (dir_entry.fx_dir_entry_time & FX_SECOND_MASK) * 2;
 227:Middlewares/ST/filex/common/src/fx_directory_information_get.c ****     }
 228:Middlewares/ST/filex/common/src/fx_directory_information_get.c **** 
 229:Middlewares/ST/filex/common/src/fx_directory_information_get.c ****     /* Release media protection.  */
 230:Middlewares/ST/filex/common/src/fx_directory_information_get.c ****     FX_UNPROTECT
 231:Middlewares/ST/filex/common/src/fx_directory_information_get.c **** 
 232:Middlewares/ST/filex/common/src/fx_directory_information_get.c ****     /* Directory information get is complete, return successful status.  */
 233:Middlewares/ST/filex/common/src/fx_directory_information_get.c ****     return(FX_SUCCESS);
 234:Middlewares/ST/filex/common/src/fx_directory_information_get.c **** }
  83              		.loc 1 234 1 view .LVU18
  84 002a 3046     		mov	r0, r6
  85 002c 1EB0     		add	sp, sp, #120
  86              	.LCFI2:
  87              		.cfi_remember_state
  88              		.cfi_def_cfa_offset 32
  89              		@ sp needed
  90 002e BDE8F087 		pop	{r4, r5, r6, r7, r8, r9, r10, pc}
  91              	.LVL4:
  92              	.L19:
  93              	.LCFI3:
  94              		.cfi_restore_state
  95              		.loc 1 234 1 view .LVU19
  96 0032 8046     		mov	r8, r0
  97 0034 0E46     		mov	r6, r1
 124:Middlewares/ST/filex/common/src/fx_directory_information_get.c **** 
  98              		.loc 1 124 5 is_stmt 1 discriminator 2 view .LVU20
 124:Middlewares/ST/filex/common/src/fx_directory_information_get.c **** 
  99              		.loc 1 124 5 discriminator 2 view .LVU21
 100 0036 00F5E47A 		add	r10, r0, #456
 101 003a 4FF0FF31 		mov	r1, #-1
 102              	.LVL5:
 124:Middlewares/ST/filex/common/src/fx_directory_information_get.c **** 
 103              		.loc 1 124 5 is_stmt 0 discriminator 2 view .LVU22
 104 003e 5046     		mov	r0, r10
 105              	.LVL6:
 124:Middlewares/ST/filex/common/src/fx_directory_information_get.c **** 
ARM GAS  C:\Users\HP\AppData\Local\Temp\ccoJJjc7.s 			page 7


 106              		.loc 1 124 5 discriminator 2 view .LVU23
 107 0040 FFF7FEFF 		bl	_tx_mutex_get
 108              	.LVL7:
 109 0044 0028     		cmp	r0, #0
 110 0046 66D1     		bne	.L17
 127:Middlewares/ST/filex/common/src/fx_directory_information_get.c **** 
 111              		.loc 1 127 5 is_stmt 1 view .LVU24
 127:Middlewares/ST/filex/common/src/fx_directory_information_get.c **** 
 112              		.loc 1 127 15 is_stmt 0 view .LVU25
 113 0048 0023     		movs	r3, #0
 114 004a 0093     		str	r3, [sp]
 115 004c 02AA     		add	r2, sp, #8
 116 004e 3146     		mov	r1, r6
 117 0050 4046     		mov	r0, r8
 118 0052 FFF7FEFF 		bl	_fx_directory_search
 119              	.LVL8:
 130:Middlewares/ST/filex/common/src/fx_directory_information_get.c ****     {
 120              		.loc 1 130 5 is_stmt 1 view .LVU26
 130:Middlewares/ST/filex/common/src/fx_directory_information_get.c ****     {
 121              		.loc 1 130 8 is_stmt 0 view .LVU27
 122 0056 0646     		mov	r6, r0
 123              	.LVL9:
 130:Middlewares/ST/filex/common/src/fx_directory_information_get.c ****     {
 124              		.loc 1 130 8 view .LVU28
 125 0058 20B9     		cbnz	r0, .L20
 141:Middlewares/ST/filex/common/src/fx_directory_information_get.c ****     search_ptr =  media_ptr -> fx_media_opened_file_list;
 126              		.loc 1 141 5 is_stmt 1 view .LVU29
 141:Middlewares/ST/filex/common/src/fx_directory_information_get.c ****     search_ptr =  media_ptr -> fx_media_opened_file_list;
 127              		.loc 1 141 16 is_stmt 0 view .LVU30
 128 005a D8F8CC30 		ldr	r3, [r8, #204]
 129              	.LVL10:
 142:Middlewares/ST/filex/common/src/fx_directory_information_get.c ****     while (open_count)
 130              		.loc 1 142 5 is_stmt 1 view .LVU31
 142:Middlewares/ST/filex/common/src/fx_directory_information_get.c ****     while (open_count)
 131              		.loc 1 142 16 is_stmt 0 view .LVU32
 132 005e D8F8C800 		ldr	r0, [r8, #200]
 133              	.LVL11:
 143:Middlewares/ST/filex/common/src/fx_directory_information_get.c ****     {
 134              		.loc 1 143 5 is_stmt 1 view .LVU33
 143:Middlewares/ST/filex/common/src/fx_directory_information_get.c ****     {
 135              		.loc 1 143 11 is_stmt 0 view .LVU34
 136 0062 05E0     		b	.L4
 137              	.LVL12:
 138              	.L20:
 134:Middlewares/ST/filex/common/src/fx_directory_information_get.c **** 
 139              		.loc 1 134 9 is_stmt 1 view .LVU35
 140 0064 5046     		mov	r0, r10
 141              	.LVL13:
 134:Middlewares/ST/filex/common/src/fx_directory_information_get.c **** 
 142              		.loc 1 134 9 is_stmt 0 view .LVU36
 143 0066 FFF7FEFF 		bl	_tx_mutex_put
 144              	.LVL14:
 137:Middlewares/ST/filex/common/src/fx_directory_information_get.c ****     }
 145              		.loc 1 137 9 is_stmt 1 view .LVU37
 137:Middlewares/ST/filex/common/src/fx_directory_information_get.c ****     }
 146              		.loc 1 137 15 is_stmt 0 view .LVU38
 147 006a DEE7     		b	.L1
ARM GAS  C:\Users\HP\AppData\Local\Temp\ccoJJjc7.s 			page 8


 148              	.LVL15:
 149              	.L5:
 160:Middlewares/ST/filex/common/src/fx_directory_information_get.c ****         open_count--;
 150              		.loc 1 160 9 is_stmt 1 view .LVU39
 160:Middlewares/ST/filex/common/src/fx_directory_information_get.c ****         open_count--;
 151              		.loc 1 160 20 is_stmt 0 view .LVU40
 152 006c C06D     		ldr	r0, [r0, #92]
 153              	.LVL16:
 161:Middlewares/ST/filex/common/src/fx_directory_information_get.c ****     }
 154              		.loc 1 161 9 is_stmt 1 view .LVU41
 161:Middlewares/ST/filex/common/src/fx_directory_information_get.c ****     }
 155              		.loc 1 161 19 is_stmt 0 view .LVU42
 156 006e 013B     		subs	r3, r3, #1
 157              	.LVL17:
 158              	.L4:
 143:Middlewares/ST/filex/common/src/fx_directory_information_get.c ****     {
 159              		.loc 1 143 11 is_stmt 1 view .LVU43
 160 0070 B3B1     		cbz	r3, .L6
 148:Middlewares/ST/filex/common/src/fx_directory_information_get.c ****             (search_ptr -> fx_file_dir_entry.fx_dir_entry_byte_offset == dir_entry.fx_dir_entry_byt
 161              		.loc 1 148 9 view .LVU44
 148:Middlewares/ST/filex/common/src/fx_directory_information_get.c ****             (search_ptr -> fx_file_dir_entry.fx_dir_entry_byte_offset == dir_entry.fx_dir_entry_byt
 162              		.loc 1 148 12 is_stmt 0 view .LVU45
 163 0072 1399     		ldr	r1, [sp, #76]
 164 0074 D0F8A820 		ldr	r2, [r0, #168]
 165 0078 129F     		ldr	r7, [sp, #72]
 166 007a D0F8AC40 		ldr	r4, [r0, #172]
 167 007e 8C42     		cmp	r4, r1
 168 0080 08BF     		it	eq
 169 0082 BA42     		cmpeq	r2, r7
 170 0084 F2D1     		bne	.L5
 149:Middlewares/ST/filex/common/src/fx_directory_information_get.c ****             (search_ptr -> fx_file_open_mode))
 171              		.loc 1 149 45 discriminator 1 view .LVU46
 172 0086 D0F8B010 		ldr	r1, [r0, #176]
 149:Middlewares/ST/filex/common/src/fx_directory_information_get.c ****             (search_ptr -> fx_file_open_mode))
 173              		.loc 1 149 83 discriminator 1 view .LVU47
 174 008a 149A     		ldr	r2, [sp, #80]
 148:Middlewares/ST/filex/common/src/fx_directory_information_get.c ****             (search_ptr -> fx_file_dir_entry.fx_dir_entry_byte_offset == dir_entry.fx_dir_entry_byt
 175              		.loc 1 148 108 discriminator 1 view .LVU48
 176 008c 9142     		cmp	r1, r2
 177 008e EDD1     		bne	.L5
 150:Middlewares/ST/filex/common/src/fx_directory_information_get.c ****         {
 178              		.loc 1 150 25 view .LVU49
 179 0090 8268     		ldr	r2, [r0, #8]
 149:Middlewares/ST/filex/common/src/fx_directory_information_get.c ****             (search_ptr -> fx_file_open_mode))
 180              		.loc 1 149 110 view .LVU50
 181 0092 002A     		cmp	r2, #0
 182 0094 EAD0     		beq	.L5
 155:Middlewares/ST/filex/common/src/fx_directory_information_get.c ****             break;
 183              		.loc 1 155 13 is_stmt 1 view .LVU51
 184 0096 7022     		movs	r2, #112
 185 0098 02A9     		add	r1, sp, #8
 186 009a 6830     		adds	r0, r0, #104
 187              	.LVL18:
 155:Middlewares/ST/filex/common/src/fx_directory_information_get.c ****             break;
 188              		.loc 1 155 13 is_stmt 0 view .LVU52
 189 009c FFF7FEFF 		bl	_fx_utility_memory_copy
 190              	.LVL19:
ARM GAS  C:\Users\HP\AppData\Local\Temp\ccoJJjc7.s 			page 9


 156:Middlewares/ST/filex/common/src/fx_directory_information_get.c ****         }
 191              		.loc 1 156 13 is_stmt 1 view .LVU53
 192              	.L6:
 165:Middlewares/ST/filex/common/src/fx_directory_information_get.c ****     {
 193              		.loc 1 165 5 view .LVU54
 165:Middlewares/ST/filex/common/src/fx_directory_information_get.c ****     {
 194              		.loc 1 165 8 is_stmt 0 view .LVU55
 195 00a0 15B1     		cbz	r5, .L8
 169:Middlewares/ST/filex/common/src/fx_directory_information_get.c ****     }
 196              		.loc 1 169 9 is_stmt 1 view .LVU56
 169:Middlewares/ST/filex/common/src/fx_directory_information_get.c ****     }
 197              		.loc 1 169 33 is_stmt 0 view .LVU57
 198 00a2 9DF82430 		ldrb	r3, [sp, #36]	@ zero_extendqisi2
 169:Middlewares/ST/filex/common/src/fx_directory_information_get.c ****     }
 199              		.loc 1 169 21 view .LVU58
 200 00a6 2B60     		str	r3, [r5]
 201              	.L8:
 173:Middlewares/ST/filex/common/src/fx_directory_information_get.c ****     {
 202              		.loc 1 173 5 is_stmt 1 view .LVU59
 173:Middlewares/ST/filex/common/src/fx_directory_information_get.c ****     {
 203              		.loc 1 173 8 is_stmt 0 view .LVU60
 204 00a8 B9F1000F 		cmp	r9, #0
 205 00ac 02D0     		beq	.L9
 177:Middlewares/ST/filex/common/src/fx_directory_information_get.c ****     }
 206              		.loc 1 177 9 is_stmt 1 view .LVU61
 177:Middlewares/ST/filex/common/src/fx_directory_information_get.c ****     }
 207              		.loc 1 177 34 is_stmt 0 view .LVU62
 208 00ae 109B     		ldr	r3, [sp, #64]
 177:Middlewares/ST/filex/common/src/fx_directory_information_get.c ****     }
 209              		.loc 1 177 15 view .LVU63
 210 00b0 C9F80030 		str	r3, [r9]
 211              	.L9:
 181:Middlewares/ST/filex/common/src/fx_directory_information_get.c ****     {
 212              		.loc 1 181 5 is_stmt 1 view .LVU64
 181:Middlewares/ST/filex/common/src/fx_directory_information_get.c ****     {
 213              		.loc 1 181 8 is_stmt 0 view .LVU65
 214 00b4 269B     		ldr	r3, [sp, #152]
 215 00b6 33B1     		cbz	r3, .L10
 185:Middlewares/ST/filex/common/src/fx_directory_information_get.c ****                                                                         FX_BASE_YEAR;
 216              		.loc 1 185 9 is_stmt 1 view .LVU66
 185:Middlewares/ST/filex/common/src/fx_directory_information_get.c ****                                                                         FX_BASE_YEAR;
 217              		.loc 1 185 66 is_stmt 0 view .LVU67
 218 00b8 0E9B     		ldr	r3, [sp, #56]
 219 00ba C3F34623 		ubfx	r3, r3, #9, #7
 185:Middlewares/ST/filex/common/src/fx_directory_information_get.c ****                                                                         FX_BASE_YEAR;
 220              		.loc 1 185 82 view .LVU68
 221 00be 03F2BC73 		addw	r3, r3, #1980
 185:Middlewares/ST/filex/common/src/fx_directory_information_get.c ****                                                                         FX_BASE_YEAR;
 222              		.loc 1 185 15 view .LVU69
 223 00c2 269A     		ldr	r2, [sp, #152]
 224 00c4 1360     		str	r3, [r2]
 225              	.L10:
 190:Middlewares/ST/filex/common/src/fx_directory_information_get.c ****     {
 226              		.loc 1 190 5 is_stmt 1 view .LVU70
 190:Middlewares/ST/filex/common/src/fx_directory_information_get.c ****     {
 227              		.loc 1 190 8 is_stmt 0 view .LVU71
 228 00c6 279B     		ldr	r3, [sp, #156]
ARM GAS  C:\Users\HP\AppData\Local\Temp\ccoJJjc7.s 			page 10


 229 00c8 23B1     		cbz	r3, .L11
 194:Middlewares/ST/filex/common/src/fx_directory_information_get.c ****     }
 230              		.loc 1 194 9 is_stmt 1 view .LVU72
 194:Middlewares/ST/filex/common/src/fx_directory_information_get.c ****     }
 231              		.loc 1 194 67 is_stmt 0 view .LVU73
 232 00ca 0E9B     		ldr	r3, [sp, #56]
 233 00cc C3F34313 		ubfx	r3, r3, #5, #4
 194:Middlewares/ST/filex/common/src/fx_directory_information_get.c ****     }
 234              		.loc 1 194 16 view .LVU74
 235 00d0 279A     		ldr	r2, [sp, #156]
 236 00d2 1360     		str	r3, [r2]
 237              	.L11:
 198:Middlewares/ST/filex/common/src/fx_directory_information_get.c ****     {
 238              		.loc 1 198 5 is_stmt 1 view .LVU75
 198:Middlewares/ST/filex/common/src/fx_directory_information_get.c ****     {
 239              		.loc 1 198 8 is_stmt 0 view .LVU76
 240 00d4 289B     		ldr	r3, [sp, #160]
 241 00d6 23B1     		cbz	r3, .L12
 202:Middlewares/ST/filex/common/src/fx_directory_information_get.c ****     }
 242              		.loc 1 202 9 is_stmt 1 view .LVU77
 202:Middlewares/ST/filex/common/src/fx_directory_information_get.c ****     }
 243              		.loc 1 202 26 is_stmt 0 view .LVU78
 244 00d8 0E9B     		ldr	r3, [sp, #56]
 202:Middlewares/ST/filex/common/src/fx_directory_information_get.c ****     }
 245              		.loc 1 202 45 view .LVU79
 246 00da 03F01F03 		and	r3, r3, #31
 202:Middlewares/ST/filex/common/src/fx_directory_information_get.c ****     }
 247              		.loc 1 202 14 view .LVU80
 248 00de 289A     		ldr	r2, [sp, #160]
 249 00e0 1360     		str	r3, [r2]
 250              	.L12:
 206:Middlewares/ST/filex/common/src/fx_directory_information_get.c ****     {
 251              		.loc 1 206 5 is_stmt 1 view .LVU81
 206:Middlewares/ST/filex/common/src/fx_directory_information_get.c ****     {
 252              		.loc 1 206 8 is_stmt 0 view .LVU82
 253 00e2 299B     		ldr	r3, [sp, #164]
 254 00e4 23B1     		cbz	r3, .L13
 210:Middlewares/ST/filex/common/src/fx_directory_information_get.c ****     }
 255              		.loc 1 210 9 is_stmt 1 view .LVU83
 210:Middlewares/ST/filex/common/src/fx_directory_information_get.c ****     }
 256              		.loc 1 210 65 is_stmt 0 view .LVU84
 257 00e6 0D9B     		ldr	r3, [sp, #52]
 258 00e8 C3F3C423 		ubfx	r3, r3, #11, #5
 210:Middlewares/ST/filex/common/src/fx_directory_information_get.c ****     }
 259              		.loc 1 210 15 view .LVU85
 260 00ec 299A     		ldr	r2, [sp, #164]
 261 00ee 1360     		str	r3, [r2]
 262              	.L13:
 214:Middlewares/ST/filex/common/src/fx_directory_information_get.c ****     {
 263              		.loc 1 214 5 is_stmt 1 view .LVU86
 214:Middlewares/ST/filex/common/src/fx_directory_information_get.c ****     {
 264              		.loc 1 214 8 is_stmt 0 view .LVU87
 265 00f0 2A9B     		ldr	r3, [sp, #168]
 266 00f2 23B1     		cbz	r3, .L14
 218:Middlewares/ST/filex/common/src/fx_directory_information_get.c ****     }
 267              		.loc 1 218 9 is_stmt 1 view .LVU88
 218:Middlewares/ST/filex/common/src/fx_directory_information_get.c ****     }
ARM GAS  C:\Users\HP\AppData\Local\Temp\ccoJJjc7.s 			page 11


 268              		.loc 1 218 69 is_stmt 0 view .LVU89
 269 00f4 0D9B     		ldr	r3, [sp, #52]
 270 00f6 C3F34513 		ubfx	r3, r3, #5, #6
 218:Middlewares/ST/filex/common/src/fx_directory_information_get.c ****     }
 271              		.loc 1 218 17 view .LVU90
 272 00fa 2A9A     		ldr	r2, [sp, #168]
 273 00fc 1360     		str	r3, [r2]
 274              	.L14:
 222:Middlewares/ST/filex/common/src/fx_directory_information_get.c ****     {
 275              		.loc 1 222 5 is_stmt 1 view .LVU91
 222:Middlewares/ST/filex/common/src/fx_directory_information_get.c ****     {
 276              		.loc 1 222 8 is_stmt 0 view .LVU92
 277 00fe 2B9B     		ldr	r3, [sp, #172]
 278 0100 2BB1     		cbz	r3, .L15
 226:Middlewares/ST/filex/common/src/fx_directory_information_get.c ****     }
 279              		.loc 1 226 9 is_stmt 1 view .LVU93
 226:Middlewares/ST/filex/common/src/fx_directory_information_get.c ****     }
 280              		.loc 1 226 30 is_stmt 0 view .LVU94
 281 0102 0D9B     		ldr	r3, [sp, #52]
 226:Middlewares/ST/filex/common/src/fx_directory_information_get.c ****     }
 282              		.loc 1 226 49 view .LVU95
 283 0104 03F01F03 		and	r3, r3, #31
 226:Middlewares/ST/filex/common/src/fx_directory_information_get.c ****     }
 284              		.loc 1 226 67 view .LVU96
 285 0108 5B00     		lsls	r3, r3, #1
 226:Middlewares/ST/filex/common/src/fx_directory_information_get.c ****     }
 286              		.loc 1 226 17 view .LVU97
 287 010a 2B9A     		ldr	r2, [sp, #172]
 288 010c 1360     		str	r3, [r2]
 289              	.L15:
 230:Middlewares/ST/filex/common/src/fx_directory_information_get.c **** 
 290              		.loc 1 230 5 is_stmt 1 view .LVU98
 291 010e 5046     		mov	r0, r10
 292 0110 FFF7FEFF 		bl	_tx_mutex_put
 293              	.LVL20:
 233:Middlewares/ST/filex/common/src/fx_directory_information_get.c **** }
 294              		.loc 1 233 5 view .LVU99
 233:Middlewares/ST/filex/common/src/fx_directory_information_get.c **** }
 295              		.loc 1 233 11 is_stmt 0 view .LVU100
 296 0114 89E7     		b	.L1
 297              	.LVL21:
 298              	.L17:
 124:Middlewares/ST/filex/common/src/fx_directory_information_get.c **** 
 299              		.loc 1 124 5 view .LVU101
 300 0116 1126     		movs	r6, #17
 301              	.LVL22:
 124:Middlewares/ST/filex/common/src/fx_directory_information_get.c **** 
 302              		.loc 1 124 5 view .LVU102
 303 0118 87E7     		b	.L1
 304              	.L22:
 305 011a 00BF     		.align	2
 306              	.L21:
 307 011c 4944454D 		.word	1296385097
 308              		.cfi_endproc
 309              	.LFE8:
 311              		.text
 312              	.Letext0:
ARM GAS  C:\Users\HP\AppData\Local\Temp\ccoJJjc7.s 			page 12


 313              		.file 2 "Middlewares/ST/threadx/ports/cortex_m4/gnu/inc/tx_port.h"
 314              		.file 3 "Middlewares/ST/threadx/common/inc/tx_api.h"
 315              		.file 4 "Middlewares/ST/filex/common/inc/fx_api.h"
 316              		.file 5 "Middlewares/ST/filex/common/inc/fx_directory.h"
 317              		.file 6 "Middlewares/ST/filex/common/inc/fx_utility.h"
ARM GAS  C:\Users\HP\AppData\Local\Temp\ccoJJjc7.s 			page 13

