ARM GAS  C:\Users\HP\AppData\Local\Temp\ccgsMpnq.s 			page 1


   1              		.cpu cortex-m4
   2              		.arch armv7e-m
   3              		.fpu fpv4-sp-d16
   4              		.eabi_attribute 27, 1
   5              		.eabi_attribute 28, 1
   6              		.eabi_attribute 20, 1
   7              		.eabi_attribute 21, 1
   8              		.eabi_attribute 23, 3
   9              		.eabi_attribute 24, 1
  10              		.eabi_attribute 25, 1
  11              		.eabi_attribute 26, 1
  12              		.eabi_attribute 30, 1
  13              		.eabi_attribute 34, 1
  14              		.eabi_attribute 18, 4
  15              		.file	"fx_file_read.c"
  16              		.text
  17              	.Ltext0:
  18              		.cfi_sections	.debug_frame
  19              		.section	.text._fx_file_read,"ax",%progbits
  20              		.align	1
  21              		.global	_fx_file_read
  22              		.syntax unified
  23              		.thumb
  24              		.thumb_func
  26              	_fx_file_read:
  27              	.LVL0:
  28              	.LFB8:
  29              		.file 1 "Middlewares/ST/filex/common/src/fx_file_read.c"
   1:Middlewares/ST/filex/common/src/fx_file_read.c **** /**************************************************************************/
   2:Middlewares/ST/filex/common/src/fx_file_read.c **** /*                                                                        */
   3:Middlewares/ST/filex/common/src/fx_file_read.c **** /*       Copyright (c) Microsoft Corporation. All rights reserved.        */
   4:Middlewares/ST/filex/common/src/fx_file_read.c **** /*                                                                        */
   5:Middlewares/ST/filex/common/src/fx_file_read.c **** /*       This software is licensed under the Microsoft Software License   */
   6:Middlewares/ST/filex/common/src/fx_file_read.c **** /*       Terms for Microsoft Azure RTOS. Full text of the license can be  */
   7:Middlewares/ST/filex/common/src/fx_file_read.c **** /*       found in the LICENSE file at https://aka.ms/AzureRTOS_EULA       */
   8:Middlewares/ST/filex/common/src/fx_file_read.c **** /*       and in the root directory of this software.                      */
   9:Middlewares/ST/filex/common/src/fx_file_read.c **** /*                                                                        */
  10:Middlewares/ST/filex/common/src/fx_file_read.c **** /**************************************************************************/
  11:Middlewares/ST/filex/common/src/fx_file_read.c **** 
  12:Middlewares/ST/filex/common/src/fx_file_read.c **** 
  13:Middlewares/ST/filex/common/src/fx_file_read.c **** /**************************************************************************/
  14:Middlewares/ST/filex/common/src/fx_file_read.c **** /**************************************************************************/
  15:Middlewares/ST/filex/common/src/fx_file_read.c **** /**                                                                       */
  16:Middlewares/ST/filex/common/src/fx_file_read.c **** /** FileX Component                                                       */
  17:Middlewares/ST/filex/common/src/fx_file_read.c **** /**                                                                       */
  18:Middlewares/ST/filex/common/src/fx_file_read.c **** /**   File                                                                */
  19:Middlewares/ST/filex/common/src/fx_file_read.c **** /**                                                                       */
  20:Middlewares/ST/filex/common/src/fx_file_read.c **** /**************************************************************************/
  21:Middlewares/ST/filex/common/src/fx_file_read.c **** /**************************************************************************/
  22:Middlewares/ST/filex/common/src/fx_file_read.c **** 
  23:Middlewares/ST/filex/common/src/fx_file_read.c **** #define FX_SOURCE_CODE
  24:Middlewares/ST/filex/common/src/fx_file_read.c **** 
  25:Middlewares/ST/filex/common/src/fx_file_read.c **** 
  26:Middlewares/ST/filex/common/src/fx_file_read.c **** /* Include necessary system files.  */
  27:Middlewares/ST/filex/common/src/fx_file_read.c **** 
  28:Middlewares/ST/filex/common/src/fx_file_read.c **** #include "fx_api.h"
  29:Middlewares/ST/filex/common/src/fx_file_read.c **** #include "fx_system.h"
ARM GAS  C:\Users\HP\AppData\Local\Temp\ccgsMpnq.s 			page 2


  30:Middlewares/ST/filex/common/src/fx_file_read.c **** #include "fx_file.h"
  31:Middlewares/ST/filex/common/src/fx_file_read.c **** #include "fx_utility.h"
  32:Middlewares/ST/filex/common/src/fx_file_read.c **** 
  33:Middlewares/ST/filex/common/src/fx_file_read.c **** 
  34:Middlewares/ST/filex/common/src/fx_file_read.c **** /**************************************************************************/
  35:Middlewares/ST/filex/common/src/fx_file_read.c **** /*                                                                        */
  36:Middlewares/ST/filex/common/src/fx_file_read.c **** /*  FUNCTION                                               RELEASE        */
  37:Middlewares/ST/filex/common/src/fx_file_read.c **** /*                                                                        */
  38:Middlewares/ST/filex/common/src/fx_file_read.c **** /*    _fx_file_read                                       PORTABLE C      */
  39:Middlewares/ST/filex/common/src/fx_file_read.c **** /*                                                           6.1          */
  40:Middlewares/ST/filex/common/src/fx_file_read.c **** /*  AUTHOR                                                                */
  41:Middlewares/ST/filex/common/src/fx_file_read.c **** /*                                                                        */
  42:Middlewares/ST/filex/common/src/fx_file_read.c **** /*    William E. Lamie, Microsoft Corporation                             */
  43:Middlewares/ST/filex/common/src/fx_file_read.c **** /*                                                                        */
  44:Middlewares/ST/filex/common/src/fx_file_read.c **** /*  DESCRIPTION                                                           */
  45:Middlewares/ST/filex/common/src/fx_file_read.c **** /*                                                                        */
  46:Middlewares/ST/filex/common/src/fx_file_read.c **** /*    This function reads the specified number of bytes (or as many as    */
  47:Middlewares/ST/filex/common/src/fx_file_read.c **** /*    possible into the buffer supplied by the caller.  The actual number */
  48:Middlewares/ST/filex/common/src/fx_file_read.c **** /*    of bytes and the status of the read operation is returned to the    */
  49:Middlewares/ST/filex/common/src/fx_file_read.c **** /*    caller.  In addition, various internal file pointers in the file    */
  50:Middlewares/ST/filex/common/src/fx_file_read.c **** /*    control block are also updated.                                     */
  51:Middlewares/ST/filex/common/src/fx_file_read.c **** /*                                                                        */
  52:Middlewares/ST/filex/common/src/fx_file_read.c **** /*  INPUT                                                                 */
  53:Middlewares/ST/filex/common/src/fx_file_read.c **** /*                                                                        */
  54:Middlewares/ST/filex/common/src/fx_file_read.c **** /*    file_ptr                              File control block pointer    */
  55:Middlewares/ST/filex/common/src/fx_file_read.c **** /*    buffer_ptr                            Buffer pointer                */
  56:Middlewares/ST/filex/common/src/fx_file_read.c **** /*    request_size                          Number of bytes requested     */
  57:Middlewares/ST/filex/common/src/fx_file_read.c **** /*    actual_size                           Pointer to variable for the   */
  58:Middlewares/ST/filex/common/src/fx_file_read.c **** /*                                            number of bytes read        */
  59:Middlewares/ST/filex/common/src/fx_file_read.c **** /*                                                                        */
  60:Middlewares/ST/filex/common/src/fx_file_read.c **** /*  OUTPUT                                                                */
  61:Middlewares/ST/filex/common/src/fx_file_read.c **** /*                                                                        */
  62:Middlewares/ST/filex/common/src/fx_file_read.c **** /*    return status                                                       */
  63:Middlewares/ST/filex/common/src/fx_file_read.c **** /*                                                                        */
  64:Middlewares/ST/filex/common/src/fx_file_read.c **** /*  CALLS                                                                 */
  65:Middlewares/ST/filex/common/src/fx_file_read.c **** /*                                                                        */
  66:Middlewares/ST/filex/common/src/fx_file_read.c **** /*    _fx_utility_FAT_entry_read            Read a FAT entry              */
  67:Middlewares/ST/filex/common/src/fx_file_read.c **** /*    _fx_utility_logical_sector_read       Read a logical sector         */
  68:Middlewares/ST/filex/common/src/fx_file_read.c **** /*    _fx_utility_memory_copy               Fast memory copy routine      */
  69:Middlewares/ST/filex/common/src/fx_file_read.c **** /*                                                                        */
  70:Middlewares/ST/filex/common/src/fx_file_read.c **** /*  CALLED BY                                                             */
  71:Middlewares/ST/filex/common/src/fx_file_read.c **** /*                                                                        */
  72:Middlewares/ST/filex/common/src/fx_file_read.c **** /*    Application Code                                                    */
  73:Middlewares/ST/filex/common/src/fx_file_read.c **** /*                                                                        */
  74:Middlewares/ST/filex/common/src/fx_file_read.c **** /*  RELEASE HISTORY                                                       */
  75:Middlewares/ST/filex/common/src/fx_file_read.c **** /*                                                                        */
  76:Middlewares/ST/filex/common/src/fx_file_read.c **** /*    DATE              NAME                      DESCRIPTION             */
  77:Middlewares/ST/filex/common/src/fx_file_read.c **** /*                                                                        */
  78:Middlewares/ST/filex/common/src/fx_file_read.c **** /*  05-19-2020     William E. Lamie         Initial Version 6.0           */
  79:Middlewares/ST/filex/common/src/fx_file_read.c **** /*  09-30-2020     William E. Lamie         Modified comment(s), verified */
  80:Middlewares/ST/filex/common/src/fx_file_read.c **** /*                                            memcpy usage,               */
  81:Middlewares/ST/filex/common/src/fx_file_read.c **** /*                                            resulting in version 6.1    */
  82:Middlewares/ST/filex/common/src/fx_file_read.c **** /*                                                                        */
  83:Middlewares/ST/filex/common/src/fx_file_read.c **** /**************************************************************************/
  84:Middlewares/ST/filex/common/src/fx_file_read.c **** UINT  _fx_file_read(FX_FILE *file_ptr, VOID *buffer_ptr, ULONG request_size, ULONG *actual_size)
  85:Middlewares/ST/filex/common/src/fx_file_read.c **** {
  30              		.loc 1 85 1 view -0
ARM GAS  C:\Users\HP\AppData\Local\Temp\ccgsMpnq.s 			page 3


  31              		.cfi_startproc
  32              		@ args = 0, pretend = 0, frame = 24
  33              		@ frame_needed = 0, uses_anonymous_args = 0
  34              		.loc 1 85 1 is_stmt 0 view .LVU1
  35 0000 2DE9F04F 		push	{r4, r5, r6, r7, r8, r9, r10, fp, lr}
  36              	.LCFI0:
  37              		.cfi_def_cfa_offset 36
  38              		.cfi_offset 4, -36
  39              		.cfi_offset 5, -32
  40              		.cfi_offset 6, -28
  41              		.cfi_offset 7, -24
  42              		.cfi_offset 8, -20
  43              		.cfi_offset 9, -16
  44              		.cfi_offset 10, -12
  45              		.cfi_offset 11, -8
  46              		.cfi_offset 14, -4
  47 0004 8BB0     		sub	sp, sp, #44
  48              	.LCFI1:
  49              		.cfi_def_cfa_offset 80
  50 0006 0492     		str	r2, [sp, #16]
  51 0008 0593     		str	r3, [sp, #20]
  86:Middlewares/ST/filex/common/src/fx_file_read.c **** 
  87:Middlewares/ST/filex/common/src/fx_file_read.c **** UINT                   status;
  52              		.loc 1 87 1 is_stmt 1 view .LVU2
  88:Middlewares/ST/filex/common/src/fx_file_read.c **** ULONG                  bytes_remaining, i;
  53              		.loc 1 88 1 view .LVU3
  89:Middlewares/ST/filex/common/src/fx_file_read.c **** ULONG                  copy_bytes;
  54              		.loc 1 89 1 view .LVU4
  90:Middlewares/ST/filex/common/src/fx_file_read.c **** UCHAR                 *destination_ptr;
  55              		.loc 1 90 1 view .LVU5
  91:Middlewares/ST/filex/common/src/fx_file_read.c **** ULONG                  cluster, next_cluster;
  56              		.loc 1 91 1 view .LVU6
  92:Middlewares/ST/filex/common/src/fx_file_read.c **** UINT                   sectors;
  57              		.loc 1 92 1 view .LVU7
  93:Middlewares/ST/filex/common/src/fx_file_read.c **** FX_MEDIA              *media_ptr;
  58              		.loc 1 93 1 view .LVU8
  94:Middlewares/ST/filex/common/src/fx_file_read.c **** 
  95:Middlewares/ST/filex/common/src/fx_file_read.c **** #ifdef TX_ENABLE_EVENT_TRACE
  96:Middlewares/ST/filex/common/src/fx_file_read.c **** TX_TRACE_BUFFER_ENTRY *trace_event;
  97:Middlewares/ST/filex/common/src/fx_file_read.c **** ULONG                  trace_timestamp;
  98:Middlewares/ST/filex/common/src/fx_file_read.c **** #endif
  99:Middlewares/ST/filex/common/src/fx_file_read.c **** 
 100:Middlewares/ST/filex/common/src/fx_file_read.c **** 
 101:Middlewares/ST/filex/common/src/fx_file_read.c ****     /* First, determine if the file is still open.  */
 102:Middlewares/ST/filex/common/src/fx_file_read.c ****     if (file_ptr -> fx_file_id != FX_FILE_ID)
  59              		.loc 1 102 5 view .LVU9
  60              		.loc 1 102 18 is_stmt 0 view .LVU10
  61 000a 0268     		ldr	r2, [r0]
  62              	.LVL1:
  63              		.loc 1 102 8 view .LVU11
  64 000c AC4B     		ldr	r3, .L43
  65              	.LVL2:
  66              		.loc 1 102 8 view .LVU12
  67 000e 9A42     		cmp	r2, r3
  68 0010 40F04C81 		bne	.L28
  69 0014 0446     		mov	r4, r0
  70 0016 8946     		mov	r9, r1
ARM GAS  C:\Users\HP\AppData\Local\Temp\ccgsMpnq.s 			page 4


 103:Middlewares/ST/filex/common/src/fx_file_read.c ****     {
 104:Middlewares/ST/filex/common/src/fx_file_read.c **** 
 105:Middlewares/ST/filex/common/src/fx_file_read.c ****         /* Return the file not open error status.  */
 106:Middlewares/ST/filex/common/src/fx_file_read.c ****         return(FX_NOT_OPEN);
 107:Middlewares/ST/filex/common/src/fx_file_read.c ****     }
 108:Middlewares/ST/filex/common/src/fx_file_read.c **** 
 109:Middlewares/ST/filex/common/src/fx_file_read.c **** #ifndef FX_MEDIA_STATISTICS_DISABLE
 110:Middlewares/ST/filex/common/src/fx_file_read.c ****     /* Setup pointer to media structure.  */
 111:Middlewares/ST/filex/common/src/fx_file_read.c ****     media_ptr =  file_ptr -> fx_file_media_ptr;
  71              		.loc 1 111 5 is_stmt 1 view .LVU13
  72              		.loc 1 111 15 is_stmt 0 view .LVU14
  73 0018 826D     		ldr	r2, [r0, #88]
  74              	.LVL3:
 112:Middlewares/ST/filex/common/src/fx_file_read.c **** 
 113:Middlewares/ST/filex/common/src/fx_file_read.c ****     /* Increment the number of times this service has been called.  */
 114:Middlewares/ST/filex/common/src/fx_file_read.c ****     media_ptr -> fx_media_file_reads++;
  75              		.loc 1 114 5 is_stmt 1 view .LVU15
  76              		.loc 1 114 15 is_stmt 0 view .LVU16
  77 001a D2F83C31 		ldr	r3, [r2, #316]
  78              		.loc 1 114 37 view .LVU17
  79 001e 0133     		adds	r3, r3, #1
  80 0020 C2F83C31 		str	r3, [r2, #316]
 115:Middlewares/ST/filex/common/src/fx_file_read.c **** #endif
 116:Middlewares/ST/filex/common/src/fx_file_read.c **** 
 117:Middlewares/ST/filex/common/src/fx_file_read.c ****     /* Setup pointer to associated media control block.  */
 118:Middlewares/ST/filex/common/src/fx_file_read.c ****     media_ptr =  file_ptr -> fx_file_media_ptr;
  81              		.loc 1 118 5 is_stmt 1 view .LVU18
  82              		.loc 1 118 15 is_stmt 0 view .LVU19
  83 0024 856D     		ldr	r5, [r0, #88]
  84              	.LVL4:
 119:Middlewares/ST/filex/common/src/fx_file_read.c **** 
 120:Middlewares/ST/filex/common/src/fx_file_read.c ****     /* If trace is enabled, insert this event into the trace buffer.  */
 121:Middlewares/ST/filex/common/src/fx_file_read.c ****     FX_TRACE_IN_LINE_INSERT(FX_TRACE_FILE_READ, file_ptr, buffer_ptr, request_size, 0, FX_TRACE_FIL
 122:Middlewares/ST/filex/common/src/fx_file_read.c **** 
 123:Middlewares/ST/filex/common/src/fx_file_read.c ****     /* Protect against other threads accessing the media.  */
 124:Middlewares/ST/filex/common/src/fx_file_read.c ****     FX_PROTECT
  85              		.loc 1 124 5 is_stmt 1 view .LVU20
  86 0026 2A68     		ldr	r2, [r5]
  87 0028 A64B     		ldr	r3, .L43+4
  88 002a 9A42     		cmp	r2, r3
  89 002c 02D0     		beq	.L35
  90 002e 4FF0110A 		mov	r10, #17
  91 0032 3DE1     		b	.L1
  92              	.L35:
  93              		.loc 1 124 5 discriminator 2 view .LVU21
  94 0034 05F5E473 		add	r3, r5, #456
  95 0038 0693     		str	r3, [sp, #24]
  96 003a 4FF0FF31 		mov	r1, #-1
  97              	.LVL5:
  98              		.loc 1 124 5 is_stmt 0 discriminator 2 view .LVU22
  99 003e 1846     		mov	r0, r3
 100              	.LVL6:
 101              		.loc 1 124 5 discriminator 2 view .LVU23
 102 0040 FFF7FEFF 		bl	_tx_mutex_get
 103              	.LVL7:
 104 0044 0790     		str	r0, [sp, #28]
 105 0046 0028     		cmp	r0, #0
ARM GAS  C:\Users\HP\AppData\Local\Temp\ccgsMpnq.s 			page 5


 106 0048 40F03681 		bne	.L30
 125:Middlewares/ST/filex/common/src/fx_file_read.c **** 
 126:Middlewares/ST/filex/common/src/fx_file_read.c ****     /* Next, determine if there is any more bytes to read in the file.  */
 127:Middlewares/ST/filex/common/src/fx_file_read.c ****     if (file_ptr -> fx_file_current_file_offset >=
 107              		.loc 1 127 5 is_stmt 1 view .LVU24
 108              		.loc 1 127 18 is_stmt 0 view .LVU25
 109 004c 226C     		ldr	r2, [r4, #64]
 110 004e 606C     		ldr	r0, [r4, #68]
 128:Middlewares/ST/filex/common/src/fx_file_read.c ****         file_ptr -> fx_file_current_file_size)
 111              		.loc 1 128 18 view .LVU26
 112 0050 A16C     		ldr	r1, [r4, #72]
 113 0052 E36C     		ldr	r3, [r4, #76]
 127:Middlewares/ST/filex/common/src/fx_file_read.c ****         file_ptr -> fx_file_current_file_size)
 114              		.loc 1 127 8 view .LVU27
 115 0054 8A42     		cmp	r2, r1
 116 0056 70EB0306 		sbcs	r6, r0, r3
 117 005a 0AD2     		bcs	.L36
 129:Middlewares/ST/filex/common/src/fx_file_read.c ****     {
 130:Middlewares/ST/filex/common/src/fx_file_read.c **** 
 131:Middlewares/ST/filex/common/src/fx_file_read.c ****         /* Release media protection.  */
 132:Middlewares/ST/filex/common/src/fx_file_read.c ****         FX_UNPROTECT
 133:Middlewares/ST/filex/common/src/fx_file_read.c **** 
 134:Middlewares/ST/filex/common/src/fx_file_read.c ****         /* The file is at the end, return the proper status and set the
 135:Middlewares/ST/filex/common/src/fx_file_read.c ****            actual size to 0.  */
 136:Middlewares/ST/filex/common/src/fx_file_read.c ****         *actual_size =  0;
 137:Middlewares/ST/filex/common/src/fx_file_read.c ****         return(FX_END_OF_FILE);
 138:Middlewares/ST/filex/common/src/fx_file_read.c ****     }
 139:Middlewares/ST/filex/common/src/fx_file_read.c **** 
 140:Middlewares/ST/filex/common/src/fx_file_read.c ****     /* At this point there is something to read.  */
 141:Middlewares/ST/filex/common/src/fx_file_read.c **** 
 142:Middlewares/ST/filex/common/src/fx_file_read.c ****     /* Setup local buffer pointer.  */
 143:Middlewares/ST/filex/common/src/fx_file_read.c ****     destination_ptr =  (UCHAR *)buffer_ptr;
 118              		.loc 1 143 5 is_stmt 1 view .LVU28
 119              	.LVL8:
 144:Middlewares/ST/filex/common/src/fx_file_read.c **** 
 145:Middlewares/ST/filex/common/src/fx_file_read.c ****     /* Determine if there are less bytes left in the file than that specified
 146:Middlewares/ST/filex/common/src/fx_file_read.c ****        by the request.  If so, adjust the requested size.  */
 147:Middlewares/ST/filex/common/src/fx_file_read.c ****     if ((ULONG64)request_size >
 120              		.loc 1 147 5 view .LVU29
 148:Middlewares/ST/filex/common/src/fx_file_read.c ****         (file_ptr -> fx_file_current_file_size - file_ptr -> fx_file_current_file_offset))
 121              		.loc 1 148 48 is_stmt 0 view .LVU30
 122 005c 8E1A     		subs	r6, r1, r2
 123 005e 63EB0003 		sbc	r3, r3, r0
 147:Middlewares/ST/filex/common/src/fx_file_read.c ****         (file_ptr -> fx_file_current_file_size - file_ptr -> fx_file_current_file_offset))
 124              		.loc 1 147 8 view .LVU31
 125 0062 0498     		ldr	r0, [sp, #16]
 126 0064 8642     		cmp	r6, r0
 127 0066 73F10003 		sbcs	r3, r3, #0
 128 006a 00D2     		bcs	.L4
 149:Middlewares/ST/filex/common/src/fx_file_read.c ****     {
 150:Middlewares/ST/filex/common/src/fx_file_read.c **** 
 151:Middlewares/ST/filex/common/src/fx_file_read.c ****         /* Adjust the bytes remaining to what's available.  */
 152:Middlewares/ST/filex/common/src/fx_file_read.c ****         request_size =  (ULONG)(file_ptr -> fx_file_current_file_size - file_ptr -> fx_file_current
 129              		.loc 1 152 9 is_stmt 1 view .LVU32
 130              		.loc 1 152 22 is_stmt 0 view .LVU33
 131 006c 0496     		str	r6, [sp, #16]
 132              	.LVL9:
ARM GAS  C:\Users\HP\AppData\Local\Temp\ccgsMpnq.s 			page 6


 133              	.L4:
 153:Middlewares/ST/filex/common/src/fx_file_read.c ****     }
 154:Middlewares/ST/filex/common/src/fx_file_read.c **** 
 155:Middlewares/ST/filex/common/src/fx_file_read.c ****     /* Setup the remaining number of bytes to read.  */
 156:Middlewares/ST/filex/common/src/fx_file_read.c ****     bytes_remaining =  request_size;
 134              		.loc 1 156 5 is_stmt 1 view .LVU34
 157:Middlewares/ST/filex/common/src/fx_file_read.c **** 
 158:Middlewares/ST/filex/common/src/fx_file_read.c ****     /* Loop to read all of the bytes.  */
 159:Middlewares/ST/filex/common/src/fx_file_read.c ****     while (bytes_remaining)
 135              		.loc 1 159 5 view .LVU35
 156:Middlewares/ST/filex/common/src/fx_file_read.c **** 
 136              		.loc 1 156 21 is_stmt 0 view .LVU36
 137 006e 049F     		ldr	r7, [sp, #16]
 138              		.loc 1 159 11 view .LVU37
 139 0070 A0E0     		b	.L5
 140              	.LVL10:
 141              	.L36:
 132:Middlewares/ST/filex/common/src/fx_file_read.c **** 
 142              		.loc 1 132 9 is_stmt 1 view .LVU38
 143 0072 0698     		ldr	r0, [sp, #24]
 144 0074 FFF7FEFF 		bl	_tx_mutex_put
 145              	.LVL11:
 136:Middlewares/ST/filex/common/src/fx_file_read.c ****         return(FX_END_OF_FILE);
 146              		.loc 1 136 9 view .LVU39
 136:Middlewares/ST/filex/common/src/fx_file_read.c ****         return(FX_END_OF_FILE);
 147              		.loc 1 136 22 is_stmt 0 view .LVU40
 148 0078 0023     		movs	r3, #0
 149 007a 059A     		ldr	r2, [sp, #20]
 150 007c 1360     		str	r3, [r2]
 137:Middlewares/ST/filex/common/src/fx_file_read.c ****     }
 151              		.loc 1 137 9 is_stmt 1 view .LVU41
 137:Middlewares/ST/filex/common/src/fx_file_read.c ****     }
 152              		.loc 1 137 15 is_stmt 0 view .LVU42
 153 007e 4FF0090A 		mov	r10, #9
 154 0082 15E1     		b	.L1
 155              	.LVL12:
 156              	.L42:
 160:Middlewares/ST/filex/common/src/fx_file_read.c ****     {
 161:Middlewares/ST/filex/common/src/fx_file_read.c **** 
 162:Middlewares/ST/filex/common/src/fx_file_read.c ****         /* Determine if a beginning or ending partial read is required.  */
 163:Middlewares/ST/filex/common/src/fx_file_read.c ****         if ((file_ptr -> fx_file_current_logical_offset) ||
 164:Middlewares/ST/filex/common/src/fx_file_read.c ****             (bytes_remaining < media_ptr -> fx_media_bytes_per_sector))
 165:Middlewares/ST/filex/common/src/fx_file_read.c ****         {
 166:Middlewares/ST/filex/common/src/fx_file_read.c **** 
 167:Middlewares/ST/filex/common/src/fx_file_read.c ****             /* A partial sector read is required.  */
 168:Middlewares/ST/filex/common/src/fx_file_read.c **** 
 169:Middlewares/ST/filex/common/src/fx_file_read.c ****             /* Read the current logical sector.  */
 170:Middlewares/ST/filex/common/src/fx_file_read.c ****             status =  _fx_utility_logical_sector_read(media_ptr,
 171:Middlewares/ST/filex/common/src/fx_file_read.c ****                                                       file_ptr -> fx_file_current_logical_sector,
 172:Middlewares/ST/filex/common/src/fx_file_read.c ****                                                       media_ptr -> fx_media_memory_buffer, ((ULONG)
 173:Middlewares/ST/filex/common/src/fx_file_read.c **** 
 174:Middlewares/ST/filex/common/src/fx_file_read.c ****             /* Check for good completion status.  */
 175:Middlewares/ST/filex/common/src/fx_file_read.c ****             if (status !=  FX_SUCCESS)
 176:Middlewares/ST/filex/common/src/fx_file_read.c ****             {
 177:Middlewares/ST/filex/common/src/fx_file_read.c **** 
 178:Middlewares/ST/filex/common/src/fx_file_read.c ****                 /* Release media protection.  */
 179:Middlewares/ST/filex/common/src/fx_file_read.c ****                 FX_UNPROTECT
ARM GAS  C:\Users\HP\AppData\Local\Temp\ccgsMpnq.s 			page 7


 157              		.loc 1 179 17 is_stmt 1 view .LVU43
 158 0084 0698     		ldr	r0, [sp, #24]
 159              	.LVL13:
 160              		.loc 1 179 17 is_stmt 0 view .LVU44
 161 0086 FFF7FEFF 		bl	_tx_mutex_put
 162              	.LVL14:
 180:Middlewares/ST/filex/common/src/fx_file_read.c **** 
 181:Middlewares/ST/filex/common/src/fx_file_read.c ****                 /* Return the error status.  */
 182:Middlewares/ST/filex/common/src/fx_file_read.c ****                 return(status);
 163              		.loc 1 182 17 is_stmt 1 view .LVU45
 164              		.loc 1 182 23 is_stmt 0 view .LVU46
 165 008a 11E1     		b	.L1
 166              	.LVL15:
 167              	.L7:
 183:Middlewares/ST/filex/common/src/fx_file_read.c ****             }
 184:Middlewares/ST/filex/common/src/fx_file_read.c **** 
 185:Middlewares/ST/filex/common/src/fx_file_read.c ****             /* Copy the appropriate number of bytes into the destination buffer.  */
 186:Middlewares/ST/filex/common/src/fx_file_read.c ****             copy_bytes =  media_ptr -> fx_media_bytes_per_sector -
 187:Middlewares/ST/filex/common/src/fx_file_read.c ****                 file_ptr -> fx_file_current_logical_offset;
 188:Middlewares/ST/filex/common/src/fx_file_read.c **** 
 189:Middlewares/ST/filex/common/src/fx_file_read.c ****             /* Check to see if only a portion of the read sector needs to be
 190:Middlewares/ST/filex/common/src/fx_file_read.c ****                copied.  */
 191:Middlewares/ST/filex/common/src/fx_file_read.c ****             if (copy_bytes > bytes_remaining)
 192:Middlewares/ST/filex/common/src/fx_file_read.c ****             {
 193:Middlewares/ST/filex/common/src/fx_file_read.c **** 
 194:Middlewares/ST/filex/common/src/fx_file_read.c ****                 /* Adjust the number of bytes to copy.  */
 195:Middlewares/ST/filex/common/src/fx_file_read.c ****                 copy_bytes =  bytes_remaining;
 196:Middlewares/ST/filex/common/src/fx_file_read.c ****             }
 197:Middlewares/ST/filex/common/src/fx_file_read.c **** 
 198:Middlewares/ST/filex/common/src/fx_file_read.c ****             /* Actually perform the memory copy.  */
 199:Middlewares/ST/filex/common/src/fx_file_read.c ****             _fx_utility_memory_copy(((UCHAR *)media_ptr -> fx_media_memory_buffer) + /* Use case of
 200:Middlewares/ST/filex/common/src/fx_file_read.c ****                                     file_ptr -> fx_file_current_logical_offset,
 201:Middlewares/ST/filex/common/src/fx_file_read.c ****                                     destination_ptr, copy_bytes);
 202:Middlewares/ST/filex/common/src/fx_file_read.c **** 
 203:Middlewares/ST/filex/common/src/fx_file_read.c ****             /* Increment the logical sector byte offset.  */
 204:Middlewares/ST/filex/common/src/fx_file_read.c ****             file_ptr -> fx_file_current_logical_offset =
 205:Middlewares/ST/filex/common/src/fx_file_read.c ****                 file_ptr -> fx_file_current_logical_offset + copy_bytes;
 206:Middlewares/ST/filex/common/src/fx_file_read.c **** 
 207:Middlewares/ST/filex/common/src/fx_file_read.c ****             /* Adjust the remaining bytes to read.  */
 208:Middlewares/ST/filex/common/src/fx_file_read.c ****             bytes_remaining =  bytes_remaining - copy_bytes;
 209:Middlewares/ST/filex/common/src/fx_file_read.c **** 
 210:Middlewares/ST/filex/common/src/fx_file_read.c ****             /* Adjust the pointer to the destination buffer.  */
 211:Middlewares/ST/filex/common/src/fx_file_read.c ****             destination_ptr =  destination_ptr + copy_bytes;
 212:Middlewares/ST/filex/common/src/fx_file_read.c ****         }
 213:Middlewares/ST/filex/common/src/fx_file_read.c ****         else
 214:Middlewares/ST/filex/common/src/fx_file_read.c ****         {
 215:Middlewares/ST/filex/common/src/fx_file_read.c **** 
 216:Middlewares/ST/filex/common/src/fx_file_read.c ****             /* Attempt to read multiple sectors directly into the destination
 217:Middlewares/ST/filex/common/src/fx_file_read.c ****                buffer.  */
 218:Middlewares/ST/filex/common/src/fx_file_read.c **** 
 219:Middlewares/ST/filex/common/src/fx_file_read.c ****             /* Calculate the number of whole sectors to read directly into
 220:Middlewares/ST/filex/common/src/fx_file_read.c ****                the destination buffer.  */
 221:Middlewares/ST/filex/common/src/fx_file_read.c ****             sectors =  (UINT)(bytes_remaining / media_ptr -> fx_media_bytes_per_sector);
 168              		.loc 1 221 13 is_stmt 1 view .LVU47
 169              		.loc 1 221 21 is_stmt 0 view .LVU48
 170 008c B7FBF3FB 		udiv	fp, r7, r3
 171              	.LVL16:
ARM GAS  C:\Users\HP\AppData\Local\Temp\ccgsMpnq.s 			page 8


 222:Middlewares/ST/filex/common/src/fx_file_read.c **** 
 223:Middlewares/ST/filex/common/src/fx_file_read.c **** 
 224:Middlewares/ST/filex/common/src/fx_file_read.c ****             next_cluster = cluster = file_ptr -> fx_file_current_physical_cluster;
 172              		.loc 1 224 13 is_stmt 1 view .LVU49
 173              		.loc 1 224 36 is_stmt 0 view .LVU50
 174 0090 D4F82080 		ldr	r8, [r4, #32]
 175              	.LVL17:
 176              		.loc 1 224 26 view .LVU51
 177 0094 CDF82480 		str	r8, [sp, #36]
 225:Middlewares/ST/filex/common/src/fx_file_read.c ****             for (i = (media_ptr -> fx_media_sectors_per_cluster -
 178              		.loc 1 225 13 is_stmt 1 view .LVU52
 179              		.loc 1 225 33 is_stmt 0 view .LVU53
 180 0098 6E6D     		ldr	r6, [r5, #84]
 226:Middlewares/ST/filex/common/src/fx_file_read.c ****                       file_ptr -> fx_file_current_relative_sector); i < sectors; i += media_ptr -> 
 181              		.loc 1 226 32 view .LVU54
 182 009a A36B     		ldr	r3, [r4, #56]
 225:Middlewares/ST/filex/common/src/fx_file_read.c ****             for (i = (media_ptr -> fx_media_sectors_per_cluster -
 183              		.loc 1 225 20 view .LVU55
 184 009c F61A     		subs	r6, r6, r3
 185              	.LVL18:
 225:Middlewares/ST/filex/common/src/fx_file_read.c ****             for (i = (media_ptr -> fx_media_sectors_per_cluster -
 186              		.loc 1 225 13 view .LVU56
 187 009e 0CE0     		b	.L11
 188              	.LVL19:
 189              	.L12:
 227:Middlewares/ST/filex/common/src/fx_file_read.c ****             {
 228:Middlewares/ST/filex/common/src/fx_file_read.c **** #ifdef FX_ENABLE_EXFAT
 229:Middlewares/ST/filex/common/src/fx_file_read.c ****                 if (file_ptr -> fx_file_dir_entry.fx_dir_entry_dont_use_fat & 1)
 230:Middlewares/ST/filex/common/src/fx_file_read.c ****                 {
 231:Middlewares/ST/filex/common/src/fx_file_read.c ****                     cluster++;
 232:Middlewares/ST/filex/common/src/fx_file_read.c ****                 }
 233:Middlewares/ST/filex/common/src/fx_file_read.c ****                 else
 234:Middlewares/ST/filex/common/src/fx_file_read.c ****                 {
 235:Middlewares/ST/filex/common/src/fx_file_read.c **** #endif /* FX_ENABLE_EXFAT */
 236:Middlewares/ST/filex/common/src/fx_file_read.c ****                     status =  _fx_utility_FAT_entry_read(media_ptr, cluster, &next_cluster);
 237:Middlewares/ST/filex/common/src/fx_file_read.c **** 
 238:Middlewares/ST/filex/common/src/fx_file_read.c ****                     /* Determine if an error is present.  */
 239:Middlewares/ST/filex/common/src/fx_file_read.c ****                     if ((status != FX_SUCCESS) || (next_cluster < FX_FAT_ENTRY_START) ||
 240:Middlewares/ST/filex/common/src/fx_file_read.c ****                         (next_cluster > media_ptr -> fx_media_fat_reserved))
 241:Middlewares/ST/filex/common/src/fx_file_read.c ****                     {
 242:Middlewares/ST/filex/common/src/fx_file_read.c **** 
 243:Middlewares/ST/filex/common/src/fx_file_read.c ****                         /* Release media protection.  */
 244:Middlewares/ST/filex/common/src/fx_file_read.c ****                         FX_UNPROTECT
 190              		.loc 1 244 25 is_stmt 1 view .LVU57
 191 00a0 0698     		ldr	r0, [sp, #24]
 192              	.LVL20:
 193              		.loc 1 244 25 is_stmt 0 view .LVU58
 194 00a2 FFF7FEFF 		bl	_tx_mutex_put
 195              	.LVL21:
 245:Middlewares/ST/filex/common/src/fx_file_read.c **** 
 246:Middlewares/ST/filex/common/src/fx_file_read.c ****                         /* Send error message back to caller.  */
 247:Middlewares/ST/filex/common/src/fx_file_read.c ****                         if (status != FX_SUCCESS)
 196              		.loc 1 247 25 is_stmt 1 view .LVU59
 197              		.loc 1 247 28 is_stmt 0 view .LVU60
 198 00a6 BAF1000F 		cmp	r10, #0
 199 00aa 40F00181 		bne	.L1
 248:Middlewares/ST/filex/common/src/fx_file_read.c ****                         {
ARM GAS  C:\Users\HP\AppData\Local\Temp\ccgsMpnq.s 			page 9


 249:Middlewares/ST/filex/common/src/fx_file_read.c ****                             return(status);
 250:Middlewares/ST/filex/common/src/fx_file_read.c ****                         }
 251:Middlewares/ST/filex/common/src/fx_file_read.c ****                         else
 252:Middlewares/ST/filex/common/src/fx_file_read.c ****                         {
 253:Middlewares/ST/filex/common/src/fx_file_read.c ****                             return(FX_FILE_CORRUPT);
 200              		.loc 1 253 35 view .LVU61
 201 00ae 4FF0080A 		mov	r10, #8
 202              	.LVL22:
 203              		.loc 1 253 35 view .LVU62
 204 00b2 FDE0     		b	.L1
 205              	.LVL23:
 206              	.L37:
 254:Middlewares/ST/filex/common/src/fx_file_read.c ****                         }
 255:Middlewares/ST/filex/common/src/fx_file_read.c ****                     }
 256:Middlewares/ST/filex/common/src/fx_file_read.c **** 
 257:Middlewares/ST/filex/common/src/fx_file_read.c ****                     if (next_cluster != cluster + 1)
 258:Middlewares/ST/filex/common/src/fx_file_read.c ****                     {
 259:Middlewares/ST/filex/common/src/fx_file_read.c ****                         break;
 260:Middlewares/ST/filex/common/src/fx_file_read.c ****                     }
 261:Middlewares/ST/filex/common/src/fx_file_read.c ****                     else
 262:Middlewares/ST/filex/common/src/fx_file_read.c ****                     {
 263:Middlewares/ST/filex/common/src/fx_file_read.c ****                         cluster = next_cluster;
 207              		.loc 1 263 25 is_stmt 1 discriminator 1 view .LVU63
 226:Middlewares/ST/filex/common/src/fx_file_read.c ****             {
 208              		.loc 1 226 82 discriminator 1 view .LVU64
 226:Middlewares/ST/filex/common/src/fx_file_read.c ****             {
 209              		.loc 1 226 97 is_stmt 0 discriminator 1 view .LVU65
 210 00b4 6A6D     		ldr	r2, [r5, #84]
 226:Middlewares/ST/filex/common/src/fx_file_read.c ****             {
 211              		.loc 1 226 84 discriminator 1 view .LVU66
 212 00b6 1644     		add	r6, r6, r2
 213              	.LVL24:
 214              		.loc 1 263 33 discriminator 1 view .LVU67
 215 00b8 9846     		mov	r8, r3
 216              	.LVL25:
 217              	.L11:
 226:Middlewares/ST/filex/common/src/fx_file_read.c ****             {
 218              		.loc 1 226 69 is_stmt 1 discriminator 1 view .LVU68
 225:Middlewares/ST/filex/common/src/fx_file_read.c ****                       file_ptr -> fx_file_current_relative_sector); i < sectors; i += media_ptr -> 
 219              		.loc 1 225 13 is_stmt 0 discriminator 1 view .LVU69
 220 00ba 5E45     		cmp	r6, fp
 221 00bc 14D2     		bcs	.L14
 236:Middlewares/ST/filex/common/src/fx_file_read.c **** 
 222              		.loc 1 236 21 is_stmt 1 view .LVU70
 236:Middlewares/ST/filex/common/src/fx_file_read.c **** 
 223              		.loc 1 236 31 is_stmt 0 view .LVU71
 224 00be 09AA     		add	r2, sp, #36
 225 00c0 4146     		mov	r1, r8
 226 00c2 2846     		mov	r0, r5
 227 00c4 FFF7FEFF 		bl	_fx_utility_FAT_entry_read
 228              	.LVL26:
 239:Middlewares/ST/filex/common/src/fx_file_read.c ****                         (next_cluster > media_ptr -> fx_media_fat_reserved))
 229              		.loc 1 239 21 is_stmt 1 view .LVU72
 239:Middlewares/ST/filex/common/src/fx_file_read.c ****                         (next_cluster > media_ptr -> fx_media_fat_reserved))
 230              		.loc 1 239 24 is_stmt 0 view .LVU73
 231 00c8 8246     		mov	r10, r0
 232 00ca 0028     		cmp	r0, #0
ARM GAS  C:\Users\HP\AppData\Local\Temp\ccgsMpnq.s 			page 10


 233 00cc E8D1     		bne	.L12
 239:Middlewares/ST/filex/common/src/fx_file_read.c ****                         (next_cluster > media_ptr -> fx_media_fat_reserved))
 234              		.loc 1 239 65 discriminator 1 view .LVU74
 235 00ce 099B     		ldr	r3, [sp, #36]
 239:Middlewares/ST/filex/common/src/fx_file_read.c ****                         (next_cluster > media_ptr -> fx_media_fat_reserved))
 236              		.loc 1 239 48 discriminator 1 view .LVU75
 237 00d0 012B     		cmp	r3, #1
 238 00d2 E5D9     		bls	.L12
 240:Middlewares/ST/filex/common/src/fx_file_read.c ****                     {
 239              		.loc 1 240 51 discriminator 2 view .LVU76
 240 00d4 05F50052 		add	r2, r5, #8192
 241 00d8 D2F8A824 		ldr	r2, [r2, #1192]
 239:Middlewares/ST/filex/common/src/fx_file_read.c ****                         (next_cluster > media_ptr -> fx_media_fat_reserved))
 242              		.loc 1 239 87 discriminator 2 view .LVU77
 243 00dc 9342     		cmp	r3, r2
 244 00de DFD8     		bhi	.L12
 257:Middlewares/ST/filex/common/src/fx_file_read.c ****                     {
 245              		.loc 1 257 21 is_stmt 1 view .LVU78
 257:Middlewares/ST/filex/common/src/fx_file_read.c ****                     {
 246              		.loc 1 257 49 is_stmt 0 view .LVU79
 247 00e0 08F10102 		add	r2, r8, #1
 257:Middlewares/ST/filex/common/src/fx_file_read.c ****                     {
 248              		.loc 1 257 24 view .LVU80
 249 00e4 9342     		cmp	r3, r2
 250 00e6 E5D0     		beq	.L37
 251              	.LVL27:
 252              	.L14:
 264:Middlewares/ST/filex/common/src/fx_file_read.c ****                     }
 265:Middlewares/ST/filex/common/src/fx_file_read.c **** #ifdef FX_ENABLE_EXFAT
 266:Middlewares/ST/filex/common/src/fx_file_read.c ****                 }
 267:Middlewares/ST/filex/common/src/fx_file_read.c **** #endif /* FX_ENABLE_EXFAT */
 268:Middlewares/ST/filex/common/src/fx_file_read.c ****             }
 269:Middlewares/ST/filex/common/src/fx_file_read.c **** 
 270:Middlewares/ST/filex/common/src/fx_file_read.c ****             if (i < sectors)
 253              		.loc 1 270 13 is_stmt 1 view .LVU81
 254              		.loc 1 270 16 is_stmt 0 view .LVU82
 255 00e8 5E45     		cmp	r6, fp
 256 00ea 00D3     		bcc	.L16
 221:Middlewares/ST/filex/common/src/fx_file_read.c **** 
 257              		.loc 1 221 21 view .LVU83
 258 00ec 5E46     		mov	r6, fp
 259              	.LVL28:
 260              	.L16:
 271:Middlewares/ST/filex/common/src/fx_file_read.c ****             {
 272:Middlewares/ST/filex/common/src/fx_file_read.c ****                 sectors = i;
 273:Middlewares/ST/filex/common/src/fx_file_read.c ****             }
 274:Middlewares/ST/filex/common/src/fx_file_read.c **** 
 275:Middlewares/ST/filex/common/src/fx_file_read.c ****             /* Determine if this is a single sector read request.  If so, read the sector so it wil
 276:Middlewares/ST/filex/common/src/fx_file_read.c ****                come from the internal cache.  */
 277:Middlewares/ST/filex/common/src/fx_file_read.c ****             if (sectors == 1)
 261              		.loc 1 277 13 is_stmt 1 view .LVU84
 262              		.loc 1 277 16 is_stmt 0 view .LVU85
 263 00ee 012E     		cmp	r6, #1
 264 00f0 36D0     		beq	.L38
 278:Middlewares/ST/filex/common/src/fx_file_read.c ****             {
 279:Middlewares/ST/filex/common/src/fx_file_read.c **** 
 280:Middlewares/ST/filex/common/src/fx_file_read.c ****                 /* Read the current logical sector.  */
ARM GAS  C:\Users\HP\AppData\Local\Temp\ccgsMpnq.s 			page 11


 281:Middlewares/ST/filex/common/src/fx_file_read.c ****                 status =  _fx_utility_logical_sector_read(media_ptr,
 282:Middlewares/ST/filex/common/src/fx_file_read.c ****                                                           file_ptr -> fx_file_current_logical_secto
 283:Middlewares/ST/filex/common/src/fx_file_read.c ****                                                           media_ptr -> fx_media_memory_buffer, ((UL
 284:Middlewares/ST/filex/common/src/fx_file_read.c **** 
 285:Middlewares/ST/filex/common/src/fx_file_read.c ****                 /* Check for good completion status.  */
 286:Middlewares/ST/filex/common/src/fx_file_read.c ****                 if (status !=  FX_SUCCESS)
 287:Middlewares/ST/filex/common/src/fx_file_read.c ****                 {
 288:Middlewares/ST/filex/common/src/fx_file_read.c **** 
 289:Middlewares/ST/filex/common/src/fx_file_read.c ****                     /* Release media protection.  */
 290:Middlewares/ST/filex/common/src/fx_file_read.c ****                     FX_UNPROTECT
 291:Middlewares/ST/filex/common/src/fx_file_read.c **** 
 292:Middlewares/ST/filex/common/src/fx_file_read.c ****                     /* Return the error status.  */
 293:Middlewares/ST/filex/common/src/fx_file_read.c ****                     return(status);
 294:Middlewares/ST/filex/common/src/fx_file_read.c ****                 }
 295:Middlewares/ST/filex/common/src/fx_file_read.c **** 
 296:Middlewares/ST/filex/common/src/fx_file_read.c ****                 /* Actually perform the memory copy.  */
 297:Middlewares/ST/filex/common/src/fx_file_read.c ****                 _fx_utility_memory_copy((UCHAR *)media_ptr -> fx_media_memory_buffer, destination_p
 298:Middlewares/ST/filex/common/src/fx_file_read.c ****             }
 299:Middlewares/ST/filex/common/src/fx_file_read.c ****             else
 300:Middlewares/ST/filex/common/src/fx_file_read.c ****             {
 301:Middlewares/ST/filex/common/src/fx_file_read.c **** 
 302:Middlewares/ST/filex/common/src/fx_file_read.c ****                 /* Multiple sector read request.  Read all the sectors at once.  */
 303:Middlewares/ST/filex/common/src/fx_file_read.c **** 
 304:Middlewares/ST/filex/common/src/fx_file_read.c ****                 /* Perform the data read directly into the user's buffer of
 305:Middlewares/ST/filex/common/src/fx_file_read.c ****                    the appropriate number of sectors.  */
 306:Middlewares/ST/filex/common/src/fx_file_read.c ****                 media_ptr -> fx_media_disable_burst_cache = file_ptr -> fx_file_disable_burst_cache
 265              		.loc 1 306 17 is_stmt 1 view .LVU86
 266              		.loc 1 306 70 is_stmt 0 view .LVU87
 267 00f2 D4F8D831 		ldr	r3, [r4, #472]
 268              		.loc 1 306 59 view .LVU88
 269 00f6 05F5005A 		add	r10, r5, #8192
 270 00fa CAF8A434 		str	r3, [r10, #1188]
 307:Middlewares/ST/filex/common/src/fx_file_read.c ****                 status =  _fx_utility_logical_sector_read(media_ptr, file_ptr -> fx_file_current_lo
 271              		.loc 1 307 17 is_stmt 1 view .LVU89
 272              		.loc 1 307 27 is_stmt 0 view .LVU90
 273 00fe 0423     		movs	r3, #4
 274 0100 0293     		str	r3, [sp, #8]
 275 0102 0196     		str	r6, [sp, #4]
 276 0104 CDF80090 		str	r9, [sp]
 277 0108 D4E90A23 		ldrd	r2, [r4, #40]
 278 010c 2846     		mov	r0, r5
 279 010e FFF7FEFF 		bl	_fx_utility_logical_sector_read
 280              	.LVL29:
 308:Middlewares/ST/filex/common/src/fx_file_read.c ****                                                           destination_ptr, (ULONG) sectors, FX_DATA
 309:Middlewares/ST/filex/common/src/fx_file_read.c ****                 media_ptr -> fx_media_disable_burst_cache = FX_FALSE;
 281              		.loc 1 309 17 is_stmt 1 view .LVU91
 282              		.loc 1 309 59 is_stmt 0 view .LVU92
 283 0112 0023     		movs	r3, #0
 284 0114 CAF8A434 		str	r3, [r10, #1188]
 310:Middlewares/ST/filex/common/src/fx_file_read.c **** 
 311:Middlewares/ST/filex/common/src/fx_file_read.c ****                 /* Check for good completion status.  */
 312:Middlewares/ST/filex/common/src/fx_file_read.c ****                 if (status !=  FX_SUCCESS)
 285              		.loc 1 312 17 is_stmt 1 view .LVU93
 286              		.loc 1 312 20 is_stmt 0 view .LVU94
 287 0118 8246     		mov	r10, r0
 288 011a 0028     		cmp	r0, #0
 289 011c 37D1     		bne	.L39
ARM GAS  C:\Users\HP\AppData\Local\Temp\ccgsMpnq.s 			page 12


 290              	.LVL30:
 291              	.L19:
 313:Middlewares/ST/filex/common/src/fx_file_read.c ****                 {
 314:Middlewares/ST/filex/common/src/fx_file_read.c **** 
 315:Middlewares/ST/filex/common/src/fx_file_read.c ****                     /* Release media protection.  */
 316:Middlewares/ST/filex/common/src/fx_file_read.c ****                     FX_UNPROTECT
 317:Middlewares/ST/filex/common/src/fx_file_read.c **** 
 318:Middlewares/ST/filex/common/src/fx_file_read.c ****                     /* Return the error status.  */
 319:Middlewares/ST/filex/common/src/fx_file_read.c ****                     return(status);
 320:Middlewares/ST/filex/common/src/fx_file_read.c ****                 }
 321:Middlewares/ST/filex/common/src/fx_file_read.c ****             }
 322:Middlewares/ST/filex/common/src/fx_file_read.c **** 
 323:Middlewares/ST/filex/common/src/fx_file_read.c ****             /* Now adjust the various file pointers.  */
 324:Middlewares/ST/filex/common/src/fx_file_read.c **** 
 325:Middlewares/ST/filex/common/src/fx_file_read.c ****             /* Increment the current logical sector.  Subtract one from
 326:Middlewares/ST/filex/common/src/fx_file_read.c ****                the sector count because we are going to use the logical
 327:Middlewares/ST/filex/common/src/fx_file_read.c ****                offset to do additional sector/cluster arithmetic below.  */
 328:Middlewares/ST/filex/common/src/fx_file_read.c ****             file_ptr -> fx_file_current_logical_sector =
 292              		.loc 1 328 13 is_stmt 1 view .LVU95
 329:Middlewares/ST/filex/common/src/fx_file_read.c ****                 file_ptr -> fx_file_current_logical_sector +
 293              		.loc 1 329 26 is_stmt 0 view .LVU96
 294 011e A36A     		ldr	r3, [r4, #40]
 295 0120 E26A     		ldr	r2, [r4, #44]
 330:Middlewares/ST/filex/common/src/fx_file_read.c ****                 (sectors - 1);
 296              		.loc 1 330 26 view .LVU97
 297 0122 711E     		subs	r1, r6, #1
 329:Middlewares/ST/filex/common/src/fx_file_read.c ****                 file_ptr -> fx_file_current_logical_sector +
 298              		.loc 1 329 60 view .LVU98
 299 0124 5B18     		adds	r3, r3, r1
 300 0126 42F10002 		adc	r2, r2, #0
 328:Middlewares/ST/filex/common/src/fx_file_read.c ****                 file_ptr -> fx_file_current_logical_sector +
 301              		.loc 1 328 56 view .LVU99
 302 012a A362     		str	r3, [r4, #40]
 303 012c E262     		str	r2, [r4, #44]
 331:Middlewares/ST/filex/common/src/fx_file_read.c **** 
 332:Middlewares/ST/filex/common/src/fx_file_read.c ****             /* Move the relative sector and cluster as well.  */
 333:Middlewares/ST/filex/common/src/fx_file_read.c ****             file_ptr -> fx_file_current_relative_cluster = file_ptr -> fx_file_current_relative_clu
 304              		.loc 1 333 13 is_stmt 1 view .LVU100
 305              		.loc 1 333 69 is_stmt 0 view .LVU101
 306 012e 626B     		ldr	r2, [r4, #52]
 334:Middlewares/ST/filex/common/src/fx_file_read.c ****                 (file_ptr -> fx_file_current_relative_sector + (sectors - 1)) /
 307              		.loc 1 334 27 view .LVU102
 308 0130 A36B     		ldr	r3, [r4, #56]
 309              		.loc 1 334 62 view .LVU103
 310 0132 3344     		add	r3, r3, r6
 311 0134 013B     		subs	r3, r3, #1
 335:Middlewares/ST/filex/common/src/fx_file_read.c ****                 media_ptr -> fx_media_sectors_per_cluster;
 312              		.loc 1 335 27 view .LVU104
 313 0136 696D     		ldr	r1, [r5, #84]
 334:Middlewares/ST/filex/common/src/fx_file_read.c ****                 (file_ptr -> fx_file_current_relative_sector + (sectors - 1)) /
 314              		.loc 1 334 79 view .LVU105
 315 0138 B3FBF1F1 		udiv	r1, r3, r1
 333:Middlewares/ST/filex/common/src/fx_file_read.c ****                 (file_ptr -> fx_file_current_relative_sector + (sectors - 1)) /
 316              		.loc 1 333 105 view .LVU106
 317 013c 0A44     		add	r2, r2, r1
 333:Middlewares/ST/filex/common/src/fx_file_read.c ****                 (file_ptr -> fx_file_current_relative_sector + (sectors - 1)) /
 318              		.loc 1 333 58 view .LVU107
ARM GAS  C:\Users\HP\AppData\Local\Temp\ccgsMpnq.s 			page 13


 319 013e 6263     		str	r2, [r4, #52]
 336:Middlewares/ST/filex/common/src/fx_file_read.c **** 
 337:Middlewares/ST/filex/common/src/fx_file_read.c ****             file_ptr -> fx_file_current_relative_sector =
 320              		.loc 1 337 13 is_stmt 1 view .LVU108
 338:Middlewares/ST/filex/common/src/fx_file_read.c ****                 (file_ptr -> fx_file_current_relative_sector +
 339:Middlewares/ST/filex/common/src/fx_file_read.c ****                  (sectors - 1)) % media_ptr -> fx_media_sectors_per_cluster;
 321              		.loc 1 339 45 is_stmt 0 view .LVU109
 322 0140 6A6D     		ldr	r2, [r5, #84]
 323              		.loc 1 339 33 view .LVU110
 324 0142 B3FBF2F1 		udiv	r1, r3, r2
 325 0146 02FB1133 		mls	r3, r2, r1, r3
 337:Middlewares/ST/filex/common/src/fx_file_read.c ****                 (file_ptr -> fx_file_current_relative_sector +
 326              		.loc 1 337 57 view .LVU111
 327 014a A363     		str	r3, [r4, #56]
 340:Middlewares/ST/filex/common/src/fx_file_read.c **** 
 341:Middlewares/ST/filex/common/src/fx_file_read.c ****             /* Increment the logical sector byte offset.  */
 342:Middlewares/ST/filex/common/src/fx_file_read.c ****             file_ptr -> fx_file_current_logical_offset =
 328              		.loc 1 342 13 is_stmt 1 view .LVU112
 343:Middlewares/ST/filex/common/src/fx_file_read.c ****                 media_ptr -> fx_media_bytes_per_sector;
 329              		.loc 1 343 27 is_stmt 0 view .LVU113
 330 014c AB6A     		ldr	r3, [r5, #40]
 342:Middlewares/ST/filex/common/src/fx_file_read.c ****                 media_ptr -> fx_media_bytes_per_sector;
 331              		.loc 1 342 56 view .LVU114
 332 014e 2363     		str	r3, [r4, #48]
 344:Middlewares/ST/filex/common/src/fx_file_read.c **** 
 345:Middlewares/ST/filex/common/src/fx_file_read.c ****             file_ptr -> fx_file_current_physical_cluster = cluster;
 333              		.loc 1 345 13 is_stmt 1 view .LVU115
 334              		.loc 1 345 58 is_stmt 0 view .LVU116
 335 0150 C4F82080 		str	r8, [r4, #32]
 346:Middlewares/ST/filex/common/src/fx_file_read.c **** 
 347:Middlewares/ST/filex/common/src/fx_file_read.c ****             /* Adjust the remaining bytes.  */
 348:Middlewares/ST/filex/common/src/fx_file_read.c ****             bytes_remaining =  bytes_remaining -
 336              		.loc 1 348 13 is_stmt 1 view .LVU117
 349:Middlewares/ST/filex/common/src/fx_file_read.c ****                 (((ULONG)media_ptr -> fx_media_bytes_per_sector) * sectors);
 337              		.loc 1 349 36 is_stmt 0 view .LVU118
 338 0154 AB6A     		ldr	r3, [r5, #40]
 339              		.loc 1 349 66 view .LVU119
 340 0156 03FB06F6 		mul	r6, r3, r6
 341              	.LVL31:
 348:Middlewares/ST/filex/common/src/fx_file_read.c ****                 (((ULONG)media_ptr -> fx_media_bytes_per_sector) * sectors);
 342              		.loc 1 348 29 view .LVU120
 343 015a BF1B     		subs	r7, r7, r6
 344              	.LVL32:
 350:Middlewares/ST/filex/common/src/fx_file_read.c **** 
 351:Middlewares/ST/filex/common/src/fx_file_read.c ****             /* Adjust the pointer to the destination buffer.  */
 352:Middlewares/ST/filex/common/src/fx_file_read.c ****             destination_ptr =  destination_ptr +
 345              		.loc 1 352 13 is_stmt 1 view .LVU121
 346              		.loc 1 352 29 is_stmt 0 view .LVU122
 347 015c B144     		add	r9, r9, r6
 348              	.LVL33:
 349              		.loc 1 352 29 view .LVU123
 350 015e 51E0     		b	.L10
 351              	.LVL34:
 352              	.L38:
 281:Middlewares/ST/filex/common/src/fx_file_read.c ****                                                           file_ptr -> fx_file_current_logical_secto
 353              		.loc 1 281 17 is_stmt 1 view .LVU124
 283:Middlewares/ST/filex/common/src/fx_file_read.c **** 
ARM GAS  C:\Users\HP\AppData\Local\Temp\ccgsMpnq.s 			page 14


 354              		.loc 1 283 69 is_stmt 0 view .LVU125
 355 0160 AB68     		ldr	r3, [r5, #8]
 281:Middlewares/ST/filex/common/src/fx_file_read.c ****                                                           file_ptr -> fx_file_current_logical_secto
 356              		.loc 1 281 27 view .LVU126
 357 0162 0422     		movs	r2, #4
 358 0164 0292     		str	r2, [sp, #8]
 359 0166 0122     		movs	r2, #1
 360 0168 0192     		str	r2, [sp, #4]
 361 016a 0093     		str	r3, [sp]
 362 016c D4E90A23 		ldrd	r2, [r4, #40]
 363 0170 2846     		mov	r0, r5
 364 0172 FFF7FEFF 		bl	_fx_utility_logical_sector_read
 365              	.LVL35:
 286:Middlewares/ST/filex/common/src/fx_file_read.c ****                 {
 366              		.loc 1 286 17 is_stmt 1 view .LVU127
 286:Middlewares/ST/filex/common/src/fx_file_read.c ****                 {
 367              		.loc 1 286 20 is_stmt 0 view .LVU128
 368 0176 8246     		mov	r10, r0
 369 0178 28B9     		cbnz	r0, .L40
 297:Middlewares/ST/filex/common/src/fx_file_read.c ****             }
 370              		.loc 1 297 17 is_stmt 1 view .LVU129
 371 017a AA6A     		ldr	r2, [r5, #40]
 372 017c 4946     		mov	r1, r9
 373 017e A868     		ldr	r0, [r5, #8]
 374              	.LVL36:
 297:Middlewares/ST/filex/common/src/fx_file_read.c ****             }
 375              		.loc 1 297 17 is_stmt 0 view .LVU130
 376 0180 FFF7FEFF 		bl	_fx_utility_memory_copy
 377              	.LVL37:
 378 0184 CBE7     		b	.L19
 379              	.LVL38:
 380              	.L40:
 290:Middlewares/ST/filex/common/src/fx_file_read.c **** 
 381              		.loc 1 290 21 is_stmt 1 view .LVU131
 382 0186 0698     		ldr	r0, [sp, #24]
 383              	.LVL39:
 290:Middlewares/ST/filex/common/src/fx_file_read.c **** 
 384              		.loc 1 290 21 is_stmt 0 view .LVU132
 385 0188 FFF7FEFF 		bl	_tx_mutex_put
 386              	.LVL40:
 293:Middlewares/ST/filex/common/src/fx_file_read.c ****                 }
 387              		.loc 1 293 21 is_stmt 1 view .LVU133
 293:Middlewares/ST/filex/common/src/fx_file_read.c ****                 }
 388              		.loc 1 293 27 is_stmt 0 view .LVU134
 389 018c 90E0     		b	.L1
 390              	.LVL41:
 391              	.L39:
 316:Middlewares/ST/filex/common/src/fx_file_read.c **** 
 392              		.loc 1 316 21 is_stmt 1 view .LVU135
 393 018e 0698     		ldr	r0, [sp, #24]
 394              	.LVL42:
 316:Middlewares/ST/filex/common/src/fx_file_read.c **** 
 395              		.loc 1 316 21 is_stmt 0 view .LVU136
 396 0190 FFF7FEFF 		bl	_tx_mutex_put
 397              	.LVL43:
 319:Middlewares/ST/filex/common/src/fx_file_read.c ****                 }
 398              		.loc 1 319 21 is_stmt 1 view .LVU137
ARM GAS  C:\Users\HP\AppData\Local\Temp\ccgsMpnq.s 			page 15


 319:Middlewares/ST/filex/common/src/fx_file_read.c ****                 }
 399              		.loc 1 319 27 is_stmt 0 view .LVU138
 400 0194 8CE0     		b	.L1
 401              	.LVL44:
 402              	.L21:
 353:Middlewares/ST/filex/common/src/fx_file_read.c ****                 (((ULONG)media_ptr -> fx_media_bytes_per_sector) * sectors);
 354:Middlewares/ST/filex/common/src/fx_file_read.c ****         }
 355:Middlewares/ST/filex/common/src/fx_file_read.c **** 
 356:Middlewares/ST/filex/common/src/fx_file_read.c ****         /* At this point, we have either read a partial sector or have successfully
 357:Middlewares/ST/filex/common/src/fx_file_read.c ****            read one or more whole sectors.  Determine if we are at the end of
 358:Middlewares/ST/filex/common/src/fx_file_read.c ****            the current logical sector.  */
 359:Middlewares/ST/filex/common/src/fx_file_read.c ****         if (file_ptr -> fx_file_current_logical_offset >=
 360:Middlewares/ST/filex/common/src/fx_file_read.c ****             media_ptr -> fx_media_bytes_per_sector)
 361:Middlewares/ST/filex/common/src/fx_file_read.c ****         {
 362:Middlewares/ST/filex/common/src/fx_file_read.c **** 
 363:Middlewares/ST/filex/common/src/fx_file_read.c ****             /* Determine if we are at the exact physical end of the file at the end of reading.  */
 364:Middlewares/ST/filex/common/src/fx_file_read.c ****             if ((bytes_remaining == 0) && ((file_ptr -> fx_file_current_file_offset + (ULONG64)requ
 365:Middlewares/ST/filex/common/src/fx_file_read.c ****                                            file_ptr -> fx_file_current_available_size))
 366:Middlewares/ST/filex/common/src/fx_file_read.c ****             {
 367:Middlewares/ST/filex/common/src/fx_file_read.c **** 
 368:Middlewares/ST/filex/common/src/fx_file_read.c ****                 /* Skip the following file parameter adjustments.  The next write will
 369:Middlewares/ST/filex/common/src/fx_file_read.c ****                    detect the logical offset out of the range of the sector and reset
 370:Middlewares/ST/filex/common/src/fx_file_read.c ****                    all of the pertinent information.  */
 371:Middlewares/ST/filex/common/src/fx_file_read.c ****                 break;
 372:Middlewares/ST/filex/common/src/fx_file_read.c ****             }
 373:Middlewares/ST/filex/common/src/fx_file_read.c **** 
 374:Middlewares/ST/filex/common/src/fx_file_read.c ****             /* We need to move to the next logical sector, but first
 375:Middlewares/ST/filex/common/src/fx_file_read.c ****                determine if the next logical sector is within the same
 376:Middlewares/ST/filex/common/src/fx_file_read.c ****                cluster.  */
 377:Middlewares/ST/filex/common/src/fx_file_read.c **** 
 378:Middlewares/ST/filex/common/src/fx_file_read.c ****             /* Increment the current relative sector in the cluster.  */
 379:Middlewares/ST/filex/common/src/fx_file_read.c ****             file_ptr -> fx_file_current_relative_sector++;
 403              		.loc 1 379 13 is_stmt 1 view .LVU139
 404              		.loc 1 379 22 is_stmt 0 view .LVU140
 405 0196 A36B     		ldr	r3, [r4, #56]
 406              		.loc 1 379 56 view .LVU141
 407 0198 0133     		adds	r3, r3, #1
 408 019a A363     		str	r3, [r4, #56]
 380:Middlewares/ST/filex/common/src/fx_file_read.c **** 
 381:Middlewares/ST/filex/common/src/fx_file_read.c ****             /* Determine if this is in a new cluster.  */
 382:Middlewares/ST/filex/common/src/fx_file_read.c ****             if (file_ptr -> fx_file_current_relative_sector >=
 409              		.loc 1 382 13 is_stmt 1 view .LVU142
 383:Middlewares/ST/filex/common/src/fx_file_read.c ****                 media_ptr -> fx_media_sectors_per_cluster)
 410              		.loc 1 383 27 is_stmt 0 view .LVU143
 411 019c 6A6D     		ldr	r2, [r5, #84]
 382:Middlewares/ST/filex/common/src/fx_file_read.c ****                 media_ptr -> fx_media_sectors_per_cluster)
 412              		.loc 1 382 16 view .LVU144
 413 019e 9342     		cmp	r3, r2
 414 01a0 56D2     		bcs	.L41
 384:Middlewares/ST/filex/common/src/fx_file_read.c ****             {
 385:Middlewares/ST/filex/common/src/fx_file_read.c **** #ifdef FX_ENABLE_EXFAT
 386:Middlewares/ST/filex/common/src/fx_file_read.c ****                 if (file_ptr -> fx_file_dir_entry.fx_dir_entry_dont_use_fat & 1)
 387:Middlewares/ST/filex/common/src/fx_file_read.c ****                 {
 388:Middlewares/ST/filex/common/src/fx_file_read.c ****                     next_cluster = file_ptr -> fx_file_current_physical_cluster + 1;
 389:Middlewares/ST/filex/common/src/fx_file_read.c ****                 }
 390:Middlewares/ST/filex/common/src/fx_file_read.c ****                 else
 391:Middlewares/ST/filex/common/src/fx_file_read.c ****                 {
ARM GAS  C:\Users\HP\AppData\Local\Temp\ccgsMpnq.s 			page 16


 392:Middlewares/ST/filex/common/src/fx_file_read.c **** #endif /* FX_ENABLE_EXFAT */
 393:Middlewares/ST/filex/common/src/fx_file_read.c **** 
 394:Middlewares/ST/filex/common/src/fx_file_read.c ****                     /* Read the FAT entry of the current cluster to find
 395:Middlewares/ST/filex/common/src/fx_file_read.c ****                        the next cluster.  */
 396:Middlewares/ST/filex/common/src/fx_file_read.c ****                     status =  _fx_utility_FAT_entry_read(media_ptr,
 397:Middlewares/ST/filex/common/src/fx_file_read.c ****                                                          file_ptr -> fx_file_current_physical_clust
 398:Middlewares/ST/filex/common/src/fx_file_read.c **** 
 399:Middlewares/ST/filex/common/src/fx_file_read.c ****                     /* Determine if an error is present.  */
 400:Middlewares/ST/filex/common/src/fx_file_read.c ****                     if ((status != FX_SUCCESS) || (next_cluster < FX_FAT_ENTRY_START) ||
 401:Middlewares/ST/filex/common/src/fx_file_read.c ****                         (next_cluster > media_ptr -> fx_media_fat_reserved))
 402:Middlewares/ST/filex/common/src/fx_file_read.c ****                     {
 403:Middlewares/ST/filex/common/src/fx_file_read.c **** 
 404:Middlewares/ST/filex/common/src/fx_file_read.c ****                         /* Release media protection.  */
 405:Middlewares/ST/filex/common/src/fx_file_read.c ****                         FX_UNPROTECT
 406:Middlewares/ST/filex/common/src/fx_file_read.c **** 
 407:Middlewares/ST/filex/common/src/fx_file_read.c ****                         /* Send error message back to caller.  */
 408:Middlewares/ST/filex/common/src/fx_file_read.c ****                         if (status != FX_SUCCESS)
 409:Middlewares/ST/filex/common/src/fx_file_read.c ****                         {
 410:Middlewares/ST/filex/common/src/fx_file_read.c ****                             return(status);
 411:Middlewares/ST/filex/common/src/fx_file_read.c ****                         }
 412:Middlewares/ST/filex/common/src/fx_file_read.c ****                         else
 413:Middlewares/ST/filex/common/src/fx_file_read.c ****                         {
 414:Middlewares/ST/filex/common/src/fx_file_read.c ****                             return(FX_FILE_CORRUPT);
 415:Middlewares/ST/filex/common/src/fx_file_read.c ****                         }
 416:Middlewares/ST/filex/common/src/fx_file_read.c ****                     }
 417:Middlewares/ST/filex/common/src/fx_file_read.c **** #ifdef FX_ENABLE_EXFAT
 418:Middlewares/ST/filex/common/src/fx_file_read.c ****                 }
 419:Middlewares/ST/filex/common/src/fx_file_read.c **** #endif /* FX_ENABLE_EXFAT */
 420:Middlewares/ST/filex/common/src/fx_file_read.c **** 
 421:Middlewares/ST/filex/common/src/fx_file_read.c ****                 /* Otherwise, we have a new cluster.  Save it in the file
 422:Middlewares/ST/filex/common/src/fx_file_read.c ****                    control block and calculate a new logical sector value.  */
 423:Middlewares/ST/filex/common/src/fx_file_read.c ****                 file_ptr -> fx_file_current_physical_cluster =  next_cluster;
 424:Middlewares/ST/filex/common/src/fx_file_read.c ****                 file_ptr -> fx_file_current_relative_cluster++;
 425:Middlewares/ST/filex/common/src/fx_file_read.c ****                 file_ptr -> fx_file_current_logical_sector = ((ULONG)media_ptr -> fx_media_data_sec
 426:Middlewares/ST/filex/common/src/fx_file_read.c ****                     ((((ULONG64)next_cluster) - FX_FAT_ENTRY_START) *
 427:Middlewares/ST/filex/common/src/fx_file_read.c ****                      ((ULONG)media_ptr -> fx_media_sectors_per_cluster));
 428:Middlewares/ST/filex/common/src/fx_file_read.c ****                 file_ptr -> fx_file_current_relative_sector =  0;
 429:Middlewares/ST/filex/common/src/fx_file_read.c ****             }
 430:Middlewares/ST/filex/common/src/fx_file_read.c ****             else
 431:Middlewares/ST/filex/common/src/fx_file_read.c ****             {
 432:Middlewares/ST/filex/common/src/fx_file_read.c **** 
 433:Middlewares/ST/filex/common/src/fx_file_read.c ****                 /* Still within the same cluster so just increment the
 434:Middlewares/ST/filex/common/src/fx_file_read.c ****                    logical sector.  */
 435:Middlewares/ST/filex/common/src/fx_file_read.c ****                 file_ptr -> fx_file_current_logical_sector++;
 415              		.loc 1 435 17 is_stmt 1 view .LVU145
 416              		.loc 1 435 26 is_stmt 0 view .LVU146
 417 01a2 A36A     		ldr	r3, [r4, #40]
 418 01a4 E26A     		ldr	r2, [r4, #44]
 419              		.loc 1 435 59 view .LVU147
 420 01a6 0133     		adds	r3, r3, #1
 421 01a8 42F10002 		adc	r2, r2, #0
 422 01ac A362     		str	r3, [r4, #40]
 423 01ae E262     		str	r2, [r4, #44]
 424              	.L26:
 436:Middlewares/ST/filex/common/src/fx_file_read.c ****             }
 437:Middlewares/ST/filex/common/src/fx_file_read.c **** 
 438:Middlewares/ST/filex/common/src/fx_file_read.c ****             /* In either case, we are now positioned at a new sector so
ARM GAS  C:\Users\HP\AppData\Local\Temp\ccgsMpnq.s 			page 17


 439:Middlewares/ST/filex/common/src/fx_file_read.c ****                clear the logical sector offset.  */
 440:Middlewares/ST/filex/common/src/fx_file_read.c ****             file_ptr -> fx_file_current_logical_offset =  0;
 425              		.loc 1 440 13 is_stmt 1 view .LVU148
 426              		.loc 1 440 56 is_stmt 0 view .LVU149
 427 01b0 0023     		movs	r3, #0
 428 01b2 2363     		str	r3, [r4, #48]
 429              	.LVL45:
 430              	.L5:
 159:Middlewares/ST/filex/common/src/fx_file_read.c ****     {
 431              		.loc 1 159 11 is_stmt 1 view .LVU150
 432 01b4 002F     		cmp	r7, #0
 433 01b6 37D0     		beq	.L22
 163:Middlewares/ST/filex/common/src/fx_file_read.c ****             (bytes_remaining < media_ptr -> fx_media_bytes_per_sector))
 434              		.loc 1 163 9 view .LVU151
 163:Middlewares/ST/filex/common/src/fx_file_read.c ****             (bytes_remaining < media_ptr -> fx_media_bytes_per_sector))
 435              		.loc 1 163 23 is_stmt 0 view .LVU152
 436 01b8 236B     		ldr	r3, [r4, #48]
 163:Middlewares/ST/filex/common/src/fx_file_read.c ****             (bytes_remaining < media_ptr -> fx_media_bytes_per_sector))
 437              		.loc 1 163 12 view .LVU153
 438 01ba 1BB9     		cbnz	r3, .L6
 164:Middlewares/ST/filex/common/src/fx_file_read.c ****         {
 439              		.loc 1 164 42 discriminator 1 view .LVU154
 440 01bc AB6A     		ldr	r3, [r5, #40]
 163:Middlewares/ST/filex/common/src/fx_file_read.c ****             (bytes_remaining < media_ptr -> fx_media_bytes_per_sector))
 441              		.loc 1 163 58 discriminator 1 view .LVU155
 442 01be BB42     		cmp	r3, r7
 443 01c0 7FF664AF 		bls	.L7
 444              	.L6:
 170:Middlewares/ST/filex/common/src/fx_file_read.c ****                                                       file_ptr -> fx_file_current_logical_sector,
 445              		.loc 1 170 13 is_stmt 1 view .LVU156
 172:Middlewares/ST/filex/common/src/fx_file_read.c **** 
 446              		.loc 1 172 65 is_stmt 0 view .LVU157
 447 01c4 AB68     		ldr	r3, [r5, #8]
 170:Middlewares/ST/filex/common/src/fx_file_read.c ****                                                       file_ptr -> fx_file_current_logical_sector,
 448              		.loc 1 170 23 view .LVU158
 449 01c6 0422     		movs	r2, #4
 450 01c8 0292     		str	r2, [sp, #8]
 451 01ca 0122     		movs	r2, #1
 452 01cc 0192     		str	r2, [sp, #4]
 453 01ce 0093     		str	r3, [sp]
 454 01d0 D4E90A23 		ldrd	r2, [r4, #40]
 455 01d4 2846     		mov	r0, r5
 456 01d6 FFF7FEFF 		bl	_fx_utility_logical_sector_read
 457              	.LVL46:
 175:Middlewares/ST/filex/common/src/fx_file_read.c ****             {
 458              		.loc 1 175 13 is_stmt 1 view .LVU159
 175:Middlewares/ST/filex/common/src/fx_file_read.c ****             {
 459              		.loc 1 175 16 is_stmt 0 view .LVU160
 460 01da 8246     		mov	r10, r0
 461 01dc 0028     		cmp	r0, #0
 462 01de 7FF451AF 		bne	.L42
 186:Middlewares/ST/filex/common/src/fx_file_read.c ****                 file_ptr -> fx_file_current_logical_offset;
 463              		.loc 1 186 13 is_stmt 1 view .LVU161
 186:Middlewares/ST/filex/common/src/fx_file_read.c ****                 file_ptr -> fx_file_current_logical_offset;
 464              		.loc 1 186 37 is_stmt 0 view .LVU162
 465 01e2 AE6A     		ldr	r6, [r5, #40]
 187:Middlewares/ST/filex/common/src/fx_file_read.c **** 
ARM GAS  C:\Users\HP\AppData\Local\Temp\ccgsMpnq.s 			page 18


 466              		.loc 1 187 26 view .LVU163
 467 01e4 236B     		ldr	r3, [r4, #48]
 186:Middlewares/ST/filex/common/src/fx_file_read.c ****                 file_ptr -> fx_file_current_logical_offset;
 468              		.loc 1 186 24 view .LVU164
 469 01e6 F61A     		subs	r6, r6, r3
 470              	.LVL47:
 191:Middlewares/ST/filex/common/src/fx_file_read.c ****             {
 471              		.loc 1 191 13 is_stmt 1 view .LVU165
 191:Middlewares/ST/filex/common/src/fx_file_read.c ****             {
 472              		.loc 1 191 16 is_stmt 0 view .LVU166
 473 01e8 B742     		cmp	r7, r6
 474 01ea 00D2     		bcs	.L9
 195:Middlewares/ST/filex/common/src/fx_file_read.c ****             }
 475              		.loc 1 195 28 view .LVU167
 476 01ec 3E46     		mov	r6, r7
 477              	.LVL48:
 478              	.L9:
 199:Middlewares/ST/filex/common/src/fx_file_read.c ****                                     file_ptr -> fx_file_current_logical_offset,
 479              		.loc 1 199 13 is_stmt 1 view .LVU168
 199:Middlewares/ST/filex/common/src/fx_file_read.c ****                                     file_ptr -> fx_file_current_logical_offset,
 480              		.loc 1 199 57 is_stmt 0 view .LVU169
 481 01ee A868     		ldr	r0, [r5, #8]
 482              	.LVL49:
 199:Middlewares/ST/filex/common/src/fx_file_read.c ****                                     file_ptr -> fx_file_current_logical_offset,
 483              		.loc 1 199 13 view .LVU170
 484 01f0 3246     		mov	r2, r6
 485 01f2 4946     		mov	r1, r9
 486 01f4 1844     		add	r0, r0, r3
 487 01f6 FFF7FEFF 		bl	_fx_utility_memory_copy
 488              	.LVL50:
 204:Middlewares/ST/filex/common/src/fx_file_read.c ****                 file_ptr -> fx_file_current_logical_offset + copy_bytes;
 489              		.loc 1 204 13 is_stmt 1 view .LVU171
 205:Middlewares/ST/filex/common/src/fx_file_read.c **** 
 490              		.loc 1 205 26 is_stmt 0 view .LVU172
 491 01fa 236B     		ldr	r3, [r4, #48]
 205:Middlewares/ST/filex/common/src/fx_file_read.c **** 
 492              		.loc 1 205 60 view .LVU173
 493 01fc 3344     		add	r3, r3, r6
 204:Middlewares/ST/filex/common/src/fx_file_read.c ****                 file_ptr -> fx_file_current_logical_offset + copy_bytes;
 494              		.loc 1 204 56 view .LVU174
 495 01fe 2363     		str	r3, [r4, #48]
 208:Middlewares/ST/filex/common/src/fx_file_read.c **** 
 496              		.loc 1 208 13 is_stmt 1 view .LVU175
 208:Middlewares/ST/filex/common/src/fx_file_read.c **** 
 497              		.loc 1 208 29 is_stmt 0 view .LVU176
 498 0200 BF1B     		subs	r7, r7, r6
 499              	.LVL51:
 211:Middlewares/ST/filex/common/src/fx_file_read.c ****         }
 500              		.loc 1 211 13 is_stmt 1 view .LVU177
 211:Middlewares/ST/filex/common/src/fx_file_read.c ****         }
 501              		.loc 1 211 29 is_stmt 0 view .LVU178
 502 0202 B144     		add	r9, r9, r6
 503              	.LVL52:
 504              	.L10:
 359:Middlewares/ST/filex/common/src/fx_file_read.c ****             media_ptr -> fx_media_bytes_per_sector)
 505              		.loc 1 359 9 is_stmt 1 view .LVU179
 359:Middlewares/ST/filex/common/src/fx_file_read.c ****             media_ptr -> fx_media_bytes_per_sector)
ARM GAS  C:\Users\HP\AppData\Local\Temp\ccgsMpnq.s 			page 19


 506              		.loc 1 359 22 is_stmt 0 view .LVU180
 507 0204 226B     		ldr	r2, [r4, #48]
 360:Middlewares/ST/filex/common/src/fx_file_read.c ****         {
 508              		.loc 1 360 23 view .LVU181
 509 0206 AB6A     		ldr	r3, [r5, #40]
 359:Middlewares/ST/filex/common/src/fx_file_read.c ****             media_ptr -> fx_media_bytes_per_sector)
 510              		.loc 1 359 12 view .LVU182
 511 0208 9A42     		cmp	r2, r3
 512 020a D3D3     		bcc	.L5
 364:Middlewares/ST/filex/common/src/fx_file_read.c ****                                            file_ptr -> fx_file_current_available_size))
 513              		.loc 1 364 13 is_stmt 1 view .LVU183
 364:Middlewares/ST/filex/common/src/fx_file_read.c ****                                            file_ptr -> fx_file_current_available_size))
 514              		.loc 1 364 16 is_stmt 0 view .LVU184
 515 020c 002F     		cmp	r7, #0
 516 020e C2D1     		bne	.L21
 364:Middlewares/ST/filex/common/src/fx_file_read.c ****                                            file_ptr -> fx_file_current_available_size))
 517              		.loc 1 364 54 discriminator 1 view .LVU185
 518 0210 236C     		ldr	r3, [r4, #64]
 519 0212 626C     		ldr	r2, [r4, #68]
 364:Middlewares/ST/filex/common/src/fx_file_read.c ****                                            file_ptr -> fx_file_current_available_size))
 520              		.loc 1 364 85 discriminator 1 view .LVU186
 521 0214 0499     		ldr	r1, [sp, #16]
 522 0216 5B18     		adds	r3, r3, r1
 523 0218 42F10002 		adc	r2, r2, #0
 365:Middlewares/ST/filex/common/src/fx_file_read.c ****             {
 524              		.loc 1 365 53 discriminator 1 view .LVU187
 525 021c 206D     		ldr	r0, [r4, #80]
 526 021e 616D     		ldr	r1, [r4, #84]
 364:Middlewares/ST/filex/common/src/fx_file_read.c ****                                            file_ptr -> fx_file_current_available_size))
 527              		.loc 1 364 40 discriminator 1 view .LVU188
 528 0220 8342     		cmp	r3, r0
 529 0222 72EB0103 		sbcs	r3, r2, r1
 530 0226 B6D3     		bcc	.L21
 531              	.LVL53:
 532              	.L22:
 441:Middlewares/ST/filex/common/src/fx_file_read.c ****         }
 442:Middlewares/ST/filex/common/src/fx_file_read.c ****     }
 443:Middlewares/ST/filex/common/src/fx_file_read.c **** 
 444:Middlewares/ST/filex/common/src/fx_file_read.c ****     /* Adjust the current file offset accordingly.  */
 445:Middlewares/ST/filex/common/src/fx_file_read.c ****     file_ptr -> fx_file_current_file_offset =
 533              		.loc 1 445 5 is_stmt 1 view .LVU189
 446:Middlewares/ST/filex/common/src/fx_file_read.c ****         file_ptr -> fx_file_current_file_offset + (ULONG64)request_size;
 534              		.loc 1 446 18 is_stmt 0 view .LVU190
 535 0228 236C     		ldr	r3, [r4, #64]
 536 022a 626C     		ldr	r2, [r4, #68]
 537              		.loc 1 446 49 view .LVU191
 538 022c 0499     		ldr	r1, [sp, #16]
 539 022e 5B18     		adds	r3, r3, r1
 540 0230 42F10002 		adc	r2, r2, #0
 445:Middlewares/ST/filex/common/src/fx_file_read.c ****         file_ptr -> fx_file_current_file_offset + (ULONG64)request_size;
 541              		.loc 1 445 45 view .LVU192
 542 0234 2364     		str	r3, [r4, #64]
 543 0236 6264     		str	r2, [r4, #68]
 447:Middlewares/ST/filex/common/src/fx_file_read.c **** 
 448:Middlewares/ST/filex/common/src/fx_file_read.c ****     /* Store the number of bytes actually read.  */
 449:Middlewares/ST/filex/common/src/fx_file_read.c ****     *actual_size =  request_size;
 544              		.loc 1 449 5 is_stmt 1 view .LVU193
ARM GAS  C:\Users\HP\AppData\Local\Temp\ccgsMpnq.s 			page 20


 545              		.loc 1 449 18 is_stmt 0 view .LVU194
 546 0238 059B     		ldr	r3, [sp, #20]
 547 023a 1960     		str	r1, [r3]
 450:Middlewares/ST/filex/common/src/fx_file_read.c **** 
 451:Middlewares/ST/filex/common/src/fx_file_read.c ****     /* Update the trace event with the bytes read.  */
 452:Middlewares/ST/filex/common/src/fx_file_read.c ****     FX_TRACE_EVENT_UPDATE(trace_event, trace_timestamp, FX_TRACE_FILE_READ, 0, 0, 0, request_size)
 453:Middlewares/ST/filex/common/src/fx_file_read.c **** 
 454:Middlewares/ST/filex/common/src/fx_file_read.c ****     /* Update the last accessed date.  */
 455:Middlewares/ST/filex/common/src/fx_file_read.c ****     file_ptr -> fx_file_dir_entry.fx_dir_entry_last_accessed_date =  _fx_system_date;
 548              		.loc 1 455 5 is_stmt 1 view .LVU195
 549              		.loc 1 455 67 is_stmt 0 view .LVU196
 550 023c 224B     		ldr	r3, .L43+8
 551 023e 1B68     		ldr	r3, [r3]
 552 0240 C4F89030 		str	r3, [r4, #144]
 456:Middlewares/ST/filex/common/src/fx_file_read.c **** 
 457:Middlewares/ST/filex/common/src/fx_file_read.c ****     /* Release media protection.  */
 458:Middlewares/ST/filex/common/src/fx_file_read.c ****     FX_UNPROTECT
 553              		.loc 1 458 5 is_stmt 1 view .LVU197
 554 0244 0698     		ldr	r0, [sp, #24]
 555 0246 FFF7FEFF 		bl	_tx_mutex_put
 556              	.LVL54:
 459:Middlewares/ST/filex/common/src/fx_file_read.c **** 
 460:Middlewares/ST/filex/common/src/fx_file_read.c ****     /* Return a successful status to the caller.  */
 461:Middlewares/ST/filex/common/src/fx_file_read.c ****     return(FX_SUCCESS);
 557              		.loc 1 461 5 view .LVU198
 558              		.loc 1 461 11 is_stmt 0 view .LVU199
 559 024a DDF81CA0 		ldr	r10, [sp, #28]
 560 024e 2FE0     		b	.L1
 561              	.LVL55:
 562              	.L41:
 396:Middlewares/ST/filex/common/src/fx_file_read.c ****                                                          file_ptr -> fx_file_current_physical_clust
 563              		.loc 1 396 21 is_stmt 1 view .LVU200
 396:Middlewares/ST/filex/common/src/fx_file_read.c ****                                                          file_ptr -> fx_file_current_physical_clust
 564              		.loc 1 396 31 is_stmt 0 view .LVU201
 565 0250 09AA     		add	r2, sp, #36
 566 0252 216A     		ldr	r1, [r4, #32]
 567 0254 2846     		mov	r0, r5
 568 0256 FFF7FEFF 		bl	_fx_utility_FAT_entry_read
 569              	.LVL56:
 400:Middlewares/ST/filex/common/src/fx_file_read.c ****                         (next_cluster > media_ptr -> fx_media_fat_reserved))
 570              		.loc 1 400 21 is_stmt 1 view .LVU202
 400:Middlewares/ST/filex/common/src/fx_file_read.c ****                         (next_cluster > media_ptr -> fx_media_fat_reserved))
 571              		.loc 1 400 24 is_stmt 0 view .LVU203
 572 025a 8246     		mov	r10, r0
 573 025c E8B9     		cbnz	r0, .L24
 400:Middlewares/ST/filex/common/src/fx_file_read.c ****                         (next_cluster > media_ptr -> fx_media_fat_reserved))
 574              		.loc 1 400 65 discriminator 1 view .LVU204
 575 025e 099B     		ldr	r3, [sp, #36]
 400:Middlewares/ST/filex/common/src/fx_file_read.c ****                         (next_cluster > media_ptr -> fx_media_fat_reserved))
 576              		.loc 1 400 48 discriminator 1 view .LVU205
 577 0260 012B     		cmp	r3, #1
 578 0262 1AD9     		bls	.L24
 401:Middlewares/ST/filex/common/src/fx_file_read.c ****                     {
 579              		.loc 1 401 51 discriminator 2 view .LVU206
 580 0264 05F50052 		add	r2, r5, #8192
 581 0268 D2F8A824 		ldr	r2, [r2, #1192]
 400:Middlewares/ST/filex/common/src/fx_file_read.c ****                         (next_cluster > media_ptr -> fx_media_fat_reserved))
ARM GAS  C:\Users\HP\AppData\Local\Temp\ccgsMpnq.s 			page 21


 582              		.loc 1 400 87 discriminator 2 view .LVU207
 583 026c 9342     		cmp	r3, r2
 584 026e 14D8     		bhi	.L24
 423:Middlewares/ST/filex/common/src/fx_file_read.c ****                 file_ptr -> fx_file_current_relative_cluster++;
 585              		.loc 1 423 17 is_stmt 1 view .LVU208
 423:Middlewares/ST/filex/common/src/fx_file_read.c ****                 file_ptr -> fx_file_current_relative_cluster++;
 586              		.loc 1 423 62 is_stmt 0 view .LVU209
 587 0270 2362     		str	r3, [r4, #32]
 424:Middlewares/ST/filex/common/src/fx_file_read.c ****                 file_ptr -> fx_file_current_logical_sector = ((ULONG)media_ptr -> fx_media_data_sec
 588              		.loc 1 424 17 is_stmt 1 view .LVU210
 424:Middlewares/ST/filex/common/src/fx_file_read.c ****                 file_ptr -> fx_file_current_logical_sector = ((ULONG)media_ptr -> fx_media_data_sec
 589              		.loc 1 424 26 is_stmt 0 view .LVU211
 590 0272 626B     		ldr	r2, [r4, #52]
 424:Middlewares/ST/filex/common/src/fx_file_read.c ****                 file_ptr -> fx_file_current_logical_sector = ((ULONG)media_ptr -> fx_media_data_sec
 591              		.loc 1 424 61 view .LVU212
 592 0274 0132     		adds	r2, r2, #1
 593 0276 6263     		str	r2, [r4, #52]
 425:Middlewares/ST/filex/common/src/fx_file_read.c ****                     ((((ULONG64)next_cluster) - FX_FAT_ENTRY_START) *
 594              		.loc 1 425 17 is_stmt 1 view .LVU213
 425:Middlewares/ST/filex/common/src/fx_file_read.c ****                     ((((ULONG64)next_cluster) - FX_FAT_ENTRY_START) *
 595              		.loc 1 425 80 is_stmt 0 view .LVU214
 596 0278 296D     		ldr	r1, [r5, #80]
 425:Middlewares/ST/filex/common/src/fx_file_read.c ****                     ((((ULONG64)next_cluster) - FX_FAT_ENTRY_START) *
 597              		.loc 1 425 63 view .LVU215
 598 027a 0026     		movs	r6, #0
 426:Middlewares/ST/filex/common/src/fx_file_read.c ****                      ((ULONG)media_ptr -> fx_media_sectors_per_cluster));
 599              		.loc 1 426 47 view .LVU216
 600 027c 023B     		subs	r3, r3, #2
 601 027e 46F1FF3C 		adc	ip, r6, #-1
 427:Middlewares/ST/filex/common/src/fx_file_read.c ****                 file_ptr -> fx_file_current_relative_sector =  0;
 602              		.loc 1 427 40 view .LVU217
 603 0282 686D     		ldr	r0, [r5, #84]
 604              	.LVL57:
 426:Middlewares/ST/filex/common/src/fx_file_read.c ****                      ((ULONG)media_ptr -> fx_media_sectors_per_cluster));
 605              		.loc 1 426 69 view .LVU218
 606 0284 A3FB0032 		umull	r3, r2, r3, r0
 607 0288 00FB0C22 		mla	r2, r0, ip, r2
 425:Middlewares/ST/filex/common/src/fx_file_read.c ****                     ((((ULONG64)next_cluster) - FX_FAT_ENTRY_START) *
 608              		.loc 1 425 111 view .LVU219
 609 028c CB18     		adds	r3, r1, r3
 610 028e 42F10002 		adc	r2, r2, #0
 425:Middlewares/ST/filex/common/src/fx_file_read.c ****                     ((((ULONG64)next_cluster) - FX_FAT_ENTRY_START) *
 611              		.loc 1 425 60 view .LVU220
 612 0292 A362     		str	r3, [r4, #40]
 613 0294 E262     		str	r2, [r4, #44]
 428:Middlewares/ST/filex/common/src/fx_file_read.c ****             }
 614              		.loc 1 428 17 is_stmt 1 view .LVU221
 428:Middlewares/ST/filex/common/src/fx_file_read.c ****             }
 615              		.loc 1 428 61 is_stmt 0 view .LVU222
 616 0296 A663     		str	r6, [r4, #56]
 617 0298 8AE7     		b	.L26
 618              	.LVL58:
 619              	.L24:
 405:Middlewares/ST/filex/common/src/fx_file_read.c **** 
 620              		.loc 1 405 25 is_stmt 1 view .LVU223
 621 029a 0698     		ldr	r0, [sp, #24]
 622              	.LVL59:
ARM GAS  C:\Users\HP\AppData\Local\Temp\ccgsMpnq.s 			page 22


 405:Middlewares/ST/filex/common/src/fx_file_read.c **** 
 623              		.loc 1 405 25 is_stmt 0 view .LVU224
 624 029c FFF7FEFF 		bl	_tx_mutex_put
 625              	.LVL60:
 408:Middlewares/ST/filex/common/src/fx_file_read.c ****                         {
 626              		.loc 1 408 25 is_stmt 1 view .LVU225
 408:Middlewares/ST/filex/common/src/fx_file_read.c ****                         {
 627              		.loc 1 408 28 is_stmt 0 view .LVU226
 628 02a0 BAF1000F 		cmp	r10, #0
 629 02a4 04D1     		bne	.L1
 414:Middlewares/ST/filex/common/src/fx_file_read.c ****                         }
 630              		.loc 1 414 35 view .LVU227
 631 02a6 4FF0080A 		mov	r10, #8
 632              	.LVL61:
 414:Middlewares/ST/filex/common/src/fx_file_read.c ****                         }
 633              		.loc 1 414 35 view .LVU228
 634 02aa 01E0     		b	.L1
 635              	.LVL62:
 636              	.L28:
 106:Middlewares/ST/filex/common/src/fx_file_read.c ****     }
 637              		.loc 1 106 15 view .LVU229
 638 02ac 4FF0070A 		mov	r10, #7
 639              	.LVL63:
 640              	.L1:
 462:Middlewares/ST/filex/common/src/fx_file_read.c **** }
 641              		.loc 1 462 1 view .LVU230
 642 02b0 5046     		mov	r0, r10
 643 02b2 0BB0     		add	sp, sp, #44
 644              	.LCFI2:
 645              		.cfi_remember_state
 646              		.cfi_def_cfa_offset 36
 647              		@ sp needed
 648 02b4 BDE8F08F 		pop	{r4, r5, r6, r7, r8, r9, r10, fp, pc}
 649              	.LVL64:
 650              	.L30:
 651              	.LCFI3:
 652              		.cfi_restore_state
 124:Middlewares/ST/filex/common/src/fx_file_read.c **** 
 653              		.loc 1 124 5 view .LVU231
 654 02b8 4FF0110A 		mov	r10, #17
 655 02bc F8E7     		b	.L1
 656              	.L44:
 657 02be 00BF     		.align	2
 658              	.L43:
 659 02c0 454C4946 		.word	1179208773
 660 02c4 4944454D 		.word	1296385097
 661 02c8 00000000 		.word	_fx_system_date
 662              		.cfi_endproc
 663              	.LFE8:
 665              		.text
 666              	.Letext0:
 667              		.file 2 "Middlewares/ST/threadx/ports/cortex_m4/gnu/inc/tx_port.h"
 668              		.file 3 "Middlewares/ST/threadx/common/inc/tx_api.h"
 669              		.file 4 "Middlewares/ST/filex/common/inc/fx_api.h"
 670              		.file 5 "Middlewares/ST/filex/common/inc/fx_system.h"
 671              		.file 6 "Middlewares/ST/filex/common/inc/fx_utility.h"
ARM GAS  C:\Users\HP\AppData\Local\Temp\ccgsMpnq.s 			page 23

