ARM GAS  C:\Users\HP\AppData\Local\Temp\cceUQvP1.s 			page 1


   1              		.cpu cortex-m4
   2              		.arch armv7e-m
   3              		.fpu fpv4-sp-d16
   4              		.eabi_attribute 27, 1
   5              		.eabi_attribute 28, 1
   6              		.eabi_attribute 20, 1
   7              		.eabi_attribute 21, 1
   8              		.eabi_attribute 23, 3
   9              		.eabi_attribute 24, 1
  10              		.eabi_attribute 25, 1
  11              		.eabi_attribute 26, 1
  12              		.eabi_attribute 30, 1
  13              		.eabi_attribute 34, 1
  14              		.eabi_attribute 18, 4
  15              		.file	"fx_file_extended_relative_seek.c"
  16              		.text
  17              	.Ltext0:
  18              		.cfi_sections	.debug_frame
  19              		.section	.text._fx_file_extended_relative_seek,"ax",%progbits
  20              		.align	1
  21              		.global	_fx_file_extended_relative_seek
  22              		.syntax unified
  23              		.thumb
  24              		.thumb_func
  26              	_fx_file_extended_relative_seek:
  27              	.LVL0:
  28              	.LFB8:
  29              		.file 1 "Middlewares/ST/filex/common/src/fx_file_extended_relative_seek.c"
   1:Middlewares/ST/filex/common/src/fx_file_extended_relative_seek.c **** /**************************************************************************/
   2:Middlewares/ST/filex/common/src/fx_file_extended_relative_seek.c **** /*                                                                        */
   3:Middlewares/ST/filex/common/src/fx_file_extended_relative_seek.c **** /*       Copyright (c) Microsoft Corporation. All rights reserved.        */
   4:Middlewares/ST/filex/common/src/fx_file_extended_relative_seek.c **** /*                                                                        */
   5:Middlewares/ST/filex/common/src/fx_file_extended_relative_seek.c **** /*       This software is licensed under the Microsoft Software License   */
   6:Middlewares/ST/filex/common/src/fx_file_extended_relative_seek.c **** /*       Terms for Microsoft Azure RTOS. Full text of the license can be  */
   7:Middlewares/ST/filex/common/src/fx_file_extended_relative_seek.c **** /*       found in the LICENSE file at https://aka.ms/AzureRTOS_EULA       */
   8:Middlewares/ST/filex/common/src/fx_file_extended_relative_seek.c **** /*       and in the root directory of this software.                      */
   9:Middlewares/ST/filex/common/src/fx_file_extended_relative_seek.c **** /*                                                                        */
  10:Middlewares/ST/filex/common/src/fx_file_extended_relative_seek.c **** /**************************************************************************/
  11:Middlewares/ST/filex/common/src/fx_file_extended_relative_seek.c **** 
  12:Middlewares/ST/filex/common/src/fx_file_extended_relative_seek.c **** 
  13:Middlewares/ST/filex/common/src/fx_file_extended_relative_seek.c **** /**************************************************************************/
  14:Middlewares/ST/filex/common/src/fx_file_extended_relative_seek.c **** /**************************************************************************/
  15:Middlewares/ST/filex/common/src/fx_file_extended_relative_seek.c **** /**                                                                       */
  16:Middlewares/ST/filex/common/src/fx_file_extended_relative_seek.c **** /** FileX Component                                                       */
  17:Middlewares/ST/filex/common/src/fx_file_extended_relative_seek.c **** /**                                                                       */
  18:Middlewares/ST/filex/common/src/fx_file_extended_relative_seek.c **** /**   File                                                                */
  19:Middlewares/ST/filex/common/src/fx_file_extended_relative_seek.c **** /**                                                                       */
  20:Middlewares/ST/filex/common/src/fx_file_extended_relative_seek.c **** /**************************************************************************/
  21:Middlewares/ST/filex/common/src/fx_file_extended_relative_seek.c **** /**************************************************************************/
  22:Middlewares/ST/filex/common/src/fx_file_extended_relative_seek.c **** 
  23:Middlewares/ST/filex/common/src/fx_file_extended_relative_seek.c **** #define FX_SOURCE_CODE
  24:Middlewares/ST/filex/common/src/fx_file_extended_relative_seek.c **** 
  25:Middlewares/ST/filex/common/src/fx_file_extended_relative_seek.c **** 
  26:Middlewares/ST/filex/common/src/fx_file_extended_relative_seek.c **** /* Include necessary system files.  */
  27:Middlewares/ST/filex/common/src/fx_file_extended_relative_seek.c **** 
  28:Middlewares/ST/filex/common/src/fx_file_extended_relative_seek.c **** #include "fx_api.h"
  29:Middlewares/ST/filex/common/src/fx_file_extended_relative_seek.c **** #include "fx_system.h"
ARM GAS  C:\Users\HP\AppData\Local\Temp\cceUQvP1.s 			page 2


  30:Middlewares/ST/filex/common/src/fx_file_extended_relative_seek.c **** #include "fx_directory.h"
  31:Middlewares/ST/filex/common/src/fx_file_extended_relative_seek.c **** #include "fx_file.h"
  32:Middlewares/ST/filex/common/src/fx_file_extended_relative_seek.c **** #include "fx_utility.h"
  33:Middlewares/ST/filex/common/src/fx_file_extended_relative_seek.c **** 
  34:Middlewares/ST/filex/common/src/fx_file_extended_relative_seek.c **** 
  35:Middlewares/ST/filex/common/src/fx_file_extended_relative_seek.c **** /**************************************************************************/
  36:Middlewares/ST/filex/common/src/fx_file_extended_relative_seek.c **** /*                                                                        */
  37:Middlewares/ST/filex/common/src/fx_file_extended_relative_seek.c **** /*  FUNCTION                                               RELEASE        */
  38:Middlewares/ST/filex/common/src/fx_file_extended_relative_seek.c **** /*                                                                        */
  39:Middlewares/ST/filex/common/src/fx_file_extended_relative_seek.c **** /*    _fx_file_extended_relative_seek                     PORTABLE C      */
  40:Middlewares/ST/filex/common/src/fx_file_extended_relative_seek.c **** /*                                                           6.1          */
  41:Middlewares/ST/filex/common/src/fx_file_extended_relative_seek.c **** /*  AUTHOR                                                                */
  42:Middlewares/ST/filex/common/src/fx_file_extended_relative_seek.c **** /*                                                                        */
  43:Middlewares/ST/filex/common/src/fx_file_extended_relative_seek.c **** /*    William E. Lamie, Microsoft Corporation                             */
  44:Middlewares/ST/filex/common/src/fx_file_extended_relative_seek.c **** /*                                                                        */
  45:Middlewares/ST/filex/common/src/fx_file_extended_relative_seek.c **** /*  DESCRIPTION                                                           */
  46:Middlewares/ST/filex/common/src/fx_file_extended_relative_seek.c **** /*                                                                        */
  47:Middlewares/ST/filex/common/src/fx_file_extended_relative_seek.c **** /*    This function positions the internal file pointers to the specified */
  48:Middlewares/ST/filex/common/src/fx_file_extended_relative_seek.c **** /*    byte relative offset such that the next read or write operation is  */
  49:Middlewares/ST/filex/common/src/fx_file_extended_relative_seek.c **** /*    performed there.                                                    */
  50:Middlewares/ST/filex/common/src/fx_file_extended_relative_seek.c **** /*                                                                        */
  51:Middlewares/ST/filex/common/src/fx_file_extended_relative_seek.c **** /*  INPUT                                                                 */
  52:Middlewares/ST/filex/common/src/fx_file_extended_relative_seek.c **** /*                                                                        */
  53:Middlewares/ST/filex/common/src/fx_file_extended_relative_seek.c **** /*    file_ptr                              File control block pointer    */
  54:Middlewares/ST/filex/common/src/fx_file_extended_relative_seek.c **** /*    byte_offset                           Byte offset of the seek       */
  55:Middlewares/ST/filex/common/src/fx_file_extended_relative_seek.c **** /*    seek_from                             Direction for relative seek,  */
  56:Middlewares/ST/filex/common/src/fx_file_extended_relative_seek.c **** /*                                          legal values are:             */
  57:Middlewares/ST/filex/common/src/fx_file_extended_relative_seek.c **** /*                                                                        */
  58:Middlewares/ST/filex/common/src/fx_file_extended_relative_seek.c **** /*                                              FX_SEEK_BEGIN             */
  59:Middlewares/ST/filex/common/src/fx_file_extended_relative_seek.c **** /*                                              FX_SEEK_END               */
  60:Middlewares/ST/filex/common/src/fx_file_extended_relative_seek.c **** /*                                              FX_SEEK_FORWARD           */
  61:Middlewares/ST/filex/common/src/fx_file_extended_relative_seek.c **** /*                                              FX_SEEK_BACK              */
  62:Middlewares/ST/filex/common/src/fx_file_extended_relative_seek.c **** /*                                                                        */
  63:Middlewares/ST/filex/common/src/fx_file_extended_relative_seek.c **** /*  OUTPUT                                                                */
  64:Middlewares/ST/filex/common/src/fx_file_extended_relative_seek.c **** /*                                                                        */
  65:Middlewares/ST/filex/common/src/fx_file_extended_relative_seek.c **** /*    return status                                                       */
  66:Middlewares/ST/filex/common/src/fx_file_extended_relative_seek.c **** /*                                                                        */
  67:Middlewares/ST/filex/common/src/fx_file_extended_relative_seek.c **** /*  CALLS                                                                 */
  68:Middlewares/ST/filex/common/src/fx_file_extended_relative_seek.c **** /*                                                                        */
  69:Middlewares/ST/filex/common/src/fx_file_extended_relative_seek.c **** /*    _fx_file_extended_seek                Seek to specified position    */
  70:Middlewares/ST/filex/common/src/fx_file_extended_relative_seek.c **** /*                                                                        */
  71:Middlewares/ST/filex/common/src/fx_file_extended_relative_seek.c **** /*  CALLED BY                                                             */
  72:Middlewares/ST/filex/common/src/fx_file_extended_relative_seek.c **** /*                                                                        */
  73:Middlewares/ST/filex/common/src/fx_file_extended_relative_seek.c **** /*    Application Code                                                    */
  74:Middlewares/ST/filex/common/src/fx_file_extended_relative_seek.c **** /*                                                                        */
  75:Middlewares/ST/filex/common/src/fx_file_extended_relative_seek.c **** /*  RELEASE HISTORY                                                       */
  76:Middlewares/ST/filex/common/src/fx_file_extended_relative_seek.c **** /*                                                                        */
  77:Middlewares/ST/filex/common/src/fx_file_extended_relative_seek.c **** /*    DATE              NAME                      DESCRIPTION             */
  78:Middlewares/ST/filex/common/src/fx_file_extended_relative_seek.c **** /*                                                                        */
  79:Middlewares/ST/filex/common/src/fx_file_extended_relative_seek.c **** /*  05-19-2020     William E. Lamie         Initial Version 6.0           */
  80:Middlewares/ST/filex/common/src/fx_file_extended_relative_seek.c **** /*  09-30-2020     William E. Lamie         Modified comment(s),          */
  81:Middlewares/ST/filex/common/src/fx_file_extended_relative_seek.c **** /*                                            resulting in version 6.1    */
  82:Middlewares/ST/filex/common/src/fx_file_extended_relative_seek.c **** /*                                                                        */
  83:Middlewares/ST/filex/common/src/fx_file_extended_relative_seek.c **** /**************************************************************************/
  84:Middlewares/ST/filex/common/src/fx_file_extended_relative_seek.c **** UINT  _fx_file_extended_relative_seek(FX_FILE *file_ptr, ULONG64 byte_offset, UINT seek_from)
  85:Middlewares/ST/filex/common/src/fx_file_extended_relative_seek.c **** {
  30              		.loc 1 85 1 view -0
ARM GAS  C:\Users\HP\AppData\Local\Temp\cceUQvP1.s 			page 3


  31              		.cfi_startproc
  32              		@ args = 4, pretend = 0, frame = 0
  33              		@ frame_needed = 0, uses_anonymous_args = 0
  34              		.loc 1 85 1 is_stmt 0 view .LVU1
  35 0000 38B5     		push	{r3, r4, r5, lr}
  36              	.LCFI0:
  37              		.cfi_def_cfa_offset 16
  38              		.cfi_offset 3, -16
  39              		.cfi_offset 4, -12
  40              		.cfi_offset 5, -8
  41              		.cfi_offset 14, -4
  42 0002 049C     		ldr	r4, [sp, #16]
  86:Middlewares/ST/filex/common/src/fx_file_extended_relative_seek.c **** 
  87:Middlewares/ST/filex/common/src/fx_file_extended_relative_seek.c **** #ifndef FX_MEDIA_STATISTICS_DISABLE
  88:Middlewares/ST/filex/common/src/fx_file_extended_relative_seek.c **** FX_MEDIA *media_ptr;
  43              		.loc 1 88 1 is_stmt 1 view .LVU2
  89:Middlewares/ST/filex/common/src/fx_file_extended_relative_seek.c **** 
  90:Middlewares/ST/filex/common/src/fx_file_extended_relative_seek.c ****     /* First, determine if the file is still open.  */
  91:Middlewares/ST/filex/common/src/fx_file_extended_relative_seek.c ****     if (file_ptr -> fx_file_id != FX_FILE_ID)
  44              		.loc 1 91 5 view .LVU3
  45              		.loc 1 91 8 is_stmt 0 view .LVU4
  46 0004 1E49     		ldr	r1, .L13
  47 0006 0568     		ldr	r5, [r0]
  48 0008 8D42     		cmp	r5, r1
  49 000a 37D1     		bne	.L8
  92:Middlewares/ST/filex/common/src/fx_file_extended_relative_seek.c ****     {
  93:Middlewares/ST/filex/common/src/fx_file_extended_relative_seek.c **** 
  94:Middlewares/ST/filex/common/src/fx_file_extended_relative_seek.c ****         /* Return the file not open error status.  */
  95:Middlewares/ST/filex/common/src/fx_file_extended_relative_seek.c ****         return(FX_NOT_OPEN);
  96:Middlewares/ST/filex/common/src/fx_file_extended_relative_seek.c ****     }
  97:Middlewares/ST/filex/common/src/fx_file_extended_relative_seek.c **** 
  98:Middlewares/ST/filex/common/src/fx_file_extended_relative_seek.c ****     /* Setup pointer to media structure.  */
  99:Middlewares/ST/filex/common/src/fx_file_extended_relative_seek.c ****     media_ptr =  file_ptr -> fx_file_media_ptr;
  50              		.loc 1 99 5 is_stmt 1 view .LVU5
  51              		.loc 1 99 15 is_stmt 0 view .LVU6
  52 000c 856D     		ldr	r5, [r0, #88]
  53              	.LVL1:
 100:Middlewares/ST/filex/common/src/fx_file_extended_relative_seek.c **** 
 101:Middlewares/ST/filex/common/src/fx_file_extended_relative_seek.c ****     /* Increment the number of times this service has been called.  */
 102:Middlewares/ST/filex/common/src/fx_file_extended_relative_seek.c ****     media_ptr -> fx_media_file_relative_seeks++;
  54              		.loc 1 102 5 is_stmt 1 view .LVU7
  55              		.loc 1 102 15 is_stmt 0 view .LVU8
  56 000e D5F84011 		ldr	r1, [r5, #320]
  57              		.loc 1 102 46 view .LVU9
  58 0012 0131     		adds	r1, r1, #1
  59 0014 C5F84011 		str	r1, [r5, #320]
 103:Middlewares/ST/filex/common/src/fx_file_extended_relative_seek.c **** #endif
 104:Middlewares/ST/filex/common/src/fx_file_extended_relative_seek.c **** 
 105:Middlewares/ST/filex/common/src/fx_file_extended_relative_seek.c ****     /* If trace is enabled, insert this event into the trace buffer.  */
 106:Middlewares/ST/filex/common/src/fx_file_extended_relative_seek.c ****     FX_TRACE_IN_LINE_INSERT(FX_TRACE_FILE_RELATIVE_SEEK, file_ptr, byte_offset, seek_from, file_ptr
 107:Middlewares/ST/filex/common/src/fx_file_extended_relative_seek.c **** 
 108:Middlewares/ST/filex/common/src/fx_file_extended_relative_seek.c ****     /* Determine if seeking from the beginning is requested.  */
 109:Middlewares/ST/filex/common/src/fx_file_extended_relative_seek.c ****     if (seek_from == FX_SEEK_BEGIN)
  60              		.loc 1 109 5 is_stmt 1 view .LVU10
  61              		.loc 1 109 8 is_stmt 0 view .LVU11
  62 0018 74B1     		cbz	r4, .L10
 110:Middlewares/ST/filex/common/src/fx_file_extended_relative_seek.c ****     {
ARM GAS  C:\Users\HP\AppData\Local\Temp\cceUQvP1.s 			page 4


 111:Middlewares/ST/filex/common/src/fx_file_extended_relative_seek.c **** 
 112:Middlewares/ST/filex/common/src/fx_file_extended_relative_seek.c ****         /* Yes, use the base file seek routine to seek from the beginning of
 113:Middlewares/ST/filex/common/src/fx_file_extended_relative_seek.c ****            the file.  */
 114:Middlewares/ST/filex/common/src/fx_file_extended_relative_seek.c ****         return(_fx_file_extended_seek(file_ptr, byte_offset));
 115:Middlewares/ST/filex/common/src/fx_file_extended_relative_seek.c ****     }
 116:Middlewares/ST/filex/common/src/fx_file_extended_relative_seek.c ****     /* Otherwise, determine if seeking from the end is requested.  */
 117:Middlewares/ST/filex/common/src/fx_file_extended_relative_seek.c ****     else if (seek_from == FX_SEEK_END)
  63              		.loc 1 117 10 is_stmt 1 view .LVU12
  64              		.loc 1 117 13 is_stmt 0 view .LVU13
  65 001a 012C     		cmp	r4, #1
  66 001c 0FD0     		beq	.L11
 118:Middlewares/ST/filex/common/src/fx_file_extended_relative_seek.c ****     {
 119:Middlewares/ST/filex/common/src/fx_file_extended_relative_seek.c **** 
 120:Middlewares/ST/filex/common/src/fx_file_extended_relative_seek.c ****         /* Yes, seek from the end of the file.  */
 121:Middlewares/ST/filex/common/src/fx_file_extended_relative_seek.c **** 
 122:Middlewares/ST/filex/common/src/fx_file_extended_relative_seek.c ****         /* Determine if the requested seek offset is greater than
 123:Middlewares/ST/filex/common/src/fx_file_extended_relative_seek.c ****            the file size.  */
 124:Middlewares/ST/filex/common/src/fx_file_extended_relative_seek.c ****         if (byte_offset >= file_ptr -> fx_file_current_file_size)
 125:Middlewares/ST/filex/common/src/fx_file_extended_relative_seek.c ****         {
 126:Middlewares/ST/filex/common/src/fx_file_extended_relative_seek.c **** 
 127:Middlewares/ST/filex/common/src/fx_file_extended_relative_seek.c ****             /* Yes, just seek to the beginning of the file.  */
 128:Middlewares/ST/filex/common/src/fx_file_extended_relative_seek.c ****             return(_fx_file_extended_seek(file_ptr, ((ULONG64) 0)));
 129:Middlewares/ST/filex/common/src/fx_file_extended_relative_seek.c ****         }
 130:Middlewares/ST/filex/common/src/fx_file_extended_relative_seek.c ****         else
 131:Middlewares/ST/filex/common/src/fx_file_extended_relative_seek.c ****         {
 132:Middlewares/ST/filex/common/src/fx_file_extended_relative_seek.c **** 
 133:Middlewares/ST/filex/common/src/fx_file_extended_relative_seek.c ****             /* Logically seek from the end of the file.  */
 134:Middlewares/ST/filex/common/src/fx_file_extended_relative_seek.c ****             return(_fx_file_extended_seek(file_ptr, file_ptr -> fx_file_current_file_size - byte_of
 135:Middlewares/ST/filex/common/src/fx_file_extended_relative_seek.c ****         }
 136:Middlewares/ST/filex/common/src/fx_file_extended_relative_seek.c ****     }
 137:Middlewares/ST/filex/common/src/fx_file_extended_relative_seek.c ****     /* Otherwise, determine if seeking from the current position is requested.  */
 138:Middlewares/ST/filex/common/src/fx_file_extended_relative_seek.c ****     else if (seek_from == FX_SEEK_FORWARD)
  67              		.loc 1 138 10 is_stmt 1 view .LVU14
  68              		.loc 1 138 13 is_stmt 0 view .LVU15
  69 001e 022C     		cmp	r4, #2
  70 0020 1ED0     		beq	.L12
 139:Middlewares/ST/filex/common/src/fx_file_extended_relative_seek.c ****     {
 140:Middlewares/ST/filex/common/src/fx_file_extended_relative_seek.c **** 
 141:Middlewares/ST/filex/common/src/fx_file_extended_relative_seek.c ****         /* Yes, just seek ahead from the current file position.  */
 142:Middlewares/ST/filex/common/src/fx_file_extended_relative_seek.c ****         return(_fx_file_extended_seek(file_ptr, file_ptr -> fx_file_current_file_offset + byte_offs
 143:Middlewares/ST/filex/common/src/fx_file_extended_relative_seek.c ****     }
 144:Middlewares/ST/filex/common/src/fx_file_extended_relative_seek.c ****     /* Otherwise, seeking backward from the current position is assumed.  */
 145:Middlewares/ST/filex/common/src/fx_file_extended_relative_seek.c ****     else
 146:Middlewares/ST/filex/common/src/fx_file_extended_relative_seek.c ****     {
 147:Middlewares/ST/filex/common/src/fx_file_extended_relative_seek.c **** 
 148:Middlewares/ST/filex/common/src/fx_file_extended_relative_seek.c ****         /* Determine if the backward offset is greater than the current file offset.  */
 149:Middlewares/ST/filex/common/src/fx_file_extended_relative_seek.c ****         if (byte_offset >= file_ptr -> fx_file_current_file_offset)
  71              		.loc 1 149 9 is_stmt 1 view .LVU16
  72              		.loc 1 149 37 is_stmt 0 view .LVU17
  73 0022 016C     		ldr	r1, [r0, #64]
  74 0024 446C     		ldr	r4, [r0, #68]
  75              		.loc 1 149 12 view .LVU18
  76 0026 8A42     		cmp	r2, r1
  77 0028 73EB0405 		sbcs	r5, r3, r4
  78              	.LVL2:
  79              		.loc 1 149 12 view .LVU19
  80 002c 20D3     		bcc	.L7
ARM GAS  C:\Users\HP\AppData\Local\Temp\cceUQvP1.s 			page 5


 150:Middlewares/ST/filex/common/src/fx_file_extended_relative_seek.c ****         {
 151:Middlewares/ST/filex/common/src/fx_file_extended_relative_seek.c **** 
 152:Middlewares/ST/filex/common/src/fx_file_extended_relative_seek.c ****             /* Yes, just position the file to the beginning.  */
 153:Middlewares/ST/filex/common/src/fx_file_extended_relative_seek.c ****             return(_fx_file_extended_seek(file_ptr, ((ULONG64) 0)));
  81              		.loc 1 153 13 is_stmt 1 view .LVU20
  82              		.loc 1 153 20 is_stmt 0 view .LVU21
  83 002e 0022     		movs	r2, #0
  84              	.LVL3:
  85              		.loc 1 153 20 view .LVU22
  86 0030 0023     		movs	r3, #0
  87 0032 FFF7FEFF 		bl	_fx_file_extended_seek
  88              	.LVL4:
  89              		.loc 1 153 20 view .LVU23
  90 0036 22E0     		b	.L1
  91              	.LVL5:
  92              	.L10:
 114:Middlewares/ST/filex/common/src/fx_file_extended_relative_seek.c ****     }
  93              		.loc 1 114 9 is_stmt 1 view .LVU24
 114:Middlewares/ST/filex/common/src/fx_file_extended_relative_seek.c ****     }
  94              		.loc 1 114 16 is_stmt 0 view .LVU25
  95 0038 FFF7FEFF 		bl	_fx_file_extended_seek
  96              	.LVL6:
 114:Middlewares/ST/filex/common/src/fx_file_extended_relative_seek.c ****     }
  97              		.loc 1 114 16 view .LVU26
  98 003c 1FE0     		b	.L1
  99              	.LVL7:
 100              	.L11:
 124:Middlewares/ST/filex/common/src/fx_file_extended_relative_seek.c ****         {
 101              		.loc 1 124 9 is_stmt 1 view .LVU27
 124:Middlewares/ST/filex/common/src/fx_file_extended_relative_seek.c ****         {
 102              		.loc 1 124 37 is_stmt 0 view .LVU28
 103 003e 816C     		ldr	r1, [r0, #72]
 104 0040 C46C     		ldr	r4, [r0, #76]
 124:Middlewares/ST/filex/common/src/fx_file_extended_relative_seek.c ****         {
 105              		.loc 1 124 12 view .LVU29
 106 0042 8A42     		cmp	r2, r1
 107 0044 73EB0405 		sbcs	r5, r3, r4
 108              	.LVL8:
 124:Middlewares/ST/filex/common/src/fx_file_extended_relative_seek.c ****         {
 109              		.loc 1 124 12 view .LVU30
 110 0048 04D3     		bcc	.L5
 128:Middlewares/ST/filex/common/src/fx_file_extended_relative_seek.c ****         }
 111              		.loc 1 128 13 is_stmt 1 view .LVU31
 128:Middlewares/ST/filex/common/src/fx_file_extended_relative_seek.c ****         }
 112              		.loc 1 128 20 is_stmt 0 view .LVU32
 113 004a 0022     		movs	r2, #0
 114              	.LVL9:
 128:Middlewares/ST/filex/common/src/fx_file_extended_relative_seek.c ****         }
 115              		.loc 1 128 20 view .LVU33
 116 004c 0023     		movs	r3, #0
 117 004e FFF7FEFF 		bl	_fx_file_extended_seek
 118              	.LVL10:
 128:Middlewares/ST/filex/common/src/fx_file_extended_relative_seek.c ****         }
 119              		.loc 1 128 20 view .LVU34
 120 0052 14E0     		b	.L1
 121              	.LVL11:
 122              	.L5:
ARM GAS  C:\Users\HP\AppData\Local\Temp\cceUQvP1.s 			page 6


 134:Middlewares/ST/filex/common/src/fx_file_extended_relative_seek.c ****         }
 123              		.loc 1 134 13 is_stmt 1 view .LVU35
 134:Middlewares/ST/filex/common/src/fx_file_extended_relative_seek.c ****         }
 124              		.loc 1 134 20 is_stmt 0 view .LVU36
 125 0054 8A1A     		subs	r2, r1, r2
 126              	.LVL12:
 134:Middlewares/ST/filex/common/src/fx_file_extended_relative_seek.c ****         }
 127              		.loc 1 134 20 view .LVU37
 128 0056 64EB0303 		sbc	r3, r4, r3
 129 005a FFF7FEFF 		bl	_fx_file_extended_seek
 130              	.LVL13:
 134:Middlewares/ST/filex/common/src/fx_file_extended_relative_seek.c ****         }
 131              		.loc 1 134 20 view .LVU38
 132 005e 0EE0     		b	.L1
 133              	.LVL14:
 134              	.L12:
 142:Middlewares/ST/filex/common/src/fx_file_extended_relative_seek.c ****     }
 135              		.loc 1 142 9 is_stmt 1 view .LVU39
 142:Middlewares/ST/filex/common/src/fx_file_extended_relative_seek.c ****     }
 136              		.loc 1 142 58 is_stmt 0 view .LVU40
 137 0060 016C     		ldr	r1, [r0, #64]
 138 0062 446C     		ldr	r4, [r0, #68]
 142:Middlewares/ST/filex/common/src/fx_file_extended_relative_seek.c ****     }
 139              		.loc 1 142 16 view .LVU41
 140 0064 8A18     		adds	r2, r1, r2
 141              	.LVL15:
 142:Middlewares/ST/filex/common/src/fx_file_extended_relative_seek.c ****     }
 142              		.loc 1 142 16 view .LVU42
 143 0066 44EB0303 		adc	r3, r4, r3
 144 006a FFF7FEFF 		bl	_fx_file_extended_seek
 145              	.LVL16:
 142:Middlewares/ST/filex/common/src/fx_file_extended_relative_seek.c ****     }
 146              		.loc 1 142 16 view .LVU43
 147 006e 06E0     		b	.L1
 148              	.LVL17:
 149              	.L7:
 154:Middlewares/ST/filex/common/src/fx_file_extended_relative_seek.c ****         }
 155:Middlewares/ST/filex/common/src/fx_file_extended_relative_seek.c ****         else
 156:Middlewares/ST/filex/common/src/fx_file_extended_relative_seek.c ****         {
 157:Middlewares/ST/filex/common/src/fx_file_extended_relative_seek.c **** 
 158:Middlewares/ST/filex/common/src/fx_file_extended_relative_seek.c ****             /* Seek backward relative to the current position.  */
 159:Middlewares/ST/filex/common/src/fx_file_extended_relative_seek.c ****             return(_fx_file_extended_seek(file_ptr, file_ptr -> fx_file_current_file_offset - byte_
 150              		.loc 1 159 13 is_stmt 1 view .LVU44
 151              		.loc 1 159 20 is_stmt 0 view .LVU45
 152 0070 8A1A     		subs	r2, r1, r2
 153              	.LVL18:
 154              		.loc 1 159 20 view .LVU46
 155 0072 64EB0303 		sbc	r3, r4, r3
 156 0076 FFF7FEFF 		bl	_fx_file_extended_seek
 157              	.LVL19:
 158              		.loc 1 159 20 view .LVU47
 159 007a 00E0     		b	.L1
 160              	.LVL20:
 161              	.L8:
  95:Middlewares/ST/filex/common/src/fx_file_extended_relative_seek.c ****     }
 162              		.loc 1 95 15 view .LVU48
 163 007c 0720     		movs	r0, #7
ARM GAS  C:\Users\HP\AppData\Local\Temp\cceUQvP1.s 			page 7


 164              	.LVL21:
 165              	.L1:
 160:Middlewares/ST/filex/common/src/fx_file_extended_relative_seek.c ****         }
 161:Middlewares/ST/filex/common/src/fx_file_extended_relative_seek.c ****     }
 162:Middlewares/ST/filex/common/src/fx_file_extended_relative_seek.c **** }
 166              		.loc 1 162 1 view .LVU49
 167 007e 38BD     		pop	{r3, r4, r5, pc}
 168              	.LVL22:
 169              	.L14:
 170              		.loc 1 162 1 view .LVU50
 171              		.align	2
 172              	.L13:
 173 0080 454C4946 		.word	1179208773
 174              		.cfi_endproc
 175              	.LFE8:
 177              		.text
 178              	.Letext0:
 179              		.file 2 "Middlewares/ST/threadx/ports/cortex_m4/gnu/inc/tx_port.h"
 180              		.file 3 "Middlewares/ST/threadx/common/inc/tx_api.h"
 181              		.file 4 "Middlewares/ST/filex/common/inc/fx_api.h"
 182              		.file 5 "Middlewares/ST/filex/common/inc/fx_file.h"
ARM GAS  C:\Users\HP\AppData\Local\Temp\cceUQvP1.s 			page 8

