ARM GAS  C:\Users\HP\AppData\Local\Temp\ccWP8Hoo.s 			page 1


   1              		.cpu cortex-m4
   2              		.arch armv7e-m
   3              		.fpu fpv4-sp-d16
   4              		.eabi_attribute 27, 1
   5              		.eabi_attribute 28, 1
   6              		.eabi_attribute 20, 1
   7              		.eabi_attribute 21, 1
   8              		.eabi_attribute 23, 3
   9              		.eabi_attribute 24, 1
  10              		.eabi_attribute 25, 1
  11              		.eabi_attribute 26, 1
  12              		.eabi_attribute 30, 1
  13              		.eabi_attribute 34, 1
  14              		.eabi_attribute 18, 4
  15              		.file	"fx_file_attributes_read.c"
  16              		.text
  17              	.Ltext0:
  18              		.cfi_sections	.debug_frame
  19              		.section	.text._fx_file_attributes_read,"ax",%progbits
  20              		.align	1
  21              		.global	_fx_file_attributes_read
  22              		.syntax unified
  23              		.thumb
  24              		.thumb_func
  26              	_fx_file_attributes_read:
  27              	.LVL0:
  28              	.LFB8:
  29              		.file 1 "Middlewares/ST/filex/common/src/fx_file_attributes_read.c"
   1:Middlewares/ST/filex/common/src/fx_file_attributes_read.c **** /**************************************************************************/
   2:Middlewares/ST/filex/common/src/fx_file_attributes_read.c **** /*                                                                        */
   3:Middlewares/ST/filex/common/src/fx_file_attributes_read.c **** /*       Copyright (c) Microsoft Corporation. All rights reserved.        */
   4:Middlewares/ST/filex/common/src/fx_file_attributes_read.c **** /*                                                                        */
   5:Middlewares/ST/filex/common/src/fx_file_attributes_read.c **** /*       This software is licensed under the Microsoft Software License   */
   6:Middlewares/ST/filex/common/src/fx_file_attributes_read.c **** /*       Terms for Microsoft Azure RTOS. Full text of the license can be  */
   7:Middlewares/ST/filex/common/src/fx_file_attributes_read.c **** /*       found in the LICENSE file at https://aka.ms/AzureRTOS_EULA       */
   8:Middlewares/ST/filex/common/src/fx_file_attributes_read.c **** /*       and in the root directory of this software.                      */
   9:Middlewares/ST/filex/common/src/fx_file_attributes_read.c **** /*                                                                        */
  10:Middlewares/ST/filex/common/src/fx_file_attributes_read.c **** /**************************************************************************/
  11:Middlewares/ST/filex/common/src/fx_file_attributes_read.c **** 
  12:Middlewares/ST/filex/common/src/fx_file_attributes_read.c **** 
  13:Middlewares/ST/filex/common/src/fx_file_attributes_read.c **** /**************************************************************************/
  14:Middlewares/ST/filex/common/src/fx_file_attributes_read.c **** /**************************************************************************/
  15:Middlewares/ST/filex/common/src/fx_file_attributes_read.c **** /**                                                                       */
  16:Middlewares/ST/filex/common/src/fx_file_attributes_read.c **** /** FileX Component                                                       */
  17:Middlewares/ST/filex/common/src/fx_file_attributes_read.c **** /**                                                                       */
  18:Middlewares/ST/filex/common/src/fx_file_attributes_read.c **** /**   File                                                                */
  19:Middlewares/ST/filex/common/src/fx_file_attributes_read.c **** /**                                                                       */
  20:Middlewares/ST/filex/common/src/fx_file_attributes_read.c **** /**************************************************************************/
  21:Middlewares/ST/filex/common/src/fx_file_attributes_read.c **** /**************************************************************************/
  22:Middlewares/ST/filex/common/src/fx_file_attributes_read.c **** 
  23:Middlewares/ST/filex/common/src/fx_file_attributes_read.c **** #define FX_SOURCE_CODE
  24:Middlewares/ST/filex/common/src/fx_file_attributes_read.c **** 
  25:Middlewares/ST/filex/common/src/fx_file_attributes_read.c **** 
  26:Middlewares/ST/filex/common/src/fx_file_attributes_read.c **** /* Include necessary system files.  */
  27:Middlewares/ST/filex/common/src/fx_file_attributes_read.c **** 
  28:Middlewares/ST/filex/common/src/fx_file_attributes_read.c **** #include "fx_api.h"
  29:Middlewares/ST/filex/common/src/fx_file_attributes_read.c **** #include "fx_system.h"
ARM GAS  C:\Users\HP\AppData\Local\Temp\ccWP8Hoo.s 			page 2


  30:Middlewares/ST/filex/common/src/fx_file_attributes_read.c **** #include "fx_directory.h"
  31:Middlewares/ST/filex/common/src/fx_file_attributes_read.c **** #include "fx_file.h"
  32:Middlewares/ST/filex/common/src/fx_file_attributes_read.c **** #include "fx_utility.h"
  33:Middlewares/ST/filex/common/src/fx_file_attributes_read.c **** 
  34:Middlewares/ST/filex/common/src/fx_file_attributes_read.c **** 
  35:Middlewares/ST/filex/common/src/fx_file_attributes_read.c **** /**************************************************************************/
  36:Middlewares/ST/filex/common/src/fx_file_attributes_read.c **** /*                                                                        */
  37:Middlewares/ST/filex/common/src/fx_file_attributes_read.c **** /*  FUNCTION                                               RELEASE        */
  38:Middlewares/ST/filex/common/src/fx_file_attributes_read.c **** /*                                                                        */
  39:Middlewares/ST/filex/common/src/fx_file_attributes_read.c **** /*    _fx_file_attributes_read                            PORTABLE C      */
  40:Middlewares/ST/filex/common/src/fx_file_attributes_read.c **** /*                                                           6.1          */
  41:Middlewares/ST/filex/common/src/fx_file_attributes_read.c **** /*  AUTHOR                                                                */
  42:Middlewares/ST/filex/common/src/fx_file_attributes_read.c **** /*                                                                        */
  43:Middlewares/ST/filex/common/src/fx_file_attributes_read.c **** /*    William E. Lamie, Microsoft Corporation                             */
  44:Middlewares/ST/filex/common/src/fx_file_attributes_read.c **** /*                                                                        */
  45:Middlewares/ST/filex/common/src/fx_file_attributes_read.c **** /*  DESCRIPTION                                                           */
  46:Middlewares/ST/filex/common/src/fx_file_attributes_read.c **** /*                                                                        */
  47:Middlewares/ST/filex/common/src/fx_file_attributes_read.c **** /*    This function first attempts to find the specified file.  If found, */
  48:Middlewares/ST/filex/common/src/fx_file_attributes_read.c **** /*    the attribute read request is valid and the directory entry will be */
  49:Middlewares/ST/filex/common/src/fx_file_attributes_read.c **** /*    in order to pickup the file's attributes.  Otherwise, if the file   */
  50:Middlewares/ST/filex/common/src/fx_file_attributes_read.c **** /*    is not found, the appropriate error code is returned to the caller. */
  51:Middlewares/ST/filex/common/src/fx_file_attributes_read.c **** /*                                                                        */
  52:Middlewares/ST/filex/common/src/fx_file_attributes_read.c **** /*  INPUT                                                                 */
  53:Middlewares/ST/filex/common/src/fx_file_attributes_read.c **** /*                                                                        */
  54:Middlewares/ST/filex/common/src/fx_file_attributes_read.c **** /*    media_ptr                             Media control block pointer   */
  55:Middlewares/ST/filex/common/src/fx_file_attributes_read.c **** /*    file_name                             File name pointer             */
  56:Middlewares/ST/filex/common/src/fx_file_attributes_read.c **** /*    attributes_ptr                        Return attributes pointer     */
  57:Middlewares/ST/filex/common/src/fx_file_attributes_read.c **** /*                                                                        */
  58:Middlewares/ST/filex/common/src/fx_file_attributes_read.c **** /*  OUTPUT                                                                */
  59:Middlewares/ST/filex/common/src/fx_file_attributes_read.c **** /*                                                                        */
  60:Middlewares/ST/filex/common/src/fx_file_attributes_read.c **** /*    return status                                                       */
  61:Middlewares/ST/filex/common/src/fx_file_attributes_read.c **** /*                                                                        */
  62:Middlewares/ST/filex/common/src/fx_file_attributes_read.c **** /*  CALLS                                                                 */
  63:Middlewares/ST/filex/common/src/fx_file_attributes_read.c **** /*                                                                        */
  64:Middlewares/ST/filex/common/src/fx_file_attributes_read.c **** /*    _fx_directory_search                  Search for the file name in   */
  65:Middlewares/ST/filex/common/src/fx_file_attributes_read.c **** /*                                          the directory structure       */
  66:Middlewares/ST/filex/common/src/fx_file_attributes_read.c **** /*                                                                        */
  67:Middlewares/ST/filex/common/src/fx_file_attributes_read.c **** /*  CALLED BY                                                             */
  68:Middlewares/ST/filex/common/src/fx_file_attributes_read.c **** /*                                                                        */
  69:Middlewares/ST/filex/common/src/fx_file_attributes_read.c **** /*    Application Code                                                    */
  70:Middlewares/ST/filex/common/src/fx_file_attributes_read.c **** /*                                                                        */
  71:Middlewares/ST/filex/common/src/fx_file_attributes_read.c **** /*  RELEASE HISTORY                                                       */
  72:Middlewares/ST/filex/common/src/fx_file_attributes_read.c **** /*                                                                        */
  73:Middlewares/ST/filex/common/src/fx_file_attributes_read.c **** /*    DATE              NAME                      DESCRIPTION             */
  74:Middlewares/ST/filex/common/src/fx_file_attributes_read.c **** /*                                                                        */
  75:Middlewares/ST/filex/common/src/fx_file_attributes_read.c **** /*  05-19-2020     William E. Lamie         Initial Version 6.0           */
  76:Middlewares/ST/filex/common/src/fx_file_attributes_read.c **** /*  09-30-2020     William E. Lamie         Modified comment(s),          */
  77:Middlewares/ST/filex/common/src/fx_file_attributes_read.c **** /*                                            resulting in version 6.1    */
  78:Middlewares/ST/filex/common/src/fx_file_attributes_read.c **** /*                                                                        */
  79:Middlewares/ST/filex/common/src/fx_file_attributes_read.c **** /**************************************************************************/
  80:Middlewares/ST/filex/common/src/fx_file_attributes_read.c **** UINT  _fx_file_attributes_read(FX_MEDIA *media_ptr, CHAR *file_name, UINT *attributes_ptr)
  81:Middlewares/ST/filex/common/src/fx_file_attributes_read.c **** {
  30              		.loc 1 81 1 view -0
  31              		.cfi_startproc
  32              		@ args = 0, pretend = 0, frame = 112
  33              		@ frame_needed = 0, uses_anonymous_args = 0
  34              		.loc 1 81 1 is_stmt 0 view .LVU1
ARM GAS  C:\Users\HP\AppData\Local\Temp\ccWP8Hoo.s 			page 3


  35 0000 F0B5     		push	{r4, r5, r6, r7, lr}
  36              	.LCFI0:
  37              		.cfi_def_cfa_offset 20
  38              		.cfi_offset 4, -20
  39              		.cfi_offset 5, -16
  40              		.cfi_offset 6, -12
  41              		.cfi_offset 7, -8
  42              		.cfi_offset 14, -4
  43 0002 9FB0     		sub	sp, sp, #124
  44              	.LCFI1:
  45              		.cfi_def_cfa_offset 144
  46 0004 1646     		mov	r6, r2
  82:Middlewares/ST/filex/common/src/fx_file_attributes_read.c **** 
  83:Middlewares/ST/filex/common/src/fx_file_attributes_read.c **** UINT                   status;
  47              		.loc 1 83 1 is_stmt 1 view .LVU2
  84:Middlewares/ST/filex/common/src/fx_file_attributes_read.c **** FX_DIR_ENTRY           dir_entry;
  48              		.loc 1 84 1 view .LVU3
  85:Middlewares/ST/filex/common/src/fx_file_attributes_read.c **** 
  86:Middlewares/ST/filex/common/src/fx_file_attributes_read.c **** #ifdef TX_ENABLE_EVENT_TRACE
  87:Middlewares/ST/filex/common/src/fx_file_attributes_read.c **** TX_TRACE_BUFFER_ENTRY *trace_event;
  88:Middlewares/ST/filex/common/src/fx_file_attributes_read.c **** ULONG                  trace_timestamp;
  89:Middlewares/ST/filex/common/src/fx_file_attributes_read.c **** #endif
  90:Middlewares/ST/filex/common/src/fx_file_attributes_read.c **** UCHAR                  not_a_file_attr;
  49              		.loc 1 90 1 view .LVU4
  91:Middlewares/ST/filex/common/src/fx_file_attributes_read.c **** 
  92:Middlewares/ST/filex/common/src/fx_file_attributes_read.c **** 
  93:Middlewares/ST/filex/common/src/fx_file_attributes_read.c **** #ifndef FX_MEDIA_STATISTICS_DISABLE
  94:Middlewares/ST/filex/common/src/fx_file_attributes_read.c **** 
  95:Middlewares/ST/filex/common/src/fx_file_attributes_read.c ****     /* Increment the number of times this service has been called.  */
  96:Middlewares/ST/filex/common/src/fx_file_attributes_read.c ****     media_ptr -> fx_media_file_attributes_reads++;
  50              		.loc 1 96 5 view .LVU5
  51              		.loc 1 96 15 is_stmt 0 view .LVU6
  52 0006 D0F82031 		ldr	r3, [r0, #288]
  53              		.loc 1 96 48 view .LVU7
  54 000a 0133     		adds	r3, r3, #1
  55 000c C0F82031 		str	r3, [r0, #288]
  97:Middlewares/ST/filex/common/src/fx_file_attributes_read.c **** #endif
  98:Middlewares/ST/filex/common/src/fx_file_attributes_read.c **** 
  99:Middlewares/ST/filex/common/src/fx_file_attributes_read.c ****     /* Setup pointer to media name buffer.  */
 100:Middlewares/ST/filex/common/src/fx_file_attributes_read.c ****     dir_entry.fx_dir_entry_name =  media_ptr -> fx_media_name_buffer + FX_MAX_LONG_NAME_LEN;
  56              		.loc 1 100 5 is_stmt 1 view .LVU8
  57              		.loc 1 100 70 is_stmt 0 view .LVU9
  58 0010 00F69C13 		addw	r3, r0, #2460
  59              		.loc 1 100 33 view .LVU10
  60 0014 0293     		str	r3, [sp, #8]
 101:Middlewares/ST/filex/common/src/fx_file_attributes_read.c **** 
 102:Middlewares/ST/filex/common/src/fx_file_attributes_read.c ****     /* Clear the short name string.  */
 103:Middlewares/ST/filex/common/src/fx_file_attributes_read.c ****     dir_entry.fx_dir_entry_short_name[0] =  0;
  61              		.loc 1 103 5 is_stmt 1 view .LVU11
  62              		.loc 1 103 42 is_stmt 0 view .LVU12
  63 0016 0023     		movs	r3, #0
  64 0018 8DF80C30 		strb	r3, [sp, #12]
 104:Middlewares/ST/filex/common/src/fx_file_attributes_read.c **** 
 105:Middlewares/ST/filex/common/src/fx_file_attributes_read.c ****     /* Check the media to make sure it is open.  */
 106:Middlewares/ST/filex/common/src/fx_file_attributes_read.c ****     if (media_ptr -> fx_media_id != FX_MEDIA_ID)
  65              		.loc 1 106 5 is_stmt 1 view .LVU13
  66              		.loc 1 106 19 is_stmt 0 view .LVU14
ARM GAS  C:\Users\HP\AppData\Local\Temp\ccWP8Hoo.s 			page 4


  67 001c 0268     		ldr	r2, [r0]
  68              	.LVL1:
  69              		.loc 1 106 8 view .LVU15
  70 001e 174B     		ldr	r3, .L11
  71 0020 9A42     		cmp	r2, r3
  72 0022 03D0     		beq	.L8
 107:Middlewares/ST/filex/common/src/fx_file_attributes_read.c ****     {
 108:Middlewares/ST/filex/common/src/fx_file_attributes_read.c **** 
 109:Middlewares/ST/filex/common/src/fx_file_attributes_read.c ****         /* Return the media not opened error.  */
 110:Middlewares/ST/filex/common/src/fx_file_attributes_read.c ****         return(FX_MEDIA_NOT_OPEN);
  73              		.loc 1 110 15 view .LVU16
  74 0024 1124     		movs	r4, #17
  75              	.LVL2:
  76              	.L1:
 111:Middlewares/ST/filex/common/src/fx_file_attributes_read.c ****     }
 112:Middlewares/ST/filex/common/src/fx_file_attributes_read.c **** 
 113:Middlewares/ST/filex/common/src/fx_file_attributes_read.c **** #ifdef FX_ENABLE_EXFAT
 114:Middlewares/ST/filex/common/src/fx_file_attributes_read.c ****     if (media_ptr -> fx_media_FAT_type == FX_exFAT)
 115:Middlewares/ST/filex/common/src/fx_file_attributes_read.c ****     {
 116:Middlewares/ST/filex/common/src/fx_file_attributes_read.c ****         not_a_file_attr = FX_DIRECTORY;
 117:Middlewares/ST/filex/common/src/fx_file_attributes_read.c ****     }
 118:Middlewares/ST/filex/common/src/fx_file_attributes_read.c ****     else
 119:Middlewares/ST/filex/common/src/fx_file_attributes_read.c ****     {
 120:Middlewares/ST/filex/common/src/fx_file_attributes_read.c **** #endif /* FX_ENABLE_EXFAT */
 121:Middlewares/ST/filex/common/src/fx_file_attributes_read.c ****         not_a_file_attr = FX_DIRECTORY | FX_VOLUME;
 122:Middlewares/ST/filex/common/src/fx_file_attributes_read.c **** #ifdef FX_ENABLE_EXFAT
 123:Middlewares/ST/filex/common/src/fx_file_attributes_read.c ****     }
 124:Middlewares/ST/filex/common/src/fx_file_attributes_read.c **** #endif /* FX_ENABLE_EXFAT */
 125:Middlewares/ST/filex/common/src/fx_file_attributes_read.c **** 
 126:Middlewares/ST/filex/common/src/fx_file_attributes_read.c ****     /* If trace is enabled, insert this event into the trace buffer.  */
 127:Middlewares/ST/filex/common/src/fx_file_attributes_read.c ****     FX_TRACE_IN_LINE_INSERT(FX_TRACE_FILE_ATTRIBUTES_READ, media_ptr, file_name, 0, 0, FX_TRACE_FIL
 128:Middlewares/ST/filex/common/src/fx_file_attributes_read.c **** 
 129:Middlewares/ST/filex/common/src/fx_file_attributes_read.c ****     /* Protect against other threads accessing the media.  */
 130:Middlewares/ST/filex/common/src/fx_file_attributes_read.c ****     FX_PROTECT
 131:Middlewares/ST/filex/common/src/fx_file_attributes_read.c **** 
 132:Middlewares/ST/filex/common/src/fx_file_attributes_read.c ****     /* Search the system for the supplied file name.  */
 133:Middlewares/ST/filex/common/src/fx_file_attributes_read.c ****     status =  _fx_directory_search(media_ptr, file_name, &dir_entry, FX_NULL, FX_NULL);
 134:Middlewares/ST/filex/common/src/fx_file_attributes_read.c **** 
 135:Middlewares/ST/filex/common/src/fx_file_attributes_read.c ****     /* Determine if the search was successful.  */
 136:Middlewares/ST/filex/common/src/fx_file_attributes_read.c ****     if (status != FX_SUCCESS)
 137:Middlewares/ST/filex/common/src/fx_file_attributes_read.c ****     {
 138:Middlewares/ST/filex/common/src/fx_file_attributes_read.c **** 
 139:Middlewares/ST/filex/common/src/fx_file_attributes_read.c ****         /* Release media protection.  */
 140:Middlewares/ST/filex/common/src/fx_file_attributes_read.c ****         FX_UNPROTECT
 141:Middlewares/ST/filex/common/src/fx_file_attributes_read.c **** 
 142:Middlewares/ST/filex/common/src/fx_file_attributes_read.c ****         /* Return the error code.  */
 143:Middlewares/ST/filex/common/src/fx_file_attributes_read.c ****         return(status);
 144:Middlewares/ST/filex/common/src/fx_file_attributes_read.c ****     }
 145:Middlewares/ST/filex/common/src/fx_file_attributes_read.c **** 
 146:Middlewares/ST/filex/common/src/fx_file_attributes_read.c ****     /* Check to make sure the found entry is a file.  */
 147:Middlewares/ST/filex/common/src/fx_file_attributes_read.c ****     if (dir_entry.fx_dir_entry_attributes & not_a_file_attr)
 148:Middlewares/ST/filex/common/src/fx_file_attributes_read.c ****     {
 149:Middlewares/ST/filex/common/src/fx_file_attributes_read.c **** 
 150:Middlewares/ST/filex/common/src/fx_file_attributes_read.c ****         /* Release media protection.  */
 151:Middlewares/ST/filex/common/src/fx_file_attributes_read.c ****         FX_UNPROTECT
 152:Middlewares/ST/filex/common/src/fx_file_attributes_read.c **** 
 153:Middlewares/ST/filex/common/src/fx_file_attributes_read.c ****         /* Return the not a file error code.  */
ARM GAS  C:\Users\HP\AppData\Local\Temp\ccWP8Hoo.s 			page 5


 154:Middlewares/ST/filex/common/src/fx_file_attributes_read.c ****         return(FX_NOT_A_FILE);
 155:Middlewares/ST/filex/common/src/fx_file_attributes_read.c ****     }
 156:Middlewares/ST/filex/common/src/fx_file_attributes_read.c **** 
 157:Middlewares/ST/filex/common/src/fx_file_attributes_read.c ****     /* Place the current attributes into the destination.  */
 158:Middlewares/ST/filex/common/src/fx_file_attributes_read.c ****     *attributes_ptr =  (UINT)dir_entry.fx_dir_entry_attributes;
 159:Middlewares/ST/filex/common/src/fx_file_attributes_read.c **** 
 160:Middlewares/ST/filex/common/src/fx_file_attributes_read.c ****     /* Update the trace event with the attributes read.  */
 161:Middlewares/ST/filex/common/src/fx_file_attributes_read.c ****     FX_TRACE_EVENT_UPDATE(trace_event, trace_timestamp, FX_TRACE_FILE_ATTRIBUTES_READ, 0, 0, dir_en
 162:Middlewares/ST/filex/common/src/fx_file_attributes_read.c **** 
 163:Middlewares/ST/filex/common/src/fx_file_attributes_read.c ****     /* Release media protection.  */
 164:Middlewares/ST/filex/common/src/fx_file_attributes_read.c ****     FX_UNPROTECT
 165:Middlewares/ST/filex/common/src/fx_file_attributes_read.c **** 
 166:Middlewares/ST/filex/common/src/fx_file_attributes_read.c ****     /* File attribute read is complete, return successful status.  */
 167:Middlewares/ST/filex/common/src/fx_file_attributes_read.c ****     return(FX_SUCCESS);
 168:Middlewares/ST/filex/common/src/fx_file_attributes_read.c **** }
  77              		.loc 1 168 1 view .LVU17
  78 0026 2046     		mov	r0, r4
  79 0028 1FB0     		add	sp, sp, #124
  80              	.LCFI2:
  81              		.cfi_remember_state
  82              		.cfi_def_cfa_offset 20
  83              		@ sp needed
  84 002a F0BD     		pop	{r4, r5, r6, r7, pc}
  85              	.LVL3:
  86              	.L8:
  87              	.LCFI3:
  88              		.cfi_restore_state
  89              		.loc 1 168 1 view .LVU18
  90 002c 0446     		mov	r4, r0
  91 002e 0D46     		mov	r5, r1
 121:Middlewares/ST/filex/common/src/fx_file_attributes_read.c **** #ifdef FX_ENABLE_EXFAT
  92              		.loc 1 121 9 is_stmt 1 discriminator 2 view .LVU19
  93              	.LVL4:
 130:Middlewares/ST/filex/common/src/fx_file_attributes_read.c **** 
  94              		.loc 1 130 5 discriminator 2 view .LVU20
 130:Middlewares/ST/filex/common/src/fx_file_attributes_read.c **** 
  95              		.loc 1 130 5 discriminator 2 view .LVU21
  96 0030 00F5E477 		add	r7, r0, #456
  97 0034 4FF0FF31 		mov	r1, #-1
  98              	.LVL5:
 130:Middlewares/ST/filex/common/src/fx_file_attributes_read.c **** 
  99              		.loc 1 130 5 is_stmt 0 discriminator 2 view .LVU22
 100 0038 3846     		mov	r0, r7
 101              	.LVL6:
 130:Middlewares/ST/filex/common/src/fx_file_attributes_read.c **** 
 102              		.loc 1 130 5 discriminator 2 view .LVU23
 103 003a FFF7FEFF 		bl	_tx_mutex_get
 104              	.LVL7:
 105 003e D8B9     		cbnz	r0, .L6
 133:Middlewares/ST/filex/common/src/fx_file_attributes_read.c **** 
 106              		.loc 1 133 5 is_stmt 1 view .LVU24
 133:Middlewares/ST/filex/common/src/fx_file_attributes_read.c **** 
 107              		.loc 1 133 15 is_stmt 0 view .LVU25
 108 0040 0023     		movs	r3, #0
 109 0042 0093     		str	r3, [sp]
 110 0044 02AA     		add	r2, sp, #8
 111 0046 2946     		mov	r1, r5
ARM GAS  C:\Users\HP\AppData\Local\Temp\ccWP8Hoo.s 			page 6


 112 0048 2046     		mov	r0, r4
 113 004a FFF7FEFF 		bl	_fx_directory_search
 114              	.LVL8:
 136:Middlewares/ST/filex/common/src/fx_file_attributes_read.c ****     {
 115              		.loc 1 136 5 is_stmt 1 view .LVU26
 136:Middlewares/ST/filex/common/src/fx_file_attributes_read.c ****     {
 116              		.loc 1 136 8 is_stmt 0 view .LVU27
 117 004e 0446     		mov	r4, r0
 118              	.LVL9:
 136:Middlewares/ST/filex/common/src/fx_file_attributes_read.c ****     {
 119              		.loc 1 136 8 view .LVU28
 120 0050 48B9     		cbnz	r0, .L9
 147:Middlewares/ST/filex/common/src/fx_file_attributes_read.c ****     {
 121              		.loc 1 147 5 is_stmt 1 view .LVU29
 147:Middlewares/ST/filex/common/src/fx_file_attributes_read.c ****     {
 122              		.loc 1 147 18 is_stmt 0 view .LVU30
 123 0052 9DF82430 		ldrb	r3, [sp, #36]	@ zero_extendqisi2
 147:Middlewares/ST/filex/common/src/fx_file_attributes_read.c ****     {
 124              		.loc 1 147 8 view .LVU31
 125 0056 13F0180F 		tst	r3, #24
 126 005a 08D1     		bne	.L10
 158:Middlewares/ST/filex/common/src/fx_file_attributes_read.c **** 
 127              		.loc 1 158 5 is_stmt 1 view .LVU32
 158:Middlewares/ST/filex/common/src/fx_file_attributes_read.c **** 
 128              		.loc 1 158 21 is_stmt 0 view .LVU33
 129 005c 3360     		str	r3, [r6]
 164:Middlewares/ST/filex/common/src/fx_file_attributes_read.c **** 
 130              		.loc 1 164 5 is_stmt 1 view .LVU34
 131 005e 3846     		mov	r0, r7
 132              	.LVL10:
 164:Middlewares/ST/filex/common/src/fx_file_attributes_read.c **** 
 133              		.loc 1 164 5 is_stmt 0 view .LVU35
 134 0060 FFF7FEFF 		bl	_tx_mutex_put
 135              	.LVL11:
 167:Middlewares/ST/filex/common/src/fx_file_attributes_read.c **** }
 136              		.loc 1 167 5 is_stmt 1 view .LVU36
 167:Middlewares/ST/filex/common/src/fx_file_attributes_read.c **** }
 137              		.loc 1 167 11 is_stmt 0 view .LVU37
 138 0064 DFE7     		b	.L1
 139              	.LVL12:
 140              	.L9:
 140:Middlewares/ST/filex/common/src/fx_file_attributes_read.c **** 
 141              		.loc 1 140 9 is_stmt 1 view .LVU38
 142 0066 3846     		mov	r0, r7
 143              	.LVL13:
 140:Middlewares/ST/filex/common/src/fx_file_attributes_read.c **** 
 144              		.loc 1 140 9 is_stmt 0 view .LVU39
 145 0068 FFF7FEFF 		bl	_tx_mutex_put
 146              	.LVL14:
 143:Middlewares/ST/filex/common/src/fx_file_attributes_read.c ****     }
 147              		.loc 1 143 9 is_stmt 1 view .LVU40
 143:Middlewares/ST/filex/common/src/fx_file_attributes_read.c ****     }
 148              		.loc 1 143 15 is_stmt 0 view .LVU41
 149 006c DBE7     		b	.L1
 150              	.LVL15:
 151              	.L10:
 151:Middlewares/ST/filex/common/src/fx_file_attributes_read.c **** 
ARM GAS  C:\Users\HP\AppData\Local\Temp\ccWP8Hoo.s 			page 7


 152              		.loc 1 151 9 is_stmt 1 view .LVU42
 153 006e 3846     		mov	r0, r7
 154              	.LVL16:
 151:Middlewares/ST/filex/common/src/fx_file_attributes_read.c **** 
 155              		.loc 1 151 9 is_stmt 0 view .LVU43
 156 0070 FFF7FEFF 		bl	_tx_mutex_put
 157              	.LVL17:
 154:Middlewares/ST/filex/common/src/fx_file_attributes_read.c ****     }
 158              		.loc 1 154 9 is_stmt 1 view .LVU44
 154:Middlewares/ST/filex/common/src/fx_file_attributes_read.c ****     }
 159              		.loc 1 154 15 is_stmt 0 view .LVU45
 160 0074 0524     		movs	r4, #5
 161              	.LVL18:
 154:Middlewares/ST/filex/common/src/fx_file_attributes_read.c ****     }
 162              		.loc 1 154 15 view .LVU46
 163 0076 D6E7     		b	.L1
 164              	.LVL19:
 165              	.L6:
 130:Middlewares/ST/filex/common/src/fx_file_attributes_read.c **** 
 166              		.loc 1 130 5 view .LVU47
 167 0078 1124     		movs	r4, #17
 168              	.LVL20:
 130:Middlewares/ST/filex/common/src/fx_file_attributes_read.c **** 
 169              		.loc 1 130 5 view .LVU48
 170 007a D4E7     		b	.L1
 171              	.L12:
 172              		.align	2
 173              	.L11:
 174 007c 4944454D 		.word	1296385097
 175              		.cfi_endproc
 176              	.LFE8:
 178              		.text
 179              	.Letext0:
 180              		.file 2 "Middlewares/ST/threadx/ports/cortex_m4/gnu/inc/tx_port.h"
 181              		.file 3 "Middlewares/ST/threadx/common/inc/tx_api.h"
 182              		.file 4 "Middlewares/ST/filex/common/inc/fx_api.h"
 183              		.file 5 "Middlewares/ST/filex/common/inc/fx_directory.h"
ARM GAS  C:\Users\HP\AppData\Local\Temp\ccWP8Hoo.s 			page 8

