ARM GAS  C:\Users\HP\AppData\Local\Temp\ccTseCPa.s 			page 1


   1              		.cpu cortex-m4
   2              		.arch armv7e-m
   3              		.fpu fpv4-sp-d16
   4              		.eabi_attribute 27, 1
   5              		.eabi_attribute 28, 1
   6              		.eabi_attribute 20, 1
   7              		.eabi_attribute 21, 1
   8              		.eabi_attribute 23, 3
   9              		.eabi_attribute 24, 1
  10              		.eabi_attribute 25, 1
  11              		.eabi_attribute 26, 1
  12              		.eabi_attribute 30, 1
  13              		.eabi_attribute 34, 1
  14              		.eabi_attribute 18, 4
  15              		.file	"fx_file_extended_seek.c"
  16              		.text
  17              	.Ltext0:
  18              		.cfi_sections	.debug_frame
  19              		.global	__aeabi_uldivmod
  20              		.section	.text._fx_file_extended_seek,"ax",%progbits
  21              		.align	1
  22              		.global	_fx_file_extended_seek
  23              		.syntax unified
  24              		.thumb
  25              		.thumb_func
  27              	_fx_file_extended_seek:
  28              	.LVL0:
  29              	.LFB8:
  30              		.file 1 "Middlewares/ST/filex/common/src/fx_file_extended_seek.c"
   1:Middlewares/ST/filex/common/src/fx_file_extended_seek.c **** /**************************************************************************/
   2:Middlewares/ST/filex/common/src/fx_file_extended_seek.c **** /*                                                                        */
   3:Middlewares/ST/filex/common/src/fx_file_extended_seek.c **** /*       Copyright (c) Microsoft Corporation. All rights reserved.        */
   4:Middlewares/ST/filex/common/src/fx_file_extended_seek.c **** /*                                                                        */
   5:Middlewares/ST/filex/common/src/fx_file_extended_seek.c **** /*       This software is licensed under the Microsoft Software License   */
   6:Middlewares/ST/filex/common/src/fx_file_extended_seek.c **** /*       Terms for Microsoft Azure RTOS. Full text of the license can be  */
   7:Middlewares/ST/filex/common/src/fx_file_extended_seek.c **** /*       found in the LICENSE file at https://aka.ms/AzureRTOS_EULA       */
   8:Middlewares/ST/filex/common/src/fx_file_extended_seek.c **** /*       and in the root directory of this software.                      */
   9:Middlewares/ST/filex/common/src/fx_file_extended_seek.c **** /*                                                                        */
  10:Middlewares/ST/filex/common/src/fx_file_extended_seek.c **** /**************************************************************************/
  11:Middlewares/ST/filex/common/src/fx_file_extended_seek.c **** 
  12:Middlewares/ST/filex/common/src/fx_file_extended_seek.c **** 
  13:Middlewares/ST/filex/common/src/fx_file_extended_seek.c **** /**************************************************************************/
  14:Middlewares/ST/filex/common/src/fx_file_extended_seek.c **** /**************************************************************************/
  15:Middlewares/ST/filex/common/src/fx_file_extended_seek.c **** /**                                                                       */
  16:Middlewares/ST/filex/common/src/fx_file_extended_seek.c **** /** FileX Component                                                       */
  17:Middlewares/ST/filex/common/src/fx_file_extended_seek.c **** /**                                                                       */
  18:Middlewares/ST/filex/common/src/fx_file_extended_seek.c **** /**   File                                                                */
  19:Middlewares/ST/filex/common/src/fx_file_extended_seek.c **** /**                                                                       */
  20:Middlewares/ST/filex/common/src/fx_file_extended_seek.c **** /**************************************************************************/
  21:Middlewares/ST/filex/common/src/fx_file_extended_seek.c **** /**************************************************************************/
  22:Middlewares/ST/filex/common/src/fx_file_extended_seek.c **** 
  23:Middlewares/ST/filex/common/src/fx_file_extended_seek.c **** #define FX_SOURCE_CODE
  24:Middlewares/ST/filex/common/src/fx_file_extended_seek.c **** 
  25:Middlewares/ST/filex/common/src/fx_file_extended_seek.c **** 
  26:Middlewares/ST/filex/common/src/fx_file_extended_seek.c **** /* Include necessary system files.  */
  27:Middlewares/ST/filex/common/src/fx_file_extended_seek.c **** 
  28:Middlewares/ST/filex/common/src/fx_file_extended_seek.c **** #include "fx_api.h"
ARM GAS  C:\Users\HP\AppData\Local\Temp\ccTseCPa.s 			page 2


  29:Middlewares/ST/filex/common/src/fx_file_extended_seek.c **** #include "fx_system.h"
  30:Middlewares/ST/filex/common/src/fx_file_extended_seek.c **** #include "fx_directory.h"
  31:Middlewares/ST/filex/common/src/fx_file_extended_seek.c **** #include "fx_file.h"
  32:Middlewares/ST/filex/common/src/fx_file_extended_seek.c **** #include "fx_utility.h"
  33:Middlewares/ST/filex/common/src/fx_file_extended_seek.c **** 
  34:Middlewares/ST/filex/common/src/fx_file_extended_seek.c **** 
  35:Middlewares/ST/filex/common/src/fx_file_extended_seek.c **** /**************************************************************************/
  36:Middlewares/ST/filex/common/src/fx_file_extended_seek.c **** /*                                                                        */
  37:Middlewares/ST/filex/common/src/fx_file_extended_seek.c **** /*  FUNCTION                                               RELEASE        */
  38:Middlewares/ST/filex/common/src/fx_file_extended_seek.c **** /*                                                                        */
  39:Middlewares/ST/filex/common/src/fx_file_extended_seek.c **** /*    _fx_file_extended_seek                              PORTABLE C      */
  40:Middlewares/ST/filex/common/src/fx_file_extended_seek.c **** /*                                                           6.1.7        */
  41:Middlewares/ST/filex/common/src/fx_file_extended_seek.c **** /*  AUTHOR                                                                */
  42:Middlewares/ST/filex/common/src/fx_file_extended_seek.c **** /*                                                                        */
  43:Middlewares/ST/filex/common/src/fx_file_extended_seek.c **** /*    William E. Lamie, Microsoft Corporation                             */
  44:Middlewares/ST/filex/common/src/fx_file_extended_seek.c **** /*                                                                        */
  45:Middlewares/ST/filex/common/src/fx_file_extended_seek.c **** /*  DESCRIPTION                                                           */
  46:Middlewares/ST/filex/common/src/fx_file_extended_seek.c **** /*                                                                        */
  47:Middlewares/ST/filex/common/src/fx_file_extended_seek.c **** /*    This function positions the internal file pointers to the specified */
  48:Middlewares/ST/filex/common/src/fx_file_extended_seek.c **** /*    byte offset such that the next read or write operation will be      */
  49:Middlewares/ST/filex/common/src/fx_file_extended_seek.c **** /*    performed there.  If the byte offset is greater than the size, the  */
  50:Middlewares/ST/filex/common/src/fx_file_extended_seek.c **** /*    file pointers will be positioned to the end of the file.            */
  51:Middlewares/ST/filex/common/src/fx_file_extended_seek.c **** /*                                                                        */
  52:Middlewares/ST/filex/common/src/fx_file_extended_seek.c **** /*  INPUT                                                                 */
  53:Middlewares/ST/filex/common/src/fx_file_extended_seek.c **** /*                                                                        */
  54:Middlewares/ST/filex/common/src/fx_file_extended_seek.c **** /*    file_ptr                              File control block pointer    */
  55:Middlewares/ST/filex/common/src/fx_file_extended_seek.c **** /*    byte_offset                           Byte offset into the file     */
  56:Middlewares/ST/filex/common/src/fx_file_extended_seek.c **** /*                                                                        */
  57:Middlewares/ST/filex/common/src/fx_file_extended_seek.c **** /*  OUTPUT                                                                */
  58:Middlewares/ST/filex/common/src/fx_file_extended_seek.c **** /*                                                                        */
  59:Middlewares/ST/filex/common/src/fx_file_extended_seek.c **** /*    return status                                                       */
  60:Middlewares/ST/filex/common/src/fx_file_extended_seek.c **** /*                                                                        */
  61:Middlewares/ST/filex/common/src/fx_file_extended_seek.c **** /*  CALLS                                                                 */
  62:Middlewares/ST/filex/common/src/fx_file_extended_seek.c **** /*                                                                        */
  63:Middlewares/ST/filex/common/src/fx_file_extended_seek.c **** /*    _fx_utility_FAT_entry_read            Read a FAT entry              */
  64:Middlewares/ST/filex/common/src/fx_file_extended_seek.c **** /*                                                                        */
  65:Middlewares/ST/filex/common/src/fx_file_extended_seek.c **** /*  CALLED BY                                                             */
  66:Middlewares/ST/filex/common/src/fx_file_extended_seek.c **** /*                                                                        */
  67:Middlewares/ST/filex/common/src/fx_file_extended_seek.c **** /*    Application Code                                                    */
  68:Middlewares/ST/filex/common/src/fx_file_extended_seek.c **** /*                                                                        */
  69:Middlewares/ST/filex/common/src/fx_file_extended_seek.c **** /*  RELEASE HISTORY                                                       */
  70:Middlewares/ST/filex/common/src/fx_file_extended_seek.c **** /*                                                                        */
  71:Middlewares/ST/filex/common/src/fx_file_extended_seek.c **** /*    DATE              NAME                      DESCRIPTION             */
  72:Middlewares/ST/filex/common/src/fx_file_extended_seek.c **** /*                                                                        */
  73:Middlewares/ST/filex/common/src/fx_file_extended_seek.c **** /*  05-19-2020     William E. Lamie         Initial Version 6.0           */
  74:Middlewares/ST/filex/common/src/fx_file_extended_seek.c **** /*  09-30-2020     William E. Lamie         Modified comment(s),          */
  75:Middlewares/ST/filex/common/src/fx_file_extended_seek.c **** /*                                            resulting in version 6.1    */
  76:Middlewares/ST/filex/common/src/fx_file_extended_seek.c **** /*  06-02-2021     Bhupendra Naphade        Modified comment(s), fixed    */
  77:Middlewares/ST/filex/common/src/fx_file_extended_seek.c **** /*                                            relative cluster logic,     */
  78:Middlewares/ST/filex/common/src/fx_file_extended_seek.c **** /*                                            resulting in version 6.1.7  */
  79:Middlewares/ST/filex/common/src/fx_file_extended_seek.c **** /*                                                                        */
  80:Middlewares/ST/filex/common/src/fx_file_extended_seek.c **** /**************************************************************************/
  81:Middlewares/ST/filex/common/src/fx_file_extended_seek.c **** UINT  _fx_file_extended_seek(FX_FILE *file_ptr, ULONG64 byte_offset)
  82:Middlewares/ST/filex/common/src/fx_file_extended_seek.c **** {
  31              		.loc 1 82 1 view -0
  32              		.cfi_startproc
  33              		@ args = 0, pretend = 0, frame = 32
ARM GAS  C:\Users\HP\AppData\Local\Temp\ccTseCPa.s 			page 3


  34              		@ frame_needed = 0, uses_anonymous_args = 0
  35              		.loc 1 82 1 is_stmt 0 view .LVU1
  36 0000 2DE9F04F 		push	{r4, r5, r6, r7, r8, r9, r10, fp, lr}
  37              	.LCFI0:
  38              		.cfi_def_cfa_offset 36
  39              		.cfi_offset 4, -36
  40              		.cfi_offset 5, -32
  41              		.cfi_offset 6, -28
  42              		.cfi_offset 7, -24
  43              		.cfi_offset 8, -20
  44              		.cfi_offset 9, -16
  45              		.cfi_offset 10, -12
  46              		.cfi_offset 11, -8
  47              		.cfi_offset 14, -4
  48 0004 89B0     		sub	sp, sp, #36
  49              	.LCFI1:
  50              		.cfi_def_cfa_offset 72
  51 0006 1746     		mov	r7, r2
  52 0008 1D46     		mov	r5, r3
  83:Middlewares/ST/filex/common/src/fx_file_extended_seek.c **** 
  84:Middlewares/ST/filex/common/src/fx_file_extended_seek.c **** UINT      status;
  53              		.loc 1 84 1 is_stmt 1 view .LVU2
  85:Middlewares/ST/filex/common/src/fx_file_extended_seek.c **** ULONG     cluster;
  54              		.loc 1 85 1 view .LVU3
  86:Middlewares/ST/filex/common/src/fx_file_extended_seek.c **** ULONG     contents = 0;
  55              		.loc 1 86 1 view .LVU4
  56              		.loc 1 86 11 is_stmt 0 view .LVU5
  57 000a 0023     		movs	r3, #0
  58 000c 0793     		str	r3, [sp, #28]
  87:Middlewares/ST/filex/common/src/fx_file_extended_seek.c **** ULONG     bytes_per_cluster;
  59              		.loc 1 87 1 is_stmt 1 view .LVU6
  88:Middlewares/ST/filex/common/src/fx_file_extended_seek.c **** ULONG     last_cluster;
  60              		.loc 1 88 1 view .LVU7
  89:Middlewares/ST/filex/common/src/fx_file_extended_seek.c **** ULONG     cluster_count;
  61              		.loc 1 89 1 view .LVU8
  90:Middlewares/ST/filex/common/src/fx_file_extended_seek.c **** ULONG64   bytes_remaining;
  62              		.loc 1 90 1 view .LVU9
  91:Middlewares/ST/filex/common/src/fx_file_extended_seek.c **** FX_MEDIA *media_ptr;
  63              		.loc 1 91 1 view .LVU10
  92:Middlewares/ST/filex/common/src/fx_file_extended_seek.c **** 
  93:Middlewares/ST/filex/common/src/fx_file_extended_seek.c **** 
  94:Middlewares/ST/filex/common/src/fx_file_extended_seek.c ****     /* First, determine if the file is still open.  */
  95:Middlewares/ST/filex/common/src/fx_file_extended_seek.c ****     if (file_ptr -> fx_file_id != FX_FILE_ID)
  64              		.loc 1 95 5 view .LVU11
  65              		.loc 1 95 18 is_stmt 0 view .LVU12
  66 000e 0268     		ldr	r2, [r0]
  67              	.LVL1:
  68              		.loc 1 95 8 view .LVU13
  69 0010 914B     		ldr	r3, .L32
  70 0012 9A42     		cmp	r2, r3
  71 0014 40F01681 		bne	.L17
  72 0018 0446     		mov	r4, r0
  96:Middlewares/ST/filex/common/src/fx_file_extended_seek.c ****     {
  97:Middlewares/ST/filex/common/src/fx_file_extended_seek.c **** 
  98:Middlewares/ST/filex/common/src/fx_file_extended_seek.c ****         /* Return the file not open error status.  */
  99:Middlewares/ST/filex/common/src/fx_file_extended_seek.c ****         return(FX_NOT_OPEN);
 100:Middlewares/ST/filex/common/src/fx_file_extended_seek.c ****     }
ARM GAS  C:\Users\HP\AppData\Local\Temp\ccTseCPa.s 			page 4


 101:Middlewares/ST/filex/common/src/fx_file_extended_seek.c **** 
 102:Middlewares/ST/filex/common/src/fx_file_extended_seek.c **** #ifndef FX_MEDIA_STATISTICS_DISABLE
 103:Middlewares/ST/filex/common/src/fx_file_extended_seek.c ****     /* Setup pointer to media structure.  */
 104:Middlewares/ST/filex/common/src/fx_file_extended_seek.c ****     media_ptr =  file_ptr -> fx_file_media_ptr;
  73              		.loc 1 104 5 is_stmt 1 view .LVU14
  74              		.loc 1 104 15 is_stmt 0 view .LVU15
  75 001a 826D     		ldr	r2, [r0, #88]
  76              	.LVL2:
 105:Middlewares/ST/filex/common/src/fx_file_extended_seek.c **** 
 106:Middlewares/ST/filex/common/src/fx_file_extended_seek.c ****     /* Increment the number of times this service has been called.  */
 107:Middlewares/ST/filex/common/src/fx_file_extended_seek.c ****     media_ptr -> fx_media_file_seeks++;
  77              		.loc 1 107 5 is_stmt 1 view .LVU16
  78              		.loc 1 107 15 is_stmt 0 view .LVU17
  79 001c D2F84831 		ldr	r3, [r2, #328]
  80              		.loc 1 107 37 view .LVU18
  81 0020 0133     		adds	r3, r3, #1
  82 0022 C2F84831 		str	r3, [r2, #328]
 108:Middlewares/ST/filex/common/src/fx_file_extended_seek.c **** #endif
 109:Middlewares/ST/filex/common/src/fx_file_extended_seek.c **** 
 110:Middlewares/ST/filex/common/src/fx_file_extended_seek.c ****     /* Setup pointer to associated media control block.  */
 111:Middlewares/ST/filex/common/src/fx_file_extended_seek.c ****     media_ptr =  file_ptr -> fx_file_media_ptr;
  83              		.loc 1 111 5 is_stmt 1 view .LVU19
  84              		.loc 1 111 15 is_stmt 0 view .LVU20
  85 0026 866D     		ldr	r6, [r0, #88]
  86              	.LVL3:
 112:Middlewares/ST/filex/common/src/fx_file_extended_seek.c **** 
 113:Middlewares/ST/filex/common/src/fx_file_extended_seek.c ****     /* If trace is enabled, insert this event into the trace buffer.  */
 114:Middlewares/ST/filex/common/src/fx_file_extended_seek.c ****     FX_TRACE_IN_LINE_INSERT(FX_TRACE_FILE_SEEK, file_ptr, byte_offset, file_ptr -> fx_file_current_
 115:Middlewares/ST/filex/common/src/fx_file_extended_seek.c **** 
 116:Middlewares/ST/filex/common/src/fx_file_extended_seek.c ****     /* Protect against other threads accessing the media.  */
 117:Middlewares/ST/filex/common/src/fx_file_extended_seek.c ****     FX_PROTECT
  87              		.loc 1 117 5 is_stmt 1 view .LVU21
  88 0028 3268     		ldr	r2, [r6]
  89 002a 8C4B     		ldr	r3, .L32+4
  90 002c 9A42     		cmp	r2, r3
  91 002e 02D0     		beq	.L25
  92 0030 1123     		movs	r3, #17
  93 0032 0093     		str	r3, [sp]
  94 0034 08E1     		b	.L1
  95              	.L25:
  96              		.loc 1 117 5 discriminator 2 view .LVU22
  97 0036 06F5E473 		add	r3, r6, #456
  98 003a 0493     		str	r3, [sp, #16]
  99 003c 4FF0FF31 		mov	r1, #-1
 100 0040 1846     		mov	r0, r3
 101              	.LVL4:
 102              		.loc 1 117 5 is_stmt 0 discriminator 2 view .LVU23
 103 0042 FFF7FEFF 		bl	_tx_mutex_get
 104              	.LVL5:
 105 0046 0090     		str	r0, [sp]
 106 0048 0028     		cmp	r0, #0
 107 004a 40F00181 		bne	.L19
 118:Middlewares/ST/filex/common/src/fx_file_extended_seek.c **** 
 119:Middlewares/ST/filex/common/src/fx_file_extended_seek.c ****     /* Check if we actually have to do anything.  */
 120:Middlewares/ST/filex/common/src/fx_file_extended_seek.c ****     if (byte_offset == file_ptr -> fx_file_current_file_offset)
 108              		.loc 1 120 5 is_stmt 1 view .LVU24
 109              		.loc 1 120 33 is_stmt 0 view .LVU25
ARM GAS  C:\Users\HP\AppData\Local\Temp\ccTseCPa.s 			page 5


 110 004e 226C     		ldr	r2, [r4, #64]
 111 0050 636C     		ldr	r3, [r4, #68]
 112              		.loc 1 120 8 view .LVU26
 113 0052 AB42     		cmp	r3, r5
 114 0054 08BF     		it	eq
 115 0056 BA42     		cmpeq	r2, r7
 116 0058 45D0     		beq	.L26
 121:Middlewares/ST/filex/common/src/fx_file_extended_seek.c ****     {
 122:Middlewares/ST/filex/common/src/fx_file_extended_seek.c **** 
 123:Middlewares/ST/filex/common/src/fx_file_extended_seek.c ****         /* Release media protection.  */
 124:Middlewares/ST/filex/common/src/fx_file_extended_seek.c ****         FX_UNPROTECT
 125:Middlewares/ST/filex/common/src/fx_file_extended_seek.c **** 
 126:Middlewares/ST/filex/common/src/fx_file_extended_seek.c ****         /* Seek is complete, return successful status.  */
 127:Middlewares/ST/filex/common/src/fx_file_extended_seek.c ****         return(FX_SUCCESS);
 128:Middlewares/ST/filex/common/src/fx_file_extended_seek.c ****     }
 129:Middlewares/ST/filex/common/src/fx_file_extended_seek.c **** 
 130:Middlewares/ST/filex/common/src/fx_file_extended_seek.c ****     /* Calculate the number of bytes per cluster.  */
 131:Middlewares/ST/filex/common/src/fx_file_extended_seek.c ****     bytes_per_cluster =  ((ULONG)media_ptr -> fx_media_bytes_per_sector) *
 117              		.loc 1 131 5 is_stmt 1 view .LVU27
 118              		.loc 1 131 44 is_stmt 0 view .LVU28
 119 005a B36A     		ldr	r3, [r6, #40]
 132:Middlewares/ST/filex/common/src/fx_file_extended_seek.c ****         ((ULONG)media_ptr -> fx_media_sectors_per_cluster);
 120              		.loc 1 132 27 view .LVU29
 121 005c 726D     		ldr	r2, [r6, #84]
 131:Middlewares/ST/filex/common/src/fx_file_extended_seek.c ****         ((ULONG)media_ptr -> fx_media_sectors_per_cluster);
 122              		.loc 1 131 23 view .LVU30
 123 005e 02FB03F9 		mul	r9, r2, r3
 124              	.LVL6:
 133:Middlewares/ST/filex/common/src/fx_file_extended_seek.c **** 
 134:Middlewares/ST/filex/common/src/fx_file_extended_seek.c ****     /* Check for invalid value.  */
 135:Middlewares/ST/filex/common/src/fx_file_extended_seek.c ****     if (bytes_per_cluster == 0)
 125              		.loc 1 135 5 is_stmt 1 view .LVU31
 126              		.loc 1 135 8 is_stmt 0 view .LVU32
 127 0062 B9F1000F 		cmp	r9, #0
 128 0066 42D0     		beq	.L27
 136:Middlewares/ST/filex/common/src/fx_file_extended_seek.c ****     {
 137:Middlewares/ST/filex/common/src/fx_file_extended_seek.c **** 
 138:Middlewares/ST/filex/common/src/fx_file_extended_seek.c ****         /* Release media protection.  */
 139:Middlewares/ST/filex/common/src/fx_file_extended_seek.c ****         FX_UNPROTECT
 140:Middlewares/ST/filex/common/src/fx_file_extended_seek.c **** 
 141:Middlewares/ST/filex/common/src/fx_file_extended_seek.c ****         /* Invalid media, return error.  */
 142:Middlewares/ST/filex/common/src/fx_file_extended_seek.c ****         return(FX_MEDIA_INVALID);
 143:Middlewares/ST/filex/common/src/fx_file_extended_seek.c ****     }
 144:Middlewares/ST/filex/common/src/fx_file_extended_seek.c **** 
 145:Middlewares/ST/filex/common/src/fx_file_extended_seek.c ****     /* See if we need to adjust the byte offset.  */
 146:Middlewares/ST/filex/common/src/fx_file_extended_seek.c ****     if (byte_offset > file_ptr -> fx_file_current_file_size)
 129              		.loc 1 146 5 is_stmt 1 view .LVU33
 130              		.loc 1 146 32 is_stmt 0 view .LVU34
 131 0068 A36C     		ldr	r3, [r4, #72]
 132 006a 0293     		str	r3, [sp, #8]
 133 006c E26C     		ldr	r2, [r4, #76]
 134 006e 0392     		str	r2, [sp, #12]
 135              		.loc 1 146 8 view .LVU35
 136 0070 BB42     		cmp	r3, r7
 137 0072 72EB0503 		sbcs	r3, r2, r5
 138 0076 01D3     		bcc	.L5
 139 0078 0297     		str	r7, [sp, #8]
ARM GAS  C:\Users\HP\AppData\Local\Temp\ccTseCPa.s 			page 6


 140 007a 0395     		str	r5, [sp, #12]
 141              	.L5:
 142              	.LVL7:
 147:Middlewares/ST/filex/common/src/fx_file_extended_seek.c ****     {
 148:Middlewares/ST/filex/common/src/fx_file_extended_seek.c **** 
 149:Middlewares/ST/filex/common/src/fx_file_extended_seek.c ****         /* Adjust the byte offset down to the file size. */
 150:Middlewares/ST/filex/common/src/fx_file_extended_seek.c ****         byte_offset =  file_ptr -> fx_file_current_file_size;
 151:Middlewares/ST/filex/common/src/fx_file_extended_seek.c ****     }
 152:Middlewares/ST/filex/common/src/fx_file_extended_seek.c **** 
 153:Middlewares/ST/filex/common/src/fx_file_extended_seek.c ****     /* Check if the desired position within the leading consecutive clusters.  */
 154:Middlewares/ST/filex/common/src/fx_file_extended_seek.c ****     if (byte_offset >= (ULONG64)file_ptr -> fx_file_consecutive_cluster * (ULONG64)bytes_per_cluste
 143              		.loc 1 154 5 is_stmt 1 view .LVU36
 144              		.loc 1 154 42 is_stmt 0 view .LVU37
 145 007c A369     		ldr	r3, [r4, #24]
 146              		.loc 1 154 24 view .LVU38
 147 007e 4FF0000B 		mov	fp, #0
 148              		.loc 1 154 75 view .LVU39
 149 0082 CDF80490 		str	r9, [sp, #4]
 150              		.loc 1 154 73 view .LVU40
 151 0086 A3FB0912 		umull	r1, r2, r3, r9
 152              		.loc 1 154 8 view .LVU41
 153 008a 0298     		ldr	r0, [sp, #8]
 154 008c 8842     		cmp	r0, r1
 155 008e 0399     		ldr	r1, [sp, #12]
 156 0090 71EB0202 		sbcs	r2, r1, r2
 157 0094 74D3     		bcc	.L6
 155:Middlewares/ST/filex/common/src/fx_file_extended_seek.c ****     {
 156:Middlewares/ST/filex/common/src/fx_file_extended_seek.c **** #ifdef FX_ENABLE_EXFAT
 157:Middlewares/ST/filex/common/src/fx_file_extended_seek.c ****         if (file_ptr -> fx_file_dir_entry.fx_dir_entry_dont_use_fat & 1)
 158:Middlewares/ST/filex/common/src/fx_file_extended_seek.c ****         {
 159:Middlewares/ST/filex/common/src/fx_file_extended_seek.c ****             if (byte_offset == (ULONG64)file_ptr -> fx_file_consecutive_cluster * (ULONG64)bytes_pe
 160:Middlewares/ST/filex/common/src/fx_file_extended_seek.c ****             {
 161:Middlewares/ST/filex/common/src/fx_file_extended_seek.c ****                 /* If the file bytes exactly fits the cluster size */
 162:Middlewares/ST/filex/common/src/fx_file_extended_seek.c ****                 bytes_remaining = bytes_per_cluster;
 163:Middlewares/ST/filex/common/src/fx_file_extended_seek.c **** 
 164:Middlewares/ST/filex/common/src/fx_file_extended_seek.c ****                 file_ptr -> fx_file_current_relative_cluster = (ULONG)(byte_offset / bytes_per_clus
 165:Middlewares/ST/filex/common/src/fx_file_extended_seek.c **** 
 166:Middlewares/ST/filex/common/src/fx_file_extended_seek.c ****                 file_ptr -> fx_file_current_physical_cluster =
 167:Middlewares/ST/filex/common/src/fx_file_extended_seek.c ****                     file_ptr -> fx_file_first_physical_cluster + file_ptr -> fx_file_current_relati
 168:Middlewares/ST/filex/common/src/fx_file_extended_seek.c ****             }
 169:Middlewares/ST/filex/common/src/fx_file_extended_seek.c ****             else
 170:Middlewares/ST/filex/common/src/fx_file_extended_seek.c ****             {
 171:Middlewares/ST/filex/common/src/fx_file_extended_seek.c **** 
 172:Middlewares/ST/filex/common/src/fx_file_extended_seek.c ****                 /* We shouldn't be here if don't using FAT!  */
 173:Middlewares/ST/filex/common/src/fx_file_extended_seek.c ****                 FX_UNPROTECT
 174:Middlewares/ST/filex/common/src/fx_file_extended_seek.c **** 
 175:Middlewares/ST/filex/common/src/fx_file_extended_seek.c ****                 return(FX_FILE_CORRUPT);
 176:Middlewares/ST/filex/common/src/fx_file_extended_seek.c ****             }
 177:Middlewares/ST/filex/common/src/fx_file_extended_seek.c ****         }
 178:Middlewares/ST/filex/common/src/fx_file_extended_seek.c ****         else
 179:Middlewares/ST/filex/common/src/fx_file_extended_seek.c ****         {
 180:Middlewares/ST/filex/common/src/fx_file_extended_seek.c **** #endif /* FX_ENABLE_EXFAT */
 181:Middlewares/ST/filex/common/src/fx_file_extended_seek.c **** 
 182:Middlewares/ST/filex/common/src/fx_file_extended_seek.c ****             /* At this point, we are ready to walk list of clusters to setup the
 183:Middlewares/ST/filex/common/src/fx_file_extended_seek.c ****                seek position of this file.  */
 184:Middlewares/ST/filex/common/src/fx_file_extended_seek.c **** 
 185:Middlewares/ST/filex/common/src/fx_file_extended_seek.c ****             /* check if byte_offset is greater than where we were left off earlier */
ARM GAS  C:\Users\HP\AppData\Local\Temp\ccTseCPa.s 			page 7


 186:Middlewares/ST/filex/common/src/fx_file_extended_seek.c ****             if ((ULONG64)file_ptr -> fx_file_current_relative_cluster * (ULONG64)bytes_per_cluster 
 158              		.loc 1 186 13 is_stmt 1 view .LVU42
 159              		.loc 1 186 35 is_stmt 0 view .LVU43
 160 0096 D4F834A0 		ldr	r10, [r4, #52]
 161              		.loc 1 186 71 view .LVU44
 162 009a A9FB0A52 		umull	r5, r2, r9, r10
 163              		.loc 1 186 16 view .LVU45
 164 009e 8542     		cmp	r5, r0
 165 00a0 8A41     		sbcs	r2, r2, r1
 166 00a2 2AD2     		bcs	.L7
 187:Middlewares/ST/filex/common/src/fx_file_extended_seek.c ****             {
 188:Middlewares/ST/filex/common/src/fx_file_extended_seek.c **** 
 189:Middlewares/ST/filex/common/src/fx_file_extended_seek.c ****                 cluster =    file_ptr -> fx_file_current_physical_cluster;
 167              		.loc 1 189 17 is_stmt 1 view .LVU46
 168              		.loc 1 189 25 is_stmt 0 view .LVU47
 169 00a4 276A     		ldr	r7, [r4, #32]
 170              	.LVL8:
 190:Middlewares/ST/filex/common/src/fx_file_extended_seek.c **** 
 191:Middlewares/ST/filex/common/src/fx_file_extended_seek.c ****                 bytes_remaining =   byte_offset -
 171              		.loc 1 191 17 is_stmt 1 view .LVU48
 172              		.loc 1 191 33 is_stmt 0 view .LVU49
 173 00a6 451B     		subs	r5, r0, r5
 174 00a8 61F10008 		sbc	r8, r1, #0
 175              	.LVL9:
 192:Middlewares/ST/filex/common/src/fx_file_extended_seek.c ****                     file_ptr -> fx_file_current_relative_cluster * bytes_per_cluster;
 193:Middlewares/ST/filex/common/src/fx_file_extended_seek.c **** 
 194:Middlewares/ST/filex/common/src/fx_file_extended_seek.c ****                 cluster_count = file_ptr -> fx_file_current_relative_cluster;
 176              		.loc 1 194 17 is_stmt 1 view .LVU50
 177              		.loc 1 194 17 is_stmt 0 view .LVU51
 178 00ac 0594     		str	r4, [sp, #20]
 179              	.LVL10:
 180              	.L11:
 195:Middlewares/ST/filex/common/src/fx_file_extended_seek.c ****             }
 196:Middlewares/ST/filex/common/src/fx_file_extended_seek.c ****             else
 197:Middlewares/ST/filex/common/src/fx_file_extended_seek.c ****             {
 198:Middlewares/ST/filex/common/src/fx_file_extended_seek.c **** 
 199:Middlewares/ST/filex/common/src/fx_file_extended_seek.c ****                 cluster =    file_ptr -> fx_file_first_physical_cluster +
 200:Middlewares/ST/filex/common/src/fx_file_extended_seek.c ****                     (file_ptr -> fx_file_consecutive_cluster - 1);
 201:Middlewares/ST/filex/common/src/fx_file_extended_seek.c ****                 bytes_remaining =   byte_offset -
 202:Middlewares/ST/filex/common/src/fx_file_extended_seek.c ****                     (file_ptr -> fx_file_consecutive_cluster - 1) * bytes_per_cluster;
 203:Middlewares/ST/filex/common/src/fx_file_extended_seek.c ****                 cluster_count =     (file_ptr -> fx_file_consecutive_cluster - 1);
 204:Middlewares/ST/filex/common/src/fx_file_extended_seek.c ****             }
 205:Middlewares/ST/filex/common/src/fx_file_extended_seek.c **** 
 206:Middlewares/ST/filex/common/src/fx_file_extended_seek.c **** 
 207:Middlewares/ST/filex/common/src/fx_file_extended_seek.c ****             /* Follow the link of FAT entries.  */
 208:Middlewares/ST/filex/common/src/fx_file_extended_seek.c ****             while ((cluster >= FX_FAT_ENTRY_START) && (cluster < media_ptr -> fx_media_fat_reserved
 181              		.loc 1 208 19 is_stmt 1 view .LVU52
 182 00ae 012F     		cmp	r7, #1
 183 00b0 56D9     		bls	.L23
 184              		.loc 1 208 76 is_stmt 0 discriminator 1 view .LVU53
 185 00b2 06F50053 		add	r3, r6, #8192
 186 00b6 D3F8A834 		ldr	r3, [r3, #1192]
 187              		.loc 1 208 52 discriminator 1 view .LVU54
 188 00ba BB42     		cmp	r3, r7
 189 00bc 4AD9     		bls	.L28
 209:Middlewares/ST/filex/common/src/fx_file_extended_seek.c ****             {
 210:Middlewares/ST/filex/common/src/fx_file_extended_seek.c **** 
ARM GAS  C:\Users\HP\AppData\Local\Temp\ccTseCPa.s 			page 8


 211:Middlewares/ST/filex/common/src/fx_file_extended_seek.c ****                 /* Increment the number of clusters.  */
 212:Middlewares/ST/filex/common/src/fx_file_extended_seek.c ****                 cluster_count++;
 190              		.loc 1 212 17 is_stmt 1 view .LVU55
 191              		.loc 1 212 30 is_stmt 0 view .LVU56
 192 00be 0AF10104 		add	r4, r10, #1
 193              	.LVL11:
 213:Middlewares/ST/filex/common/src/fx_file_extended_seek.c **** 
 214:Middlewares/ST/filex/common/src/fx_file_extended_seek.c ****                 /* Read the current cluster entry from the FAT.  */
 215:Middlewares/ST/filex/common/src/fx_file_extended_seek.c ****                 status =  _fx_utility_FAT_entry_read(media_ptr, cluster, &contents);
 194              		.loc 1 215 17 is_stmt 1 view .LVU57
 195              		.loc 1 215 27 is_stmt 0 view .LVU58
 196 00c2 07AA     		add	r2, sp, #28
 197 00c4 3946     		mov	r1, r7
 198 00c6 3046     		mov	r0, r6
 199 00c8 FFF7FEFF 		bl	_fx_utility_FAT_entry_read
 200              	.LVL12:
 216:Middlewares/ST/filex/common/src/fx_file_extended_seek.c **** 
 217:Middlewares/ST/filex/common/src/fx_file_extended_seek.c ****                 /* Check the return value.  */
 218:Middlewares/ST/filex/common/src/fx_file_extended_seek.c ****                 if (status != FX_SUCCESS)
 201              		.loc 1 218 17 is_stmt 1 view .LVU59
 202              		.loc 1 218 20 is_stmt 0 view .LVU60
 203 00cc 18BB     		cbnz	r0, .L29
 219:Middlewares/ST/filex/common/src/fx_file_extended_seek.c ****                 {
 220:Middlewares/ST/filex/common/src/fx_file_extended_seek.c **** 
 221:Middlewares/ST/filex/common/src/fx_file_extended_seek.c ****                     /* Release media protection.  */
 222:Middlewares/ST/filex/common/src/fx_file_extended_seek.c ****                     FX_UNPROTECT
 223:Middlewares/ST/filex/common/src/fx_file_extended_seek.c **** 
 224:Middlewares/ST/filex/common/src/fx_file_extended_seek.c ****                     /* Return the error status.  */
 225:Middlewares/ST/filex/common/src/fx_file_extended_seek.c ****                     return(status);
 226:Middlewares/ST/filex/common/src/fx_file_extended_seek.c ****                 }
 227:Middlewares/ST/filex/common/src/fx_file_extended_seek.c **** 
 228:Middlewares/ST/filex/common/src/fx_file_extended_seek.c ****                 /* Save the last valid cluster.  */
 229:Middlewares/ST/filex/common/src/fx_file_extended_seek.c ****                 last_cluster =  cluster;
 204              		.loc 1 229 17 is_stmt 1 view .LVU61
 205              	.LVL13:
 230:Middlewares/ST/filex/common/src/fx_file_extended_seek.c **** 
 231:Middlewares/ST/filex/common/src/fx_file_extended_seek.c ****                 /* Setup for the next cluster.  */
 232:Middlewares/ST/filex/common/src/fx_file_extended_seek.c ****                 cluster =  contents;
 206              		.loc 1 232 17 view .LVU62
 207              		.loc 1 232 25 is_stmt 0 view .LVU63
 208 00ce 079B     		ldr	r3, [sp, #28]
 209              	.LVL14:
 233:Middlewares/ST/filex/common/src/fx_file_extended_seek.c **** 
 234:Middlewares/ST/filex/common/src/fx_file_extended_seek.c ****                 /* Determine if this is the last written cluster.  */
 235:Middlewares/ST/filex/common/src/fx_file_extended_seek.c ****                 if (bytes_remaining > bytes_per_cluster)
 210              		.loc 1 235 17 is_stmt 1 view .LVU64
 211              		.loc 1 235 20 is_stmt 0 view .LVU65
 212 00d0 A945     		cmp	r9, r5
 213 00d2 7BEB0802 		sbcs	r2, fp, r8
 214 00d6 24D2     		bcs	.L10
 236:Middlewares/ST/filex/common/src/fx_file_extended_seek.c ****                 {
 237:Middlewares/ST/filex/common/src/fx_file_extended_seek.c **** 
 238:Middlewares/ST/filex/common/src/fx_file_extended_seek.c ****                     /* Still more seeking, just decrement the working byte offset.  */
 239:Middlewares/ST/filex/common/src/fx_file_extended_seek.c ****                     bytes_remaining =  bytes_remaining - bytes_per_cluster;
 215              		.loc 1 239 21 is_stmt 1 view .LVU66
 216              		.loc 1 239 37 is_stmt 0 view .LVU67
 217 00d8 019A     		ldr	r2, [sp, #4]
ARM GAS  C:\Users\HP\AppData\Local\Temp\ccTseCPa.s 			page 9


 218 00da AD1A     		subs	r5, r5, r2
 219              	.LVL15:
 220              		.loc 1 239 37 view .LVU68
 221 00dc 68F10008 		sbc	r8, r8, #0
 222              	.LVL16:
 212:Middlewares/ST/filex/common/src/fx_file_extended_seek.c **** 
 223              		.loc 1 212 30 view .LVU69
 224 00e0 A246     		mov	r10, r4
 232:Middlewares/ST/filex/common/src/fx_file_extended_seek.c **** 
 225              		.loc 1 232 25 view .LVU70
 226 00e2 1F46     		mov	r7, r3
 227              	.LVL17:
 232:Middlewares/ST/filex/common/src/fx_file_extended_seek.c **** 
 228              		.loc 1 232 25 view .LVU71
 229 00e4 E3E7     		b	.L11
 230              	.LVL18:
 231              	.L26:
 124:Middlewares/ST/filex/common/src/fx_file_extended_seek.c **** 
 232              		.loc 1 124 9 is_stmt 1 view .LVU72
 233 00e6 0498     		ldr	r0, [sp, #16]
 234 00e8 FFF7FEFF 		bl	_tx_mutex_put
 235              	.LVL19:
 127:Middlewares/ST/filex/common/src/fx_file_extended_seek.c ****     }
 236              		.loc 1 127 9 view .LVU73
 127:Middlewares/ST/filex/common/src/fx_file_extended_seek.c ****     }
 237              		.loc 1 127 15 is_stmt 0 view .LVU74
 238 00ec ACE0     		b	.L1
 239              	.LVL20:
 240              	.L27:
 139:Middlewares/ST/filex/common/src/fx_file_extended_seek.c **** 
 241              		.loc 1 139 9 is_stmt 1 view .LVU75
 242 00ee 0498     		ldr	r0, [sp, #16]
 243 00f0 FFF7FEFF 		bl	_tx_mutex_put
 244              	.LVL21:
 142:Middlewares/ST/filex/common/src/fx_file_extended_seek.c ****     }
 245              		.loc 1 142 9 view .LVU76
 142:Middlewares/ST/filex/common/src/fx_file_extended_seek.c ****     }
 246              		.loc 1 142 15 is_stmt 0 view .LVU77
 247 00f4 0223     		movs	r3, #2
 248 00f6 0093     		str	r3, [sp]
 249 00f8 A6E0     		b	.L1
 250              	.LVL22:
 251              	.L7:
 199:Middlewares/ST/filex/common/src/fx_file_extended_seek.c ****                     (file_ptr -> fx_file_consecutive_cluster - 1);
 252              		.loc 1 199 17 is_stmt 1 view .LVU78
 199:Middlewares/ST/filex/common/src/fx_file_extended_seek.c ****                     (file_ptr -> fx_file_consecutive_cluster - 1);
 253              		.loc 1 199 39 is_stmt 0 view .LVU79
 254 00fa 6769     		ldr	r7, [r4, #20]
 199:Middlewares/ST/filex/common/src/fx_file_extended_seek.c ****                     (file_ptr -> fx_file_consecutive_cluster - 1);
 255              		.loc 1 199 73 view .LVU80
 256 00fc 1F44     		add	r7, r7, r3
 199:Middlewares/ST/filex/common/src/fx_file_extended_seek.c ****                     (file_ptr -> fx_file_consecutive_cluster - 1);
 257              		.loc 1 199 25 view .LVU81
 258 00fe 013F     		subs	r7, r7, #1
 259              	.LVL23:
 201:Middlewares/ST/filex/common/src/fx_file_extended_seek.c ****                     (file_ptr -> fx_file_consecutive_cluster - 1) * bytes_per_cluster;
 260              		.loc 1 201 17 is_stmt 1 view .LVU82
ARM GAS  C:\Users\HP\AppData\Local\Temp\ccTseCPa.s 			page 10


 202:Middlewares/ST/filex/common/src/fx_file_extended_seek.c ****                 cluster_count =     (file_ptr -> fx_file_consecutive_cluster - 1);
 261              		.loc 1 202 62 is_stmt 0 view .LVU83
 262 0100 03F1FF3A 		add	r10, r3, #-1
 202:Middlewares/ST/filex/common/src/fx_file_extended_seek.c ****                 cluster_count =     (file_ptr -> fx_file_consecutive_cluster - 1);
 263              		.loc 1 202 67 view .LVU84
 264 0104 09FB0AF5 		mul	r5, r9, r10
 201:Middlewares/ST/filex/common/src/fx_file_extended_seek.c ****                     (file_ptr -> fx_file_consecutive_cluster - 1) * bytes_per_cluster;
 265              		.loc 1 201 33 view .LVU85
 266 0108 029B     		ldr	r3, [sp, #8]
 267 010a 5D1B     		subs	r5, r3, r5
 268 010c 039B     		ldr	r3, [sp, #12]
 269 010e 63F10008 		sbc	r8, r3, #0
 270              	.LVL24:
 203:Middlewares/ST/filex/common/src/fx_file_extended_seek.c ****             }
 271              		.loc 1 203 17 is_stmt 1 view .LVU86
 203:Middlewares/ST/filex/common/src/fx_file_extended_seek.c ****             }
 272              		.loc 1 203 17 is_stmt 0 view .LVU87
 273 0112 0594     		str	r4, [sp, #20]
 274 0114 CBE7     		b	.L11
 275              	.LVL25:
 276              	.L29:
 222:Middlewares/ST/filex/common/src/fx_file_extended_seek.c **** 
 277              		.loc 1 222 21 view .LVU88
 278 0116 0446     		mov	r4, r0
 279              	.LVL26:
 222:Middlewares/ST/filex/common/src/fx_file_extended_seek.c **** 
 280              		.loc 1 222 21 is_stmt 1 view .LVU89
 281 0118 0498     		ldr	r0, [sp, #16]
 282              	.LVL27:
 222:Middlewares/ST/filex/common/src/fx_file_extended_seek.c **** 
 283              		.loc 1 222 21 is_stmt 0 view .LVU90
 284 011a FFF7FEFF 		bl	_tx_mutex_put
 285              	.LVL28:
 225:Middlewares/ST/filex/common/src/fx_file_extended_seek.c ****                 }
 286              		.loc 1 225 21 is_stmt 1 view .LVU91
 225:Middlewares/ST/filex/common/src/fx_file_extended_seek.c ****                 }
 287              		.loc 1 225 27 is_stmt 0 view .LVU92
 288 011e 0094     		str	r4, [sp]
 289 0120 92E0     		b	.L1
 290              	.LVL29:
 291              	.L10:
 240:Middlewares/ST/filex/common/src/fx_file_extended_seek.c ****                 }
 241:Middlewares/ST/filex/common/src/fx_file_extended_seek.c ****                 else
 242:Middlewares/ST/filex/common/src/fx_file_extended_seek.c ****                 {
 243:Middlewares/ST/filex/common/src/fx_file_extended_seek.c **** 
 244:Middlewares/ST/filex/common/src/fx_file_extended_seek.c ****                     /* Remember this cluster number.  */
 245:Middlewares/ST/filex/common/src/fx_file_extended_seek.c ****                     file_ptr -> fx_file_current_physical_cluster =  last_cluster;
 292              		.loc 1 245 66 view .LVU93
 293 0122 2146     		mov	r1, r4
 294 0124 059C     		ldr	r4, [sp, #20]
 295              	.LVL30:
 296              		.loc 1 245 21 is_stmt 1 view .LVU94
 297              		.loc 1 245 66 is_stmt 0 view .LVU95
 298 0126 2762     		str	r7, [r4, #32]
 246:Middlewares/ST/filex/common/src/fx_file_extended_seek.c **** 
 247:Middlewares/ST/filex/common/src/fx_file_extended_seek.c ****                     /* Remember the relative cluster.  */
 248:Middlewares/ST/filex/common/src/fx_file_extended_seek.c ****                     file_ptr -> fx_file_current_relative_cluster =  cluster_count - 1;
ARM GAS  C:\Users\HP\AppData\Local\Temp\ccTseCPa.s 			page 11


 299              		.loc 1 248 21 is_stmt 1 view .LVU96
 300              		.loc 1 248 66 is_stmt 0 view .LVU97
 301 0128 C4F834A0 		str	r10, [r4, #52]
 249:Middlewares/ST/filex/common/src/fx_file_extended_seek.c **** 
 250:Middlewares/ST/filex/common/src/fx_file_extended_seek.c ****                     /* If the remaining bytes exactly fits the cluster size, check for
 251:Middlewares/ST/filex/common/src/fx_file_extended_seek.c ****                        a possible adjustment to the next cluster.  */
 252:Middlewares/ST/filex/common/src/fx_file_extended_seek.c ****                     if ((bytes_remaining == bytes_per_cluster) &&
 302              		.loc 1 252 21 is_stmt 1 view .LVU98
 303              		.loc 1 252 24 is_stmt 0 view .LVU99
 304 012c C345     		cmp	fp, r8
 305 012e 08BF     		it	eq
 306 0130 A945     		cmpeq	r9, r5
 307 0132 01D0     		beq	.L30
 212:Middlewares/ST/filex/common/src/fx_file_extended_seek.c **** 
 308              		.loc 1 212 30 view .LVU100
 309 0134 8A46     		mov	r10, r1
 310 0136 14E0     		b	.L12
 311              	.L30:
 312              		.loc 1 252 64 discriminator 1 view .LVU101
 313 0138 012B     		cmp	r3, #1
 314 013a 0DD9     		bls	.L21
 253:Middlewares/ST/filex/common/src/fx_file_extended_seek.c ****                         (cluster >= FX_FAT_ENTRY_START) && (cluster < media_ptr -> fx_media_fat_res
 315              		.loc 1 253 81 view .LVU102
 316 013c 06F50052 		add	r2, r6, #8192
 317 0140 D2F8A824 		ldr	r2, [r2, #1192]
 318              		.loc 1 253 57 view .LVU103
 319 0144 9A42     		cmp	r2, r3
 320 0146 09D9     		bls	.L22
 254:Middlewares/ST/filex/common/src/fx_file_extended_seek.c ****                     {
 255:Middlewares/ST/filex/common/src/fx_file_extended_seek.c **** 
 256:Middlewares/ST/filex/common/src/fx_file_extended_seek.c ****                         /* We need to position to next allocated cluster.  */
 257:Middlewares/ST/filex/common/src/fx_file_extended_seek.c ****                         file_ptr -> fx_file_current_physical_cluster =  cluster;
 321              		.loc 1 257 25 is_stmt 1 view .LVU104
 322              		.loc 1 257 70 is_stmt 0 view .LVU105
 323 0148 2362     		str	r3, [r4, #32]
 258:Middlewares/ST/filex/common/src/fx_file_extended_seek.c ****                         file_ptr -> fx_file_current_relative_cluster++;
 324              		.loc 1 258 25 is_stmt 1 view .LVU106
 325              		.loc 1 258 69 is_stmt 0 view .LVU107
 326 014a 6163     		str	r1, [r4, #52]
 259:Middlewares/ST/filex/common/src/fx_file_extended_seek.c **** 
 260:Middlewares/ST/filex/common/src/fx_file_extended_seek.c ****                         /* Clear the remaining bytes.  */
 261:Middlewares/ST/filex/common/src/fx_file_extended_seek.c ****                         bytes_remaining =  0;
 327              		.loc 1 261 25 is_stmt 1 view .LVU108
 328              	.LVL31:
 212:Middlewares/ST/filex/common/src/fx_file_extended_seek.c **** 
 329              		.loc 1 212 30 is_stmt 0 view .LVU109
 330 014c 8A46     		mov	r10, r1
 331              		.loc 1 261 41 view .LVU110
 332 014e 0025     		movs	r5, #0
 333 0150 A846     		mov	r8, r5
 334 0152 06E0     		b	.L12
 335              	.LVL32:
 336              	.L28:
 337              		.loc 1 261 41 view .LVU111
 338 0154 059C     		ldr	r4, [sp, #20]
 339 0156 04E0     		b	.L12
 340              	.LVL33:
ARM GAS  C:\Users\HP\AppData\Local\Temp\ccTseCPa.s 			page 12


 341              	.L21:
 212:Middlewares/ST/filex/common/src/fx_file_extended_seek.c **** 
 342              		.loc 1 212 30 view .LVU112
 343 0158 8A46     		mov	r10, r1
 344 015a 02E0     		b	.L12
 345              	.L22:
 212:Middlewares/ST/filex/common/src/fx_file_extended_seek.c **** 
 346              		.loc 1 212 30 view .LVU113
 347 015c 8A46     		mov	r10, r1
 348 015e 00E0     		b	.L12
 349              	.LVL34:
 350              	.L23:
 212:Middlewares/ST/filex/common/src/fx_file_extended_seek.c **** 
 351              		.loc 1 212 30 view .LVU114
 352 0160 059C     		ldr	r4, [sp, #20]
 353              	.LVL35:
 354              	.L12:
 262:Middlewares/ST/filex/common/src/fx_file_extended_seek.c ****                     }
 263:Middlewares/ST/filex/common/src/fx_file_extended_seek.c **** 
 264:Middlewares/ST/filex/common/src/fx_file_extended_seek.c ****                     /* This is the cluster that contains the seek position.  */
 265:Middlewares/ST/filex/common/src/fx_file_extended_seek.c ****                     break;
 266:Middlewares/ST/filex/common/src/fx_file_extended_seek.c ****                 }
 267:Middlewares/ST/filex/common/src/fx_file_extended_seek.c ****             }
 268:Middlewares/ST/filex/common/src/fx_file_extended_seek.c ****         
 269:Middlewares/ST/filex/common/src/fx_file_extended_seek.c ****             /* Check for errors in traversal of the FAT chain.  */
 270:Middlewares/ST/filex/common/src/fx_file_extended_seek.c ****             if (byte_offset > (((ULONG64) bytes_per_cluster) * ((ULONG64) cluster_count)))
 355              		.loc 1 270 13 is_stmt 1 view .LVU115
 356              		.loc 1 270 62 is_stmt 0 view .LVU116
 357 0162 019B     		ldr	r3, [sp, #4]
 358 0164 A3FB0A3A 		umull	r3, r10, r3, r10
 359              	.LVL36:
 360              		.loc 1 270 16 view .LVU117
 361 0168 029A     		ldr	r2, [sp, #8]
 362 016a 9342     		cmp	r3, r2
 363 016c 039B     		ldr	r3, [sp, #12]
 364 016e 7AEB0303 		sbcs	r3, r10, r3
 365 0172 19D2     		bcs	.L14
 271:Middlewares/ST/filex/common/src/fx_file_extended_seek.c ****             {
 272:Middlewares/ST/filex/common/src/fx_file_extended_seek.c ****     
 273:Middlewares/ST/filex/common/src/fx_file_extended_seek.c ****                 /* Release media protection.  */
 274:Middlewares/ST/filex/common/src/fx_file_extended_seek.c ****                 FX_UNPROTECT
 366              		.loc 1 274 17 is_stmt 1 view .LVU118
 367 0174 0498     		ldr	r0, [sp, #16]
 368 0176 FFF7FEFF 		bl	_tx_mutex_put
 369              	.LVL37:
 275:Middlewares/ST/filex/common/src/fx_file_extended_seek.c **** 
 276:Middlewares/ST/filex/common/src/fx_file_extended_seek.c ****                 /* This is an error that suggests a corrupt file.  */
 277:Middlewares/ST/filex/common/src/fx_file_extended_seek.c ****                 return(FX_FILE_CORRUPT);
 370              		.loc 1 277 17 view .LVU119
 371              		.loc 1 277 23 is_stmt 0 view .LVU120
 372 017a 0823     		movs	r3, #8
 373 017c 0093     		str	r3, [sp]
 374 017e 63E0     		b	.L1
 375              	.LVL38:
 376              	.L6:
 278:Middlewares/ST/filex/common/src/fx_file_extended_seek.c ****             }
 279:Middlewares/ST/filex/common/src/fx_file_extended_seek.c **** #ifdef FX_ENABLE_EXFAT
ARM GAS  C:\Users\HP\AppData\Local\Temp\ccTseCPa.s 			page 13


 280:Middlewares/ST/filex/common/src/fx_file_extended_seek.c ****         }
 281:Middlewares/ST/filex/common/src/fx_file_extended_seek.c **** #endif /* FX_ENABLE_EXFAT */
 282:Middlewares/ST/filex/common/src/fx_file_extended_seek.c ****     }
 283:Middlewares/ST/filex/common/src/fx_file_extended_seek.c ****     else
 284:Middlewares/ST/filex/common/src/fx_file_extended_seek.c ****     {
 285:Middlewares/ST/filex/common/src/fx_file_extended_seek.c **** 
 286:Middlewares/ST/filex/common/src/fx_file_extended_seek.c ****         /* we should directly access the desired cluster */
 287:Middlewares/ST/filex/common/src/fx_file_extended_seek.c ****         file_ptr -> fx_file_current_relative_cluster = (ULONG)(byte_offset / bytes_per_cluster);
 377              		.loc 1 287 9 is_stmt 1 view .LVU121
 378              		.loc 1 287 76 is_stmt 0 view .LVU122
 379 0180 4A46     		mov	r2, r9
 380 0182 5B46     		mov	r3, fp
 381 0184 029F     		ldr	r7, [sp, #8]
 382 0186 3846     		mov	r0, r7
 383              	.LVL39:
 384              		.loc 1 287 76 view .LVU123
 385 0188 039D     		ldr	r5, [sp, #12]
 386 018a 2946     		mov	r1, r5
 387              	.LVL40:
 388              		.loc 1 287 76 view .LVU124
 389 018c FFF7FEFF 		bl	__aeabi_uldivmod
 390              	.LVL41:
 391              		.loc 1 287 54 view .LVU125
 392 0190 6063     		str	r0, [r4, #52]
 288:Middlewares/ST/filex/common/src/fx_file_extended_seek.c **** 
 289:Middlewares/ST/filex/common/src/fx_file_extended_seek.c ****         file_ptr -> fx_file_current_physical_cluster =
 393              		.loc 1 289 9 is_stmt 1 view .LVU126
 290:Middlewares/ST/filex/common/src/fx_file_extended_seek.c ****             file_ptr -> fx_file_first_physical_cluster + file_ptr -> fx_file_current_relative_clust
 394              		.loc 1 290 22 is_stmt 0 view .LVU127
 395 0192 6369     		ldr	r3, [r4, #20]
 396              		.loc 1 290 56 view .LVU128
 397 0194 1844     		add	r0, r0, r3
 289:Middlewares/ST/filex/common/src/fx_file_extended_seek.c ****             file_ptr -> fx_file_first_physical_cluster + file_ptr -> fx_file_current_relative_clust
 398              		.loc 1 289 54 view .LVU129
 399 0196 2062     		str	r0, [r4, #32]
 291:Middlewares/ST/filex/common/src/fx_file_extended_seek.c **** 
 292:Middlewares/ST/filex/common/src/fx_file_extended_seek.c ****         bytes_remaining =  byte_offset % bytes_per_cluster;
 400              		.loc 1 292 9 is_stmt 1 view .LVU130
 401              		.loc 1 292 25 is_stmt 0 view .LVU131
 402 0198 4A46     		mov	r2, r9
 403 019a 5B46     		mov	r3, fp
 404 019c 3846     		mov	r0, r7
 405 019e 2946     		mov	r1, r5
 406 01a0 FFF7FEFF 		bl	__aeabi_uldivmod
 407              	.LVL42:
 408 01a4 1546     		mov	r5, r2
 409 01a6 9846     		mov	r8, r3
 410              	.LVL43:
 411              	.L14:
 293:Middlewares/ST/filex/common/src/fx_file_extended_seek.c ****     }
 294:Middlewares/ST/filex/common/src/fx_file_extended_seek.c **** 
 295:Middlewares/ST/filex/common/src/fx_file_extended_seek.c **** 
 296:Middlewares/ST/filex/common/src/fx_file_extended_seek.c ****     /* Determine if the remaining bytes fit exactly into the cluster size.  */
 297:Middlewares/ST/filex/common/src/fx_file_extended_seek.c ****     if (bytes_remaining == bytes_per_cluster)
 412              		.loc 1 297 5 is_stmt 1 view .LVU132
 413              		.loc 1 297 8 is_stmt 0 view .LVU133
 414 01a8 C345     		cmp	fp, r8
ARM GAS  C:\Users\HP\AppData\Local\Temp\ccTseCPa.s 			page 14


 415 01aa 08BF     		it	eq
 416 01ac A945     		cmpeq	r9, r5
 417 01ae 27D0     		beq	.L31
 298:Middlewares/ST/filex/common/src/fx_file_extended_seek.c ****     {
 299:Middlewares/ST/filex/common/src/fx_file_extended_seek.c **** 
 300:Middlewares/ST/filex/common/src/fx_file_extended_seek.c ****         /* Position to the end of the cluster.  */
 301:Middlewares/ST/filex/common/src/fx_file_extended_seek.c ****         file_ptr -> fx_file_current_logical_sector = (ULONG)(((ULONG)media_ptr -> fx_media_data_sec
 302:Middlewares/ST/filex/common/src/fx_file_extended_seek.c ****                                                              (((ULONG64)file_ptr -> fx_file_current
 303:Middlewares/ST/filex/common/src/fx_file_extended_seek.c ****                                                               ((ULONG)media_ptr -> fx_media_sectors
 304:Middlewares/ST/filex/common/src/fx_file_extended_seek.c ****                                                              ((bytes_remaining - 1) / (ULONG)media_
 305:Middlewares/ST/filex/common/src/fx_file_extended_seek.c ****         file_ptr -> fx_file_current_relative_sector =   (UINT)(((bytes_remaining - 1) / (ULONG)medi
 306:Middlewares/ST/filex/common/src/fx_file_extended_seek.c ****         file_ptr -> fx_file_current_file_offset =       byte_offset;
 307:Middlewares/ST/filex/common/src/fx_file_extended_seek.c ****         file_ptr -> fx_file_current_logical_offset =    media_ptr -> fx_media_bytes_per_sector;
 308:Middlewares/ST/filex/common/src/fx_file_extended_seek.c ****     }
 309:Middlewares/ST/filex/common/src/fx_file_extended_seek.c ****     else
 310:Middlewares/ST/filex/common/src/fx_file_extended_seek.c ****     {
 311:Middlewares/ST/filex/common/src/fx_file_extended_seek.c **** 
 312:Middlewares/ST/filex/common/src/fx_file_extended_seek.c ****         /* Position the pointers to the new offset.  */
 313:Middlewares/ST/filex/common/src/fx_file_extended_seek.c ****         file_ptr -> fx_file_current_logical_sector = (ULONG)(((ULONG)media_ptr -> fx_media_data_sec
 418              		.loc 1 313 9 is_stmt 1 view .LVU134
 419              		.loc 1 313 80 is_stmt 0 view .LVU135
 420 01b0 376D     		ldr	r7, [r6, #80]
 314:Middlewares/ST/filex/common/src/fx_file_extended_seek.c ****                                                              (((ULONG64)file_ptr -> fx_file_current
 421              		.loc 1 314 82 view .LVU136
 422 01b2 236A     		ldr	r3, [r4, #32]
 315:Middlewares/ST/filex/common/src/fx_file_extended_seek.c ****                                                               ((ULONG)media_ptr -> fx_media_sectors
 423              		.loc 1 315 81 view .LVU137
 424 01b4 726D     		ldr	r2, [r6, #84]
 313:Middlewares/ST/filex/common/src/fx_file_extended_seek.c ****                                                              (((ULONG64)file_ptr -> fx_file_current
 425              		.loc 1 313 111 view .LVU138
 426 01b6 023B     		subs	r3, r3, #2
 427 01b8 02FB0377 		mla	r7, r2, r3, r7
 316:Middlewares/ST/filex/common/src/fx_file_extended_seek.c ****                                                              (bytes_remaining / (ULONG)media_ptr ->
 428              		.loc 1 316 81 view .LVU139
 429 01bc 4FF00009 		mov	r9, #0
 430              	.LVL44:
 431              		.loc 1 316 79 view .LVU140
 432 01c0 B26A     		ldr	r2, [r6, #40]
 433 01c2 4B46     		mov	r3, r9
 434 01c4 2846     		mov	r0, r5
 435 01c6 4146     		mov	r1, r8
 436 01c8 FFF7FEFF 		bl	__aeabi_uldivmod
 437              	.LVL45:
 313:Middlewares/ST/filex/common/src/fx_file_extended_seek.c ****                                                              (((ULONG64)file_ptr -> fx_file_current
 438              		.loc 1 313 54 view .LVU141
 439 01cc 0744     		add	r7, r7, r0
 313:Middlewares/ST/filex/common/src/fx_file_extended_seek.c ****                                                              (((ULONG64)file_ptr -> fx_file_current
 440              		.loc 1 313 52 view .LVU142
 441 01ce A762     		str	r7, [r4, #40]
 442 01d0 C4F82C90 		str	r9, [r4, #44]
 317:Middlewares/ST/filex/common/src/fx_file_extended_seek.c ****         file_ptr -> fx_file_current_relative_sector =   (UINT)((bytes_remaining / (ULONG)media_ptr 
 443              		.loc 1 317 9 is_stmt 1 view .LVU143
 444              		.loc 1 317 81 is_stmt 0 view .LVU144
 445 01d4 B26A     		ldr	r2, [r6, #40]
 446 01d6 4B46     		mov	r3, r9
 447 01d8 2846     		mov	r0, r5
 448 01da 4146     		mov	r1, r8
ARM GAS  C:\Users\HP\AppData\Local\Temp\ccTseCPa.s 			page 15


 449 01dc FFF7FEFF 		bl	__aeabi_uldivmod
 450              	.LVL46:
 451              		.loc 1 317 53 view .LVU145
 452 01e0 A063     		str	r0, [r4, #56]
 318:Middlewares/ST/filex/common/src/fx_file_extended_seek.c ****         file_ptr -> fx_file_current_file_offset =       byte_offset;
 453              		.loc 1 318 9 is_stmt 1 view .LVU146
 454              		.loc 1 318 49 is_stmt 0 view .LVU147
 455 01e2 029B     		ldr	r3, [sp, #8]
 456 01e4 2364     		str	r3, [r4, #64]
 457 01e6 039B     		ldr	r3, [sp, #12]
 458 01e8 6364     		str	r3, [r4, #68]
 319:Middlewares/ST/filex/common/src/fx_file_extended_seek.c ****         file_ptr -> fx_file_current_logical_offset =    (ULONG)(bytes_remaining % ((ULONG)media_ptr
 459              		.loc 1 319 9 is_stmt 1 view .LVU148
 460              		.loc 1 319 81 is_stmt 0 view .LVU149
 461 01ea B26A     		ldr	r2, [r6, #40]
 462 01ec 4B46     		mov	r3, r9
 463 01ee 2846     		mov	r0, r5
 464 01f0 4146     		mov	r1, r8
 465 01f2 FFF7FEFF 		bl	__aeabi_uldivmod
 466              	.LVL47:
 467              		.loc 1 319 52 view .LVU150
 468 01f6 2263     		str	r2, [r4, #48]
 469              	.LVL48:
 470              	.L16:
 320:Middlewares/ST/filex/common/src/fx_file_extended_seek.c ****     }
 321:Middlewares/ST/filex/common/src/fx_file_extended_seek.c **** 
 322:Middlewares/ST/filex/common/src/fx_file_extended_seek.c ****     /* Release media protection.  */
 323:Middlewares/ST/filex/common/src/fx_file_extended_seek.c ****     FX_UNPROTECT
 471              		.loc 1 323 5 is_stmt 1 view .LVU151
 472 01f8 0498     		ldr	r0, [sp, #16]
 473 01fa FFF7FEFF 		bl	_tx_mutex_put
 474              	.LVL49:
 324:Middlewares/ST/filex/common/src/fx_file_extended_seek.c **** 
 325:Middlewares/ST/filex/common/src/fx_file_extended_seek.c ****     /* Seek is complete, return successful status.  */
 326:Middlewares/ST/filex/common/src/fx_file_extended_seek.c ****     return(FX_SUCCESS);
 475              		.loc 1 326 5 view .LVU152
 476              		.loc 1 326 11 is_stmt 0 view .LVU153
 477 01fe 23E0     		b	.L1
 478              	.LVL50:
 479              	.L31:
 301:Middlewares/ST/filex/common/src/fx_file_extended_seek.c ****                                                              (((ULONG64)file_ptr -> fx_file_current
 480              		.loc 1 301 9 is_stmt 1 view .LVU154
 301:Middlewares/ST/filex/common/src/fx_file_extended_seek.c ****                                                              (((ULONG64)file_ptr -> fx_file_current
 481              		.loc 1 301 80 is_stmt 0 view .LVU155
 482 0200 376D     		ldr	r7, [r6, #80]
 302:Middlewares/ST/filex/common/src/fx_file_extended_seek.c ****                                                               ((ULONG)media_ptr -> fx_media_sectors
 483              		.loc 1 302 82 view .LVU156
 484 0202 236A     		ldr	r3, [r4, #32]
 303:Middlewares/ST/filex/common/src/fx_file_extended_seek.c ****                                                              ((bytes_remaining - 1) / (ULONG)media_
 485              		.loc 1 303 81 view .LVU157
 486 0204 726D     		ldr	r2, [r6, #84]
 301:Middlewares/ST/filex/common/src/fx_file_extended_seek.c ****                                                              (((ULONG64)file_ptr -> fx_file_current
 487              		.loc 1 301 111 view .LVU158
 488 0206 023B     		subs	r3, r3, #2
 489 0208 02FB0377 		mla	r7, r2, r3, r7
 304:Middlewares/ST/filex/common/src/fx_file_extended_seek.c ****         file_ptr -> fx_file_current_relative_sector =   (UINT)(((bytes_remaining - 1) / (ULONG)medi
 490              		.loc 1 304 80 view .LVU159
ARM GAS  C:\Users\HP\AppData\Local\Temp\ccTseCPa.s 			page 16


 491 020c 15F1FF39 		adds	r9, r5, #-1
 492              	.LVL51:
 304:Middlewares/ST/filex/common/src/fx_file_extended_seek.c ****         file_ptr -> fx_file_current_relative_sector =   (UINT)(((bytes_remaining - 1) / (ULONG)medi
 493              		.loc 1 304 80 view .LVU160
 494 0210 48F1FF38 		adc	r8, r8, #-1
 495              	.LVL52:
 304:Middlewares/ST/filex/common/src/fx_file_extended_seek.c ****         file_ptr -> fx_file_current_relative_sector =   (UINT)(((bytes_remaining - 1) / (ULONG)medi
 496              		.loc 1 304 87 view .LVU161
 497 0214 0025     		movs	r5, #0
 304:Middlewares/ST/filex/common/src/fx_file_extended_seek.c ****         file_ptr -> fx_file_current_relative_sector =   (UINT)(((bytes_remaining - 1) / (ULONG)medi
 498              		.loc 1 304 85 view .LVU162
 499 0216 B26A     		ldr	r2, [r6, #40]
 500 0218 2B46     		mov	r3, r5
 501 021a 4846     		mov	r0, r9
 502 021c 4146     		mov	r1, r8
 503 021e FFF7FEFF 		bl	__aeabi_uldivmod
 504              	.LVL53:
 301:Middlewares/ST/filex/common/src/fx_file_extended_seek.c ****                                                              (((ULONG64)file_ptr -> fx_file_current
 505              		.loc 1 301 54 view .LVU163
 506 0222 0744     		add	r7, r7, r0
 301:Middlewares/ST/filex/common/src/fx_file_extended_seek.c ****                                                              (((ULONG64)file_ptr -> fx_file_current
 507              		.loc 1 301 52 view .LVU164
 508 0224 A762     		str	r7, [r4, #40]
 509 0226 E562     		str	r5, [r4, #44]
 305:Middlewares/ST/filex/common/src/fx_file_extended_seek.c ****         file_ptr -> fx_file_current_file_offset =       byte_offset;
 510              		.loc 1 305 9 is_stmt 1 view .LVU165
 305:Middlewares/ST/filex/common/src/fx_file_extended_seek.c ****         file_ptr -> fx_file_current_file_offset =       byte_offset;
 511              		.loc 1 305 87 is_stmt 0 view .LVU166
 512 0228 B26A     		ldr	r2, [r6, #40]
 513 022a 2B46     		mov	r3, r5
 514 022c 4846     		mov	r0, r9
 515 022e 4146     		mov	r1, r8
 516 0230 FFF7FEFF 		bl	__aeabi_uldivmod
 517              	.LVL54:
 305:Middlewares/ST/filex/common/src/fx_file_extended_seek.c ****         file_ptr -> fx_file_current_file_offset =       byte_offset;
 518              		.loc 1 305 53 view .LVU167
 519 0234 A063     		str	r0, [r4, #56]
 306:Middlewares/ST/filex/common/src/fx_file_extended_seek.c ****         file_ptr -> fx_file_current_logical_offset =    media_ptr -> fx_media_bytes_per_sector;
 520              		.loc 1 306 9 is_stmt 1 view .LVU168
 306:Middlewares/ST/filex/common/src/fx_file_extended_seek.c ****         file_ptr -> fx_file_current_logical_offset =    media_ptr -> fx_media_bytes_per_sector;
 521              		.loc 1 306 49 is_stmt 0 view .LVU169
 522 0236 029B     		ldr	r3, [sp, #8]
 523 0238 2364     		str	r3, [r4, #64]
 524 023a 039B     		ldr	r3, [sp, #12]
 525 023c 6364     		str	r3, [r4, #68]
 307:Middlewares/ST/filex/common/src/fx_file_extended_seek.c ****     }
 526              		.loc 1 307 9 is_stmt 1 view .LVU170
 307:Middlewares/ST/filex/common/src/fx_file_extended_seek.c ****     }
 527              		.loc 1 307 67 is_stmt 0 view .LVU171
 528 023e B36A     		ldr	r3, [r6, #40]
 307:Middlewares/ST/filex/common/src/fx_file_extended_seek.c ****     }
 529              		.loc 1 307 52 view .LVU172
 530 0240 2363     		str	r3, [r4, #48]
 531 0242 D9E7     		b	.L16
 532              	.LVL55:
 533              	.L17:
  99:Middlewares/ST/filex/common/src/fx_file_extended_seek.c ****     }
ARM GAS  C:\Users\HP\AppData\Local\Temp\ccTseCPa.s 			page 17


 534              		.loc 1 99 15 view .LVU173
 535 0244 0723     		movs	r3, #7
 536 0246 0093     		str	r3, [sp]
 537              	.LVL56:
 538              	.L1:
 327:Middlewares/ST/filex/common/src/fx_file_extended_seek.c **** }
 539              		.loc 1 327 1 view .LVU174
 540 0248 0098     		ldr	r0, [sp]
 541 024a 09B0     		add	sp, sp, #36
 542              	.LCFI2:
 543              		.cfi_remember_state
 544              		.cfi_def_cfa_offset 36
 545              		@ sp needed
 546 024c BDE8F08F 		pop	{r4, r5, r6, r7, r8, r9, r10, fp, pc}
 547              	.LVL57:
 548              	.L19:
 549              	.LCFI3:
 550              		.cfi_restore_state
 117:Middlewares/ST/filex/common/src/fx_file_extended_seek.c **** 
 551              		.loc 1 117 5 view .LVU175
 552 0250 1123     		movs	r3, #17
 553 0252 0093     		str	r3, [sp]
 554 0254 F8E7     		b	.L1
 555              	.L33:
 556 0256 00BF     		.align	2
 557              	.L32:
 558 0258 454C4946 		.word	1179208773
 559 025c 4944454D 		.word	1296385097
 560              		.cfi_endproc
 561              	.LFE8:
 563              		.text
 564              	.Letext0:
 565              		.file 2 "Middlewares/ST/threadx/ports/cortex_m4/gnu/inc/tx_port.h"
 566              		.file 3 "Middlewares/ST/threadx/common/inc/tx_api.h"
 567              		.file 4 "Middlewares/ST/filex/common/inc/fx_api.h"
 568              		.file 5 "Middlewares/ST/filex/common/inc/fx_utility.h"
ARM GAS  C:\Users\HP\AppData\Local\Temp\ccTseCPa.s 			page 18

