ARM GAS  C:\Users\HP\AppData\Local\Temp\ccv2kRG1.s 			page 1


   1              		.cpu cortex-m4
   2              		.arch armv7e-m
   3              		.fpu fpv4-sp-d16
   4              		.eabi_attribute 27, 1
   5              		.eabi_attribute 28, 1
   6              		.eabi_attribute 20, 1
   7              		.eabi_attribute 21, 1
   8              		.eabi_attribute 23, 3
   9              		.eabi_attribute 24, 1
  10              		.eabi_attribute 25, 1
  11              		.eabi_attribute 26, 1
  12              		.eabi_attribute 30, 1
  13              		.eabi_attribute 34, 1
  14              		.eabi_attribute 18, 4
  15              		.file	"fx_media_check_lost_cluster_check.c"
  16              		.text
  17              	.Ltext0:
  18              		.cfi_sections	.debug_frame
  19              		.section	.text._fx_media_check_lost_cluster_check,"ax",%progbits
  20              		.align	1
  21              		.global	_fx_media_check_lost_cluster_check
  22              		.syntax unified
  23              		.thumb
  24              		.thumb_func
  26              	_fx_media_check_lost_cluster_check:
  27              	.LVL0:
  28              	.LFB8:
  29              		.file 1 "Middlewares/ST/filex/common/src/fx_media_check_lost_cluster_check.c"
   1:Middlewares/ST/filex/common/src/fx_media_check_lost_cluster_check.c **** /**************************************************************************/
   2:Middlewares/ST/filex/common/src/fx_media_check_lost_cluster_check.c **** /*                                                                        */
   3:Middlewares/ST/filex/common/src/fx_media_check_lost_cluster_check.c **** /*       Copyright (c) Microsoft Corporation. All rights reserved.        */
   4:Middlewares/ST/filex/common/src/fx_media_check_lost_cluster_check.c **** /*                                                                        */
   5:Middlewares/ST/filex/common/src/fx_media_check_lost_cluster_check.c **** /*       This software is licensed under the Microsoft Software License   */
   6:Middlewares/ST/filex/common/src/fx_media_check_lost_cluster_check.c **** /*       Terms for Microsoft Azure RTOS. Full text of the license can be  */
   7:Middlewares/ST/filex/common/src/fx_media_check_lost_cluster_check.c **** /*       found in the LICENSE file at https://aka.ms/AzureRTOS_EULA       */
   8:Middlewares/ST/filex/common/src/fx_media_check_lost_cluster_check.c **** /*       and in the root directory of this software.                      */
   9:Middlewares/ST/filex/common/src/fx_media_check_lost_cluster_check.c **** /*                                                                        */
  10:Middlewares/ST/filex/common/src/fx_media_check_lost_cluster_check.c **** /**************************************************************************/
  11:Middlewares/ST/filex/common/src/fx_media_check_lost_cluster_check.c **** 
  12:Middlewares/ST/filex/common/src/fx_media_check_lost_cluster_check.c **** 
  13:Middlewares/ST/filex/common/src/fx_media_check_lost_cluster_check.c **** /**************************************************************************/
  14:Middlewares/ST/filex/common/src/fx_media_check_lost_cluster_check.c **** /**************************************************************************/
  15:Middlewares/ST/filex/common/src/fx_media_check_lost_cluster_check.c **** /**                                                                       */
  16:Middlewares/ST/filex/common/src/fx_media_check_lost_cluster_check.c **** /** FileX Component                                                       */
  17:Middlewares/ST/filex/common/src/fx_media_check_lost_cluster_check.c **** /**                                                                       */
  18:Middlewares/ST/filex/common/src/fx_media_check_lost_cluster_check.c **** /**   Media                                                               */
  19:Middlewares/ST/filex/common/src/fx_media_check_lost_cluster_check.c **** /**                                                                       */
  20:Middlewares/ST/filex/common/src/fx_media_check_lost_cluster_check.c **** /**************************************************************************/
  21:Middlewares/ST/filex/common/src/fx_media_check_lost_cluster_check.c **** /**************************************************************************/
  22:Middlewares/ST/filex/common/src/fx_media_check_lost_cluster_check.c **** 
  23:Middlewares/ST/filex/common/src/fx_media_check_lost_cluster_check.c **** #define FX_SOURCE_CODE
  24:Middlewares/ST/filex/common/src/fx_media_check_lost_cluster_check.c **** 
  25:Middlewares/ST/filex/common/src/fx_media_check_lost_cluster_check.c **** 
  26:Middlewares/ST/filex/common/src/fx_media_check_lost_cluster_check.c **** /* Include necessary system files.  */
  27:Middlewares/ST/filex/common/src/fx_media_check_lost_cluster_check.c **** 
  28:Middlewares/ST/filex/common/src/fx_media_check_lost_cluster_check.c **** #include "fx_api.h"
  29:Middlewares/ST/filex/common/src/fx_media_check_lost_cluster_check.c **** #include "fx_media.h"
ARM GAS  C:\Users\HP\AppData\Local\Temp\ccv2kRG1.s 			page 2


  30:Middlewares/ST/filex/common/src/fx_media_check_lost_cluster_check.c **** #include "fx_utility.h"
  31:Middlewares/ST/filex/common/src/fx_media_check_lost_cluster_check.c **** 
  32:Middlewares/ST/filex/common/src/fx_media_check_lost_cluster_check.c **** 
  33:Middlewares/ST/filex/common/src/fx_media_check_lost_cluster_check.c **** /**************************************************************************/
  34:Middlewares/ST/filex/common/src/fx_media_check_lost_cluster_check.c **** /*                                                                        */
  35:Middlewares/ST/filex/common/src/fx_media_check_lost_cluster_check.c **** /*  FUNCTION                                               RELEASE        */
  36:Middlewares/ST/filex/common/src/fx_media_check_lost_cluster_check.c **** /*                                                                        */
  37:Middlewares/ST/filex/common/src/fx_media_check_lost_cluster_check.c **** /*    _fx_media_check_lost_cluster_check                  PORTABLE C      */
  38:Middlewares/ST/filex/common/src/fx_media_check_lost_cluster_check.c **** /*                                                           6.1          */
  39:Middlewares/ST/filex/common/src/fx_media_check_lost_cluster_check.c **** /*  AUTHOR                                                                */
  40:Middlewares/ST/filex/common/src/fx_media_check_lost_cluster_check.c **** /*                                                                        */
  41:Middlewares/ST/filex/common/src/fx_media_check_lost_cluster_check.c **** /*    William E. Lamie, Microsoft Corporation                             */
  42:Middlewares/ST/filex/common/src/fx_media_check_lost_cluster_check.c **** /*                                                                        */
  43:Middlewares/ST/filex/common/src/fx_media_check_lost_cluster_check.c **** /*  DESCRIPTION                                                           */
  44:Middlewares/ST/filex/common/src/fx_media_check_lost_cluster_check.c **** /*                                                                        */
  45:Middlewares/ST/filex/common/src/fx_media_check_lost_cluster_check.c **** /*    This function examines all clusters to see if there are any unused  */
  46:Middlewares/ST/filex/common/src/fx_media_check_lost_cluster_check.c **** /*    clusters that are also unavailable. If specified, this routine will */
  47:Middlewares/ST/filex/common/src/fx_media_check_lost_cluster_check.c **** /*    also mark the cluster as available.                                 */
  48:Middlewares/ST/filex/common/src/fx_media_check_lost_cluster_check.c **** /*                                                                        */
  49:Middlewares/ST/filex/common/src/fx_media_check_lost_cluster_check.c **** /*  INPUT                                                                 */
  50:Middlewares/ST/filex/common/src/fx_media_check_lost_cluster_check.c **** /*                                                                        */
  51:Middlewares/ST/filex/common/src/fx_media_check_lost_cluster_check.c **** /*    media_ptr                             Pointer to a previously       */
  52:Middlewares/ST/filex/common/src/fx_media_check_lost_cluster_check.c **** /*                                            opened media                */
  53:Middlewares/ST/filex/common/src/fx_media_check_lost_cluster_check.c **** /*    logical_fat                           Pointer to the logical FAT    */
  54:Middlewares/ST/filex/common/src/fx_media_check_lost_cluster_check.c **** /*                                            bit map                     */
  55:Middlewares/ST/filex/common/src/fx_media_check_lost_cluster_check.c **** /*    total_clusters                        Total number of clusters      */
  56:Middlewares/ST/filex/common/src/fx_media_check_lost_cluster_check.c **** /*    error_correction_option               Option for correcting lost    */
  57:Middlewares/ST/filex/common/src/fx_media_check_lost_cluster_check.c **** /*                                            cluster errors              */
  58:Middlewares/ST/filex/common/src/fx_media_check_lost_cluster_check.c **** /*                                                                        */
  59:Middlewares/ST/filex/common/src/fx_media_check_lost_cluster_check.c **** /*  OUTPUT                                                                */
  60:Middlewares/ST/filex/common/src/fx_media_check_lost_cluster_check.c **** /*                                                                        */
  61:Middlewares/ST/filex/common/src/fx_media_check_lost_cluster_check.c **** /*    error                                 Error code                    */
  62:Middlewares/ST/filex/common/src/fx_media_check_lost_cluster_check.c **** /*                                                                        */
  63:Middlewares/ST/filex/common/src/fx_media_check_lost_cluster_check.c **** /*  CALLS                                                                 */
  64:Middlewares/ST/filex/common/src/fx_media_check_lost_cluster_check.c **** /*                                                                        */
  65:Middlewares/ST/filex/common/src/fx_media_check_lost_cluster_check.c **** /*    _fx_utility_FAT_entry_read            Read a FAT entry              */
  66:Middlewares/ST/filex/common/src/fx_media_check_lost_cluster_check.c **** /*    _fx_utility_FAT_entry_write           Write a FAT entry             */
  67:Middlewares/ST/filex/common/src/fx_media_check_lost_cluster_check.c **** /*                                                                        */
  68:Middlewares/ST/filex/common/src/fx_media_check_lost_cluster_check.c **** /*  CALLED BY                                                             */
  69:Middlewares/ST/filex/common/src/fx_media_check_lost_cluster_check.c **** /*                                                                        */
  70:Middlewares/ST/filex/common/src/fx_media_check_lost_cluster_check.c **** /*    _fx_check_media                       Check media function          */
  71:Middlewares/ST/filex/common/src/fx_media_check_lost_cluster_check.c **** /*                                                                        */
  72:Middlewares/ST/filex/common/src/fx_media_check_lost_cluster_check.c **** /*  RELEASE HISTORY                                                       */
  73:Middlewares/ST/filex/common/src/fx_media_check_lost_cluster_check.c **** /*                                                                        */
  74:Middlewares/ST/filex/common/src/fx_media_check_lost_cluster_check.c **** /*    DATE              NAME                      DESCRIPTION             */
  75:Middlewares/ST/filex/common/src/fx_media_check_lost_cluster_check.c **** /*                                                                        */
  76:Middlewares/ST/filex/common/src/fx_media_check_lost_cluster_check.c **** /*  05-19-2020     William E. Lamie         Initial Version 6.0           */
  77:Middlewares/ST/filex/common/src/fx_media_check_lost_cluster_check.c **** /*  09-30-2020     William E. Lamie         Modified comment(s),          */
  78:Middlewares/ST/filex/common/src/fx_media_check_lost_cluster_check.c **** /*                                            resulting in version 6.1    */
  79:Middlewares/ST/filex/common/src/fx_media_check_lost_cluster_check.c **** /*                                                                        */
  80:Middlewares/ST/filex/common/src/fx_media_check_lost_cluster_check.c **** /**************************************************************************/
  81:Middlewares/ST/filex/common/src/fx_media_check_lost_cluster_check.c **** ULONG  _fx_media_check_lost_cluster_check(FX_MEDIA *media_ptr, UCHAR *logical_fat, ULONG total_clus
  82:Middlewares/ST/filex/common/src/fx_media_check_lost_cluster_check.c **** {
  30              		.loc 1 82 1 view -0
  31              		.cfi_startproc
  32              		@ args = 0, pretend = 0, frame = 8
  33              		@ frame_needed = 0, uses_anonymous_args = 0
ARM GAS  C:\Users\HP\AppData\Local\Temp\ccv2kRG1.s 			page 3


  34              		.loc 1 82 1 is_stmt 0 view .LVU1
  35 0000 2DE9F047 		push	{r4, r5, r6, r7, r8, r9, r10, lr}
  36              	.LCFI0:
  37              		.cfi_def_cfa_offset 32
  38              		.cfi_offset 4, -32
  39              		.cfi_offset 5, -28
  40              		.cfi_offset 6, -24
  41              		.cfi_offset 7, -20
  42              		.cfi_offset 8, -16
  43              		.cfi_offset 9, -12
  44              		.cfi_offset 10, -8
  45              		.cfi_offset 14, -4
  46 0004 82B0     		sub	sp, sp, #8
  47              	.LCFI1:
  48              		.cfi_def_cfa_offset 40
  49 0006 0746     		mov	r7, r0
  50 0008 0E46     		mov	r6, r1
  51 000a 1546     		mov	r5, r2
  52 000c 9846     		mov	r8, r3
  83:Middlewares/ST/filex/common/src/fx_media_check_lost_cluster_check.c **** 
  84:Middlewares/ST/filex/common/src/fx_media_check_lost_cluster_check.c **** ULONG cluster, next_cluster = 0;
  53              		.loc 1 84 1 is_stmt 1 view .LVU2
  54              		.loc 1 84 16 is_stmt 0 view .LVU3
  55 000e 0023     		movs	r3, #0
  56              	.LVL1:
  57              		.loc 1 84 16 view .LVU4
  58 0010 0193     		str	r3, [sp, #4]
  85:Middlewares/ST/filex/common/src/fx_media_check_lost_cluster_check.c **** ULONG fat_last;
  59              		.loc 1 85 1 is_stmt 1 view .LVU5
  86:Middlewares/ST/filex/common/src/fx_media_check_lost_cluster_check.c **** ULONG error;
  60              		.loc 1 86 1 view .LVU6
  87:Middlewares/ST/filex/common/src/fx_media_check_lost_cluster_check.c **** UINT  status;
  61              		.loc 1 87 1 view .LVU7
  88:Middlewares/ST/filex/common/src/fx_media_check_lost_cluster_check.c **** 
  89:Middlewares/ST/filex/common/src/fx_media_check_lost_cluster_check.c **** 
  90:Middlewares/ST/filex/common/src/fx_media_check_lost_cluster_check.c ****     /* Calculate the FAT reserved and last sector values.  */
  91:Middlewares/ST/filex/common/src/fx_media_check_lost_cluster_check.c ****     if (media_ptr -> fx_media_32_bit_FAT)
  62              		.loc 1 91 5 view .LVU8
  63              		.loc 1 91 19 is_stmt 0 view .LVU9
  64 0012 436E     		ldr	r3, [r0, #100]
  65              		.loc 1 91 8 view .LVU10
  66 0014 2BB1     		cbz	r3, .L10
  92:Middlewares/ST/filex/common/src/fx_media_check_lost_cluster_check.c ****     {
  93:Middlewares/ST/filex/common/src/fx_media_check_lost_cluster_check.c ****         fat_last =      FX_LAST_CLUSTER_1_32;
  67              		.loc 1 93 18 view .LVU11
  68 0016 DFF884A0 		ldr	r10, .L17
  69              	.L2:
  70              	.LVL2:
  94:Middlewares/ST/filex/common/src/fx_media_check_lost_cluster_check.c ****     }
  95:Middlewares/ST/filex/common/src/fx_media_check_lost_cluster_check.c ****     else
  96:Middlewares/ST/filex/common/src/fx_media_check_lost_cluster_check.c ****     {
  97:Middlewares/ST/filex/common/src/fx_media_check_lost_cluster_check.c ****         fat_last =      FX_LAST_CLUSTER_1;
  98:Middlewares/ST/filex/common/src/fx_media_check_lost_cluster_check.c ****     }
  99:Middlewares/ST/filex/common/src/fx_media_check_lost_cluster_check.c **** 
 100:Middlewares/ST/filex/common/src/fx_media_check_lost_cluster_check.c ****     /* Initialize the error.  */
 101:Middlewares/ST/filex/common/src/fx_media_check_lost_cluster_check.c ****     error =  0;
  71              		.loc 1 101 5 is_stmt 1 view .LVU12
ARM GAS  C:\Users\HP\AppData\Local\Temp\ccv2kRG1.s 			page 4


 102:Middlewares/ST/filex/common/src/fx_media_check_lost_cluster_check.c **** 
 103:Middlewares/ST/filex/common/src/fx_media_check_lost_cluster_check.c ****     /* Loop through all the clusters to see if any clusters NOT in the logical sector FAT have
 104:Middlewares/ST/filex/common/src/fx_media_check_lost_cluster_check.c ****        a non zero value.  */
 105:Middlewares/ST/filex/common/src/fx_media_check_lost_cluster_check.c ****     for (cluster = FX_FAT_ENTRY_START; cluster < total_clusters; cluster++)
  72              		.loc 1 105 5 view .LVU13
 101:Middlewares/ST/filex/common/src/fx_media_check_lost_cluster_check.c **** 
  73              		.loc 1 101 11 is_stmt 0 view .LVU14
  74 001a 4FF00009 		mov	r9, #0
  75              		.loc 1 105 18 view .LVU15
  76 001e 0224     		movs	r4, #2
  77              		.loc 1 105 5 view .LVU16
  78 0020 10E0     		b	.L3
  79              	.LVL3:
  80              	.L10:
  97:Middlewares/ST/filex/common/src/fx_media_check_lost_cluster_check.c ****     }
  81              		.loc 1 97 18 view .LVU17
  82 0022 4FF6F87A 		movw	r10, #65528
  83 0026 F8E7     		b	.L2
  84              	.LVL4:
  85              	.L15:
 106:Middlewares/ST/filex/common/src/fx_media_check_lost_cluster_check.c ****     {
 107:Middlewares/ST/filex/common/src/fx_media_check_lost_cluster_check.c **** 
 108:Middlewares/ST/filex/common/src/fx_media_check_lost_cluster_check.c ****         /* Determine if this cluster is in the logical FAT.  */
 109:Middlewares/ST/filex/common/src/fx_media_check_lost_cluster_check.c ****         if (logical_fat[cluster >> 3] & (1 << (cluster & 7)))
 110:Middlewares/ST/filex/common/src/fx_media_check_lost_cluster_check.c ****         {
 111:Middlewares/ST/filex/common/src/fx_media_check_lost_cluster_check.c **** 
 112:Middlewares/ST/filex/common/src/fx_media_check_lost_cluster_check.c ****             /* Yes, the cluster is in use by a file or sub-directory.  Just continue the loop.  */
 113:Middlewares/ST/filex/common/src/fx_media_check_lost_cluster_check.c ****             continue;
 114:Middlewares/ST/filex/common/src/fx_media_check_lost_cluster_check.c ****         }
 115:Middlewares/ST/filex/common/src/fx_media_check_lost_cluster_check.c **** 
 116:Middlewares/ST/filex/common/src/fx_media_check_lost_cluster_check.c ****         /* Otherwise, the cluster is not in use.  */
 117:Middlewares/ST/filex/common/src/fx_media_check_lost_cluster_check.c **** 
 118:Middlewares/ST/filex/common/src/fx_media_check_lost_cluster_check.c ****         /* Read the contents of what should be a free cluster.  */
 119:Middlewares/ST/filex/common/src/fx_media_check_lost_cluster_check.c ****         status = _fx_utility_FAT_entry_read(media_ptr, cluster, &next_cluster);
 120:Middlewares/ST/filex/common/src/fx_media_check_lost_cluster_check.c **** 
 121:Middlewares/ST/filex/common/src/fx_media_check_lost_cluster_check.c ****         /* Check for a good status.  */
 122:Middlewares/ST/filex/common/src/fx_media_check_lost_cluster_check.c ****         if (status)
 123:Middlewares/ST/filex/common/src/fx_media_check_lost_cluster_check.c ****         {
 124:Middlewares/ST/filex/common/src/fx_media_check_lost_cluster_check.c **** 
 125:Middlewares/ST/filex/common/src/fx_media_check_lost_cluster_check.c ****             /* Set the error code.  */
 126:Middlewares/ST/filex/common/src/fx_media_check_lost_cluster_check.c ****             error = error | FX_IO_ERROR;
  86              		.loc 1 126 13 is_stmt 1 view .LVU18
  87              		.loc 1 126 19 is_stmt 0 view .LVU19
  88 0028 49F09009 		orr	r9, r9, #144
  89              	.LVL5:
 127:Middlewares/ST/filex/common/src/fx_media_check_lost_cluster_check.c **** 
 128:Middlewares/ST/filex/common/src/fx_media_check_lost_cluster_check.c ****             /* Return error code.  */
 129:Middlewares/ST/filex/common/src/fx_media_check_lost_cluster_check.c ****             return(error);
  90              		.loc 1 129 13 is_stmt 1 view .LVU20
  91              	.L1:
 130:Middlewares/ST/filex/common/src/fx_media_check_lost_cluster_check.c ****         }
 131:Middlewares/ST/filex/common/src/fx_media_check_lost_cluster_check.c **** 
 132:Middlewares/ST/filex/common/src/fx_media_check_lost_cluster_check.c ****         /* Determine if the contents of the cluster is valid.  */
 133:Middlewares/ST/filex/common/src/fx_media_check_lost_cluster_check.c ****         if (((next_cluster > (ULONG)FX_FREE_CLUSTER) && (next_cluster < media_ptr -> fx_media_fat_r
 134:Middlewares/ST/filex/common/src/fx_media_check_lost_cluster_check.c ****             (next_cluster >= fat_last))
 135:Middlewares/ST/filex/common/src/fx_media_check_lost_cluster_check.c ****         {
 136:Middlewares/ST/filex/common/src/fx_media_check_lost_cluster_check.c **** 
ARM GAS  C:\Users\HP\AppData\Local\Temp\ccv2kRG1.s 			page 5


 137:Middlewares/ST/filex/common/src/fx_media_check_lost_cluster_check.c ****             /* Lost cluster is present.  */
 138:Middlewares/ST/filex/common/src/fx_media_check_lost_cluster_check.c **** 
 139:Middlewares/ST/filex/common/src/fx_media_check_lost_cluster_check.c ****             /* Set the error code status.  */
 140:Middlewares/ST/filex/common/src/fx_media_check_lost_cluster_check.c ****             error =  FX_LOST_CLUSTER_ERROR;
 141:Middlewares/ST/filex/common/src/fx_media_check_lost_cluster_check.c **** 
 142:Middlewares/ST/filex/common/src/fx_media_check_lost_cluster_check.c ****             /* Determine if the lost cluster should be recovered.  */
 143:Middlewares/ST/filex/common/src/fx_media_check_lost_cluster_check.c ****             if (error_correction_option & FX_LOST_CLUSTER_ERROR)
 144:Middlewares/ST/filex/common/src/fx_media_check_lost_cluster_check.c ****             {
 145:Middlewares/ST/filex/common/src/fx_media_check_lost_cluster_check.c **** 
 146:Middlewares/ST/filex/common/src/fx_media_check_lost_cluster_check.c ****                 /* Make the cluster available again.  */
 147:Middlewares/ST/filex/common/src/fx_media_check_lost_cluster_check.c ****                 status =  _fx_utility_FAT_entry_write(media_ptr, cluster, FX_FREE_CLUSTER);
 148:Middlewares/ST/filex/common/src/fx_media_check_lost_cluster_check.c **** 
 149:Middlewares/ST/filex/common/src/fx_media_check_lost_cluster_check.c ****                 /* Check for a good status.  */
 150:Middlewares/ST/filex/common/src/fx_media_check_lost_cluster_check.c ****                 if (status)
 151:Middlewares/ST/filex/common/src/fx_media_check_lost_cluster_check.c ****                 {
 152:Middlewares/ST/filex/common/src/fx_media_check_lost_cluster_check.c **** 
 153:Middlewares/ST/filex/common/src/fx_media_check_lost_cluster_check.c ****                     /* Increment the available clusters.  */
 154:Middlewares/ST/filex/common/src/fx_media_check_lost_cluster_check.c ****                     media_ptr -> fx_media_available_clusters++;
 155:Middlewares/ST/filex/common/src/fx_media_check_lost_cluster_check.c **** 
 156:Middlewares/ST/filex/common/src/fx_media_check_lost_cluster_check.c ****                     /* Set the error code.  */
 157:Middlewares/ST/filex/common/src/fx_media_check_lost_cluster_check.c ****                     error =  error | FX_IO_ERROR;
 158:Middlewares/ST/filex/common/src/fx_media_check_lost_cluster_check.c **** 
 159:Middlewares/ST/filex/common/src/fx_media_check_lost_cluster_check.c ****                     /* Return error code.  */
 160:Middlewares/ST/filex/common/src/fx_media_check_lost_cluster_check.c ****                     return(error);
 161:Middlewares/ST/filex/common/src/fx_media_check_lost_cluster_check.c ****                 }
 162:Middlewares/ST/filex/common/src/fx_media_check_lost_cluster_check.c ****             }
 163:Middlewares/ST/filex/common/src/fx_media_check_lost_cluster_check.c ****         }
 164:Middlewares/ST/filex/common/src/fx_media_check_lost_cluster_check.c ****     }
 165:Middlewares/ST/filex/common/src/fx_media_check_lost_cluster_check.c **** 
 166:Middlewares/ST/filex/common/src/fx_media_check_lost_cluster_check.c ****     /* Return error code.  */
 167:Middlewares/ST/filex/common/src/fx_media_check_lost_cluster_check.c ****     return(error);
 168:Middlewares/ST/filex/common/src/fx_media_check_lost_cluster_check.c **** }
  92              		.loc 1 168 1 is_stmt 0 view .LVU21
  93 002c 4846     		mov	r0, r9
  94 002e 02B0     		add	sp, sp, #8
  95              	.LCFI2:
  96              		.cfi_remember_state
  97              		.cfi_def_cfa_offset 32
  98              		@ sp needed
  99 0030 BDE8F087 		pop	{r4, r5, r6, r7, r8, r9, r10, pc}
 100              	.LVL6:
 101              	.L7:
 102              	.LCFI3:
 103              		.cfi_restore_state
 133:Middlewares/ST/filex/common/src/fx_media_check_lost_cluster_check.c ****             (next_cluster >= fat_last))
 104              		.loc 1 133 110 discriminator 3 view .LVU22
 105 0034 5345     		cmp	r3, r10
 106 0036 04D3     		bcc	.L4
 107              	.L8:
 140:Middlewares/ST/filex/common/src/fx_media_check_lost_cluster_check.c **** 
 108              		.loc 1 140 13 is_stmt 1 view .LVU23
 109              	.LVL7:
 143:Middlewares/ST/filex/common/src/fx_media_check_lost_cluster_check.c ****             {
 110              		.loc 1 143 13 view .LVU24
 143:Middlewares/ST/filex/common/src/fx_media_check_lost_cluster_check.c ****             {
 111              		.loc 1 143 16 is_stmt 0 view .LVU25
 112 0038 18F0040F 		tst	r8, #4
ARM GAS  C:\Users\HP\AppData\Local\Temp\ccv2kRG1.s 			page 6


 113 003c 1FD1     		bne	.L14
 140:Middlewares/ST/filex/common/src/fx_media_check_lost_cluster_check.c **** 
 114              		.loc 1 140 19 view .LVU26
 115 003e 4FF00409 		mov	r9, #4
 116              	.LVL8:
 117              	.L4:
 105:Middlewares/ST/filex/common/src/fx_media_check_lost_cluster_check.c ****     {
 118              		.loc 1 105 66 is_stmt 1 discriminator 2 view .LVU27
 105:Middlewares/ST/filex/common/src/fx_media_check_lost_cluster_check.c ****     {
 119              		.loc 1 105 73 is_stmt 0 discriminator 2 view .LVU28
 120 0042 0134     		adds	r4, r4, #1
 121              	.LVL9:
 122              	.L3:
 105:Middlewares/ST/filex/common/src/fx_media_check_lost_cluster_check.c ****     {
 123              		.loc 1 105 40 is_stmt 1 discriminator 1 view .LVU29
 105:Middlewares/ST/filex/common/src/fx_media_check_lost_cluster_check.c ****     {
 124              		.loc 1 105 5 is_stmt 0 discriminator 1 view .LVU30
 125 0044 AC42     		cmp	r4, r5
 126 0046 F1D2     		bcs	.L1
 109:Middlewares/ST/filex/common/src/fx_media_check_lost_cluster_check.c ****         {
 127              		.loc 1 109 9 is_stmt 1 view .LVU31
 109:Middlewares/ST/filex/common/src/fx_media_check_lost_cluster_check.c ****         {
 128              		.loc 1 109 33 is_stmt 0 view .LVU32
 129 0048 E308     		lsrs	r3, r4, #3
 109:Middlewares/ST/filex/common/src/fx_media_check_lost_cluster_check.c ****         {
 130              		.loc 1 109 24 view .LVU33
 131 004a 16F803C0 		ldrb	ip, [r6, r3]	@ zero_extendqisi2
 109:Middlewares/ST/filex/common/src/fx_media_check_lost_cluster_check.c ****         {
 132              		.loc 1 109 56 view .LVU34
 133 004e 04F00703 		and	r3, r4, #7
 109:Middlewares/ST/filex/common/src/fx_media_check_lost_cluster_check.c ****         {
 134              		.loc 1 109 13 view .LVU35
 135 0052 4CFA03FC 		asr	ip, ip, r3
 109:Middlewares/ST/filex/common/src/fx_media_check_lost_cluster_check.c ****         {
 136              		.loc 1 109 12 view .LVU36
 137 0056 1CF0010F 		tst	ip, #1
 138 005a F2D1     		bne	.L4
 119:Middlewares/ST/filex/common/src/fx_media_check_lost_cluster_check.c **** 
 139              		.loc 1 119 9 is_stmt 1 view .LVU37
 119:Middlewares/ST/filex/common/src/fx_media_check_lost_cluster_check.c **** 
 140              		.loc 1 119 18 is_stmt 0 view .LVU38
 141 005c 01AA     		add	r2, sp, #4
 142 005e 2146     		mov	r1, r4
 143 0060 3846     		mov	r0, r7
 144 0062 FFF7FEFF 		bl	_fx_utility_FAT_entry_read
 145              	.LVL10:
 122:Middlewares/ST/filex/common/src/fx_media_check_lost_cluster_check.c ****         {
 146              		.loc 1 122 9 is_stmt 1 view .LVU39
 122:Middlewares/ST/filex/common/src/fx_media_check_lost_cluster_check.c ****         {
 147              		.loc 1 122 12 is_stmt 0 view .LVU40
 148 0066 0028     		cmp	r0, #0
 149 0068 DED1     		bne	.L15
 133:Middlewares/ST/filex/common/src/fx_media_check_lost_cluster_check.c ****             (next_cluster >= fat_last))
 150              		.loc 1 133 9 is_stmt 1 view .LVU41
 133:Middlewares/ST/filex/common/src/fx_media_check_lost_cluster_check.c ****             (next_cluster >= fat_last))
 151              		.loc 1 133 28 is_stmt 0 view .LVU42
 152 006a 019B     		ldr	r3, [sp, #4]
ARM GAS  C:\Users\HP\AppData\Local\Temp\ccv2kRG1.s 			page 7


 133:Middlewares/ST/filex/common/src/fx_media_check_lost_cluster_check.c ****             (next_cluster >= fat_last))
 153              		.loc 1 133 12 view .LVU43
 154 006c 002B     		cmp	r3, #0
 155 006e E1D0     		beq	.L7
 133:Middlewares/ST/filex/common/src/fx_media_check_lost_cluster_check.c ****             (next_cluster >= fat_last))
 156              		.loc 1 133 83 discriminator 1 view .LVU44
 157 0070 07F50052 		add	r2, r7, #8192
 158 0074 D2F8A824 		ldr	r2, [r2, #1192]
 133:Middlewares/ST/filex/common/src/fx_media_check_lost_cluster_check.c ****             (next_cluster >= fat_last))
 159              		.loc 1 133 54 discriminator 1 view .LVU45
 160 0078 9342     		cmp	r3, r2
 161 007a DDD3     		bcc	.L8
 162 007c DAE7     		b	.L7
 163              	.LVL11:
 164              	.L14:
 147:Middlewares/ST/filex/common/src/fx_media_check_lost_cluster_check.c **** 
 165              		.loc 1 147 17 is_stmt 1 view .LVU46
 147:Middlewares/ST/filex/common/src/fx_media_check_lost_cluster_check.c **** 
 166              		.loc 1 147 27 is_stmt 0 view .LVU47
 167 007e 0022     		movs	r2, #0
 168 0080 2146     		mov	r1, r4
 169 0082 3846     		mov	r0, r7
 170              	.LVL12:
 147:Middlewares/ST/filex/common/src/fx_media_check_lost_cluster_check.c **** 
 171              		.loc 1 147 27 view .LVU48
 172 0084 FFF7FEFF 		bl	_fx_utility_FAT_entry_write
 173              	.LVL13:
 150:Middlewares/ST/filex/common/src/fx_media_check_lost_cluster_check.c ****                 {
 174              		.loc 1 150 17 is_stmt 1 view .LVU49
 150:Middlewares/ST/filex/common/src/fx_media_check_lost_cluster_check.c ****                 {
 175              		.loc 1 150 20 is_stmt 0 view .LVU50
 176 0088 10B9     		cbnz	r0, .L16
 140:Middlewares/ST/filex/common/src/fx_media_check_lost_cluster_check.c **** 
 177              		.loc 1 140 19 view .LVU51
 178 008a 4FF00409 		mov	r9, #4
 179 008e D8E7     		b	.L4
 180              	.L16:
 154:Middlewares/ST/filex/common/src/fx_media_check_lost_cluster_check.c **** 
 181              		.loc 1 154 21 is_stmt 1 view .LVU52
 154:Middlewares/ST/filex/common/src/fx_media_check_lost_cluster_check.c **** 
 182              		.loc 1 154 31 is_stmt 0 view .LVU53
 183 0090 FB6F     		ldr	r3, [r7, #124]
 154:Middlewares/ST/filex/common/src/fx_media_check_lost_cluster_check.c **** 
 184              		.loc 1 154 61 view .LVU54
 185 0092 0133     		adds	r3, r3, #1
 186 0094 FB67     		str	r3, [r7, #124]
 157:Middlewares/ST/filex/common/src/fx_media_check_lost_cluster_check.c **** 
 187              		.loc 1 157 21 is_stmt 1 view .LVU55
 188              	.LVL14:
 160:Middlewares/ST/filex/common/src/fx_media_check_lost_cluster_check.c ****                 }
 189              		.loc 1 160 21 view .LVU56
 160:Middlewares/ST/filex/common/src/fx_media_check_lost_cluster_check.c ****                 }
 190              		.loc 1 160 27 is_stmt 0 view .LVU57
 191 0096 4FF09409 		mov	r9, #148
 192 009a C7E7     		b	.L1
 193              	.L18:
 194              		.align	2
ARM GAS  C:\Users\HP\AppData\Local\Temp\ccv2kRG1.s 			page 8


 195              	.L17:
 196 009c F8FFFF0F 		.word	268435448
 197              		.cfi_endproc
 198              	.LFE8:
 200              		.text
 201              	.Letext0:
 202              		.file 2 "Middlewares/ST/threadx/ports/cortex_m4/gnu/inc/tx_port.h"
 203              		.file 3 "Middlewares/ST/threadx/common/inc/tx_api.h"
 204              		.file 4 "Middlewares/ST/filex/common/inc/fx_api.h"
 205              		.file 5 "Middlewares/ST/filex/common/inc/fx_utility.h"
ARM GAS  C:\Users\HP\AppData\Local\Temp\ccv2kRG1.s 			page 9

