ARM GAS  C:\Users\HP\AppData\Local\Temp\ccvQoPMk.s 			page 1


   1              		.cpu cortex-m4
   2              		.arch armv7e-m
   3              		.fpu fpv4-sp-d16
   4              		.eabi_attribute 27, 1
   5              		.eabi_attribute 28, 1
   6              		.eabi_attribute 20, 1
   7              		.eabi_attribute 21, 1
   8              		.eabi_attribute 23, 3
   9              		.eabi_attribute 24, 1
  10              		.eabi_attribute 25, 1
  11              		.eabi_attribute 26, 1
  12              		.eabi_attribute 30, 1
  13              		.eabi_attribute 34, 1
  14              		.eabi_attribute 18, 4
  15              		.file	"fx_media_close.c"
  16              		.text
  17              	.Ltext0:
  18              		.cfi_sections	.debug_frame
  19              		.section	.text._fx_media_close,"ax",%progbits
  20              		.align	1
  21              		.global	_fx_media_close
  22              		.syntax unified
  23              		.thumb
  24              		.thumb_func
  26              	_fx_media_close:
  27              	.LVL0:
  28              	.LFB8:
  29              		.file 1 "Middlewares/ST/filex/common/src/fx_media_close.c"
   1:Middlewares/ST/filex/common/src/fx_media_close.c **** /**************************************************************************/
   2:Middlewares/ST/filex/common/src/fx_media_close.c **** /*                                                                        */
   3:Middlewares/ST/filex/common/src/fx_media_close.c **** /*       Copyright (c) Microsoft Corporation. All rights reserved.        */
   4:Middlewares/ST/filex/common/src/fx_media_close.c **** /*                                                                        */
   5:Middlewares/ST/filex/common/src/fx_media_close.c **** /*       This software is licensed under the Microsoft Software License   */
   6:Middlewares/ST/filex/common/src/fx_media_close.c **** /*       Terms for Microsoft Azure RTOS. Full text of the license can be  */
   7:Middlewares/ST/filex/common/src/fx_media_close.c **** /*       found in the LICENSE file at https://aka.ms/AzureRTOS_EULA       */
   8:Middlewares/ST/filex/common/src/fx_media_close.c **** /*       and in the root directory of this software.                      */
   9:Middlewares/ST/filex/common/src/fx_media_close.c **** /*                                                                        */
  10:Middlewares/ST/filex/common/src/fx_media_close.c **** /**************************************************************************/
  11:Middlewares/ST/filex/common/src/fx_media_close.c **** 
  12:Middlewares/ST/filex/common/src/fx_media_close.c **** 
  13:Middlewares/ST/filex/common/src/fx_media_close.c **** /**************************************************************************/
  14:Middlewares/ST/filex/common/src/fx_media_close.c **** /**************************************************************************/
  15:Middlewares/ST/filex/common/src/fx_media_close.c **** /**                                                                       */
  16:Middlewares/ST/filex/common/src/fx_media_close.c **** /** FileX Component                                                       */
  17:Middlewares/ST/filex/common/src/fx_media_close.c **** /**                                                                       */
  18:Middlewares/ST/filex/common/src/fx_media_close.c **** /**   Media                                                               */
  19:Middlewares/ST/filex/common/src/fx_media_close.c **** /**                                                                       */
  20:Middlewares/ST/filex/common/src/fx_media_close.c **** /**************************************************************************/
  21:Middlewares/ST/filex/common/src/fx_media_close.c **** /**************************************************************************/
  22:Middlewares/ST/filex/common/src/fx_media_close.c **** 
  23:Middlewares/ST/filex/common/src/fx_media_close.c **** #define FX_SOURCE_CODE
  24:Middlewares/ST/filex/common/src/fx_media_close.c **** 
  25:Middlewares/ST/filex/common/src/fx_media_close.c **** 
  26:Middlewares/ST/filex/common/src/fx_media_close.c **** /* Include necessary system files.  */
  27:Middlewares/ST/filex/common/src/fx_media_close.c **** 
  28:Middlewares/ST/filex/common/src/fx_media_close.c **** #include "fx_api.h"
  29:Middlewares/ST/filex/common/src/fx_media_close.c **** #include "fx_system.h"
ARM GAS  C:\Users\HP\AppData\Local\Temp\ccvQoPMk.s 			page 2


  30:Middlewares/ST/filex/common/src/fx_media_close.c **** #include "fx_media.h"
  31:Middlewares/ST/filex/common/src/fx_media_close.c **** #include "fx_file.h"
  32:Middlewares/ST/filex/common/src/fx_media_close.c **** #include "fx_directory.h"
  33:Middlewares/ST/filex/common/src/fx_media_close.c **** #include "fx_utility.h"
  34:Middlewares/ST/filex/common/src/fx_media_close.c **** 
  35:Middlewares/ST/filex/common/src/fx_media_close.c **** 
  36:Middlewares/ST/filex/common/src/fx_media_close.c **** /**************************************************************************/
  37:Middlewares/ST/filex/common/src/fx_media_close.c **** /*                                                                        */
  38:Middlewares/ST/filex/common/src/fx_media_close.c **** /*  FUNCTION                                               RELEASE        */
  39:Middlewares/ST/filex/common/src/fx_media_close.c **** /*                                                                        */
  40:Middlewares/ST/filex/common/src/fx_media_close.c **** /*    _fx_media_close                                     PORTABLE C      */
  41:Middlewares/ST/filex/common/src/fx_media_close.c **** /*                                                           6.1          */
  42:Middlewares/ST/filex/common/src/fx_media_close.c **** /*  AUTHOR                                                                */
  43:Middlewares/ST/filex/common/src/fx_media_close.c **** /*                                                                        */
  44:Middlewares/ST/filex/common/src/fx_media_close.c **** /*    William E. Lamie, Microsoft Corporation                             */
  45:Middlewares/ST/filex/common/src/fx_media_close.c **** /*                                                                        */
  46:Middlewares/ST/filex/common/src/fx_media_close.c **** /*  DESCRIPTION                                                           */
  47:Middlewares/ST/filex/common/src/fx_media_close.c **** /*                                                                        */
  48:Middlewares/ST/filex/common/src/fx_media_close.c **** /*    This function examines the list of open files for this media and    */
  49:Middlewares/ST/filex/common/src/fx_media_close.c **** /*    closes each file.  If a file has been written to, the file's        */
  50:Middlewares/ST/filex/common/src/fx_media_close.c **** /*    directory information is also written out to the media.  After      */
  51:Middlewares/ST/filex/common/src/fx_media_close.c **** /*    the files have been closed, the internal logical sector is          */
  52:Middlewares/ST/filex/common/src/fx_media_close.c **** /*    flushed and a flush command is sent to the attached driver.         */
  53:Middlewares/ST/filex/common/src/fx_media_close.c **** /*    Finally, this media control block is removed from the list of       */
  54:Middlewares/ST/filex/common/src/fx_media_close.c **** /*    opened media control blocks and is marked as closed.                */
  55:Middlewares/ST/filex/common/src/fx_media_close.c **** /*                                                                        */
  56:Middlewares/ST/filex/common/src/fx_media_close.c **** /*  INPUT                                                                 */
  57:Middlewares/ST/filex/common/src/fx_media_close.c **** /*                                                                        */
  58:Middlewares/ST/filex/common/src/fx_media_close.c **** /*    media_ptr                             Media control block pointer   */
  59:Middlewares/ST/filex/common/src/fx_media_close.c **** /*                                                                        */
  60:Middlewares/ST/filex/common/src/fx_media_close.c **** /*  OUTPUT                                                                */
  61:Middlewares/ST/filex/common/src/fx_media_close.c **** /*                                                                        */
  62:Middlewares/ST/filex/common/src/fx_media_close.c **** /*    return status                                                       */
  63:Middlewares/ST/filex/common/src/fx_media_close.c **** /*                                                                        */
  64:Middlewares/ST/filex/common/src/fx_media_close.c **** /*  CALLS                                                                 */
  65:Middlewares/ST/filex/common/src/fx_media_close.c **** /*                                                                        */
  66:Middlewares/ST/filex/common/src/fx_media_close.c **** /*    _fx_directory_entry_write             Write the directory entry     */
  67:Middlewares/ST/filex/common/src/fx_media_close.c **** /*    _fx_media_abort                       Abort the media on error      */
  68:Middlewares/ST/filex/common/src/fx_media_close.c **** /*    _fx_utility_exFAT_bitmap_flush        Flush exFAT allocation bitmap */
  69:Middlewares/ST/filex/common/src/fx_media_close.c **** /*    _fx_utility_FAT_flush                 Flush cached FAT entries      */
  70:Middlewares/ST/filex/common/src/fx_media_close.c **** /*    _fx_utility_FAT_map_flush             Flush primary FAT changes to  */
  71:Middlewares/ST/filex/common/src/fx_media_close.c **** /*                                            secondary FAT(s)            */
  72:Middlewares/ST/filex/common/src/fx_media_close.c **** /*    _fx_utility_logical_sector_flush      Flush logical sector cache    */
  73:Middlewares/ST/filex/common/src/fx_media_close.c **** /*    _fx_utility_16_unsigned_read          Read a 16-bit value           */
  74:Middlewares/ST/filex/common/src/fx_media_close.c **** /*    _fx_utility_32_unsigned_read          Read a 32-bit value           */
  75:Middlewares/ST/filex/common/src/fx_media_close.c **** /*    _fx_utility_32_unsigned_write         Write a 32-bit value          */
  76:Middlewares/ST/filex/common/src/fx_media_close.c **** /*    tx_mutex_delete                       Delete protection mutex       */
  77:Middlewares/ST/filex/common/src/fx_media_close.c **** /*                                                                        */
  78:Middlewares/ST/filex/common/src/fx_media_close.c **** /*  CALLED BY                                                             */
  79:Middlewares/ST/filex/common/src/fx_media_close.c **** /*                                                                        */
  80:Middlewares/ST/filex/common/src/fx_media_close.c **** /*    Application Code                                                    */
  81:Middlewares/ST/filex/common/src/fx_media_close.c **** /*                                                                        */
  82:Middlewares/ST/filex/common/src/fx_media_close.c **** /*  RELEASE HISTORY                                                       */
  83:Middlewares/ST/filex/common/src/fx_media_close.c **** /*                                                                        */
  84:Middlewares/ST/filex/common/src/fx_media_close.c **** /*    DATE              NAME                      DESCRIPTION             */
  85:Middlewares/ST/filex/common/src/fx_media_close.c **** /*                                                                        */
  86:Middlewares/ST/filex/common/src/fx_media_close.c **** /*  05-19-2020     William E. Lamie         Initial Version 6.0           */
ARM GAS  C:\Users\HP\AppData\Local\Temp\ccvQoPMk.s 			page 3


  87:Middlewares/ST/filex/common/src/fx_media_close.c **** /*  09-30-2020     William E. Lamie         Modified comment(s), and      */
  88:Middlewares/ST/filex/common/src/fx_media_close.c **** /*                                            added conditional to        */
  89:Middlewares/ST/filex/common/src/fx_media_close.c **** /*                                            disable file close          */
  90:Middlewares/ST/filex/common/src/fx_media_close.c **** /*                                            and cache,                  */
  91:Middlewares/ST/filex/common/src/fx_media_close.c **** /*                                            resulting in version 6.1    */
  92:Middlewares/ST/filex/common/src/fx_media_close.c **** /*                                                                        */
  93:Middlewares/ST/filex/common/src/fx_media_close.c **** /**************************************************************************/
  94:Middlewares/ST/filex/common/src/fx_media_close.c **** UINT  _fx_media_close(FX_MEDIA  *media_ptr)
  95:Middlewares/ST/filex/common/src/fx_media_close.c **** {
  30              		.loc 1 95 1 view -0
  31              		.cfi_startproc
  32              		@ args = 0, pretend = 0, frame = 0
  33              		@ frame_needed = 0, uses_anonymous_args = 0
  34              		.loc 1 95 1 is_stmt 0 view .LVU1
  35 0000 F0B5     		push	{r4, r5, r6, r7, lr}
  36              	.LCFI0:
  37              		.cfi_def_cfa_offset 20
  38              		.cfi_offset 4, -20
  39              		.cfi_offset 5, -16
  40              		.cfi_offset 6, -12
  41              		.cfi_offset 7, -8
  42              		.cfi_offset 14, -4
  43 0002 85B0     		sub	sp, sp, #20
  44              	.LCFI1:
  45              		.cfi_def_cfa_offset 40
  96:Middlewares/ST/filex/common/src/fx_media_close.c **** 
  97:Middlewares/ST/filex/common/src/fx_media_close.c **** FX_INT_SAVE_AREA
  46              		.loc 1 97 1 is_stmt 1 view .LVU2
  98:Middlewares/ST/filex/common/src/fx_media_close.c **** 
  99:Middlewares/ST/filex/common/src/fx_media_close.c **** #ifndef FX_DISABLE_FILE_CLOSE
 100:Middlewares/ST/filex/common/src/fx_media_close.c **** ULONG    open_count;
  47              		.loc 1 100 1 view .LVU3
 101:Middlewares/ST/filex/common/src/fx_media_close.c **** FX_FILE *file_ptr;
  48              		.loc 1 101 1 view .LVU4
 102:Middlewares/ST/filex/common/src/fx_media_close.c **** #endif /* FX_DISABLE_FILE_CLOSE */
 103:Middlewares/ST/filex/common/src/fx_media_close.c **** UINT     status;
  49              		.loc 1 103 1 view .LVU5
 104:Middlewares/ST/filex/common/src/fx_media_close.c **** 
 105:Middlewares/ST/filex/common/src/fx_media_close.c **** 
 106:Middlewares/ST/filex/common/src/fx_media_close.c ****     /* Check the media to make sure it is open.  */
 107:Middlewares/ST/filex/common/src/fx_media_close.c ****     if (media_ptr -> fx_media_id != FX_MEDIA_ID)
  50              		.loc 1 107 5 view .LVU6
  51              		.loc 1 107 19 is_stmt 0 view .LVU7
  52 0004 0268     		ldr	r2, [r0]
  53              		.loc 1 107 8 view .LVU8
  54 0006 944B     		ldr	r3, .L25
  55 0008 9A42     		cmp	r2, r3
  56 000a 03D0     		beq	.L16
 108:Middlewares/ST/filex/common/src/fx_media_close.c ****     {
 109:Middlewares/ST/filex/common/src/fx_media_close.c **** 
 110:Middlewares/ST/filex/common/src/fx_media_close.c ****         /* Return the media not opened error.  */
 111:Middlewares/ST/filex/common/src/fx_media_close.c ****         return(FX_MEDIA_NOT_OPEN);
  57              		.loc 1 111 15 view .LVU9
  58 000c 1124     		movs	r4, #17
  59              	.LVL1:
  60              	.L1:
 112:Middlewares/ST/filex/common/src/fx_media_close.c ****     }
ARM GAS  C:\Users\HP\AppData\Local\Temp\ccvQoPMk.s 			page 4


 113:Middlewares/ST/filex/common/src/fx_media_close.c **** 
 114:Middlewares/ST/filex/common/src/fx_media_close.c ****     /* If trace is enabled, insert this event into the trace buffer.  */
 115:Middlewares/ST/filex/common/src/fx_media_close.c ****     FX_TRACE_IN_LINE_INSERT(FX_TRACE_MEDIA_CLOSE, media_ptr, 0, 0, 0, FX_TRACE_MEDIA_EVENTS, 0, 0)
 116:Middlewares/ST/filex/common/src/fx_media_close.c **** 
 117:Middlewares/ST/filex/common/src/fx_media_close.c ****     /* If trace is enabled, unregister this object.  */
 118:Middlewares/ST/filex/common/src/fx_media_close.c ****     FX_TRACE_OBJECT_UNREGISTER(media_ptr)
 119:Middlewares/ST/filex/common/src/fx_media_close.c **** 
 120:Middlewares/ST/filex/common/src/fx_media_close.c ****     /* Protect against other threads accessing the media.  */
 121:Middlewares/ST/filex/common/src/fx_media_close.c ****     FX_PROTECT
 122:Middlewares/ST/filex/common/src/fx_media_close.c **** 
 123:Middlewares/ST/filex/common/src/fx_media_close.c **** #ifndef FX_DISABLE_FILE_CLOSE
 124:Middlewares/ST/filex/common/src/fx_media_close.c ****     /* Loop through the media's open files.  */
 125:Middlewares/ST/filex/common/src/fx_media_close.c ****     open_count =  media_ptr -> fx_media_opened_file_count;
 126:Middlewares/ST/filex/common/src/fx_media_close.c ****     file_ptr =    media_ptr -> fx_media_opened_file_list;
 127:Middlewares/ST/filex/common/src/fx_media_close.c ****     while (open_count)
 128:Middlewares/ST/filex/common/src/fx_media_close.c ****     {
 129:Middlewares/ST/filex/common/src/fx_media_close.c **** 
 130:Middlewares/ST/filex/common/src/fx_media_close.c ****         /* Look at each opened file to see if the same file is opened
 131:Middlewares/ST/filex/common/src/fx_media_close.c ****            for writing and has been written to.  */
 132:Middlewares/ST/filex/common/src/fx_media_close.c ****         if ((file_ptr -> fx_file_open_mode == FX_OPEN_FOR_WRITE) &&
 133:Middlewares/ST/filex/common/src/fx_media_close.c ****             (file_ptr -> fx_file_modified))
 134:Middlewares/ST/filex/common/src/fx_media_close.c ****         {
 135:Middlewares/ST/filex/common/src/fx_media_close.c **** 
 136:Middlewares/ST/filex/common/src/fx_media_close.c ****             /* Lockout interrupts for time/date access.  */
 137:Middlewares/ST/filex/common/src/fx_media_close.c ****             FX_DISABLE_INTS
 138:Middlewares/ST/filex/common/src/fx_media_close.c **** 
 139:Middlewares/ST/filex/common/src/fx_media_close.c ****             /* Set the new time and date.  */
 140:Middlewares/ST/filex/common/src/fx_media_close.c ****             file_ptr -> fx_file_dir_entry.fx_dir_entry_time =  _fx_system_time;
 141:Middlewares/ST/filex/common/src/fx_media_close.c ****             file_ptr -> fx_file_dir_entry.fx_dir_entry_date =  _fx_system_date;
 142:Middlewares/ST/filex/common/src/fx_media_close.c **** 
 143:Middlewares/ST/filex/common/src/fx_media_close.c ****             /* Restore interrupt posture.  */
 144:Middlewares/ST/filex/common/src/fx_media_close.c ****             FX_RESTORE_INTS
 145:Middlewares/ST/filex/common/src/fx_media_close.c **** 
 146:Middlewares/ST/filex/common/src/fx_media_close.c ****             /* Copy the new file size into the directory entry.  */
 147:Middlewares/ST/filex/common/src/fx_media_close.c ****             file_ptr -> fx_file_dir_entry.fx_dir_entry_file_size =
 148:Middlewares/ST/filex/common/src/fx_media_close.c ****                 file_ptr -> fx_file_current_file_size;
 149:Middlewares/ST/filex/common/src/fx_media_close.c **** 
 150:Middlewares/ST/filex/common/src/fx_media_close.c ****             /* Write the directory entry to the media.  */
 151:Middlewares/ST/filex/common/src/fx_media_close.c **** #ifdef FX_ENABLE_EXFAT
 152:Middlewares/ST/filex/common/src/fx_media_close.c ****             if (media_ptr -> fx_media_FAT_type == FX_exFAT)
 153:Middlewares/ST/filex/common/src/fx_media_close.c ****             {
 154:Middlewares/ST/filex/common/src/fx_media_close.c **** 
 155:Middlewares/ST/filex/common/src/fx_media_close.c ****                 status = _fx_directory_exFAT_entry_write(media_ptr, &(file_ptr -> fx_file_dir_entry
 156:Middlewares/ST/filex/common/src/fx_media_close.c ****             }
 157:Middlewares/ST/filex/common/src/fx_media_close.c ****             else
 158:Middlewares/ST/filex/common/src/fx_media_close.c ****             {
 159:Middlewares/ST/filex/common/src/fx_media_close.c **** #endif /* FX_ENABLE_EXFAT */
 160:Middlewares/ST/filex/common/src/fx_media_close.c ****                 status = _fx_directory_entry_write(media_ptr, &(file_ptr -> fx_file_dir_entry));
 161:Middlewares/ST/filex/common/src/fx_media_close.c **** #ifdef FX_ENABLE_EXFAT
 162:Middlewares/ST/filex/common/src/fx_media_close.c ****             }
 163:Middlewares/ST/filex/common/src/fx_media_close.c **** #endif /* FX_ENABLE_EXFAT */
 164:Middlewares/ST/filex/common/src/fx_media_close.c **** 
 165:Middlewares/ST/filex/common/src/fx_media_close.c ****             /* Determine if the status was unsuccessful. */
 166:Middlewares/ST/filex/common/src/fx_media_close.c ****             if (status != FX_SUCCESS)
 167:Middlewares/ST/filex/common/src/fx_media_close.c ****             {
 168:Middlewares/ST/filex/common/src/fx_media_close.c **** 
 169:Middlewares/ST/filex/common/src/fx_media_close.c ****                 /* Release media protection.  */
ARM GAS  C:\Users\HP\AppData\Local\Temp\ccvQoPMk.s 			page 5


 170:Middlewares/ST/filex/common/src/fx_media_close.c ****                 FX_UNPROTECT
 171:Middlewares/ST/filex/common/src/fx_media_close.c **** 
 172:Middlewares/ST/filex/common/src/fx_media_close.c ****                 /* Call the media abort routine.  */
 173:Middlewares/ST/filex/common/src/fx_media_close.c ****                 _fx_media_abort(media_ptr);
 174:Middlewares/ST/filex/common/src/fx_media_close.c **** 
 175:Middlewares/ST/filex/common/src/fx_media_close.c ****                 /* Return the error status.  */
 176:Middlewares/ST/filex/common/src/fx_media_close.c ****                 return(FX_IO_ERROR);
 177:Middlewares/ST/filex/common/src/fx_media_close.c ****             }
 178:Middlewares/ST/filex/common/src/fx_media_close.c **** 
 179:Middlewares/ST/filex/common/src/fx_media_close.c ****             /* Clear the file modified flag.  */
 180:Middlewares/ST/filex/common/src/fx_media_close.c ****             file_ptr -> fx_file_modified =  FX_FALSE;
 181:Middlewares/ST/filex/common/src/fx_media_close.c ****         }
 182:Middlewares/ST/filex/common/src/fx_media_close.c **** 
 183:Middlewares/ST/filex/common/src/fx_media_close.c ****         /* Mark the file as closed.  */
 184:Middlewares/ST/filex/common/src/fx_media_close.c ****         file_ptr -> fx_file_id =  FX_FILE_CLOSED_ID;
 185:Middlewares/ST/filex/common/src/fx_media_close.c **** 
 186:Middlewares/ST/filex/common/src/fx_media_close.c ****         /* Adjust the pointer and decrement the opened count.  */
 187:Middlewares/ST/filex/common/src/fx_media_close.c ****         file_ptr =  file_ptr -> fx_file_opened_next;
 188:Middlewares/ST/filex/common/src/fx_media_close.c ****         open_count--;
 189:Middlewares/ST/filex/common/src/fx_media_close.c ****     }
 190:Middlewares/ST/filex/common/src/fx_media_close.c **** #endif /* FX_DISABLE_FILE_CLOSE */
 191:Middlewares/ST/filex/common/src/fx_media_close.c **** 
 192:Middlewares/ST/filex/common/src/fx_media_close.c ****     /* Flush the cached individual FAT entries */
 193:Middlewares/ST/filex/common/src/fx_media_close.c ****     _fx_utility_FAT_flush(media_ptr);
 194:Middlewares/ST/filex/common/src/fx_media_close.c **** 
 195:Middlewares/ST/filex/common/src/fx_media_close.c ****     /* Flush changed sector(s) in the primary FAT to secondary FATs.  */
 196:Middlewares/ST/filex/common/src/fx_media_close.c ****     _fx_utility_FAT_map_flush(media_ptr);
 197:Middlewares/ST/filex/common/src/fx_media_close.c **** 
 198:Middlewares/ST/filex/common/src/fx_media_close.c **** #ifdef FX_ENABLE_EXFAT
 199:Middlewares/ST/filex/common/src/fx_media_close.c ****     if ((media_ptr -> fx_media_FAT_type == FX_exFAT) &&
 200:Middlewares/ST/filex/common/src/fx_media_close.c ****         (FX_TRUE == media_ptr -> fx_media_exfat_bitmap_cache_dirty))
 201:Middlewares/ST/filex/common/src/fx_media_close.c ****     {
 202:Middlewares/ST/filex/common/src/fx_media_close.c **** 
 203:Middlewares/ST/filex/common/src/fx_media_close.c ****         /* Flush bitmap.  */
 204:Middlewares/ST/filex/common/src/fx_media_close.c ****         _fx_utility_exFAT_bitmap_flush(media_ptr);
 205:Middlewares/ST/filex/common/src/fx_media_close.c ****     }
 206:Middlewares/ST/filex/common/src/fx_media_close.c **** #endif /* FX_ENABLE_EXFAT */
 207:Middlewares/ST/filex/common/src/fx_media_close.c **** 
 208:Middlewares/ST/filex/common/src/fx_media_close.c ****     /* Flush the internal logical sector cache.  */
 209:Middlewares/ST/filex/common/src/fx_media_close.c ****     status =  _fx_utility_logical_sector_flush(media_ptr, ((ULONG64) 1), (ULONG64) (media_ptr -> fx
 210:Middlewares/ST/filex/common/src/fx_media_close.c **** 
 211:Middlewares/ST/filex/common/src/fx_media_close.c ****     /* Determine if the flush was unsuccessful. */
 212:Middlewares/ST/filex/common/src/fx_media_close.c ****     if (status != FX_SUCCESS)
 213:Middlewares/ST/filex/common/src/fx_media_close.c ****     {
 214:Middlewares/ST/filex/common/src/fx_media_close.c **** 
 215:Middlewares/ST/filex/common/src/fx_media_close.c ****         /* Release media protection.  */
 216:Middlewares/ST/filex/common/src/fx_media_close.c ****         FX_UNPROTECT
 217:Middlewares/ST/filex/common/src/fx_media_close.c **** 
 218:Middlewares/ST/filex/common/src/fx_media_close.c ****         /* Call the media abort routine.  */
 219:Middlewares/ST/filex/common/src/fx_media_close.c ****         _fx_media_abort(media_ptr);
 220:Middlewares/ST/filex/common/src/fx_media_close.c **** 
 221:Middlewares/ST/filex/common/src/fx_media_close.c ****         /* Return the error status.  */
 222:Middlewares/ST/filex/common/src/fx_media_close.c ****         return(FX_IO_ERROR);
 223:Middlewares/ST/filex/common/src/fx_media_close.c ****     }
 224:Middlewares/ST/filex/common/src/fx_media_close.c **** 
 225:Middlewares/ST/filex/common/src/fx_media_close.c ****     /* Determine if the media needs to have the additional information sector updated. This will
 226:Middlewares/ST/filex/common/src/fx_media_close.c ****        only be the case for 32-bit FATs. The logic here only needs to be done if the last reported
ARM GAS  C:\Users\HP\AppData\Local\Temp\ccvQoPMk.s 			page 6


 227:Middlewares/ST/filex/common/src/fx_media_close.c ****        available cluster count is different that the currently available clusters.  */
 228:Middlewares/ST/filex/common/src/fx_media_close.c ****     if ((media_ptr -> fx_media_FAT32_additional_info_sector) &&
 229:Middlewares/ST/filex/common/src/fx_media_close.c ****         (media_ptr -> fx_media_FAT32_additional_info_last_available != media_ptr -> fx_media_availa
 230:Middlewares/ST/filex/common/src/fx_media_close.c ****         (media_ptr -> fx_media_driver_write_protect == FX_FALSE))
 231:Middlewares/ST/filex/common/src/fx_media_close.c ****     {
 232:Middlewares/ST/filex/common/src/fx_media_close.c **** 
 233:Middlewares/ST/filex/common/src/fx_media_close.c ****     UCHAR *buffer_ptr;
 234:Middlewares/ST/filex/common/src/fx_media_close.c ****     ULONG  signature;
 235:Middlewares/ST/filex/common/src/fx_media_close.c **** 
 236:Middlewares/ST/filex/common/src/fx_media_close.c **** 
 237:Middlewares/ST/filex/common/src/fx_media_close.c **** #ifndef FX_DISABLE_CACHE
 238:Middlewares/ST/filex/common/src/fx_media_close.c ****         /* Setup a pointer to the first cached entry's buffer.  */
 239:Middlewares/ST/filex/common/src/fx_media_close.c ****         buffer_ptr =  (media_ptr -> fx_media_sector_cache_list_ptr) -> fx_cached_sector_memory_buff
 240:Middlewares/ST/filex/common/src/fx_media_close.c **** 
 241:Middlewares/ST/filex/common/src/fx_media_close.c ****         /* Invalidate this cache entry.  */
 242:Middlewares/ST/filex/common/src/fx_media_close.c ****         (media_ptr -> fx_media_sector_cache_list_ptr) -> fx_cached_sector =  (~(ULONG64)0);
 243:Middlewares/ST/filex/common/src/fx_media_close.c ****         (media_ptr -> fx_media_sector_cache_list_ptr) -> fx_cached_sector_valid =  FX_FALSE;
 244:Middlewares/ST/filex/common/src/fx_media_close.c **** #else
 245:Middlewares/ST/filex/common/src/fx_media_close.c ****         buffer_ptr =  media_ptr -> fx_media_memory_buffer;
 246:Middlewares/ST/filex/common/src/fx_media_close.c **** #endif /* FX_DISABLE_CACHE */
 247:Middlewares/ST/filex/common/src/fx_media_close.c **** 
 248:Middlewares/ST/filex/common/src/fx_media_close.c ****         /* Read the FAT32 additional information sector from the device.  */
 249:Middlewares/ST/filex/common/src/fx_media_close.c ****         media_ptr -> fx_media_driver_request =          FX_DRIVER_READ;
 250:Middlewares/ST/filex/common/src/fx_media_close.c ****         media_ptr -> fx_media_driver_status =           FX_IO_ERROR;
 251:Middlewares/ST/filex/common/src/fx_media_close.c ****         media_ptr -> fx_media_driver_buffer =           buffer_ptr;
 252:Middlewares/ST/filex/common/src/fx_media_close.c ****         media_ptr -> fx_media_driver_logical_sector =   media_ptr -> fx_media_FAT32_additional_info
 253:Middlewares/ST/filex/common/src/fx_media_close.c ****         media_ptr -> fx_media_driver_sectors =          1;
 254:Middlewares/ST/filex/common/src/fx_media_close.c ****         media_ptr -> fx_media_driver_sector_type =      FX_DIRECTORY_SECTOR;
 255:Middlewares/ST/filex/common/src/fx_media_close.c **** 
 256:Middlewares/ST/filex/common/src/fx_media_close.c **** #ifndef FX_MEDIA_STATISTICS_DISABLE
 257:Middlewares/ST/filex/common/src/fx_media_close.c **** 
 258:Middlewares/ST/filex/common/src/fx_media_close.c ****         /* Increment the number of driver read sector(s) requests.  */
 259:Middlewares/ST/filex/common/src/fx_media_close.c ****         media_ptr -> fx_media_driver_read_requests++;
 260:Middlewares/ST/filex/common/src/fx_media_close.c **** #endif
 261:Middlewares/ST/filex/common/src/fx_media_close.c **** 
 262:Middlewares/ST/filex/common/src/fx_media_close.c ****         /* If trace is enabled, insert this event into the trace buffer.  */
 263:Middlewares/ST/filex/common/src/fx_media_close.c ****         FX_TRACE_IN_LINE_INSERT(FX_TRACE_INTERNAL_IO_DRIVER_READ, media_ptr, media_ptr -> fx_media_
 264:Middlewares/ST/filex/common/src/fx_media_close.c **** 
 265:Middlewares/ST/filex/common/src/fx_media_close.c ****         /* Invoke the driver to read the FAT32 additional information sector.  */
 266:Middlewares/ST/filex/common/src/fx_media_close.c ****         (media_ptr -> fx_media_driver_entry) (media_ptr);
 267:Middlewares/ST/filex/common/src/fx_media_close.c **** 
 268:Middlewares/ST/filex/common/src/fx_media_close.c ****         /* Determine if the FAT32 sector was read correctly. */
 269:Middlewares/ST/filex/common/src/fx_media_close.c ****         if (media_ptr -> fx_media_driver_status != FX_SUCCESS)
 270:Middlewares/ST/filex/common/src/fx_media_close.c ****         {
 271:Middlewares/ST/filex/common/src/fx_media_close.c **** 
 272:Middlewares/ST/filex/common/src/fx_media_close.c ****             /* Release media protection.  */
 273:Middlewares/ST/filex/common/src/fx_media_close.c ****             FX_UNPROTECT
 274:Middlewares/ST/filex/common/src/fx_media_close.c **** 
 275:Middlewares/ST/filex/common/src/fx_media_close.c ****             /* Call the media abort routine.  */
 276:Middlewares/ST/filex/common/src/fx_media_close.c ****             _fx_media_abort(media_ptr);
 277:Middlewares/ST/filex/common/src/fx_media_close.c **** 
 278:Middlewares/ST/filex/common/src/fx_media_close.c ****             /* Return the error status.  */
 279:Middlewares/ST/filex/common/src/fx_media_close.c ****             return(FX_IO_ERROR);
 280:Middlewares/ST/filex/common/src/fx_media_close.c ****         }
 281:Middlewares/ST/filex/common/src/fx_media_close.c **** 
 282:Middlewares/ST/filex/common/src/fx_media_close.c ****         /* Setup a pointer into the FAT32 additional information sector.  */
 283:Middlewares/ST/filex/common/src/fx_media_close.c ****         buffer_ptr =  media_ptr -> fx_media_driver_buffer;
ARM GAS  C:\Users\HP\AppData\Local\Temp\ccvQoPMk.s 			page 7


 284:Middlewares/ST/filex/common/src/fx_media_close.c **** 
 285:Middlewares/ST/filex/common/src/fx_media_close.c ****         /* Pickup the first signature long word.  */
 286:Middlewares/ST/filex/common/src/fx_media_close.c ****         signature =  _fx_utility_32_unsigned_read(&buffer_ptr[0]);
 287:Middlewares/ST/filex/common/src/fx_media_close.c **** 
 288:Middlewares/ST/filex/common/src/fx_media_close.c ****         /* Determine if the signature is correct.  */
 289:Middlewares/ST/filex/common/src/fx_media_close.c ****         if (signature == 0x41615252)
 290:Middlewares/ST/filex/common/src/fx_media_close.c ****         {
 291:Middlewares/ST/filex/common/src/fx_media_close.c **** 
 292:Middlewares/ST/filex/common/src/fx_media_close.c ****             /* Yes, the first signature is correct, now pickup the next signature.  */
 293:Middlewares/ST/filex/common/src/fx_media_close.c ****             signature =  _fx_utility_32_unsigned_read(&buffer_ptr[484]);
 294:Middlewares/ST/filex/common/src/fx_media_close.c **** 
 295:Middlewares/ST/filex/common/src/fx_media_close.c ****             /* Determine if this signature is correct.  */
 296:Middlewares/ST/filex/common/src/fx_media_close.c ****             if (signature == 0x61417272)
 297:Middlewares/ST/filex/common/src/fx_media_close.c ****             {
 298:Middlewares/ST/filex/common/src/fx_media_close.c **** 
 299:Middlewares/ST/filex/common/src/fx_media_close.c ****                 /* Yes, we have a good FAT32 additional information sector.  */
 300:Middlewares/ST/filex/common/src/fx_media_close.c **** 
 301:Middlewares/ST/filex/common/src/fx_media_close.c ****                 /* Set the free cluster count to the available clusters in the media control block.
 302:Middlewares/ST/filex/common/src/fx_media_close.c ****                 _fx_utility_32_unsigned_write(&buffer_ptr[488], media_ptr -> fx_media_available_clu
 303:Middlewares/ST/filex/common/src/fx_media_close.c **** 
 304:Middlewares/ST/filex/common/src/fx_media_close.c ****                 /* Set the next free cluster number hint to starting search cluster in the media co
 305:Middlewares/ST/filex/common/src/fx_media_close.c ****                 _fx_utility_32_unsigned_write(&buffer_ptr[492], media_ptr -> fx_media_cluster_searc
 306:Middlewares/ST/filex/common/src/fx_media_close.c **** 
 307:Middlewares/ST/filex/common/src/fx_media_close.c ****                 /* Now write the sector back out to the media.  */
 308:Middlewares/ST/filex/common/src/fx_media_close.c ****                 media_ptr -> fx_media_driver_request =          FX_DRIVER_WRITE;
 309:Middlewares/ST/filex/common/src/fx_media_close.c ****                 media_ptr -> fx_media_driver_status =           FX_IO_ERROR;
 310:Middlewares/ST/filex/common/src/fx_media_close.c ****                 media_ptr -> fx_media_driver_buffer =           buffer_ptr;
 311:Middlewares/ST/filex/common/src/fx_media_close.c ****                 media_ptr -> fx_media_driver_logical_sector =   media_ptr -> fx_media_FAT32_additio
 312:Middlewares/ST/filex/common/src/fx_media_close.c ****                 media_ptr -> fx_media_driver_sectors =          1;
 313:Middlewares/ST/filex/common/src/fx_media_close.c ****                 media_ptr -> fx_media_driver_sector_type =      FX_DIRECTORY_SECTOR;
 314:Middlewares/ST/filex/common/src/fx_media_close.c **** 
 315:Middlewares/ST/filex/common/src/fx_media_close.c ****                 /* Set the system write flag since we are writing a directory sector.  */
 316:Middlewares/ST/filex/common/src/fx_media_close.c ****                 media_ptr -> fx_media_driver_system_write =  FX_TRUE;
 317:Middlewares/ST/filex/common/src/fx_media_close.c **** 
 318:Middlewares/ST/filex/common/src/fx_media_close.c **** #ifndef FX_MEDIA_STATISTICS_DISABLE
 319:Middlewares/ST/filex/common/src/fx_media_close.c **** 
 320:Middlewares/ST/filex/common/src/fx_media_close.c ****                 /* Increment the number of driver write sector(s) requests.  */
 321:Middlewares/ST/filex/common/src/fx_media_close.c ****                 media_ptr -> fx_media_driver_write_requests++;
 322:Middlewares/ST/filex/common/src/fx_media_close.c **** #endif
 323:Middlewares/ST/filex/common/src/fx_media_close.c **** 
 324:Middlewares/ST/filex/common/src/fx_media_close.c ****                 /* If trace is enabled, insert this event into the trace buffer.  */
 325:Middlewares/ST/filex/common/src/fx_media_close.c ****                 FX_TRACE_IN_LINE_INSERT(FX_TRACE_INTERNAL_IO_DRIVER_WRITE, media_ptr, media_ptr -> 
 326:Middlewares/ST/filex/common/src/fx_media_close.c **** 
 327:Middlewares/ST/filex/common/src/fx_media_close.c ****                 /* Invoke the driver to write the FAT32 additional information sector.  */
 328:Middlewares/ST/filex/common/src/fx_media_close.c ****                 (media_ptr -> fx_media_driver_entry) (media_ptr);
 329:Middlewares/ST/filex/common/src/fx_media_close.c **** 
 330:Middlewares/ST/filex/common/src/fx_media_close.c ****                 /* Clear the system write flag.  */
 331:Middlewares/ST/filex/common/src/fx_media_close.c ****                 media_ptr -> fx_media_driver_system_write =  FX_FALSE;
 332:Middlewares/ST/filex/common/src/fx_media_close.c **** 
 333:Middlewares/ST/filex/common/src/fx_media_close.c ****                 /* Determine if the FAT32 sector was written correctly. */
 334:Middlewares/ST/filex/common/src/fx_media_close.c ****                 if (media_ptr -> fx_media_driver_status != FX_SUCCESS)
 335:Middlewares/ST/filex/common/src/fx_media_close.c ****                 {
 336:Middlewares/ST/filex/common/src/fx_media_close.c **** 
 337:Middlewares/ST/filex/common/src/fx_media_close.c ****                     /* Release media protection.  */
 338:Middlewares/ST/filex/common/src/fx_media_close.c ****                     FX_UNPROTECT
 339:Middlewares/ST/filex/common/src/fx_media_close.c **** 
 340:Middlewares/ST/filex/common/src/fx_media_close.c ****                     /* Call the media abort routine.  */
ARM GAS  C:\Users\HP\AppData\Local\Temp\ccvQoPMk.s 			page 8


 341:Middlewares/ST/filex/common/src/fx_media_close.c ****                     _fx_media_abort(media_ptr);
 342:Middlewares/ST/filex/common/src/fx_media_close.c **** 
 343:Middlewares/ST/filex/common/src/fx_media_close.c ****                     /* Return the sector IO error status.  */
 344:Middlewares/ST/filex/common/src/fx_media_close.c ****                     return(FX_IO_ERROR);
 345:Middlewares/ST/filex/common/src/fx_media_close.c ****                 }
 346:Middlewares/ST/filex/common/src/fx_media_close.c **** 
 347:Middlewares/ST/filex/common/src/fx_media_close.c ****                 /* Successful update of the FAT32 additional information sector. Update the
 348:Middlewares/ST/filex/common/src/fx_media_close.c ****                    last written available cluster count.  */
 349:Middlewares/ST/filex/common/src/fx_media_close.c ****                 media_ptr -> fx_media_FAT32_additional_info_last_available =  media_ptr -> fx_media
 350:Middlewares/ST/filex/common/src/fx_media_close.c ****             }
 351:Middlewares/ST/filex/common/src/fx_media_close.c ****         }
 352:Middlewares/ST/filex/common/src/fx_media_close.c ****     }
 353:Middlewares/ST/filex/common/src/fx_media_close.c **** 
 354:Middlewares/ST/filex/common/src/fx_media_close.c **** #ifndef FX_MEDIA_STATISTICS_DISABLE
 355:Middlewares/ST/filex/common/src/fx_media_close.c **** 
 356:Middlewares/ST/filex/common/src/fx_media_close.c ****     /* Increment the number of driver flush requests.  */
 357:Middlewares/ST/filex/common/src/fx_media_close.c ****     media_ptr -> fx_media_driver_flush_requests++;
 358:Middlewares/ST/filex/common/src/fx_media_close.c **** #endif
 359:Middlewares/ST/filex/common/src/fx_media_close.c **** 
 360:Middlewares/ST/filex/common/src/fx_media_close.c ****     /* Build the "flush" I/O driver request.  */
 361:Middlewares/ST/filex/common/src/fx_media_close.c ****     media_ptr -> fx_media_driver_request =      FX_DRIVER_FLUSH;
 362:Middlewares/ST/filex/common/src/fx_media_close.c ****     media_ptr -> fx_media_driver_status =       FX_IO_ERROR;
 363:Middlewares/ST/filex/common/src/fx_media_close.c **** 
 364:Middlewares/ST/filex/common/src/fx_media_close.c ****     /* If trace is enabled, insert this event into the trace buffer.  */
 365:Middlewares/ST/filex/common/src/fx_media_close.c ****     FX_TRACE_IN_LINE_INSERT(FX_TRACE_INTERNAL_IO_DRIVER_FLUSH, media_ptr, 0, 0, 0, FX_TRACE_INTERNA
 366:Middlewares/ST/filex/common/src/fx_media_close.c **** 
 367:Middlewares/ST/filex/common/src/fx_media_close.c ****     /* Call the specified I/O driver with the flush request.  */
 368:Middlewares/ST/filex/common/src/fx_media_close.c ****     (media_ptr -> fx_media_driver_entry) (media_ptr);
 369:Middlewares/ST/filex/common/src/fx_media_close.c **** 
 370:Middlewares/ST/filex/common/src/fx_media_close.c ****     /* Build the "uninitialize" I/O driver request.  */
 371:Middlewares/ST/filex/common/src/fx_media_close.c ****     media_ptr -> fx_media_driver_request =      FX_DRIVER_UNINIT;
 372:Middlewares/ST/filex/common/src/fx_media_close.c ****     media_ptr -> fx_media_driver_status =       FX_IO_ERROR;
 373:Middlewares/ST/filex/common/src/fx_media_close.c **** 
 374:Middlewares/ST/filex/common/src/fx_media_close.c ****     /* If trace is enabled, insert this event into the trace buffer.  */
 375:Middlewares/ST/filex/common/src/fx_media_close.c ****     FX_TRACE_IN_LINE_INSERT(FX_TRACE_INTERNAL_IO_DRIVER_UNINIT, media_ptr, 0, 0, 0, FX_TRACE_INTERN
 376:Middlewares/ST/filex/common/src/fx_media_close.c **** 
 377:Middlewares/ST/filex/common/src/fx_media_close.c ****     /* Call the specified I/O driver with the uninitialize request.  */
 378:Middlewares/ST/filex/common/src/fx_media_close.c ****     (media_ptr -> fx_media_driver_entry) (media_ptr);
 379:Middlewares/ST/filex/common/src/fx_media_close.c **** 
 380:Middlewares/ST/filex/common/src/fx_media_close.c ****     /* Now remove this media from the open list.  */
 381:Middlewares/ST/filex/common/src/fx_media_close.c **** 
 382:Middlewares/ST/filex/common/src/fx_media_close.c ****     /* Lockout interrupts for media removal.  */
 383:Middlewares/ST/filex/common/src/fx_media_close.c ****     FX_DISABLE_INTS
 384:Middlewares/ST/filex/common/src/fx_media_close.c **** 
 385:Middlewares/ST/filex/common/src/fx_media_close.c ****     /* See if the media is the only one on the media opened list.  */
 386:Middlewares/ST/filex/common/src/fx_media_close.c ****     if (_fx_system_media_opened_count == ((ULONG) 1))
 387:Middlewares/ST/filex/common/src/fx_media_close.c ****     {
 388:Middlewares/ST/filex/common/src/fx_media_close.c **** 
 389:Middlewares/ST/filex/common/src/fx_media_close.c ****         /* Only opened media, just set the opened list to NULL.  */
 390:Middlewares/ST/filex/common/src/fx_media_close.c ****         _fx_system_media_opened_ptr =  FX_NULL;
 391:Middlewares/ST/filex/common/src/fx_media_close.c ****     }
 392:Middlewares/ST/filex/common/src/fx_media_close.c ****     else
 393:Middlewares/ST/filex/common/src/fx_media_close.c ****     {
 394:Middlewares/ST/filex/common/src/fx_media_close.c **** 
 395:Middlewares/ST/filex/common/src/fx_media_close.c ****         /* Otherwise, not the only opened media, link-up the neighbors.  */
 396:Middlewares/ST/filex/common/src/fx_media_close.c ****         (media_ptr -> fx_media_opened_next) -> fx_media_opened_previous =
 397:Middlewares/ST/filex/common/src/fx_media_close.c ****             media_ptr -> fx_media_opened_previous;
ARM GAS  C:\Users\HP\AppData\Local\Temp\ccvQoPMk.s 			page 9


 398:Middlewares/ST/filex/common/src/fx_media_close.c ****         (media_ptr -> fx_media_opened_previous) -> fx_media_opened_next =
 399:Middlewares/ST/filex/common/src/fx_media_close.c ****             media_ptr -> fx_media_opened_next;
 400:Middlewares/ST/filex/common/src/fx_media_close.c **** 
 401:Middlewares/ST/filex/common/src/fx_media_close.c ****         /* See if we have to update the opened list head pointer.  */
 402:Middlewares/ST/filex/common/src/fx_media_close.c ****         if (_fx_system_media_opened_ptr == media_ptr)
 403:Middlewares/ST/filex/common/src/fx_media_close.c ****         {
 404:Middlewares/ST/filex/common/src/fx_media_close.c **** 
 405:Middlewares/ST/filex/common/src/fx_media_close.c ****             /* Yes, move the head pointer to the next opened media. */
 406:Middlewares/ST/filex/common/src/fx_media_close.c ****             _fx_system_media_opened_ptr =  media_ptr -> fx_media_opened_next;
 407:Middlewares/ST/filex/common/src/fx_media_close.c ****         }
 408:Middlewares/ST/filex/common/src/fx_media_close.c ****     }
 409:Middlewares/ST/filex/common/src/fx_media_close.c **** 
 410:Middlewares/ST/filex/common/src/fx_media_close.c ****     /* Decrement the opened media counter.  */
 411:Middlewares/ST/filex/common/src/fx_media_close.c ****     _fx_system_media_opened_count--;
 412:Middlewares/ST/filex/common/src/fx_media_close.c **** 
 413:Middlewares/ST/filex/common/src/fx_media_close.c ****     /* Finally, Indicate that this media is closed.  */
 414:Middlewares/ST/filex/common/src/fx_media_close.c ****     media_ptr -> fx_media_id =  FX_MEDIA_CLOSED_ID;
 415:Middlewares/ST/filex/common/src/fx_media_close.c **** 
 416:Middlewares/ST/filex/common/src/fx_media_close.c ****     /* Restore interrupt posture.  */
 417:Middlewares/ST/filex/common/src/fx_media_close.c ****     FX_RESTORE_INTS
 418:Middlewares/ST/filex/common/src/fx_media_close.c **** 
 419:Middlewares/ST/filex/common/src/fx_media_close.c ****     /* Delete the media protection structure if FX_SINGLE_THREAD is not
 420:Middlewares/ST/filex/common/src/fx_media_close.c ****        defined.  */
 421:Middlewares/ST/filex/common/src/fx_media_close.c **** #ifndef FX_SINGLE_THREAD
 422:Middlewares/ST/filex/common/src/fx_media_close.c **** 
 423:Middlewares/ST/filex/common/src/fx_media_close.c **** #ifndef FX_DONT_CREATE_MUTEX
 424:Middlewares/ST/filex/common/src/fx_media_close.c **** 
 425:Middlewares/ST/filex/common/src/fx_media_close.c ****     /* Note that the protection is never released. The mutex delete
 426:Middlewares/ST/filex/common/src/fx_media_close.c ****        service will handle all threads waiting access to this media
 427:Middlewares/ST/filex/common/src/fx_media_close.c ****        control block.  */
 428:Middlewares/ST/filex/common/src/fx_media_close.c ****     tx_mutex_delete(& (media_ptr -> fx_media_protect));
 429:Middlewares/ST/filex/common/src/fx_media_close.c **** #endif
 430:Middlewares/ST/filex/common/src/fx_media_close.c **** #endif
 431:Middlewares/ST/filex/common/src/fx_media_close.c **** 
 432:Middlewares/ST/filex/common/src/fx_media_close.c ****     /* Invoke media close callback. */
 433:Middlewares/ST/filex/common/src/fx_media_close.c ****     if (media_ptr -> fx_media_close_notify)
 434:Middlewares/ST/filex/common/src/fx_media_close.c ****     {
 435:Middlewares/ST/filex/common/src/fx_media_close.c ****         media_ptr -> fx_media_close_notify(media_ptr);
 436:Middlewares/ST/filex/common/src/fx_media_close.c ****     }
 437:Middlewares/ST/filex/common/src/fx_media_close.c **** 
 438:Middlewares/ST/filex/common/src/fx_media_close.c **** #ifdef FX_DONT_CREATE_MUTEX
 439:Middlewares/ST/filex/common/src/fx_media_close.c **** 
 440:Middlewares/ST/filex/common/src/fx_media_close.c ****     /* Release media protection.  */
 441:Middlewares/ST/filex/common/src/fx_media_close.c ****     FX_UNPROTECT
 442:Middlewares/ST/filex/common/src/fx_media_close.c **** #endif
 443:Middlewares/ST/filex/common/src/fx_media_close.c **** 
 444:Middlewares/ST/filex/common/src/fx_media_close.c ****     /* Return success status to the caller.  */
 445:Middlewares/ST/filex/common/src/fx_media_close.c ****     return(FX_SUCCESS);
 446:Middlewares/ST/filex/common/src/fx_media_close.c **** }
  61              		.loc 1 446 1 view .LVU10
  62 000e 2046     		mov	r0, r4
  63 0010 05B0     		add	sp, sp, #20
  64              	.LCFI2:
  65              		.cfi_remember_state
  66              		.cfi_def_cfa_offset 20
  67              		@ sp needed
  68 0012 F0BD     		pop	{r4, r5, r6, r7, pc}
ARM GAS  C:\Users\HP\AppData\Local\Temp\ccvQoPMk.s 			page 10


  69              	.LVL2:
  70              	.L16:
  71              	.LCFI3:
  72              		.cfi_restore_state
  73              		.loc 1 446 1 view .LVU11
  74 0014 0646     		mov	r6, r0
 121:Middlewares/ST/filex/common/src/fx_media_close.c **** 
  75              		.loc 1 121 5 is_stmt 1 discriminator 2 view .LVU12
 121:Middlewares/ST/filex/common/src/fx_media_close.c **** 
  76              		.loc 1 121 5 discriminator 2 view .LVU13
  77 0016 00F5E477 		add	r7, r0, #456
  78 001a 4FF0FF31 		mov	r1, #-1
  79 001e 3846     		mov	r0, r7
  80              	.LVL3:
 121:Middlewares/ST/filex/common/src/fx_media_close.c **** 
  81              		.loc 1 121 5 is_stmt 0 discriminator 2 view .LVU14
  82 0020 FFF7FEFF 		bl	_tx_mutex_get
  83              	.LVL4:
  84 0024 0028     		cmp	r0, #0
  85 0026 40F01581 		bne	.L14
 125:Middlewares/ST/filex/common/src/fx_media_close.c ****     file_ptr =    media_ptr -> fx_media_opened_file_list;
  86              		.loc 1 125 5 is_stmt 1 view .LVU15
 125:Middlewares/ST/filex/common/src/fx_media_close.c ****     file_ptr =    media_ptr -> fx_media_opened_file_list;
  87              		.loc 1 125 16 is_stmt 0 view .LVU16
  88 002a D6F8CC50 		ldr	r5, [r6, #204]
  89              	.LVL5:
 126:Middlewares/ST/filex/common/src/fx_media_close.c ****     while (open_count)
  90              		.loc 1 126 5 is_stmt 1 view .LVU17
 126:Middlewares/ST/filex/common/src/fx_media_close.c ****     while (open_count)
  91              		.loc 1 126 14 is_stmt 0 view .LVU18
  92 002e D6F8C840 		ldr	r4, [r6, #200]
  93              	.LVL6:
 127:Middlewares/ST/filex/common/src/fx_media_close.c ****     {
  94              		.loc 1 127 5 is_stmt 1 view .LVU19
 127:Middlewares/ST/filex/common/src/fx_media_close.c ****     {
  95              		.loc 1 127 11 is_stmt 0 view .LVU20
  96 0032 0BE0     		b	.L3
  97              	.LVL7:
  98              	.L18:
 170:Middlewares/ST/filex/common/src/fx_media_close.c **** 
  99              		.loc 1 170 17 is_stmt 1 view .LVU21
 100 0034 3846     		mov	r0, r7
 101              	.LVL8:
 170:Middlewares/ST/filex/common/src/fx_media_close.c **** 
 102              		.loc 1 170 17 is_stmt 0 view .LVU22
 103 0036 FFF7FEFF 		bl	_tx_mutex_put
 104              	.LVL9:
 173:Middlewares/ST/filex/common/src/fx_media_close.c **** 
 105              		.loc 1 173 17 is_stmt 1 view .LVU23
 106 003a 3046     		mov	r0, r6
 107 003c FFF7FEFF 		bl	_fx_media_abort
 108              	.LVL10:
 176:Middlewares/ST/filex/common/src/fx_media_close.c ****             }
 109              		.loc 1 176 17 view .LVU24
 176:Middlewares/ST/filex/common/src/fx_media_close.c ****             }
 110              		.loc 1 176 23 is_stmt 0 view .LVU25
 111 0040 9024     		movs	r4, #144
ARM GAS  C:\Users\HP\AppData\Local\Temp\ccvQoPMk.s 			page 11


 112              	.LVL11:
 176:Middlewares/ST/filex/common/src/fx_media_close.c ****             }
 113              		.loc 1 176 23 view .LVU26
 114 0042 E4E7     		b	.L1
 115              	.LVL12:
 116              	.L4:
 184:Middlewares/ST/filex/common/src/fx_media_close.c **** 
 117              		.loc 1 184 9 is_stmt 1 view .LVU27
 184:Middlewares/ST/filex/common/src/fx_media_close.c **** 
 118              		.loc 1 184 32 is_stmt 0 view .LVU28
 119 0044 854B     		ldr	r3, .L25+4
 120 0046 2360     		str	r3, [r4]
 187:Middlewares/ST/filex/common/src/fx_media_close.c ****         open_count--;
 121              		.loc 1 187 9 is_stmt 1 view .LVU29
 187:Middlewares/ST/filex/common/src/fx_media_close.c ****         open_count--;
 122              		.loc 1 187 18 is_stmt 0 view .LVU30
 123 0048 E46D     		ldr	r4, [r4, #92]
 124              	.LVL13:
 188:Middlewares/ST/filex/common/src/fx_media_close.c ****     }
 125              		.loc 1 188 9 is_stmt 1 view .LVU31
 188:Middlewares/ST/filex/common/src/fx_media_close.c ****     }
 126              		.loc 1 188 19 is_stmt 0 view .LVU32
 127 004a 013D     		subs	r5, r5, #1
 128              	.LVL14:
 129              	.L3:
 127:Middlewares/ST/filex/common/src/fx_media_close.c ****     {
 130              		.loc 1 127 11 is_stmt 1 view .LVU33
 131 004c 05B3     		cbz	r5, .L17
 132:Middlewares/ST/filex/common/src/fx_media_close.c ****             (file_ptr -> fx_file_modified))
 132              		.loc 1 132 9 view .LVU34
 132:Middlewares/ST/filex/common/src/fx_media_close.c ****             (file_ptr -> fx_file_modified))
 133              		.loc 1 132 23 is_stmt 0 view .LVU35
 134 004e A368     		ldr	r3, [r4, #8]
 132:Middlewares/ST/filex/common/src/fx_media_close.c ****             (file_ptr -> fx_file_modified))
 135              		.loc 1 132 12 view .LVU36
 136 0050 012B     		cmp	r3, #1
 137 0052 F7D1     		bne	.L4
 133:Middlewares/ST/filex/common/src/fx_media_close.c ****         {
 138              		.loc 1 133 23 discriminator 1 view .LVU37
 139 0054 237B     		ldrb	r3, [r4, #12]	@ zero_extendqisi2
 132:Middlewares/ST/filex/common/src/fx_media_close.c ****             (file_ptr -> fx_file_modified))
 140              		.loc 1 132 66 discriminator 1 view .LVU38
 141 0056 002B     		cmp	r3, #0
 142 0058 F4D0     		beq	.L4
 137:Middlewares/ST/filex/common/src/fx_media_close.c **** 
 143              		.loc 1 137 13 is_stmt 1 view .LVU39
 144              	.LBB17:
 145              	.LBI17:
 146              		.file 2 "Middlewares/ST/threadx/ports/cortex_m4/gnu/inc/tx_port.h"
   1:Middlewares/ST/threadx/ports/cortex_m4/gnu/inc/tx_port.h **** /**************************************************************************/
   2:Middlewares/ST/threadx/ports/cortex_m4/gnu/inc/tx_port.h **** /*                                                                        */
   3:Middlewares/ST/threadx/ports/cortex_m4/gnu/inc/tx_port.h **** /*       Copyright (c) Microsoft Corporation. All rights reserved.        */
   4:Middlewares/ST/threadx/ports/cortex_m4/gnu/inc/tx_port.h **** /*                                                                        */
   5:Middlewares/ST/threadx/ports/cortex_m4/gnu/inc/tx_port.h **** /*       This software is licensed under the Microsoft Software License   */
   6:Middlewares/ST/threadx/ports/cortex_m4/gnu/inc/tx_port.h **** /*       Terms for Microsoft Azure RTOS. Full text of the license can be  */
   7:Middlewares/ST/threadx/ports/cortex_m4/gnu/inc/tx_port.h **** /*       found in the LICENSE file at https://aka.ms/AzureRTOS_EULA       */
   8:Middlewares/ST/threadx/ports/cortex_m4/gnu/inc/tx_port.h **** /*       and in the root directory of this software.                      */
ARM GAS  C:\Users\HP\AppData\Local\Temp\ccvQoPMk.s 			page 12


   9:Middlewares/ST/threadx/ports/cortex_m4/gnu/inc/tx_port.h **** /*                                                                        */
  10:Middlewares/ST/threadx/ports/cortex_m4/gnu/inc/tx_port.h **** /**************************************************************************/
  11:Middlewares/ST/threadx/ports/cortex_m4/gnu/inc/tx_port.h **** 
  12:Middlewares/ST/threadx/ports/cortex_m4/gnu/inc/tx_port.h **** 
  13:Middlewares/ST/threadx/ports/cortex_m4/gnu/inc/tx_port.h **** /**************************************************************************/
  14:Middlewares/ST/threadx/ports/cortex_m4/gnu/inc/tx_port.h **** /**************************************************************************/
  15:Middlewares/ST/threadx/ports/cortex_m4/gnu/inc/tx_port.h **** /**                                                                       */
  16:Middlewares/ST/threadx/ports/cortex_m4/gnu/inc/tx_port.h **** /** ThreadX Component                                                     */
  17:Middlewares/ST/threadx/ports/cortex_m4/gnu/inc/tx_port.h **** /**                                                                       */
  18:Middlewares/ST/threadx/ports/cortex_m4/gnu/inc/tx_port.h **** /**   Port Specific                                                       */
  19:Middlewares/ST/threadx/ports/cortex_m4/gnu/inc/tx_port.h **** /**                                                                       */
  20:Middlewares/ST/threadx/ports/cortex_m4/gnu/inc/tx_port.h **** /**************************************************************************/
  21:Middlewares/ST/threadx/ports/cortex_m4/gnu/inc/tx_port.h **** /**************************************************************************/
  22:Middlewares/ST/threadx/ports/cortex_m4/gnu/inc/tx_port.h **** 
  23:Middlewares/ST/threadx/ports/cortex_m4/gnu/inc/tx_port.h **** 
  24:Middlewares/ST/threadx/ports/cortex_m4/gnu/inc/tx_port.h **** /**************************************************************************/
  25:Middlewares/ST/threadx/ports/cortex_m4/gnu/inc/tx_port.h **** /*                                                                        */
  26:Middlewares/ST/threadx/ports/cortex_m4/gnu/inc/tx_port.h **** /*  PORT SPECIFIC C INFORMATION                            RELEASE        */
  27:Middlewares/ST/threadx/ports/cortex_m4/gnu/inc/tx_port.h **** /*                                                                        */
  28:Middlewares/ST/threadx/ports/cortex_m4/gnu/inc/tx_port.h **** /*    tx_port.h                                         Cortex-M4/GNU     */
  29:Middlewares/ST/threadx/ports/cortex_m4/gnu/inc/tx_port.h **** /*                                                           6.1.12       */
  30:Middlewares/ST/threadx/ports/cortex_m4/gnu/inc/tx_port.h **** /*                                                                        */
  31:Middlewares/ST/threadx/ports/cortex_m4/gnu/inc/tx_port.h **** /*  AUTHOR                                                                */
  32:Middlewares/ST/threadx/ports/cortex_m4/gnu/inc/tx_port.h **** /*                                                                        */
  33:Middlewares/ST/threadx/ports/cortex_m4/gnu/inc/tx_port.h **** /*    Scott Larson, Microsoft Corporation                                 */
  34:Middlewares/ST/threadx/ports/cortex_m4/gnu/inc/tx_port.h **** /*                                                                        */
  35:Middlewares/ST/threadx/ports/cortex_m4/gnu/inc/tx_port.h **** /*  DESCRIPTION                                                           */
  36:Middlewares/ST/threadx/ports/cortex_m4/gnu/inc/tx_port.h **** /*                                                                        */
  37:Middlewares/ST/threadx/ports/cortex_m4/gnu/inc/tx_port.h **** /*    This file contains data type definitions that make the ThreadX      */
  38:Middlewares/ST/threadx/ports/cortex_m4/gnu/inc/tx_port.h **** /*    real-time kernel function identically on a variety of different     */
  39:Middlewares/ST/threadx/ports/cortex_m4/gnu/inc/tx_port.h **** /*    processor architectures.  For example, the size or number of bits   */
  40:Middlewares/ST/threadx/ports/cortex_m4/gnu/inc/tx_port.h **** /*    in an "int" data type vary between microprocessor architectures and */
  41:Middlewares/ST/threadx/ports/cortex_m4/gnu/inc/tx_port.h **** /*    even C compilers for the same microprocessor.  ThreadX does not     */
  42:Middlewares/ST/threadx/ports/cortex_m4/gnu/inc/tx_port.h **** /*    directly use native C data types.  Instead, ThreadX creates its     */
  43:Middlewares/ST/threadx/ports/cortex_m4/gnu/inc/tx_port.h **** /*    own special types that can be mapped to actual data types by this   */
  44:Middlewares/ST/threadx/ports/cortex_m4/gnu/inc/tx_port.h **** /*    file to guarantee consistency in the interface and functionality.   */
  45:Middlewares/ST/threadx/ports/cortex_m4/gnu/inc/tx_port.h **** /*                                                                        */
  46:Middlewares/ST/threadx/ports/cortex_m4/gnu/inc/tx_port.h **** /*    This file replaces the previous Cortex-M3/M4/M7 files. It unifies   */
  47:Middlewares/ST/threadx/ports/cortex_m4/gnu/inc/tx_port.h **** /*    the ARMv7-M architecture and compilers into one common file.        */
  48:Middlewares/ST/threadx/ports/cortex_m4/gnu/inc/tx_port.h **** /*                                                                        */
  49:Middlewares/ST/threadx/ports/cortex_m4/gnu/inc/tx_port.h **** /*  RELEASE HISTORY                                                       */
  50:Middlewares/ST/threadx/ports/cortex_m4/gnu/inc/tx_port.h **** /*                                                                        */
  51:Middlewares/ST/threadx/ports/cortex_m4/gnu/inc/tx_port.h **** /*    DATE              NAME                      DESCRIPTION             */
  52:Middlewares/ST/threadx/ports/cortex_m4/gnu/inc/tx_port.h **** /*                                                                        */
  53:Middlewares/ST/threadx/ports/cortex_m4/gnu/inc/tx_port.h **** /*  06-02-2021      Scott Larson            Initial Version 6.1.7         */
  54:Middlewares/ST/threadx/ports/cortex_m4/gnu/inc/tx_port.h **** /*  01-31-2022      Scott Larson            Modified comments, updated    */
  55:Middlewares/ST/threadx/ports/cortex_m4/gnu/inc/tx_port.h **** /*                                            typedef to fix misra        */
  56:Middlewares/ST/threadx/ports/cortex_m4/gnu/inc/tx_port.h **** /*                                            violation,                  */
  57:Middlewares/ST/threadx/ports/cortex_m4/gnu/inc/tx_port.h **** /*                                            fixed predefined macro,     */
  58:Middlewares/ST/threadx/ports/cortex_m4/gnu/inc/tx_port.h **** /*                                            resulting in version 6.1.10 */
  59:Middlewares/ST/threadx/ports/cortex_m4/gnu/inc/tx_port.h **** /*  04-25-2022      Scott Larson            Modified comments and added   */
  60:Middlewares/ST/threadx/ports/cortex_m4/gnu/inc/tx_port.h **** /*                                            volatile to registers,      */
  61:Middlewares/ST/threadx/ports/cortex_m4/gnu/inc/tx_port.h **** /*                                            resulting in version 6.1.11 */
  62:Middlewares/ST/threadx/ports/cortex_m4/gnu/inc/tx_port.h **** /*  07-29-2022      Scott Larson            Modified comments and         */
  63:Middlewares/ST/threadx/ports/cortex_m4/gnu/inc/tx_port.h **** /*                                            described BASEPRI usage,    */
  64:Middlewares/ST/threadx/ports/cortex_m4/gnu/inc/tx_port.h **** /*                                            resulting in version 6.1.12 */
  65:Middlewares/ST/threadx/ports/cortex_m4/gnu/inc/tx_port.h **** /*                                                                        */
ARM GAS  C:\Users\HP\AppData\Local\Temp\ccvQoPMk.s 			page 13


  66:Middlewares/ST/threadx/ports/cortex_m4/gnu/inc/tx_port.h **** /**************************************************************************/
  67:Middlewares/ST/threadx/ports/cortex_m4/gnu/inc/tx_port.h **** 
  68:Middlewares/ST/threadx/ports/cortex_m4/gnu/inc/tx_port.h **** #ifndef TX_PORT_H
  69:Middlewares/ST/threadx/ports/cortex_m4/gnu/inc/tx_port.h **** #define TX_PORT_H
  70:Middlewares/ST/threadx/ports/cortex_m4/gnu/inc/tx_port.h **** 
  71:Middlewares/ST/threadx/ports/cortex_m4/gnu/inc/tx_port.h **** 
  72:Middlewares/ST/threadx/ports/cortex_m4/gnu/inc/tx_port.h **** /* Determine if the optional ThreadX user define file should be used.  */
  73:Middlewares/ST/threadx/ports/cortex_m4/gnu/inc/tx_port.h **** 
  74:Middlewares/ST/threadx/ports/cortex_m4/gnu/inc/tx_port.h **** #ifdef TX_INCLUDE_USER_DEFINE_FILE
  75:Middlewares/ST/threadx/ports/cortex_m4/gnu/inc/tx_port.h **** 
  76:Middlewares/ST/threadx/ports/cortex_m4/gnu/inc/tx_port.h **** /* Yes, include the user defines in tx_user.h. The defines in this file may
  77:Middlewares/ST/threadx/ports/cortex_m4/gnu/inc/tx_port.h ****    alternately be defined on the command line.  */
  78:Middlewares/ST/threadx/ports/cortex_m4/gnu/inc/tx_port.h **** 
  79:Middlewares/ST/threadx/ports/cortex_m4/gnu/inc/tx_port.h **** #include "tx_user.h"
  80:Middlewares/ST/threadx/ports/cortex_m4/gnu/inc/tx_port.h **** #endif
  81:Middlewares/ST/threadx/ports/cortex_m4/gnu/inc/tx_port.h **** 
  82:Middlewares/ST/threadx/ports/cortex_m4/gnu/inc/tx_port.h **** 
  83:Middlewares/ST/threadx/ports/cortex_m4/gnu/inc/tx_port.h **** /* Define compiler library include files.  */
  84:Middlewares/ST/threadx/ports/cortex_m4/gnu/inc/tx_port.h **** 
  85:Middlewares/ST/threadx/ports/cortex_m4/gnu/inc/tx_port.h **** #include <stdlib.h>
  86:Middlewares/ST/threadx/ports/cortex_m4/gnu/inc/tx_port.h **** #include <string.h>
  87:Middlewares/ST/threadx/ports/cortex_m4/gnu/inc/tx_port.h **** 
  88:Middlewares/ST/threadx/ports/cortex_m4/gnu/inc/tx_port.h **** #ifdef __ICCARM__
  89:Middlewares/ST/threadx/ports/cortex_m4/gnu/inc/tx_port.h **** #include <intrinsics.h>                     /* IAR Intrinsics */
  90:Middlewares/ST/threadx/ports/cortex_m4/gnu/inc/tx_port.h **** #define __asm__ __asm                       /* Define to make all inline asm look similar */
  91:Middlewares/ST/threadx/ports/cortex_m4/gnu/inc/tx_port.h **** #ifdef  TX_ENABLE_IAR_LIBRARY_SUPPORT
  92:Middlewares/ST/threadx/ports/cortex_m4/gnu/inc/tx_port.h **** #include <yvals.h>
  93:Middlewares/ST/threadx/ports/cortex_m4/gnu/inc/tx_port.h **** #endif
  94:Middlewares/ST/threadx/ports/cortex_m4/gnu/inc/tx_port.h **** #endif /* __ICCARM__ */
  95:Middlewares/ST/threadx/ports/cortex_m4/gnu/inc/tx_port.h **** 
  96:Middlewares/ST/threadx/ports/cortex_m4/gnu/inc/tx_port.h **** #ifdef __ghs__
  97:Middlewares/ST/threadx/ports/cortex_m4/gnu/inc/tx_port.h **** #include <arm_ghs.h>
  98:Middlewares/ST/threadx/ports/cortex_m4/gnu/inc/tx_port.h **** #include "tx_ghs.h"
  99:Middlewares/ST/threadx/ports/cortex_m4/gnu/inc/tx_port.h **** #endif  /* __ghs__ */
 100:Middlewares/ST/threadx/ports/cortex_m4/gnu/inc/tx_port.h **** 
 101:Middlewares/ST/threadx/ports/cortex_m4/gnu/inc/tx_port.h **** 
 102:Middlewares/ST/threadx/ports/cortex_m4/gnu/inc/tx_port.h **** #if !defined(__GNUC__) && !defined(__CC_ARM)
 103:Middlewares/ST/threadx/ports/cortex_m4/gnu/inc/tx_port.h **** #define __get_control_value __get_CONTROL
 104:Middlewares/ST/threadx/ports/cortex_m4/gnu/inc/tx_port.h **** #define __set_control_value __set_CONTROL
 105:Middlewares/ST/threadx/ports/cortex_m4/gnu/inc/tx_port.h **** #endif
 106:Middlewares/ST/threadx/ports/cortex_m4/gnu/inc/tx_port.h **** 
 107:Middlewares/ST/threadx/ports/cortex_m4/gnu/inc/tx_port.h **** #ifndef __GNUC__
 108:Middlewares/ST/threadx/ports/cortex_m4/gnu/inc/tx_port.h **** #define __get_ipsr_value __get_IPSR
 109:Middlewares/ST/threadx/ports/cortex_m4/gnu/inc/tx_port.h **** #endif
 110:Middlewares/ST/threadx/ports/cortex_m4/gnu/inc/tx_port.h **** 
 111:Middlewares/ST/threadx/ports/cortex_m4/gnu/inc/tx_port.h **** /* Define ThreadX basic types for this port.  */
 112:Middlewares/ST/threadx/ports/cortex_m4/gnu/inc/tx_port.h **** 
 113:Middlewares/ST/threadx/ports/cortex_m4/gnu/inc/tx_port.h **** #define VOID                                    void
 114:Middlewares/ST/threadx/ports/cortex_m4/gnu/inc/tx_port.h **** typedef char                                    CHAR;
 115:Middlewares/ST/threadx/ports/cortex_m4/gnu/inc/tx_port.h **** typedef unsigned char                           UCHAR;
 116:Middlewares/ST/threadx/ports/cortex_m4/gnu/inc/tx_port.h **** typedef int                                     INT;
 117:Middlewares/ST/threadx/ports/cortex_m4/gnu/inc/tx_port.h **** typedef unsigned int                            UINT;
 118:Middlewares/ST/threadx/ports/cortex_m4/gnu/inc/tx_port.h **** typedef long                                    LONG;
 119:Middlewares/ST/threadx/ports/cortex_m4/gnu/inc/tx_port.h **** typedef unsigned long                           ULONG;
 120:Middlewares/ST/threadx/ports/cortex_m4/gnu/inc/tx_port.h **** typedef unsigned long long                      ULONG64;
 121:Middlewares/ST/threadx/ports/cortex_m4/gnu/inc/tx_port.h **** typedef short                                   SHORT;
 122:Middlewares/ST/threadx/ports/cortex_m4/gnu/inc/tx_port.h **** typedef unsigned short                          USHORT;
ARM GAS  C:\Users\HP\AppData\Local\Temp\ccvQoPMk.s 			page 14


 123:Middlewares/ST/threadx/ports/cortex_m4/gnu/inc/tx_port.h **** #define ULONG64_DEFINED
 124:Middlewares/ST/threadx/ports/cortex_m4/gnu/inc/tx_port.h **** 
 125:Middlewares/ST/threadx/ports/cortex_m4/gnu/inc/tx_port.h **** /* Define the priority levels for ThreadX.  Legal values range
 126:Middlewares/ST/threadx/ports/cortex_m4/gnu/inc/tx_port.h ****    from 32 to 1024 and MUST be evenly divisible by 32.  */
 127:Middlewares/ST/threadx/ports/cortex_m4/gnu/inc/tx_port.h **** 
 128:Middlewares/ST/threadx/ports/cortex_m4/gnu/inc/tx_port.h **** #ifndef TX_MAX_PRIORITIES
 129:Middlewares/ST/threadx/ports/cortex_m4/gnu/inc/tx_port.h **** #define TX_MAX_PRIORITIES                       32
 130:Middlewares/ST/threadx/ports/cortex_m4/gnu/inc/tx_port.h **** #endif
 131:Middlewares/ST/threadx/ports/cortex_m4/gnu/inc/tx_port.h **** 
 132:Middlewares/ST/threadx/ports/cortex_m4/gnu/inc/tx_port.h **** 
 133:Middlewares/ST/threadx/ports/cortex_m4/gnu/inc/tx_port.h **** /* Define the minimum stack for a ThreadX thread on this processor. If the size supplied during
 134:Middlewares/ST/threadx/ports/cortex_m4/gnu/inc/tx_port.h ****    thread creation is less than this value, the thread create call will return an error.  */
 135:Middlewares/ST/threadx/ports/cortex_m4/gnu/inc/tx_port.h **** 
 136:Middlewares/ST/threadx/ports/cortex_m4/gnu/inc/tx_port.h **** #ifndef TX_MINIMUM_STACK
 137:Middlewares/ST/threadx/ports/cortex_m4/gnu/inc/tx_port.h **** #define TX_MINIMUM_STACK                        200         /* Minimum stack size for this port  */
 138:Middlewares/ST/threadx/ports/cortex_m4/gnu/inc/tx_port.h **** #endif
 139:Middlewares/ST/threadx/ports/cortex_m4/gnu/inc/tx_port.h **** 
 140:Middlewares/ST/threadx/ports/cortex_m4/gnu/inc/tx_port.h **** 
 141:Middlewares/ST/threadx/ports/cortex_m4/gnu/inc/tx_port.h **** /* Define the system timer thread's default stack size and priority.  These are only applicable
 142:Middlewares/ST/threadx/ports/cortex_m4/gnu/inc/tx_port.h ****    if TX_TIMER_PROCESS_IN_ISR is not defined.  */
 143:Middlewares/ST/threadx/ports/cortex_m4/gnu/inc/tx_port.h **** 
 144:Middlewares/ST/threadx/ports/cortex_m4/gnu/inc/tx_port.h **** #ifndef TX_TIMER_THREAD_STACK_SIZE
 145:Middlewares/ST/threadx/ports/cortex_m4/gnu/inc/tx_port.h **** #define TX_TIMER_THREAD_STACK_SIZE              1024        /* Default timer thread stack size  */
 146:Middlewares/ST/threadx/ports/cortex_m4/gnu/inc/tx_port.h **** #endif
 147:Middlewares/ST/threadx/ports/cortex_m4/gnu/inc/tx_port.h **** 
 148:Middlewares/ST/threadx/ports/cortex_m4/gnu/inc/tx_port.h **** #ifndef TX_TIMER_THREAD_PRIORITY
 149:Middlewares/ST/threadx/ports/cortex_m4/gnu/inc/tx_port.h **** #define TX_TIMER_THREAD_PRIORITY                0           /* Default timer thread priority    */
 150:Middlewares/ST/threadx/ports/cortex_m4/gnu/inc/tx_port.h **** #endif
 151:Middlewares/ST/threadx/ports/cortex_m4/gnu/inc/tx_port.h **** 
 152:Middlewares/ST/threadx/ports/cortex_m4/gnu/inc/tx_port.h **** /* By default, ThreadX for Cortex-M uses the PRIMASK register to enable/disable interrupts.
 153:Middlewares/ST/threadx/ports/cortex_m4/gnu/inc/tx_port.h **** If using BASEPRI is desired, define the following two symbols for both c and assembly files:
 154:Middlewares/ST/threadx/ports/cortex_m4/gnu/inc/tx_port.h **** TX_PORT_USE_BASEPRI - This tells ThreadX to use BASEPRI instead of PRIMASK.
 155:Middlewares/ST/threadx/ports/cortex_m4/gnu/inc/tx_port.h **** TX_PORT_BASEPRI = (priority_mask << (8 - number_priority_bits)) - this defines the maximum priority
 156:Middlewares/ST/threadx/ports/cortex_m4/gnu/inc/tx_port.h **** Any interrupt with a higher priority than priority_mask will not be masked, thus the interrupt will
 157:Middlewares/ST/threadx/ports/cortex_m4/gnu/inc/tx_port.h **** */
 158:Middlewares/ST/threadx/ports/cortex_m4/gnu/inc/tx_port.h **** 
 159:Middlewares/ST/threadx/ports/cortex_m4/gnu/inc/tx_port.h **** /* Define various constants for the ThreadX Cortex-M port.  */
 160:Middlewares/ST/threadx/ports/cortex_m4/gnu/inc/tx_port.h **** 
 161:Middlewares/ST/threadx/ports/cortex_m4/gnu/inc/tx_port.h **** #define TX_INT_DISABLE                          1           /* Disable interrupts               */
 162:Middlewares/ST/threadx/ports/cortex_m4/gnu/inc/tx_port.h **** #define TX_INT_ENABLE                           0           /* Enable interrupts                */
 163:Middlewares/ST/threadx/ports/cortex_m4/gnu/inc/tx_port.h **** 
 164:Middlewares/ST/threadx/ports/cortex_m4/gnu/inc/tx_port.h **** 
 165:Middlewares/ST/threadx/ports/cortex_m4/gnu/inc/tx_port.h **** /* Define the clock source for trace event entry time stamp. The following two item are port specif
 166:Middlewares/ST/threadx/ports/cortex_m4/gnu/inc/tx_port.h ****    For example, if the time source is at the address 0x0a800024 and is 16-bits in size, the clock
 167:Middlewares/ST/threadx/ports/cortex_m4/gnu/inc/tx_port.h ****    source constants would be:
 168:Middlewares/ST/threadx/ports/cortex_m4/gnu/inc/tx_port.h **** 
 169:Middlewares/ST/threadx/ports/cortex_m4/gnu/inc/tx_port.h **** #define TX_TRACE_TIME_SOURCE                    *((volatile ULONG *) 0x0a800024)
 170:Middlewares/ST/threadx/ports/cortex_m4/gnu/inc/tx_port.h **** #define TX_TRACE_TIME_MASK                      0x0000FFFFUL
 171:Middlewares/ST/threadx/ports/cortex_m4/gnu/inc/tx_port.h **** 
 172:Middlewares/ST/threadx/ports/cortex_m4/gnu/inc/tx_port.h **** */
 173:Middlewares/ST/threadx/ports/cortex_m4/gnu/inc/tx_port.h **** 
 174:Middlewares/ST/threadx/ports/cortex_m4/gnu/inc/tx_port.h **** #ifndef TX_MISRA_ENABLE
 175:Middlewares/ST/threadx/ports/cortex_m4/gnu/inc/tx_port.h **** #ifndef TX_TRACE_TIME_SOURCE
 176:Middlewares/ST/threadx/ports/cortex_m4/gnu/inc/tx_port.h **** #define TX_TRACE_TIME_SOURCE                    *((volatile ULONG *) 0xE0001004)
 177:Middlewares/ST/threadx/ports/cortex_m4/gnu/inc/tx_port.h **** #endif
 178:Middlewares/ST/threadx/ports/cortex_m4/gnu/inc/tx_port.h **** #else
 179:Middlewares/ST/threadx/ports/cortex_m4/gnu/inc/tx_port.h **** ULONG   _tx_misra_time_stamp_get(VOID);
ARM GAS  C:\Users\HP\AppData\Local\Temp\ccvQoPMk.s 			page 15


 180:Middlewares/ST/threadx/ports/cortex_m4/gnu/inc/tx_port.h **** #define TX_TRACE_TIME_SOURCE                    _tx_misra_time_stamp_get()
 181:Middlewares/ST/threadx/ports/cortex_m4/gnu/inc/tx_port.h **** #endif
 182:Middlewares/ST/threadx/ports/cortex_m4/gnu/inc/tx_port.h **** 
 183:Middlewares/ST/threadx/ports/cortex_m4/gnu/inc/tx_port.h **** #ifndef TX_TRACE_TIME_MASK
 184:Middlewares/ST/threadx/ports/cortex_m4/gnu/inc/tx_port.h **** #define TX_TRACE_TIME_MASK                      0xFFFFFFFFUL
 185:Middlewares/ST/threadx/ports/cortex_m4/gnu/inc/tx_port.h **** #endif
 186:Middlewares/ST/threadx/ports/cortex_m4/gnu/inc/tx_port.h **** 
 187:Middlewares/ST/threadx/ports/cortex_m4/gnu/inc/tx_port.h **** #ifdef __ghs__
 188:Middlewares/ST/threadx/ports/cortex_m4/gnu/inc/tx_port.h **** /* Define constants for Green Hills EventAnalyzer.  */
 189:Middlewares/ST/threadx/ports/cortex_m4/gnu/inc/tx_port.h **** 
 190:Middlewares/ST/threadx/ports/cortex_m4/gnu/inc/tx_port.h **** /* Define the number of ticks per second. This informs the EventAnalyzer what the timestamps
 191:Middlewares/ST/threadx/ports/cortex_m4/gnu/inc/tx_port.h ****    represent.  By default, this is set to 1,000,000 i.e., one tick every microsecond. */
 192:Middlewares/ST/threadx/ports/cortex_m4/gnu/inc/tx_port.h **** 
 193:Middlewares/ST/threadx/ports/cortex_m4/gnu/inc/tx_port.h **** #define TX_EL_TICKS_PER_SECOND                  1000000
 194:Middlewares/ST/threadx/ports/cortex_m4/gnu/inc/tx_port.h **** 
 195:Middlewares/ST/threadx/ports/cortex_m4/gnu/inc/tx_port.h **** /* Define the method of how to get the upper and lower 32-bits of the time stamp. By default, simpl
 196:Middlewares/ST/threadx/ports/cortex_m4/gnu/inc/tx_port.h ****    simulate the time-stamp source with a counter.  */
 197:Middlewares/ST/threadx/ports/cortex_m4/gnu/inc/tx_port.h **** 
 198:Middlewares/ST/threadx/ports/cortex_m4/gnu/inc/tx_port.h **** #define read_tbu()                              _tx_el_time_base_upper
 199:Middlewares/ST/threadx/ports/cortex_m4/gnu/inc/tx_port.h **** #define read_tbl()                              ++_tx_el_time_base_lower
 200:Middlewares/ST/threadx/ports/cortex_m4/gnu/inc/tx_port.h **** #endif  /* __ghs__ */
 201:Middlewares/ST/threadx/ports/cortex_m4/gnu/inc/tx_port.h **** 
 202:Middlewares/ST/threadx/ports/cortex_m4/gnu/inc/tx_port.h **** /* Define the port specific options for the _tx_build_options variable. This variable indicates
 203:Middlewares/ST/threadx/ports/cortex_m4/gnu/inc/tx_port.h ****    how the ThreadX library was built.  */
 204:Middlewares/ST/threadx/ports/cortex_m4/gnu/inc/tx_port.h **** 
 205:Middlewares/ST/threadx/ports/cortex_m4/gnu/inc/tx_port.h **** #define TX_PORT_SPECIFIC_BUILD_OPTIONS          (0)
 206:Middlewares/ST/threadx/ports/cortex_m4/gnu/inc/tx_port.h **** 
 207:Middlewares/ST/threadx/ports/cortex_m4/gnu/inc/tx_port.h **** 
 208:Middlewares/ST/threadx/ports/cortex_m4/gnu/inc/tx_port.h **** /* Define the in-line initialization constant so that modules with in-line
 209:Middlewares/ST/threadx/ports/cortex_m4/gnu/inc/tx_port.h ****    initialization capabilities can prevent their initialization from being
 210:Middlewares/ST/threadx/ports/cortex_m4/gnu/inc/tx_port.h ****    a function call.  */
 211:Middlewares/ST/threadx/ports/cortex_m4/gnu/inc/tx_port.h **** 
 212:Middlewares/ST/threadx/ports/cortex_m4/gnu/inc/tx_port.h **** #ifdef TX_MISRA_ENABLE
 213:Middlewares/ST/threadx/ports/cortex_m4/gnu/inc/tx_port.h **** #define TX_DISABLE_INLINE
 214:Middlewares/ST/threadx/ports/cortex_m4/gnu/inc/tx_port.h **** #else
 215:Middlewares/ST/threadx/ports/cortex_m4/gnu/inc/tx_port.h **** #define TX_INLINE_INITIALIZATION
 216:Middlewares/ST/threadx/ports/cortex_m4/gnu/inc/tx_port.h **** #endif
 217:Middlewares/ST/threadx/ports/cortex_m4/gnu/inc/tx_port.h **** 
 218:Middlewares/ST/threadx/ports/cortex_m4/gnu/inc/tx_port.h **** 
 219:Middlewares/ST/threadx/ports/cortex_m4/gnu/inc/tx_port.h **** /* Determine whether or not stack checking is enabled. By default, ThreadX stack checking is
 220:Middlewares/ST/threadx/ports/cortex_m4/gnu/inc/tx_port.h ****    disabled. When the following is defined, ThreadX thread stack checking is enabled.  If stack
 221:Middlewares/ST/threadx/ports/cortex_m4/gnu/inc/tx_port.h ****    checking is enabled (TX_ENABLE_STACK_CHECKING is defined), the TX_DISABLE_STACK_FILLING
 222:Middlewares/ST/threadx/ports/cortex_m4/gnu/inc/tx_port.h ****    define is negated, thereby forcing the stack fill which is necessary for the stack checking
 223:Middlewares/ST/threadx/ports/cortex_m4/gnu/inc/tx_port.h ****    logic.  */
 224:Middlewares/ST/threadx/ports/cortex_m4/gnu/inc/tx_port.h **** 
 225:Middlewares/ST/threadx/ports/cortex_m4/gnu/inc/tx_port.h **** #ifndef TX_MISRA_ENABLE
 226:Middlewares/ST/threadx/ports/cortex_m4/gnu/inc/tx_port.h **** #ifdef TX_ENABLE_STACK_CHECKING
 227:Middlewares/ST/threadx/ports/cortex_m4/gnu/inc/tx_port.h **** #undef TX_DISABLE_STACK_FILLING
 228:Middlewares/ST/threadx/ports/cortex_m4/gnu/inc/tx_port.h **** #endif
 229:Middlewares/ST/threadx/ports/cortex_m4/gnu/inc/tx_port.h **** #endif
 230:Middlewares/ST/threadx/ports/cortex_m4/gnu/inc/tx_port.h **** 
 231:Middlewares/ST/threadx/ports/cortex_m4/gnu/inc/tx_port.h **** 
 232:Middlewares/ST/threadx/ports/cortex_m4/gnu/inc/tx_port.h **** /* Define the TX_THREAD control block extensions for this port. The main reason
 233:Middlewares/ST/threadx/ports/cortex_m4/gnu/inc/tx_port.h ****    for the multiple macros is so that backward compatibility can be maintained with
 234:Middlewares/ST/threadx/ports/cortex_m4/gnu/inc/tx_port.h ****    existing ThreadX kernel awareness modules.  */
 235:Middlewares/ST/threadx/ports/cortex_m4/gnu/inc/tx_port.h **** 
 236:Middlewares/ST/threadx/ports/cortex_m4/gnu/inc/tx_port.h **** #define TX_THREAD_EXTENSION_0
ARM GAS  C:\Users\HP\AppData\Local\Temp\ccvQoPMk.s 			page 16


 237:Middlewares/ST/threadx/ports/cortex_m4/gnu/inc/tx_port.h **** #define TX_THREAD_EXTENSION_1
 238:Middlewares/ST/threadx/ports/cortex_m4/gnu/inc/tx_port.h **** #ifdef  TX_ENABLE_IAR_LIBRARY_SUPPORT
 239:Middlewares/ST/threadx/ports/cortex_m4/gnu/inc/tx_port.h **** #define TX_THREAD_EXTENSION_2           VOID    *tx_thread_iar_tls_pointer;
 240:Middlewares/ST/threadx/ports/cortex_m4/gnu/inc/tx_port.h **** #elif defined(__ghs__)
 241:Middlewares/ST/threadx/ports/cortex_m4/gnu/inc/tx_port.h **** #define TX_THREAD_EXTENSION_2           VOID *  tx_thread_eh_globals;                           \
 242:Middlewares/ST/threadx/ports/cortex_m4/gnu/inc/tx_port.h ****                                         int     Errno;             /* errno.  */                \
 243:Middlewares/ST/threadx/ports/cortex_m4/gnu/inc/tx_port.h ****                                         char *  strtok_saved_pos;  /* strtok() position.  */
 244:Middlewares/ST/threadx/ports/cortex_m4/gnu/inc/tx_port.h **** #else
 245:Middlewares/ST/threadx/ports/cortex_m4/gnu/inc/tx_port.h **** #define TX_THREAD_EXTENSION_2
 246:Middlewares/ST/threadx/ports/cortex_m4/gnu/inc/tx_port.h **** #endif
 247:Middlewares/ST/threadx/ports/cortex_m4/gnu/inc/tx_port.h **** 
 248:Middlewares/ST/threadx/ports/cortex_m4/gnu/inc/tx_port.h **** 
 249:Middlewares/ST/threadx/ports/cortex_m4/gnu/inc/tx_port.h **** #define TX_THREAD_EXTENSION_3
 250:Middlewares/ST/threadx/ports/cortex_m4/gnu/inc/tx_port.h **** 
 251:Middlewares/ST/threadx/ports/cortex_m4/gnu/inc/tx_port.h **** 
 252:Middlewares/ST/threadx/ports/cortex_m4/gnu/inc/tx_port.h **** 
 253:Middlewares/ST/threadx/ports/cortex_m4/gnu/inc/tx_port.h **** /* Define the port extensions of the remaining ThreadX objects.  */
 254:Middlewares/ST/threadx/ports/cortex_m4/gnu/inc/tx_port.h **** 
 255:Middlewares/ST/threadx/ports/cortex_m4/gnu/inc/tx_port.h **** #define TX_BLOCK_POOL_EXTENSION
 256:Middlewares/ST/threadx/ports/cortex_m4/gnu/inc/tx_port.h **** #define TX_BYTE_POOL_EXTENSION
 257:Middlewares/ST/threadx/ports/cortex_m4/gnu/inc/tx_port.h **** #define TX_EVENT_FLAGS_GROUP_EXTENSION
 258:Middlewares/ST/threadx/ports/cortex_m4/gnu/inc/tx_port.h **** #define TX_MUTEX_EXTENSION
 259:Middlewares/ST/threadx/ports/cortex_m4/gnu/inc/tx_port.h **** #define TX_QUEUE_EXTENSION
 260:Middlewares/ST/threadx/ports/cortex_m4/gnu/inc/tx_port.h **** #define TX_SEMAPHORE_EXTENSION
 261:Middlewares/ST/threadx/ports/cortex_m4/gnu/inc/tx_port.h **** #define TX_TIMER_EXTENSION
 262:Middlewares/ST/threadx/ports/cortex_m4/gnu/inc/tx_port.h **** 
 263:Middlewares/ST/threadx/ports/cortex_m4/gnu/inc/tx_port.h **** 
 264:Middlewares/ST/threadx/ports/cortex_m4/gnu/inc/tx_port.h **** /* Define the user extension field of the thread control block.  Nothing
 265:Middlewares/ST/threadx/ports/cortex_m4/gnu/inc/tx_port.h ****    additional is needed for this port so it is defined as white space.  */
 266:Middlewares/ST/threadx/ports/cortex_m4/gnu/inc/tx_port.h **** 
 267:Middlewares/ST/threadx/ports/cortex_m4/gnu/inc/tx_port.h **** #ifndef TX_THREAD_USER_EXTENSION
 268:Middlewares/ST/threadx/ports/cortex_m4/gnu/inc/tx_port.h **** #define TX_THREAD_USER_EXTENSION
 269:Middlewares/ST/threadx/ports/cortex_m4/gnu/inc/tx_port.h **** #endif
 270:Middlewares/ST/threadx/ports/cortex_m4/gnu/inc/tx_port.h **** 
 271:Middlewares/ST/threadx/ports/cortex_m4/gnu/inc/tx_port.h **** 
 272:Middlewares/ST/threadx/ports/cortex_m4/gnu/inc/tx_port.h **** /* Define the macros for processing extensions in tx_thread_create, tx_thread_delete,
 273:Middlewares/ST/threadx/ports/cortex_m4/gnu/inc/tx_port.h ****    tx_thread_shell_entry, and tx_thread_terminate.  */
 274:Middlewares/ST/threadx/ports/cortex_m4/gnu/inc/tx_port.h **** 
 275:Middlewares/ST/threadx/ports/cortex_m4/gnu/inc/tx_port.h **** 
 276:Middlewares/ST/threadx/ports/cortex_m4/gnu/inc/tx_port.h **** #ifdef  TX_ENABLE_IAR_LIBRARY_SUPPORT
 277:Middlewares/ST/threadx/ports/cortex_m4/gnu/inc/tx_port.h **** #if (__VER__ < 8000000)
 278:Middlewares/ST/threadx/ports/cortex_m4/gnu/inc/tx_port.h **** #define TX_THREAD_CREATE_EXTENSION(thread_ptr)                      thread_ptr -> tx_thread_iar_tls
 279:Middlewares/ST/threadx/ports/cortex_m4/gnu/inc/tx_port.h **** #define TX_THREAD_DELETE_EXTENSION(thread_ptr)                      __iar_dlib_perthread_deallocate
 280:Middlewares/ST/threadx/ports/cortex_m4/gnu/inc/tx_port.h ****                                                                     thread_ptr -> tx_thread_iar_tls
 281:Middlewares/ST/threadx/ports/cortex_m4/gnu/inc/tx_port.h **** #define TX_PORT_SPECIFIC_PRE_SCHEDULER_INITIALIZATION               __iar_dlib_perthread_access(0);
 282:Middlewares/ST/threadx/ports/cortex_m4/gnu/inc/tx_port.h **** #else
 283:Middlewares/ST/threadx/ports/cortex_m4/gnu/inc/tx_port.h **** void    *_tx_iar_create_per_thread_tls_area(void);
 284:Middlewares/ST/threadx/ports/cortex_m4/gnu/inc/tx_port.h **** void    _tx_iar_destroy_per_thread_tls_area(void *tls_ptr);
 285:Middlewares/ST/threadx/ports/cortex_m4/gnu/inc/tx_port.h **** void    __iar_Initlocks(void);
 286:Middlewares/ST/threadx/ports/cortex_m4/gnu/inc/tx_port.h **** 
 287:Middlewares/ST/threadx/ports/cortex_m4/gnu/inc/tx_port.h **** #define TX_THREAD_CREATE_EXTENSION(thread_ptr)                      thread_ptr -> tx_thread_iar_tls
 288:Middlewares/ST/threadx/ports/cortex_m4/gnu/inc/tx_port.h **** #define TX_THREAD_DELETE_EXTENSION(thread_ptr)                      do {_tx_iar_destroy_per_thread_
 289:Middlewares/ST/threadx/ports/cortex_m4/gnu/inc/tx_port.h ****                                                                         thread_ptr -> tx_thread_iar
 290:Middlewares/ST/threadx/ports/cortex_m4/gnu/inc/tx_port.h **** #define TX_PORT_SPECIFIC_PRE_SCHEDULER_INITIALIZATION               do {__iar_Initlocks();} while(0
 291:Middlewares/ST/threadx/ports/cortex_m4/gnu/inc/tx_port.h **** #endif
 292:Middlewares/ST/threadx/ports/cortex_m4/gnu/inc/tx_port.h **** #else
 293:Middlewares/ST/threadx/ports/cortex_m4/gnu/inc/tx_port.h **** #define TX_THREAD_CREATE_EXTENSION(thread_ptr)
ARM GAS  C:\Users\HP\AppData\Local\Temp\ccvQoPMk.s 			page 17


 294:Middlewares/ST/threadx/ports/cortex_m4/gnu/inc/tx_port.h **** #define TX_THREAD_DELETE_EXTENSION(thread_ptr)
 295:Middlewares/ST/threadx/ports/cortex_m4/gnu/inc/tx_port.h **** #endif
 296:Middlewares/ST/threadx/ports/cortex_m4/gnu/inc/tx_port.h **** 
 297:Middlewares/ST/threadx/ports/cortex_m4/gnu/inc/tx_port.h **** #if defined(__ARMVFP__) || defined(__ARM_PCS_VFP) || defined(__ARM_FP) || defined(__TARGET_FPU_VFP)
 298:Middlewares/ST/threadx/ports/cortex_m4/gnu/inc/tx_port.h **** 
 299:Middlewares/ST/threadx/ports/cortex_m4/gnu/inc/tx_port.h **** #ifdef TX_MISRA_ENABLE
 300:Middlewares/ST/threadx/ports/cortex_m4/gnu/inc/tx_port.h **** 
 301:Middlewares/ST/threadx/ports/cortex_m4/gnu/inc/tx_port.h **** ULONG  _tx_misra_control_get(void);
 302:Middlewares/ST/threadx/ports/cortex_m4/gnu/inc/tx_port.h **** void   _tx_misra_control_set(ULONG value);
 303:Middlewares/ST/threadx/ports/cortex_m4/gnu/inc/tx_port.h **** ULONG  _tx_misra_fpccr_get(void);
 304:Middlewares/ST/threadx/ports/cortex_m4/gnu/inc/tx_port.h **** void   _tx_misra_vfp_touch(void);
 305:Middlewares/ST/threadx/ports/cortex_m4/gnu/inc/tx_port.h **** 
 306:Middlewares/ST/threadx/ports/cortex_m4/gnu/inc/tx_port.h **** #else   /* TX_MISRA_ENABLE not defined */
 307:Middlewares/ST/threadx/ports/cortex_m4/gnu/inc/tx_port.h **** 
 308:Middlewares/ST/threadx/ports/cortex_m4/gnu/inc/tx_port.h **** /* Define some helper functions (these are intrinsics in some compilers). */
 309:Middlewares/ST/threadx/ports/cortex_m4/gnu/inc/tx_port.h **** #ifdef __GNUC__ /* GCC and ARM Compiler 6 */
 310:Middlewares/ST/threadx/ports/cortex_m4/gnu/inc/tx_port.h **** 
 311:Middlewares/ST/threadx/ports/cortex_m4/gnu/inc/tx_port.h **** __attribute__( ( always_inline ) ) static inline ULONG __get_control_value(void)
 312:Middlewares/ST/threadx/ports/cortex_m4/gnu/inc/tx_port.h **** {
 313:Middlewares/ST/threadx/ports/cortex_m4/gnu/inc/tx_port.h **** ULONG  control_value;
 314:Middlewares/ST/threadx/ports/cortex_m4/gnu/inc/tx_port.h **** 
 315:Middlewares/ST/threadx/ports/cortex_m4/gnu/inc/tx_port.h ****     __asm__ volatile (" MRS  %0,CONTROL ": "=r" (control_value) );
 316:Middlewares/ST/threadx/ports/cortex_m4/gnu/inc/tx_port.h ****     return(control_value);
 317:Middlewares/ST/threadx/ports/cortex_m4/gnu/inc/tx_port.h **** }
 318:Middlewares/ST/threadx/ports/cortex_m4/gnu/inc/tx_port.h **** 
 319:Middlewares/ST/threadx/ports/cortex_m4/gnu/inc/tx_port.h **** __attribute__( ( always_inline ) ) static inline void __set_control_value(ULONG control_value)
 320:Middlewares/ST/threadx/ports/cortex_m4/gnu/inc/tx_port.h **** {
 321:Middlewares/ST/threadx/ports/cortex_m4/gnu/inc/tx_port.h ****     __asm__ volatile (" MSR  CONTROL,%0": : "r" (control_value): "memory" );
 322:Middlewares/ST/threadx/ports/cortex_m4/gnu/inc/tx_port.h **** }
 323:Middlewares/ST/threadx/ports/cortex_m4/gnu/inc/tx_port.h **** 
 324:Middlewares/ST/threadx/ports/cortex_m4/gnu/inc/tx_port.h **** #define TX_VFP_TOUCH()  __asm__ volatile ("VMOV.F32 s0, s0");
 325:Middlewares/ST/threadx/ports/cortex_m4/gnu/inc/tx_port.h **** 
 326:Middlewares/ST/threadx/ports/cortex_m4/gnu/inc/tx_port.h **** #elif defined(__CC_ARM) /* ARM Compiler 5 */
 327:Middlewares/ST/threadx/ports/cortex_m4/gnu/inc/tx_port.h **** 
 328:Middlewares/ST/threadx/ports/cortex_m4/gnu/inc/tx_port.h **** __attribute__( ( always_inline ) ) ULONG __get_control_value(void)
 329:Middlewares/ST/threadx/ports/cortex_m4/gnu/inc/tx_port.h **** {
 330:Middlewares/ST/threadx/ports/cortex_m4/gnu/inc/tx_port.h **** ULONG  control_value;
 331:Middlewares/ST/threadx/ports/cortex_m4/gnu/inc/tx_port.h **** 
 332:Middlewares/ST/threadx/ports/cortex_m4/gnu/inc/tx_port.h ****     __asm volatile ("MRS control_value,CONTROL");
 333:Middlewares/ST/threadx/ports/cortex_m4/gnu/inc/tx_port.h ****     return(control_value);
 334:Middlewares/ST/threadx/ports/cortex_m4/gnu/inc/tx_port.h **** }
 335:Middlewares/ST/threadx/ports/cortex_m4/gnu/inc/tx_port.h **** 
 336:Middlewares/ST/threadx/ports/cortex_m4/gnu/inc/tx_port.h **** __attribute__( ( always_inline ) ) void __set_control_value(ULONG control_value)
 337:Middlewares/ST/threadx/ports/cortex_m4/gnu/inc/tx_port.h **** {
 338:Middlewares/ST/threadx/ports/cortex_m4/gnu/inc/tx_port.h ****     __asm__ volatile ("MSR CONTROL,control_value");
 339:Middlewares/ST/threadx/ports/cortex_m4/gnu/inc/tx_port.h **** }
 340:Middlewares/ST/threadx/ports/cortex_m4/gnu/inc/tx_port.h **** /* Can't access VFP registers with inline asm, so define this in tx_thread_schedule.  */
 341:Middlewares/ST/threadx/ports/cortex_m4/gnu/inc/tx_port.h **** void _tx_vfp_access(void);
 342:Middlewares/ST/threadx/ports/cortex_m4/gnu/inc/tx_port.h **** #define TX_VFP_TOUCH()  _tx_vfp_access();
 343:Middlewares/ST/threadx/ports/cortex_m4/gnu/inc/tx_port.h **** 
 344:Middlewares/ST/threadx/ports/cortex_m4/gnu/inc/tx_port.h **** #elif defined(__ICCARM__)  /* IAR */
 345:Middlewares/ST/threadx/ports/cortex_m4/gnu/inc/tx_port.h **** #define TX_VFP_TOUCH()  __asm__ volatile ("VMOV.F32 s0, s0");
 346:Middlewares/ST/threadx/ports/cortex_m4/gnu/inc/tx_port.h **** #endif  /* Helper functions for different compilers */
 347:Middlewares/ST/threadx/ports/cortex_m4/gnu/inc/tx_port.h **** 
 348:Middlewares/ST/threadx/ports/cortex_m4/gnu/inc/tx_port.h **** #endif  /* TX_MISRA_ENABLE */
 349:Middlewares/ST/threadx/ports/cortex_m4/gnu/inc/tx_port.h **** 
 350:Middlewares/ST/threadx/ports/cortex_m4/gnu/inc/tx_port.h **** 
ARM GAS  C:\Users\HP\AppData\Local\Temp\ccvQoPMk.s 			page 18


 351:Middlewares/ST/threadx/ports/cortex_m4/gnu/inc/tx_port.h **** /* A completed thread falls into _thread_shell_entry and we can simply deactivate the FPU via CONTR
 352:Middlewares/ST/threadx/ports/cortex_m4/gnu/inc/tx_port.h ****    in order to ensure no lazy stacking will occur. */
 353:Middlewares/ST/threadx/ports/cortex_m4/gnu/inc/tx_port.h **** 
 354:Middlewares/ST/threadx/ports/cortex_m4/gnu/inc/tx_port.h **** #ifndef TX_MISRA_ENABLE
 355:Middlewares/ST/threadx/ports/cortex_m4/gnu/inc/tx_port.h **** 
 356:Middlewares/ST/threadx/ports/cortex_m4/gnu/inc/tx_port.h **** #define TX_THREAD_COMPLETED_EXTENSION(thread_ptr)   {                                              
 357:Middlewares/ST/threadx/ports/cortex_m4/gnu/inc/tx_port.h ****                                                     ULONG  _tx_vfp_state;                          
 358:Middlewares/ST/threadx/ports/cortex_m4/gnu/inc/tx_port.h ****                                                         _tx_vfp_state =  __get_control_value();    
 359:Middlewares/ST/threadx/ports/cortex_m4/gnu/inc/tx_port.h ****                                                         _tx_vfp_state =  _tx_vfp_state & ~((ULONG) 
 360:Middlewares/ST/threadx/ports/cortex_m4/gnu/inc/tx_port.h ****                                                         __set_control_value(_tx_vfp_state);        
 361:Middlewares/ST/threadx/ports/cortex_m4/gnu/inc/tx_port.h ****                                                     }
 362:Middlewares/ST/threadx/ports/cortex_m4/gnu/inc/tx_port.h **** #else
 363:Middlewares/ST/threadx/ports/cortex_m4/gnu/inc/tx_port.h **** 
 364:Middlewares/ST/threadx/ports/cortex_m4/gnu/inc/tx_port.h **** #define TX_THREAD_COMPLETED_EXTENSION(thread_ptr)   {                                              
 365:Middlewares/ST/threadx/ports/cortex_m4/gnu/inc/tx_port.h ****                                                     ULONG  _tx_vfp_state;                          
 366:Middlewares/ST/threadx/ports/cortex_m4/gnu/inc/tx_port.h ****                                                         _tx_vfp_state =  _tx_misra_control_get();  
 367:Middlewares/ST/threadx/ports/cortex_m4/gnu/inc/tx_port.h ****                                                         _tx_vfp_state =  _tx_vfp_state & ~((ULONG) 
 368:Middlewares/ST/threadx/ports/cortex_m4/gnu/inc/tx_port.h ****                                                         _tx_misra_control_set(_tx_vfp_state);      
 369:Middlewares/ST/threadx/ports/cortex_m4/gnu/inc/tx_port.h ****                                                     }
 370:Middlewares/ST/threadx/ports/cortex_m4/gnu/inc/tx_port.h **** 
 371:Middlewares/ST/threadx/ports/cortex_m4/gnu/inc/tx_port.h **** #endif
 372:Middlewares/ST/threadx/ports/cortex_m4/gnu/inc/tx_port.h **** 
 373:Middlewares/ST/threadx/ports/cortex_m4/gnu/inc/tx_port.h **** /* A thread can be terminated by another thread, so we first check if it's self-terminating and not
 374:Middlewares/ST/threadx/ports/cortex_m4/gnu/inc/tx_port.h ****    If so, deactivate the FPU via CONTROL.FPCA. Otherwise we are in an interrupt or another thread i
 375:Middlewares/ST/threadx/ports/cortex_m4/gnu/inc/tx_port.h ****    this one, so if the FPCCR.LSPACT bit is set, we need to save the CONTROL.FPCA state, touch the F
 376:Middlewares/ST/threadx/ports/cortex_m4/gnu/inc/tx_port.h ****    the lazy FPU save, then restore the CONTROL.FPCA state. */
 377:Middlewares/ST/threadx/ports/cortex_m4/gnu/inc/tx_port.h **** 
 378:Middlewares/ST/threadx/ports/cortex_m4/gnu/inc/tx_port.h **** #ifndef TX_MISRA_ENABLE
 379:Middlewares/ST/threadx/ports/cortex_m4/gnu/inc/tx_port.h **** 
 380:Middlewares/ST/threadx/ports/cortex_m4/gnu/inc/tx_port.h **** #define TX_THREAD_TERMINATED_EXTENSION(thread_ptr)  {                                              
 381:Middlewares/ST/threadx/ports/cortex_m4/gnu/inc/tx_port.h ****                                                     ULONG  _tx_system_state;                       
 382:Middlewares/ST/threadx/ports/cortex_m4/gnu/inc/tx_port.h ****                                                         _tx_system_state =  TX_THREAD_GET_SYSTEM_ST
 383:Middlewares/ST/threadx/ports/cortex_m4/gnu/inc/tx_port.h ****                                                         if ((_tx_system_state == ((ULONG) 0)) && ((
 384:Middlewares/ST/threadx/ports/cortex_m4/gnu/inc/tx_port.h ****                                                         {                                          
 385:Middlewares/ST/threadx/ports/cortex_m4/gnu/inc/tx_port.h ****                                                         ULONG  _tx_vfp_state;                      
 386:Middlewares/ST/threadx/ports/cortex_m4/gnu/inc/tx_port.h ****                                                             _tx_vfp_state =  __get_control_value();
 387:Middlewares/ST/threadx/ports/cortex_m4/gnu/inc/tx_port.h ****                                                             _tx_vfp_state =  _tx_vfp_state & ~((ULO
 388:Middlewares/ST/threadx/ports/cortex_m4/gnu/inc/tx_port.h ****                                                             __set_control_value(_tx_vfp_state);    
 389:Middlewares/ST/threadx/ports/cortex_m4/gnu/inc/tx_port.h ****                                                         }                                          
 390:Middlewares/ST/threadx/ports/cortex_m4/gnu/inc/tx_port.h ****                                                         else                                       
 391:Middlewares/ST/threadx/ports/cortex_m4/gnu/inc/tx_port.h ****                                                         {                                          
 392:Middlewares/ST/threadx/ports/cortex_m4/gnu/inc/tx_port.h ****                                                         ULONG  _tx_fpccr;                          
 393:Middlewares/ST/threadx/ports/cortex_m4/gnu/inc/tx_port.h ****                                                             _tx_fpccr =  *((volatile ULONG *) 0xE00
 394:Middlewares/ST/threadx/ports/cortex_m4/gnu/inc/tx_port.h ****                                                             _tx_fpccr =  _tx_fpccr & ((ULONG) 0x01)
 395:Middlewares/ST/threadx/ports/cortex_m4/gnu/inc/tx_port.h ****                                                             if (_tx_fpccr == ((ULONG) 0x01))       
 396:Middlewares/ST/threadx/ports/cortex_m4/gnu/inc/tx_port.h ****                                                             {                                      
 397:Middlewares/ST/threadx/ports/cortex_m4/gnu/inc/tx_port.h ****                                                             ULONG _tx_vfp_state;                   
 398:Middlewares/ST/threadx/ports/cortex_m4/gnu/inc/tx_port.h ****                                                                 _tx_vfp_state = __get_control_value
 399:Middlewares/ST/threadx/ports/cortex_m4/gnu/inc/tx_port.h ****                                                                 _tx_vfp_state =  _tx_vfp_state & ((
 400:Middlewares/ST/threadx/ports/cortex_m4/gnu/inc/tx_port.h ****                                                                 TX_VFP_TOUCH();                    
 401:Middlewares/ST/threadx/ports/cortex_m4/gnu/inc/tx_port.h ****                                                                 if (_tx_vfp_state == ((ULONG) 0))  
 402:Middlewares/ST/threadx/ports/cortex_m4/gnu/inc/tx_port.h ****                                                                 {                                  
 403:Middlewares/ST/threadx/ports/cortex_m4/gnu/inc/tx_port.h ****                                                                     _tx_vfp_state =  __get_control_
 404:Middlewares/ST/threadx/ports/cortex_m4/gnu/inc/tx_port.h ****                                                                     _tx_vfp_state =  _tx_vfp_state 
 405:Middlewares/ST/threadx/ports/cortex_m4/gnu/inc/tx_port.h ****                                                                     __set_control_value(_tx_vfp_sta
 406:Middlewares/ST/threadx/ports/cortex_m4/gnu/inc/tx_port.h ****                                                                 }                                  
 407:Middlewares/ST/threadx/ports/cortex_m4/gnu/inc/tx_port.h ****                                                             }                                      
ARM GAS  C:\Users\HP\AppData\Local\Temp\ccvQoPMk.s 			page 19


 408:Middlewares/ST/threadx/ports/cortex_m4/gnu/inc/tx_port.h ****                                                         }                                          
 409:Middlewares/ST/threadx/ports/cortex_m4/gnu/inc/tx_port.h ****                                                     }
 410:Middlewares/ST/threadx/ports/cortex_m4/gnu/inc/tx_port.h **** #else
 411:Middlewares/ST/threadx/ports/cortex_m4/gnu/inc/tx_port.h **** 
 412:Middlewares/ST/threadx/ports/cortex_m4/gnu/inc/tx_port.h **** #define TX_THREAD_TERMINATED_EXTENSION(thread_ptr)  {                                              
 413:Middlewares/ST/threadx/ports/cortex_m4/gnu/inc/tx_port.h ****                                                     ULONG  _tx_system_state;                       
 414:Middlewares/ST/threadx/ports/cortex_m4/gnu/inc/tx_port.h ****                                                         _tx_system_state =  TX_THREAD_GET_SYSTEM_ST
 415:Middlewares/ST/threadx/ports/cortex_m4/gnu/inc/tx_port.h ****                                                         if ((_tx_system_state == ((ULONG) 0)) && ((
 416:Middlewares/ST/threadx/ports/cortex_m4/gnu/inc/tx_port.h ****                                                         {                                          
 417:Middlewares/ST/threadx/ports/cortex_m4/gnu/inc/tx_port.h ****                                                         ULONG  _tx_vfp_state;                      
 418:Middlewares/ST/threadx/ports/cortex_m4/gnu/inc/tx_port.h ****                                                             _tx_vfp_state =  _tx_misra_control_get(
 419:Middlewares/ST/threadx/ports/cortex_m4/gnu/inc/tx_port.h ****                                                             _tx_vfp_state =  _tx_vfp_state & ~((ULO
 420:Middlewares/ST/threadx/ports/cortex_m4/gnu/inc/tx_port.h ****                                                             _tx_misra_control_set(_tx_vfp_state);  
 421:Middlewares/ST/threadx/ports/cortex_m4/gnu/inc/tx_port.h ****                                                         }                                          
 422:Middlewares/ST/threadx/ports/cortex_m4/gnu/inc/tx_port.h ****                                                         else                                       
 423:Middlewares/ST/threadx/ports/cortex_m4/gnu/inc/tx_port.h ****                                                         {                                          
 424:Middlewares/ST/threadx/ports/cortex_m4/gnu/inc/tx_port.h ****                                                         ULONG  _tx_fpccr;                          
 425:Middlewares/ST/threadx/ports/cortex_m4/gnu/inc/tx_port.h ****                                                             _tx_fpccr =  _tx_misra_fpccr_get();    
 426:Middlewares/ST/threadx/ports/cortex_m4/gnu/inc/tx_port.h ****                                                             _tx_fpccr =  _tx_fpccr & ((ULONG) 0x01)
 427:Middlewares/ST/threadx/ports/cortex_m4/gnu/inc/tx_port.h ****                                                             if (_tx_fpccr == ((ULONG) 0x01))       
 428:Middlewares/ST/threadx/ports/cortex_m4/gnu/inc/tx_port.h ****                                                             {                                      
 429:Middlewares/ST/threadx/ports/cortex_m4/gnu/inc/tx_port.h ****                                                             ULONG _tx_vfp_state;                   
 430:Middlewares/ST/threadx/ports/cortex_m4/gnu/inc/tx_port.h ****                                                                 _tx_vfp_state = _tx_misra_control_g
 431:Middlewares/ST/threadx/ports/cortex_m4/gnu/inc/tx_port.h ****                                                                 _tx_vfp_state =  _tx_vfp_state & ((
 432:Middlewares/ST/threadx/ports/cortex_m4/gnu/inc/tx_port.h ****                                                                 _tx_misra_vfp_touch();             
 433:Middlewares/ST/threadx/ports/cortex_m4/gnu/inc/tx_port.h ****                                                                 if (_tx_vfp_state == ((ULONG) 0))  
 434:Middlewares/ST/threadx/ports/cortex_m4/gnu/inc/tx_port.h ****                                                                 {                                  
 435:Middlewares/ST/threadx/ports/cortex_m4/gnu/inc/tx_port.h ****                                                                     _tx_vfp_state =  _tx_misra_cont
 436:Middlewares/ST/threadx/ports/cortex_m4/gnu/inc/tx_port.h ****                                                                     _tx_vfp_state =  _tx_vfp_state 
 437:Middlewares/ST/threadx/ports/cortex_m4/gnu/inc/tx_port.h ****                                                                     _tx_misra_control_set(_tx_vfp_s
 438:Middlewares/ST/threadx/ports/cortex_m4/gnu/inc/tx_port.h ****                                                                 }                                  
 439:Middlewares/ST/threadx/ports/cortex_m4/gnu/inc/tx_port.h ****                                                             }                                      
 440:Middlewares/ST/threadx/ports/cortex_m4/gnu/inc/tx_port.h ****                                                         }                                          
 441:Middlewares/ST/threadx/ports/cortex_m4/gnu/inc/tx_port.h ****                                                     }
 442:Middlewares/ST/threadx/ports/cortex_m4/gnu/inc/tx_port.h **** #endif
 443:Middlewares/ST/threadx/ports/cortex_m4/gnu/inc/tx_port.h **** 
 444:Middlewares/ST/threadx/ports/cortex_m4/gnu/inc/tx_port.h **** #else   /* No VFP in use */
 445:Middlewares/ST/threadx/ports/cortex_m4/gnu/inc/tx_port.h **** 
 446:Middlewares/ST/threadx/ports/cortex_m4/gnu/inc/tx_port.h **** #define TX_THREAD_COMPLETED_EXTENSION(thread_ptr)
 447:Middlewares/ST/threadx/ports/cortex_m4/gnu/inc/tx_port.h **** #define TX_THREAD_TERMINATED_EXTENSION(thread_ptr)
 448:Middlewares/ST/threadx/ports/cortex_m4/gnu/inc/tx_port.h **** 
 449:Middlewares/ST/threadx/ports/cortex_m4/gnu/inc/tx_port.h **** #endif  /* defined(__ARMVFP__) || defined(__ARM_PCS_VFP) || defined(__ARM_FP) || defined(__TARGET_F
 450:Middlewares/ST/threadx/ports/cortex_m4/gnu/inc/tx_port.h **** 
 451:Middlewares/ST/threadx/ports/cortex_m4/gnu/inc/tx_port.h **** 
 452:Middlewares/ST/threadx/ports/cortex_m4/gnu/inc/tx_port.h **** /* Define the ThreadX object creation extensions for the remaining objects.  */
 453:Middlewares/ST/threadx/ports/cortex_m4/gnu/inc/tx_port.h **** 
 454:Middlewares/ST/threadx/ports/cortex_m4/gnu/inc/tx_port.h **** #define TX_BLOCK_POOL_CREATE_EXTENSION(pool_ptr)
 455:Middlewares/ST/threadx/ports/cortex_m4/gnu/inc/tx_port.h **** #define TX_BYTE_POOL_CREATE_EXTENSION(pool_ptr)
 456:Middlewares/ST/threadx/ports/cortex_m4/gnu/inc/tx_port.h **** #define TX_EVENT_FLAGS_GROUP_CREATE_EXTENSION(group_ptr)
 457:Middlewares/ST/threadx/ports/cortex_m4/gnu/inc/tx_port.h **** #define TX_MUTEX_CREATE_EXTENSION(mutex_ptr)
 458:Middlewares/ST/threadx/ports/cortex_m4/gnu/inc/tx_port.h **** #define TX_QUEUE_CREATE_EXTENSION(queue_ptr)
 459:Middlewares/ST/threadx/ports/cortex_m4/gnu/inc/tx_port.h **** #define TX_SEMAPHORE_CREATE_EXTENSION(semaphore_ptr)
 460:Middlewares/ST/threadx/ports/cortex_m4/gnu/inc/tx_port.h **** #define TX_TIMER_CREATE_EXTENSION(timer_ptr)
 461:Middlewares/ST/threadx/ports/cortex_m4/gnu/inc/tx_port.h **** 
 462:Middlewares/ST/threadx/ports/cortex_m4/gnu/inc/tx_port.h **** 
 463:Middlewares/ST/threadx/ports/cortex_m4/gnu/inc/tx_port.h **** /* Define the ThreadX object deletion extensions for the remaining objects.  */
 464:Middlewares/ST/threadx/ports/cortex_m4/gnu/inc/tx_port.h **** 
ARM GAS  C:\Users\HP\AppData\Local\Temp\ccvQoPMk.s 			page 20


 465:Middlewares/ST/threadx/ports/cortex_m4/gnu/inc/tx_port.h **** #define TX_BLOCK_POOL_DELETE_EXTENSION(pool_ptr)
 466:Middlewares/ST/threadx/ports/cortex_m4/gnu/inc/tx_port.h **** #define TX_BYTE_POOL_DELETE_EXTENSION(pool_ptr)
 467:Middlewares/ST/threadx/ports/cortex_m4/gnu/inc/tx_port.h **** #define TX_EVENT_FLAGS_GROUP_DELETE_EXTENSION(group_ptr)
 468:Middlewares/ST/threadx/ports/cortex_m4/gnu/inc/tx_port.h **** #define TX_MUTEX_DELETE_EXTENSION(mutex_ptr)
 469:Middlewares/ST/threadx/ports/cortex_m4/gnu/inc/tx_port.h **** #define TX_QUEUE_DELETE_EXTENSION(queue_ptr)
 470:Middlewares/ST/threadx/ports/cortex_m4/gnu/inc/tx_port.h **** #define TX_SEMAPHORE_DELETE_EXTENSION(semaphore_ptr)
 471:Middlewares/ST/threadx/ports/cortex_m4/gnu/inc/tx_port.h **** #define TX_TIMER_DELETE_EXTENSION(timer_ptr)
 472:Middlewares/ST/threadx/ports/cortex_m4/gnu/inc/tx_port.h **** 
 473:Middlewares/ST/threadx/ports/cortex_m4/gnu/inc/tx_port.h **** 
 474:Middlewares/ST/threadx/ports/cortex_m4/gnu/inc/tx_port.h **** /* Define the get system state macro.  */
 475:Middlewares/ST/threadx/ports/cortex_m4/gnu/inc/tx_port.h **** 
 476:Middlewares/ST/threadx/ports/cortex_m4/gnu/inc/tx_port.h **** #ifndef TX_THREAD_GET_SYSTEM_STATE
 477:Middlewares/ST/threadx/ports/cortex_m4/gnu/inc/tx_port.h **** #ifndef TX_MISRA_ENABLE
 478:Middlewares/ST/threadx/ports/cortex_m4/gnu/inc/tx_port.h **** 
 479:Middlewares/ST/threadx/ports/cortex_m4/gnu/inc/tx_port.h **** #ifdef __CC_ARM /* ARM Compiler 5 */
 480:Middlewares/ST/threadx/ports/cortex_m4/gnu/inc/tx_port.h **** 
 481:Middlewares/ST/threadx/ports/cortex_m4/gnu/inc/tx_port.h **** register unsigned int _ipsr __asm("ipsr");
 482:Middlewares/ST/threadx/ports/cortex_m4/gnu/inc/tx_port.h **** #define TX_THREAD_GET_SYSTEM_STATE()        (_tx_thread_system_state | _ipsr)
 483:Middlewares/ST/threadx/ports/cortex_m4/gnu/inc/tx_port.h **** 
 484:Middlewares/ST/threadx/ports/cortex_m4/gnu/inc/tx_port.h **** #elif defined(__GNUC__) /* GCC and ARM Compiler 6 */
 485:Middlewares/ST/threadx/ports/cortex_m4/gnu/inc/tx_port.h **** 
 486:Middlewares/ST/threadx/ports/cortex_m4/gnu/inc/tx_port.h **** __attribute__( ( always_inline ) ) static inline unsigned int __get_ipsr_value(void)
 487:Middlewares/ST/threadx/ports/cortex_m4/gnu/inc/tx_port.h **** {
 488:Middlewares/ST/threadx/ports/cortex_m4/gnu/inc/tx_port.h **** unsigned int  ipsr_value;
 489:Middlewares/ST/threadx/ports/cortex_m4/gnu/inc/tx_port.h ****     __asm__ volatile (" MRS  %0,IPSR ": "=r" (ipsr_value) );
 490:Middlewares/ST/threadx/ports/cortex_m4/gnu/inc/tx_port.h ****     return(ipsr_value);
 491:Middlewares/ST/threadx/ports/cortex_m4/gnu/inc/tx_port.h **** }
 492:Middlewares/ST/threadx/ports/cortex_m4/gnu/inc/tx_port.h **** 
 493:Middlewares/ST/threadx/ports/cortex_m4/gnu/inc/tx_port.h **** #define TX_THREAD_GET_SYSTEM_STATE()        (_tx_thread_system_state | __get_ipsr_value())
 494:Middlewares/ST/threadx/ports/cortex_m4/gnu/inc/tx_port.h **** 
 495:Middlewares/ST/threadx/ports/cortex_m4/gnu/inc/tx_port.h **** #elif defined(__ICCARM__)   /* IAR */
 496:Middlewares/ST/threadx/ports/cortex_m4/gnu/inc/tx_port.h **** 
 497:Middlewares/ST/threadx/ports/cortex_m4/gnu/inc/tx_port.h **** #define TX_THREAD_GET_SYSTEM_STATE()        (_tx_thread_system_state | __get_IPSR())
 498:Middlewares/ST/threadx/ports/cortex_m4/gnu/inc/tx_port.h **** 
 499:Middlewares/ST/threadx/ports/cortex_m4/gnu/inc/tx_port.h **** #endif  /* TX_THREAD_GET_SYSTEM_STATE for different compilers */
 500:Middlewares/ST/threadx/ports/cortex_m4/gnu/inc/tx_port.h **** 
 501:Middlewares/ST/threadx/ports/cortex_m4/gnu/inc/tx_port.h **** #else   /* TX_MISRA_ENABLE is defined, use MISRA function. */
 502:Middlewares/ST/threadx/ports/cortex_m4/gnu/inc/tx_port.h **** ULONG   _tx_misra_ipsr_get(VOID);
 503:Middlewares/ST/threadx/ports/cortex_m4/gnu/inc/tx_port.h **** #define TX_THREAD_GET_SYSTEM_STATE()        (_tx_thread_system_state | _tx_misra_ipsr_get())
 504:Middlewares/ST/threadx/ports/cortex_m4/gnu/inc/tx_port.h **** #endif  /* TX_MISRA_ENABLE */
 505:Middlewares/ST/threadx/ports/cortex_m4/gnu/inc/tx_port.h **** #endif  /* TX_THREAD_GET_SYSTEM_STATE */
 506:Middlewares/ST/threadx/ports/cortex_m4/gnu/inc/tx_port.h **** 
 507:Middlewares/ST/threadx/ports/cortex_m4/gnu/inc/tx_port.h **** 
 508:Middlewares/ST/threadx/ports/cortex_m4/gnu/inc/tx_port.h **** /* Define the check for whether or not to call the _tx_thread_system_return function.  A non-zero v
 509:Middlewares/ST/threadx/ports/cortex_m4/gnu/inc/tx_port.h ****    indicates that _tx_thread_system_return should not be called. This overrides the definition in t
 510:Middlewares/ST/threadx/ports/cortex_m4/gnu/inc/tx_port.h ****    for Cortex-M since so we don't waste time checking the _tx_thread_system_state variable that is 
 511:Middlewares/ST/threadx/ports/cortex_m4/gnu/inc/tx_port.h ****    zero after initialization for Cortex-M ports. */
 512:Middlewares/ST/threadx/ports/cortex_m4/gnu/inc/tx_port.h **** 
 513:Middlewares/ST/threadx/ports/cortex_m4/gnu/inc/tx_port.h **** #ifndef TX_THREAD_SYSTEM_RETURN_CHECK
 514:Middlewares/ST/threadx/ports/cortex_m4/gnu/inc/tx_port.h **** #define TX_THREAD_SYSTEM_RETURN_CHECK(c)    (c) = ((ULONG) _tx_thread_preempt_disable);
 515:Middlewares/ST/threadx/ports/cortex_m4/gnu/inc/tx_port.h **** #endif
 516:Middlewares/ST/threadx/ports/cortex_m4/gnu/inc/tx_port.h **** 
 517:Middlewares/ST/threadx/ports/cortex_m4/gnu/inc/tx_port.h **** /* Define the macro to ensure _tx_thread_preempt_disable is set early in initialization in order to
 518:Middlewares/ST/threadx/ports/cortex_m4/gnu/inc/tx_port.h ****    prevent early scheduling on Cortex-M parts.  */
 519:Middlewares/ST/threadx/ports/cortex_m4/gnu/inc/tx_port.h **** 
 520:Middlewares/ST/threadx/ports/cortex_m4/gnu/inc/tx_port.h **** #define TX_PORT_SPECIFIC_POST_INITIALIZATION    _tx_thread_preempt_disable++;
 521:Middlewares/ST/threadx/ports/cortex_m4/gnu/inc/tx_port.h **** 
ARM GAS  C:\Users\HP\AppData\Local\Temp\ccvQoPMk.s 			page 21


 522:Middlewares/ST/threadx/ports/cortex_m4/gnu/inc/tx_port.h **** 
 523:Middlewares/ST/threadx/ports/cortex_m4/gnu/inc/tx_port.h **** 
 524:Middlewares/ST/threadx/ports/cortex_m4/gnu/inc/tx_port.h **** 
 525:Middlewares/ST/threadx/ports/cortex_m4/gnu/inc/tx_port.h **** #ifndef TX_DISABLE_INLINE
 526:Middlewares/ST/threadx/ports/cortex_m4/gnu/inc/tx_port.h **** 
 527:Middlewares/ST/threadx/ports/cortex_m4/gnu/inc/tx_port.h **** /* Define the TX_LOWEST_SET_BIT_CALCULATE macro for each compiler. */
 528:Middlewares/ST/threadx/ports/cortex_m4/gnu/inc/tx_port.h **** #ifdef __ICCARM__       /* IAR Compiler */
 529:Middlewares/ST/threadx/ports/cortex_m4/gnu/inc/tx_port.h **** #define TX_LOWEST_SET_BIT_CALCULATE(m, b)       (b) = (UINT) __CLZ(__RBIT((m)));
 530:Middlewares/ST/threadx/ports/cortex_m4/gnu/inc/tx_port.h **** #elif defined(__CC_ARM) /* AC5 Compiler */
 531:Middlewares/ST/threadx/ports/cortex_m4/gnu/inc/tx_port.h **** #define TX_LOWEST_SET_BIT_CALCULATE(m, b)       (b) = (UINT) __clz(__rbit((m)));
 532:Middlewares/ST/threadx/ports/cortex_m4/gnu/inc/tx_port.h **** #elif defined(__GNUC__) /* GCC and AC6 Compiler */
 533:Middlewares/ST/threadx/ports/cortex_m4/gnu/inc/tx_port.h **** #define TX_LOWEST_SET_BIT_CALCULATE(m, b)       __asm__ volatile (" RBIT %0,%1 ": "=r" (m) : "r" (m
 534:Middlewares/ST/threadx/ports/cortex_m4/gnu/inc/tx_port.h ****                                                 __asm__ volatile (" CLZ  %0,%1 ": "=r" (b) : "r" (m
 535:Middlewares/ST/threadx/ports/cortex_m4/gnu/inc/tx_port.h **** #endif
 536:Middlewares/ST/threadx/ports/cortex_m4/gnu/inc/tx_port.h **** 
 537:Middlewares/ST/threadx/ports/cortex_m4/gnu/inc/tx_port.h **** 
 538:Middlewares/ST/threadx/ports/cortex_m4/gnu/inc/tx_port.h **** 
 539:Middlewares/ST/threadx/ports/cortex_m4/gnu/inc/tx_port.h **** /* Define the interrupt disable/restore macros for each compiler. */
 540:Middlewares/ST/threadx/ports/cortex_m4/gnu/inc/tx_port.h **** 
 541:Middlewares/ST/threadx/ports/cortex_m4/gnu/inc/tx_port.h **** #if defined(__GNUC__) || defined(__ICCARM__)
 542:Middlewares/ST/threadx/ports/cortex_m4/gnu/inc/tx_port.h **** 
 543:Middlewares/ST/threadx/ports/cortex_m4/gnu/inc/tx_port.h **** /*** GCC/AC6 and IAR ***/
 544:Middlewares/ST/threadx/ports/cortex_m4/gnu/inc/tx_port.h **** 
 545:Middlewares/ST/threadx/ports/cortex_m4/gnu/inc/tx_port.h **** __attribute__( ( always_inline ) ) static inline unsigned int __get_interrupt_posture(void)
 546:Middlewares/ST/threadx/ports/cortex_m4/gnu/inc/tx_port.h **** {
 547:Middlewares/ST/threadx/ports/cortex_m4/gnu/inc/tx_port.h **** unsigned int posture;
 548:Middlewares/ST/threadx/ports/cortex_m4/gnu/inc/tx_port.h **** #ifdef TX_PORT_USE_BASEPRI
 549:Middlewares/ST/threadx/ports/cortex_m4/gnu/inc/tx_port.h ****     __asm__ volatile ("MRS  %0, BASEPRI ": "=r" (posture));
 550:Middlewares/ST/threadx/ports/cortex_m4/gnu/inc/tx_port.h **** #else
 551:Middlewares/ST/threadx/ports/cortex_m4/gnu/inc/tx_port.h ****     __asm__ volatile ("MRS  %0, PRIMASK ": "=r" (posture));
 552:Middlewares/ST/threadx/ports/cortex_m4/gnu/inc/tx_port.h **** #endif
 553:Middlewares/ST/threadx/ports/cortex_m4/gnu/inc/tx_port.h ****     return(posture);
 554:Middlewares/ST/threadx/ports/cortex_m4/gnu/inc/tx_port.h **** }
 555:Middlewares/ST/threadx/ports/cortex_m4/gnu/inc/tx_port.h **** 
 556:Middlewares/ST/threadx/ports/cortex_m4/gnu/inc/tx_port.h **** #ifdef TX_PORT_USE_BASEPRI
 557:Middlewares/ST/threadx/ports/cortex_m4/gnu/inc/tx_port.h **** __attribute__( ( always_inline ) ) static inline void __set_basepri_value(unsigned int basepri_valu
 558:Middlewares/ST/threadx/ports/cortex_m4/gnu/inc/tx_port.h **** {
 559:Middlewares/ST/threadx/ports/cortex_m4/gnu/inc/tx_port.h ****     __asm__ volatile ("MSR  BASEPRI,%0 ": : "r" (basepri_value));
 560:Middlewares/ST/threadx/ports/cortex_m4/gnu/inc/tx_port.h **** }
 561:Middlewares/ST/threadx/ports/cortex_m4/gnu/inc/tx_port.h **** #else
 562:Middlewares/ST/threadx/ports/cortex_m4/gnu/inc/tx_port.h **** __attribute__( ( always_inline ) ) static inline void __enable_interrupts(void)
 563:Middlewares/ST/threadx/ports/cortex_m4/gnu/inc/tx_port.h **** {
 564:Middlewares/ST/threadx/ports/cortex_m4/gnu/inc/tx_port.h ****     __asm__ volatile ("CPSIE  i": : : "memory");
 565:Middlewares/ST/threadx/ports/cortex_m4/gnu/inc/tx_port.h **** }
 566:Middlewares/ST/threadx/ports/cortex_m4/gnu/inc/tx_port.h **** #endif
 567:Middlewares/ST/threadx/ports/cortex_m4/gnu/inc/tx_port.h **** 
 568:Middlewares/ST/threadx/ports/cortex_m4/gnu/inc/tx_port.h **** __attribute__( ( always_inline ) ) static inline void __restore_interrupt(unsigned int int_posture)
 569:Middlewares/ST/threadx/ports/cortex_m4/gnu/inc/tx_port.h **** {
 570:Middlewares/ST/threadx/ports/cortex_m4/gnu/inc/tx_port.h **** #ifdef TX_PORT_USE_BASEPRI
 571:Middlewares/ST/threadx/ports/cortex_m4/gnu/inc/tx_port.h ****     __set_basepri_value(int_posture);
 572:Middlewares/ST/threadx/ports/cortex_m4/gnu/inc/tx_port.h ****     //__asm__ volatile ("MSR  BASEPRI,%0": : "r" (int_posture): "memory");
 573:Middlewares/ST/threadx/ports/cortex_m4/gnu/inc/tx_port.h **** #else
 574:Middlewares/ST/threadx/ports/cortex_m4/gnu/inc/tx_port.h ****     __asm__ volatile ("MSR  PRIMASK,%0": : "r" (int_posture): "memory");
 575:Middlewares/ST/threadx/ports/cortex_m4/gnu/inc/tx_port.h **** #endif
 576:Middlewares/ST/threadx/ports/cortex_m4/gnu/inc/tx_port.h **** }
 577:Middlewares/ST/threadx/ports/cortex_m4/gnu/inc/tx_port.h **** 
 578:Middlewares/ST/threadx/ports/cortex_m4/gnu/inc/tx_port.h **** __attribute__( ( always_inline ) ) static inline unsigned int __disable_interrupts(void)
ARM GAS  C:\Users\HP\AppData\Local\Temp\ccvQoPMk.s 			page 22


 147              		.loc 2 578 63 view .LVU40
 148              	.LBB18:
 579:Middlewares/ST/threadx/ports/cortex_m4/gnu/inc/tx_port.h **** {
 580:Middlewares/ST/threadx/ports/cortex_m4/gnu/inc/tx_port.h **** unsigned int int_posture;
 149              		.loc 2 580 1 view .LVU41
 581:Middlewares/ST/threadx/ports/cortex_m4/gnu/inc/tx_port.h **** 
 582:Middlewares/ST/threadx/ports/cortex_m4/gnu/inc/tx_port.h ****     int_posture = __get_interrupt_posture();
 150              		.loc 2 582 5 view .LVU42
 151              	.LBB19:
 152              	.LBI19:
 545:Middlewares/ST/threadx/ports/cortex_m4/gnu/inc/tx_port.h **** {
 153              		.loc 2 545 63 view .LVU43
 154              	.LBB20:
 547:Middlewares/ST/threadx/ports/cortex_m4/gnu/inc/tx_port.h **** #ifdef TX_PORT_USE_BASEPRI
 155              		.loc 2 547 1 view .LVU44
 551:Middlewares/ST/threadx/ports/cortex_m4/gnu/inc/tx_port.h **** #endif
 156              		.loc 2 551 5 view .LVU45
 157              		.syntax unified
 158              	@ 551 "Middlewares/ST/threadx/ports/cortex_m4/gnu/inc/tx_port.h" 1
 159 005a EFF31083 		MRS  r3, PRIMASK 
 160              	@ 0 "" 2
 161              	.LVL15:
 553:Middlewares/ST/threadx/ports/cortex_m4/gnu/inc/tx_port.h **** }
 162              		.loc 2 553 5 view .LVU46
 553:Middlewares/ST/threadx/ports/cortex_m4/gnu/inc/tx_port.h **** }
 163              		.loc 2 553 5 is_stmt 0 view .LVU47
 164              		.thumb
 165              		.syntax unified
 166              	.LBE20:
 167              	.LBE19:
 583:Middlewares/ST/threadx/ports/cortex_m4/gnu/inc/tx_port.h **** 
 584:Middlewares/ST/threadx/ports/cortex_m4/gnu/inc/tx_port.h **** #ifdef TX_PORT_USE_BASEPRI
 585:Middlewares/ST/threadx/ports/cortex_m4/gnu/inc/tx_port.h ****     __set_basepri_value(TX_PORT_BASEPRI);
 586:Middlewares/ST/threadx/ports/cortex_m4/gnu/inc/tx_port.h **** #else
 587:Middlewares/ST/threadx/ports/cortex_m4/gnu/inc/tx_port.h ****     __asm__ volatile ("CPSID i" : : : "memory");
 168              		.loc 2 587 5 is_stmt 1 view .LVU48
 169              		.syntax unified
 170              	@ 587 "Middlewares/ST/threadx/ports/cortex_m4/gnu/inc/tx_port.h" 1
 171 005e 72B6     		CPSID i
 172              	@ 0 "" 2
 588:Middlewares/ST/threadx/ports/cortex_m4/gnu/inc/tx_port.h **** #endif
 589:Middlewares/ST/threadx/ports/cortex_m4/gnu/inc/tx_port.h ****     return(int_posture);
 173              		.loc 2 589 5 view .LVU49
 174              	.LVL16:
 175              		.loc 2 589 5 is_stmt 0 view .LVU50
 176              		.thumb
 177              		.syntax unified
 178              	.LBE18:
 179              	.LBE17:
 140:Middlewares/ST/filex/common/src/fx_media_close.c ****             file_ptr -> fx_file_dir_entry.fx_dir_entry_date =  _fx_system_date;
 180              		.loc 1 140 13 is_stmt 1 view .LVU51
 140:Middlewares/ST/filex/common/src/fx_media_close.c ****             file_ptr -> fx_file_dir_entry.fx_dir_entry_date =  _fx_system_date;
 181              		.loc 1 140 61 is_stmt 0 view .LVU52
 182 0060 7F4A     		ldr	r2, .L25+8
 183 0062 1268     		ldr	r2, [r2]
 184 0064 C4F89420 		str	r2, [r4, #148]
 141:Middlewares/ST/filex/common/src/fx_media_close.c **** 
ARM GAS  C:\Users\HP\AppData\Local\Temp\ccvQoPMk.s 			page 23


 185              		.loc 1 141 13 is_stmt 1 view .LVU53
 141:Middlewares/ST/filex/common/src/fx_media_close.c **** 
 186              		.loc 1 141 61 is_stmt 0 view .LVU54
 187 0068 7E4A     		ldr	r2, .L25+12
 188 006a 1268     		ldr	r2, [r2]
 189 006c C4F89820 		str	r2, [r4, #152]
 144:Middlewares/ST/filex/common/src/fx_media_close.c **** 
 190              		.loc 1 144 13 is_stmt 1 view .LVU55
 191              	.LVL17:
 192              	.LBB21:
 193              	.LBI21:
 568:Middlewares/ST/threadx/ports/cortex_m4/gnu/inc/tx_port.h **** {
 194              		.loc 2 568 55 view .LVU56
 195              	.LBB22:
 574:Middlewares/ST/threadx/ports/cortex_m4/gnu/inc/tx_port.h **** #endif
 196              		.loc 2 574 5 view .LVU57
 197              		.syntax unified
 198              	@ 574 "Middlewares/ST/threadx/ports/cortex_m4/gnu/inc/tx_port.h" 1
 199 0070 83F31088 		MSR  PRIMASK,r3
 200              	@ 0 "" 2
 201              	.LVL18:
 574:Middlewares/ST/threadx/ports/cortex_m4/gnu/inc/tx_port.h **** #endif
 202              		.loc 2 574 5 is_stmt 0 view .LVU58
 203              		.thumb
 204              		.syntax unified
 205              	.LBE22:
 206              	.LBE21:
 147:Middlewares/ST/filex/common/src/fx_media_close.c ****                 file_ptr -> fx_file_current_file_size;
 207              		.loc 1 147 13 is_stmt 1 view .LVU59
 148:Middlewares/ST/filex/common/src/fx_media_close.c **** 
 208              		.loc 1 148 26 is_stmt 0 view .LVU60
 209 0074 D4E91223 		ldrd	r2, [r4, #72]
 147:Middlewares/ST/filex/common/src/fx_media_close.c ****                 file_ptr -> fx_file_current_file_size;
 210              		.loc 1 147 66 view .LVU61
 211 0078 C4E92823 		strd	r2, [r4, #160]
 160:Middlewares/ST/filex/common/src/fx_media_close.c **** #ifdef FX_ENABLE_EXFAT
 212              		.loc 1 160 17 is_stmt 1 view .LVU62
 160:Middlewares/ST/filex/common/src/fx_media_close.c **** #ifdef FX_ENABLE_EXFAT
 213              		.loc 1 160 26 is_stmt 0 view .LVU63
 214 007c 04F16801 		add	r1, r4, #104
 215 0080 3046     		mov	r0, r6
 216 0082 FFF7FEFF 		bl	_fx_directory_entry_write
 217              	.LVL19:
 166:Middlewares/ST/filex/common/src/fx_media_close.c ****             {
 218              		.loc 1 166 13 is_stmt 1 view .LVU64
 166:Middlewares/ST/filex/common/src/fx_media_close.c ****             {
 219              		.loc 1 166 16 is_stmt 0 view .LVU65
 220 0086 0028     		cmp	r0, #0
 221 0088 D4D1     		bne	.L18
 180:Middlewares/ST/filex/common/src/fx_media_close.c ****         }
 222              		.loc 1 180 13 is_stmt 1 view .LVU66
 180:Middlewares/ST/filex/common/src/fx_media_close.c ****         }
 223              		.loc 1 180 42 is_stmt 0 view .LVU67
 224 008a 0023     		movs	r3, #0
 225 008c 2373     		strb	r3, [r4, #12]
 226 008e D9E7     		b	.L4
 227              	.LVL20:
ARM GAS  C:\Users\HP\AppData\Local\Temp\ccvQoPMk.s 			page 24


 228              	.L17:
 193:Middlewares/ST/filex/common/src/fx_media_close.c **** 
 229              		.loc 1 193 5 is_stmt 1 view .LVU68
 230 0090 3046     		mov	r0, r6
 231 0092 FFF7FEFF 		bl	_fx_utility_FAT_flush
 232              	.LVL21:
 196:Middlewares/ST/filex/common/src/fx_media_close.c **** 
 233              		.loc 1 196 5 view .LVU69
 234 0096 3046     		mov	r0, r6
 235 0098 FFF7FEFF 		bl	_fx_utility_FAT_map_flush
 236              	.LVL22:
 209:Middlewares/ST/filex/common/src/fx_media_close.c **** 
 237              		.loc 1 209 5 view .LVU70
 209:Middlewares/ST/filex/common/src/fx_media_close.c **** 
 238              		.loc 1 209 95 is_stmt 0 view .LVU71
 239 009c D6E90E23 		ldrd	r2, [r6, #56]
 209:Middlewares/ST/filex/common/src/fx_media_close.c **** 
 240              		.loc 1 209 15 view .LVU72
 241 00a0 0021     		movs	r1, #0
 242 00a2 0291     		str	r1, [sp, #8]
 243 00a4 CDE90023 		strd	r2, [sp]
 244 00a8 0122     		movs	r2, #1
 245 00aa 0023     		movs	r3, #0
 246 00ac 3046     		mov	r0, r6
 247 00ae FFF7FEFF 		bl	_fx_utility_logical_sector_flush
 248              	.LVL23:
 212:Middlewares/ST/filex/common/src/fx_media_close.c ****     {
 249              		.loc 1 212 5 is_stmt 1 view .LVU73
 212:Middlewares/ST/filex/common/src/fx_media_close.c ****     {
 250              		.loc 1 212 8 is_stmt 0 view .LVU74
 251 00b2 0446     		mov	r4, r0
 252              	.LVL24:
 212:Middlewares/ST/filex/common/src/fx_media_close.c ****     {
 253              		.loc 1 212 8 view .LVU75
 254 00b4 0028     		cmp	r0, #0
 255 00b6 78D1     		bne	.L19
 228:Middlewares/ST/filex/common/src/fx_media_close.c ****         (media_ptr -> fx_media_FAT32_additional_info_last_available != media_ptr -> fx_media_availa
 256              		.loc 1 228 5 is_stmt 1 view .LVU76
 228:Middlewares/ST/filex/common/src/fx_media_close.c ****         (media_ptr -> fx_media_FAT32_additional_info_last_available != media_ptr -> fx_media_availa
 257              		.loc 1 228 20 is_stmt 0 view .LVU77
 258 00b8 B36E     		ldr	r3, [r6, #104]
 228:Middlewares/ST/filex/common/src/fx_media_close.c ****         (media_ptr -> fx_media_FAT32_additional_info_last_available != media_ptr -> fx_media_availa
 259              		.loc 1 228 8 view .LVU78
 260 00ba 002B     		cmp	r3, #0
 261 00bc 36D0     		beq	.L8
 229:Middlewares/ST/filex/common/src/fx_media_close.c ****         (media_ptr -> fx_media_driver_write_protect == FX_FALSE))
 262              		.loc 1 229 20 discriminator 1 view .LVU79
 263 00be F26E     		ldr	r2, [r6, #108]
 229:Middlewares/ST/filex/common/src/fx_media_close.c ****         (media_ptr -> fx_media_driver_write_protect == FX_FALSE))
 264              		.loc 1 229 82 discriminator 1 view .LVU80
 265 00c0 F36F     		ldr	r3, [r6, #124]
 228:Middlewares/ST/filex/common/src/fx_media_close.c ****         (media_ptr -> fx_media_FAT32_additional_info_last_available != media_ptr -> fx_media_availa
 266              		.loc 1 228 62 discriminator 1 view .LVU81
 267 00c2 9A42     		cmp	r2, r3
 268 00c4 32D0     		beq	.L8
 230:Middlewares/ST/filex/common/src/fx_media_close.c ****     {
 269              		.loc 1 230 20 view .LVU82
ARM GAS  C:\Users\HP\AppData\Local\Temp\ccvQoPMk.s 			page 25


 270 00c6 D6F8A830 		ldr	r3, [r6, #168]
 229:Middlewares/ST/filex/common/src/fx_media_close.c ****         (media_ptr -> fx_media_driver_write_protect == FX_FALSE))
 271              		.loc 1 229 114 view .LVU83
 272 00ca 7BBB     		cbnz	r3, .L8
 273              	.LBB23:
 233:Middlewares/ST/filex/common/src/fx_media_close.c ****     ULONG  signature;
 274              		.loc 1 233 5 is_stmt 1 view .LVU84
 234:Middlewares/ST/filex/common/src/fx_media_close.c **** 
 275              		.loc 1 234 5 view .LVU85
 239:Middlewares/ST/filex/common/src/fx_media_close.c **** 
 276              		.loc 1 239 9 view .LVU86
 239:Middlewares/ST/filex/common/src/fx_media_close.c **** 
 277              		.loc 1 239 34 is_stmt 0 view .LVU87
 278 00cc F369     		ldr	r3, [r6, #28]
 239:Middlewares/ST/filex/common/src/fx_media_close.c **** 
 279              		.loc 1 239 20 view .LVU88
 280 00ce 1A68     		ldr	r2, [r3]
 281              	.LVL25:
 242:Middlewares/ST/filex/common/src/fx_media_close.c ****         (media_ptr -> fx_media_sector_cache_list_ptr) -> fx_cached_sector_valid =  FX_FALSE;
 282              		.loc 1 242 9 is_stmt 1 view .LVU89
 242:Middlewares/ST/filex/common/src/fx_media_close.c ****         (media_ptr -> fx_media_sector_cache_list_ptr) -> fx_cached_sector_valid =  FX_FALSE;
 283              		.loc 1 242 75 is_stmt 0 view .LVU90
 284 00d0 4FF0FF30 		mov	r0, #-1
 285              	.LVL26:
 242:Middlewares/ST/filex/common/src/fx_media_close.c ****         (media_ptr -> fx_media_sector_cache_list_ptr) -> fx_cached_sector_valid =  FX_FALSE;
 286              		.loc 1 242 75 view .LVU91
 287 00d4 4FF0FF31 		mov	r1, #-1
 288 00d8 C3E90201 		strd	r0, [r3, #8]
 243:Middlewares/ST/filex/common/src/fx_media_close.c **** #else
 289              		.loc 1 243 9 is_stmt 1 view .LVU92
 243:Middlewares/ST/filex/common/src/fx_media_close.c **** #else
 290              		.loc 1 243 20 is_stmt 0 view .LVU93
 291 00dc F169     		ldr	r1, [r6, #28]
 243:Middlewares/ST/filex/common/src/fx_media_close.c **** #else
 292              		.loc 1 243 81 view .LVU94
 293 00de 0023     		movs	r3, #0
 294 00e0 4B74     		strb	r3, [r1, #17]
 249:Middlewares/ST/filex/common/src/fx_media_close.c ****         media_ptr -> fx_media_driver_status =           FX_IO_ERROR;
 295              		.loc 1 249 9 is_stmt 1 view .LVU95
 249:Middlewares/ST/filex/common/src/fx_media_close.c ****         media_ptr -> fx_media_driver_status =           FX_IO_ERROR;
 296              		.loc 1 249 46 is_stmt 0 view .LVU96
 297 00e2 C6F88830 		str	r3, [r6, #136]
 250:Middlewares/ST/filex/common/src/fx_media_close.c ****         media_ptr -> fx_media_driver_buffer =           buffer_ptr;
 298              		.loc 1 250 9 is_stmt 1 view .LVU97
 250:Middlewares/ST/filex/common/src/fx_media_close.c ****         media_ptr -> fx_media_driver_buffer =           buffer_ptr;
 299              		.loc 1 250 45 is_stmt 0 view .LVU98
 300 00e6 9023     		movs	r3, #144
 301 00e8 C6F88C30 		str	r3, [r6, #140]
 251:Middlewares/ST/filex/common/src/fx_media_close.c ****         media_ptr -> fx_media_driver_logical_sector =   media_ptr -> fx_media_FAT32_additional_info
 302              		.loc 1 251 9 is_stmt 1 view .LVU99
 251:Middlewares/ST/filex/common/src/fx_media_close.c ****         media_ptr -> fx_media_driver_logical_sector =   media_ptr -> fx_media_FAT32_additional_info
 303              		.loc 1 251 45 is_stmt 0 view .LVU100
 304 00ec C6F89020 		str	r2, [r6, #144]
 252:Middlewares/ST/filex/common/src/fx_media_close.c ****         media_ptr -> fx_media_driver_sectors =          1;
 305              		.loc 1 252 9 is_stmt 1 view .LVU101
 252:Middlewares/ST/filex/common/src/fx_media_close.c ****         media_ptr -> fx_media_driver_sectors =          1;
 306              		.loc 1 252 67 is_stmt 0 view .LVU102
ARM GAS  C:\Users\HP\AppData\Local\Temp\ccvQoPMk.s 			page 26


 307 00f0 B36E     		ldr	r3, [r6, #104]
 252:Middlewares/ST/filex/common/src/fx_media_close.c ****         media_ptr -> fx_media_driver_sectors =          1;
 308              		.loc 1 252 53 view .LVU103
 309 00f2 C6F89430 		str	r3, [r6, #148]
 253:Middlewares/ST/filex/common/src/fx_media_close.c ****         media_ptr -> fx_media_driver_sector_type =      FX_DIRECTORY_SECTOR;
 310              		.loc 1 253 9 is_stmt 1 view .LVU104
 253:Middlewares/ST/filex/common/src/fx_media_close.c ****         media_ptr -> fx_media_driver_sector_type =      FX_DIRECTORY_SECTOR;
 311              		.loc 1 253 46 is_stmt 0 view .LVU105
 312 00f6 0123     		movs	r3, #1
 313 00f8 C6F89830 		str	r3, [r6, #152]
 254:Middlewares/ST/filex/common/src/fx_media_close.c **** 
 314              		.loc 1 254 9 is_stmt 1 view .LVU106
 254:Middlewares/ST/filex/common/src/fx_media_close.c **** 
 315              		.loc 1 254 50 is_stmt 0 view .LVU107
 316 00fc 0323     		movs	r3, #3
 317 00fe C6F8B830 		str	r3, [r6, #184]
 259:Middlewares/ST/filex/common/src/fx_media_close.c **** #endif
 318              		.loc 1 259 9 is_stmt 1 view .LVU108
 259:Middlewares/ST/filex/common/src/fx_media_close.c **** #endif
 319              		.loc 1 259 19 is_stmt 0 view .LVU109
 320 0102 D6F8AC31 		ldr	r3, [r6, #428]
 259:Middlewares/ST/filex/common/src/fx_media_close.c **** #endif
 321              		.loc 1 259 51 view .LVU110
 322 0106 0133     		adds	r3, r3, #1
 323 0108 C6F8AC31 		str	r3, [r6, #428]
 266:Middlewares/ST/filex/common/src/fx_media_close.c **** 
 324              		.loc 1 266 9 is_stmt 1 view .LVU111
 266:Middlewares/ST/filex/common/src/fx_media_close.c **** 
 325              		.loc 1 266 20 is_stmt 0 view .LVU112
 326 010c D6F8BC30 		ldr	r3, [r6, #188]
 327 0110 3046     		mov	r0, r6
 328 0112 9847     		blx	r3
 329              	.LVL27:
 269:Middlewares/ST/filex/common/src/fx_media_close.c ****         {
 330              		.loc 1 269 9 is_stmt 1 view .LVU113
 269:Middlewares/ST/filex/common/src/fx_media_close.c ****         {
 331              		.loc 1 269 23 is_stmt 0 view .LVU114
 332 0114 D6F88C30 		ldr	r3, [r6, #140]
 269:Middlewares/ST/filex/common/src/fx_media_close.c ****         {
 333              		.loc 1 269 12 view .LVU115
 334 0118 002B     		cmp	r3, #0
 335 011a 4ED1     		bne	.L20
 283:Middlewares/ST/filex/common/src/fx_media_close.c **** 
 336              		.loc 1 283 9 is_stmt 1 view .LVU116
 283:Middlewares/ST/filex/common/src/fx_media_close.c **** 
 337              		.loc 1 283 20 is_stmt 0 view .LVU117
 338 011c D6F89050 		ldr	r5, [r6, #144]
 339              	.LVL28:
 286:Middlewares/ST/filex/common/src/fx_media_close.c **** 
 340              		.loc 1 286 9 is_stmt 1 view .LVU118
 286:Middlewares/ST/filex/common/src/fx_media_close.c **** 
 341              		.loc 1 286 22 is_stmt 0 view .LVU119
 342 0120 2846     		mov	r0, r5
 343 0122 FFF7FEFF 		bl	_fx_utility_32_unsigned_read
 344              	.LVL29:
 289:Middlewares/ST/filex/common/src/fx_media_close.c ****         {
 345              		.loc 1 289 9 is_stmt 1 view .LVU120
ARM GAS  C:\Users\HP\AppData\Local\Temp\ccvQoPMk.s 			page 27


 289:Middlewares/ST/filex/common/src/fx_media_close.c ****         {
 346              		.loc 1 289 12 is_stmt 0 view .LVU121
 347 0126 504B     		ldr	r3, .L25+16
 348 0128 9842     		cmp	r0, r3
 349 012a 4ED0     		beq	.L21
 350              	.LVL30:
 351              	.L8:
 289:Middlewares/ST/filex/common/src/fx_media_close.c ****         {
 352              		.loc 1 289 12 view .LVU122
 353              	.LBE23:
 357:Middlewares/ST/filex/common/src/fx_media_close.c **** #endif
 354              		.loc 1 357 5 is_stmt 1 view .LVU123
 357:Middlewares/ST/filex/common/src/fx_media_close.c **** #endif
 355              		.loc 1 357 15 is_stmt 0 view .LVU124
 356 012c D6F8C031 		ldr	r3, [r6, #448]
 357:Middlewares/ST/filex/common/src/fx_media_close.c **** #endif
 357              		.loc 1 357 48 view .LVU125
 358 0130 0133     		adds	r3, r3, #1
 359 0132 C6F8C031 		str	r3, [r6, #448]
 361:Middlewares/ST/filex/common/src/fx_media_close.c ****     media_ptr -> fx_media_driver_status =       FX_IO_ERROR;
 360              		.loc 1 361 5 is_stmt 1 view .LVU126
 361:Middlewares/ST/filex/common/src/fx_media_close.c ****     media_ptr -> fx_media_driver_status =       FX_IO_ERROR;
 361              		.loc 1 361 42 is_stmt 0 view .LVU127
 362 0136 0223     		movs	r3, #2
 363 0138 C6F88830 		str	r3, [r6, #136]
 362:Middlewares/ST/filex/common/src/fx_media_close.c **** 
 364              		.loc 1 362 5 is_stmt 1 view .LVU128
 362:Middlewares/ST/filex/common/src/fx_media_close.c **** 
 365              		.loc 1 362 41 is_stmt 0 view .LVU129
 366 013c 9025     		movs	r5, #144
 367 013e C6F88C50 		str	r5, [r6, #140]
 368:Middlewares/ST/filex/common/src/fx_media_close.c **** 
 368              		.loc 1 368 5 is_stmt 1 view .LVU130
 368:Middlewares/ST/filex/common/src/fx_media_close.c **** 
 369              		.loc 1 368 16 is_stmt 0 view .LVU131
 370 0142 D6F8BC30 		ldr	r3, [r6, #188]
 371 0146 3046     		mov	r0, r6
 372 0148 9847     		blx	r3
 373              	.LVL31:
 371:Middlewares/ST/filex/common/src/fx_media_close.c ****     media_ptr -> fx_media_driver_status =       FX_IO_ERROR;
 374              		.loc 1 371 5 is_stmt 1 view .LVU132
 371:Middlewares/ST/filex/common/src/fx_media_close.c ****     media_ptr -> fx_media_driver_status =       FX_IO_ERROR;
 375              		.loc 1 371 42 is_stmt 0 view .LVU133
 376 014a 0823     		movs	r3, #8
 377 014c C6F88830 		str	r3, [r6, #136]
 372:Middlewares/ST/filex/common/src/fx_media_close.c **** 
 378              		.loc 1 372 5 is_stmt 1 view .LVU134
 372:Middlewares/ST/filex/common/src/fx_media_close.c **** 
 379              		.loc 1 372 41 is_stmt 0 view .LVU135
 380 0150 C6F88C50 		str	r5, [r6, #140]
 378:Middlewares/ST/filex/common/src/fx_media_close.c **** 
 381              		.loc 1 378 5 is_stmt 1 view .LVU136
 378:Middlewares/ST/filex/common/src/fx_media_close.c **** 
 382              		.loc 1 378 16 is_stmt 0 view .LVU137
 383 0154 D6F8BC30 		ldr	r3, [r6, #188]
 384 0158 3046     		mov	r0, r6
 385 015a 9847     		blx	r3
ARM GAS  C:\Users\HP\AppData\Local\Temp\ccvQoPMk.s 			page 28


 386              	.LVL32:
 383:Middlewares/ST/filex/common/src/fx_media_close.c **** 
 387              		.loc 1 383 5 is_stmt 1 view .LVU138
 388              	.LBB24:
 389              	.LBI24:
 578:Middlewares/ST/threadx/ports/cortex_m4/gnu/inc/tx_port.h **** {
 390              		.loc 2 578 63 view .LVU139
 391              	.LBB25:
 580:Middlewares/ST/threadx/ports/cortex_m4/gnu/inc/tx_port.h **** 
 392              		.loc 2 580 1 view .LVU140
 582:Middlewares/ST/threadx/ports/cortex_m4/gnu/inc/tx_port.h **** 
 393              		.loc 2 582 5 view .LVU141
 394              	.LBB26:
 395              	.LBI26:
 545:Middlewares/ST/threadx/ports/cortex_m4/gnu/inc/tx_port.h **** {
 396              		.loc 2 545 63 view .LVU142
 397              	.LBB27:
 547:Middlewares/ST/threadx/ports/cortex_m4/gnu/inc/tx_port.h **** #ifdef TX_PORT_USE_BASEPRI
 398              		.loc 2 547 1 view .LVU143
 551:Middlewares/ST/threadx/ports/cortex_m4/gnu/inc/tx_port.h **** #endif
 399              		.loc 2 551 5 view .LVU144
 400              		.syntax unified
 401              	@ 551 "Middlewares/ST/threadx/ports/cortex_m4/gnu/inc/tx_port.h" 1
 402 015c EFF31082 		MRS  r2, PRIMASK 
 403              	@ 0 "" 2
 404              	.LVL33:
 553:Middlewares/ST/threadx/ports/cortex_m4/gnu/inc/tx_port.h **** }
 405              		.loc 2 553 5 view .LVU145
 553:Middlewares/ST/threadx/ports/cortex_m4/gnu/inc/tx_port.h **** }
 406              		.loc 2 553 5 is_stmt 0 view .LVU146
 407              		.thumb
 408              		.syntax unified
 409              	.LBE27:
 410              	.LBE26:
 587:Middlewares/ST/threadx/ports/cortex_m4/gnu/inc/tx_port.h **** #endif
 411              		.loc 2 587 5 is_stmt 1 view .LVU147
 412              		.syntax unified
 413              	@ 587 "Middlewares/ST/threadx/ports/cortex_m4/gnu/inc/tx_port.h" 1
 414 0160 72B6     		CPSID i
 415              	@ 0 "" 2
 416              		.loc 2 589 5 view .LVU148
 417              	.LVL34:
 418              		.loc 2 589 5 is_stmt 0 view .LVU149
 419              		.thumb
 420              		.syntax unified
 421              	.LBE25:
 422              	.LBE24:
 386:Middlewares/ST/filex/common/src/fx_media_close.c ****     {
 423              		.loc 1 386 5 is_stmt 1 view .LVU150
 386:Middlewares/ST/filex/common/src/fx_media_close.c ****     {
 424              		.loc 1 386 39 is_stmt 0 view .LVU151
 425 0162 424B     		ldr	r3, .L25+20
 426 0164 1B68     		ldr	r3, [r3]
 386:Middlewares/ST/filex/common/src/fx_media_close.c ****     {
 427              		.loc 1 386 8 view .LVU152
 428 0166 012B     		cmp	r3, #1
 429 0168 6DD0     		beq	.L22
ARM GAS  C:\Users\HP\AppData\Local\Temp\ccvQoPMk.s 			page 29


 396:Middlewares/ST/filex/common/src/fx_media_close.c ****             media_ptr -> fx_media_opened_previous;
 430              		.loc 1 396 9 is_stmt 1 view .LVU153
 396:Middlewares/ST/filex/common/src/fx_media_close.c ****             media_ptr -> fx_media_opened_previous;
 431              		.loc 1 396 20 is_stmt 0 view .LVU154
 432 016a D6F8D000 		ldr	r0, [r6, #208]
 397:Middlewares/ST/filex/common/src/fx_media_close.c ****         (media_ptr -> fx_media_opened_previous) -> fx_media_opened_next =
 433              		.loc 1 397 23 view .LVU155
 434 016e D6F8D410 		ldr	r1, [r6, #212]
 396:Middlewares/ST/filex/common/src/fx_media_close.c ****             media_ptr -> fx_media_opened_previous;
 435              		.loc 1 396 73 view .LVU156
 436 0172 C0F8D410 		str	r1, [r0, #212]
 398:Middlewares/ST/filex/common/src/fx_media_close.c ****             media_ptr -> fx_media_opened_next;
 437              		.loc 1 398 9 is_stmt 1 view .LVU157
 399:Middlewares/ST/filex/common/src/fx_media_close.c **** 
 438              		.loc 1 399 23 is_stmt 0 view .LVU158
 439 0176 D6F8D000 		ldr	r0, [r6, #208]
 398:Middlewares/ST/filex/common/src/fx_media_close.c ****             media_ptr -> fx_media_opened_next;
 440              		.loc 1 398 73 view .LVU159
 441 017a C1F8D000 		str	r0, [r1, #208]
 402:Middlewares/ST/filex/common/src/fx_media_close.c ****         {
 442              		.loc 1 402 9 is_stmt 1 view .LVU160
 402:Middlewares/ST/filex/common/src/fx_media_close.c ****         {
 443              		.loc 1 402 41 is_stmt 0 view .LVU161
 444 017e 3C49     		ldr	r1, .L25+24
 445 0180 0968     		ldr	r1, [r1]
 402:Middlewares/ST/filex/common/src/fx_media_close.c ****         {
 446              		.loc 1 402 12 view .LVU162
 447 0182 B142     		cmp	r1, r6
 448 0184 63D0     		beq	.L23
 449              	.L12:
 411:Middlewares/ST/filex/common/src/fx_media_close.c **** 
 450              		.loc 1 411 5 is_stmt 1 view .LVU163
 411:Middlewares/ST/filex/common/src/fx_media_close.c **** 
 451              		.loc 1 411 34 is_stmt 0 view .LVU164
 452 0186 013B     		subs	r3, r3, #1
 453 0188 3849     		ldr	r1, .L25+20
 454 018a 0B60     		str	r3, [r1]
 414:Middlewares/ST/filex/common/src/fx_media_close.c **** 
 455              		.loc 1 414 5 is_stmt 1 view .LVU165
 414:Middlewares/ST/filex/common/src/fx_media_close.c **** 
 456              		.loc 1 414 30 is_stmt 0 view .LVU166
 457 018c 394B     		ldr	r3, .L25+28
 458 018e 3360     		str	r3, [r6]
 417:Middlewares/ST/filex/common/src/fx_media_close.c **** 
 459              		.loc 1 417 5 is_stmt 1 view .LVU167
 460              	.LVL35:
 461              	.LBB28:
 462              	.LBI28:
 568:Middlewares/ST/threadx/ports/cortex_m4/gnu/inc/tx_port.h **** {
 463              		.loc 2 568 55 view .LVU168
 464              	.LBB29:
 574:Middlewares/ST/threadx/ports/cortex_m4/gnu/inc/tx_port.h **** #endif
 465              		.loc 2 574 5 view .LVU169
 466              		.syntax unified
 467              	@ 574 "Middlewares/ST/threadx/ports/cortex_m4/gnu/inc/tx_port.h" 1
 468 0190 82F31088 		MSR  PRIMASK,r2
 469              	@ 0 "" 2
ARM GAS  C:\Users\HP\AppData\Local\Temp\ccvQoPMk.s 			page 30


 470              	.LVL36:
 574:Middlewares/ST/threadx/ports/cortex_m4/gnu/inc/tx_port.h **** #endif
 471              		.loc 2 574 5 is_stmt 0 view .LVU170
 472              		.thumb
 473              		.syntax unified
 474              	.LBE29:
 475              	.LBE28:
 428:Middlewares/ST/filex/common/src/fx_media_close.c **** #endif
 476              		.loc 1 428 5 is_stmt 1 view .LVU171
 477 0194 3846     		mov	r0, r7
 478 0196 FFF7FEFF 		bl	_tx_mutex_delete
 479              	.LVL37:
 433:Middlewares/ST/filex/common/src/fx_media_close.c ****     {
 480              		.loc 1 433 5 view .LVU172
 433:Middlewares/ST/filex/common/src/fx_media_close.c ****     {
 481              		.loc 1 433 19 is_stmt 0 view .LVU173
 482 019a D6F8C430 		ldr	r3, [r6, #196]
 433:Middlewares/ST/filex/common/src/fx_media_close.c ****     {
 483              		.loc 1 433 8 view .LVU174
 484 019e 002B     		cmp	r3, #0
 485 01a0 3FF435AF 		beq	.L1
 435:Middlewares/ST/filex/common/src/fx_media_close.c ****     }
 486              		.loc 1 435 9 is_stmt 1 view .LVU175
 487 01a4 3046     		mov	r0, r6
 488 01a6 9847     		blx	r3
 489              	.LVL38:
 490 01a8 31E7     		b	.L1
 491              	.LVL39:
 492              	.L19:
 216:Middlewares/ST/filex/common/src/fx_media_close.c **** 
 493              		.loc 1 216 9 view .LVU176
 494 01aa 3846     		mov	r0, r7
 495              	.LVL40:
 216:Middlewares/ST/filex/common/src/fx_media_close.c **** 
 496              		.loc 1 216 9 is_stmt 0 view .LVU177
 497 01ac FFF7FEFF 		bl	_tx_mutex_put
 498              	.LVL41:
 219:Middlewares/ST/filex/common/src/fx_media_close.c **** 
 499              		.loc 1 219 9 is_stmt 1 view .LVU178
 500 01b0 3046     		mov	r0, r6
 501 01b2 FFF7FEFF 		bl	_fx_media_abort
 502              	.LVL42:
 222:Middlewares/ST/filex/common/src/fx_media_close.c ****     }
 503              		.loc 1 222 9 view .LVU179
 222:Middlewares/ST/filex/common/src/fx_media_close.c ****     }
 504              		.loc 1 222 15 is_stmt 0 view .LVU180
 505 01b6 9024     		movs	r4, #144
 506              	.LVL43:
 222:Middlewares/ST/filex/common/src/fx_media_close.c ****     }
 507              		.loc 1 222 15 view .LVU181
 508 01b8 29E7     		b	.L1
 509              	.LVL44:
 510              	.L20:
 511              	.LBB30:
 273:Middlewares/ST/filex/common/src/fx_media_close.c **** 
 512              		.loc 1 273 13 is_stmt 1 view .LVU182
 513 01ba 3846     		mov	r0, r7
ARM GAS  C:\Users\HP\AppData\Local\Temp\ccvQoPMk.s 			page 31


 514 01bc FFF7FEFF 		bl	_tx_mutex_put
 515              	.LVL45:
 276:Middlewares/ST/filex/common/src/fx_media_close.c **** 
 516              		.loc 1 276 13 view .LVU183
 517 01c0 3046     		mov	r0, r6
 518 01c2 FFF7FEFF 		bl	_fx_media_abort
 519              	.LVL46:
 279:Middlewares/ST/filex/common/src/fx_media_close.c ****         }
 520              		.loc 1 279 13 view .LVU184
 279:Middlewares/ST/filex/common/src/fx_media_close.c ****         }
 521              		.loc 1 279 19 is_stmt 0 view .LVU185
 522 01c6 9024     		movs	r4, #144
 523              	.LVL47:
 279:Middlewares/ST/filex/common/src/fx_media_close.c ****         }
 524              		.loc 1 279 19 view .LVU186
 525 01c8 21E7     		b	.L1
 526              	.LVL48:
 527              	.L21:
 293:Middlewares/ST/filex/common/src/fx_media_close.c **** 
 528              		.loc 1 293 13 is_stmt 1 view .LVU187
 293:Middlewares/ST/filex/common/src/fx_media_close.c **** 
 529              		.loc 1 293 26 is_stmt 0 view .LVU188
 530 01ca 05F5F270 		add	r0, r5, #484
 531              	.LVL49:
 293:Middlewares/ST/filex/common/src/fx_media_close.c **** 
 532              		.loc 1 293 26 view .LVU189
 533 01ce FFF7FEFF 		bl	_fx_utility_32_unsigned_read
 534              	.LVL50:
 296:Middlewares/ST/filex/common/src/fx_media_close.c ****             {
 535              		.loc 1 296 13 is_stmt 1 view .LVU190
 296:Middlewares/ST/filex/common/src/fx_media_close.c ****             {
 536              		.loc 1 296 16 is_stmt 0 view .LVU191
 537 01d2 294B     		ldr	r3, .L25+32
 538 01d4 9842     		cmp	r0, r3
 539 01d6 A9D1     		bne	.L8
 302:Middlewares/ST/filex/common/src/fx_media_close.c **** 
 540              		.loc 1 302 17 is_stmt 1 view .LVU192
 541 01d8 F16F     		ldr	r1, [r6, #124]
 542 01da 05F5F470 		add	r0, r5, #488
 543              	.LVL51:
 302:Middlewares/ST/filex/common/src/fx_media_close.c **** 
 544              		.loc 1 302 17 is_stmt 0 view .LVU193
 545 01de FFF7FEFF 		bl	_fx_utility_32_unsigned_write
 546              	.LVL52:
 305:Middlewares/ST/filex/common/src/fx_media_close.c **** 
 547              		.loc 1 305 17 is_stmt 1 view .LVU194
 548 01e2 D6F88010 		ldr	r1, [r6, #128]
 549 01e6 05F5F670 		add	r0, r5, #492
 550 01ea FFF7FEFF 		bl	_fx_utility_32_unsigned_write
 551              	.LVL53:
 308:Middlewares/ST/filex/common/src/fx_media_close.c ****                 media_ptr -> fx_media_driver_status =           FX_IO_ERROR;
 552              		.loc 1 308 17 view .LVU195
 308:Middlewares/ST/filex/common/src/fx_media_close.c ****                 media_ptr -> fx_media_driver_status =           FX_IO_ERROR;
 553              		.loc 1 308 54 is_stmt 0 view .LVU196
 554 01ee 0123     		movs	r3, #1
 555 01f0 C6F88830 		str	r3, [r6, #136]
 309:Middlewares/ST/filex/common/src/fx_media_close.c ****                 media_ptr -> fx_media_driver_buffer =           buffer_ptr;
ARM GAS  C:\Users\HP\AppData\Local\Temp\ccvQoPMk.s 			page 32


 556              		.loc 1 309 17 is_stmt 1 view .LVU197
 309:Middlewares/ST/filex/common/src/fx_media_close.c ****                 media_ptr -> fx_media_driver_buffer =           buffer_ptr;
 557              		.loc 1 309 53 is_stmt 0 view .LVU198
 558 01f4 9022     		movs	r2, #144
 559 01f6 C6F88C20 		str	r2, [r6, #140]
 310:Middlewares/ST/filex/common/src/fx_media_close.c ****                 media_ptr -> fx_media_driver_logical_sector =   media_ptr -> fx_media_FAT32_additio
 560              		.loc 1 310 17 is_stmt 1 view .LVU199
 310:Middlewares/ST/filex/common/src/fx_media_close.c ****                 media_ptr -> fx_media_driver_logical_sector =   media_ptr -> fx_media_FAT32_additio
 561              		.loc 1 310 53 is_stmt 0 view .LVU200
 562 01fa C6F89050 		str	r5, [r6, #144]
 311:Middlewares/ST/filex/common/src/fx_media_close.c ****                 media_ptr -> fx_media_driver_sectors =          1;
 563              		.loc 1 311 17 is_stmt 1 view .LVU201
 311:Middlewares/ST/filex/common/src/fx_media_close.c ****                 media_ptr -> fx_media_driver_sectors =          1;
 564              		.loc 1 311 75 is_stmt 0 view .LVU202
 565 01fe B26E     		ldr	r2, [r6, #104]
 311:Middlewares/ST/filex/common/src/fx_media_close.c ****                 media_ptr -> fx_media_driver_sectors =          1;
 566              		.loc 1 311 61 view .LVU203
 567 0200 C6F89420 		str	r2, [r6, #148]
 312:Middlewares/ST/filex/common/src/fx_media_close.c ****                 media_ptr -> fx_media_driver_sector_type =      FX_DIRECTORY_SECTOR;
 568              		.loc 1 312 17 is_stmt 1 view .LVU204
 312:Middlewares/ST/filex/common/src/fx_media_close.c ****                 media_ptr -> fx_media_driver_sector_type =      FX_DIRECTORY_SECTOR;
 569              		.loc 1 312 54 is_stmt 0 view .LVU205
 570 0204 C6F89830 		str	r3, [r6, #152]
 313:Middlewares/ST/filex/common/src/fx_media_close.c **** 
 571              		.loc 1 313 17 is_stmt 1 view .LVU206
 313:Middlewares/ST/filex/common/src/fx_media_close.c **** 
 572              		.loc 1 313 58 is_stmt 0 view .LVU207
 573 0208 0322     		movs	r2, #3
 574 020a C6F8B820 		str	r2, [r6, #184]
 316:Middlewares/ST/filex/common/src/fx_media_close.c **** 
 575              		.loc 1 316 17 is_stmt 1 view .LVU208
 316:Middlewares/ST/filex/common/src/fx_media_close.c **** 
 576              		.loc 1 316 59 is_stmt 0 view .LVU209
 577 020e C6F8B030 		str	r3, [r6, #176]
 321:Middlewares/ST/filex/common/src/fx_media_close.c **** #endif
 578              		.loc 1 321 17 is_stmt 1 view .LVU210
 321:Middlewares/ST/filex/common/src/fx_media_close.c **** #endif
 579              		.loc 1 321 27 is_stmt 0 view .LVU211
 580 0212 D6F8B031 		ldr	r3, [r6, #432]
 321:Middlewares/ST/filex/common/src/fx_media_close.c **** #endif
 581              		.loc 1 321 60 view .LVU212
 582 0216 0133     		adds	r3, r3, #1
 583 0218 C6F8B031 		str	r3, [r6, #432]
 328:Middlewares/ST/filex/common/src/fx_media_close.c **** 
 584              		.loc 1 328 17 is_stmt 1 view .LVU213
 328:Middlewares/ST/filex/common/src/fx_media_close.c **** 
 585              		.loc 1 328 28 is_stmt 0 view .LVU214
 586 021c D6F8BC30 		ldr	r3, [r6, #188]
 587 0220 3046     		mov	r0, r6
 588 0222 9847     		blx	r3
 589              	.LVL54:
 331:Middlewares/ST/filex/common/src/fx_media_close.c **** 
 590              		.loc 1 331 17 is_stmt 1 view .LVU215
 331:Middlewares/ST/filex/common/src/fx_media_close.c **** 
 591              		.loc 1 331 59 is_stmt 0 view .LVU216
 592 0224 0023     		movs	r3, #0
 593 0226 C6F8B030 		str	r3, [r6, #176]
ARM GAS  C:\Users\HP\AppData\Local\Temp\ccvQoPMk.s 			page 33


 334:Middlewares/ST/filex/common/src/fx_media_close.c ****                 {
 594              		.loc 1 334 17 is_stmt 1 view .LVU217
 334:Middlewares/ST/filex/common/src/fx_media_close.c ****                 {
 595              		.loc 1 334 31 is_stmt 0 view .LVU218
 596 022a D6F88C30 		ldr	r3, [r6, #140]
 334:Middlewares/ST/filex/common/src/fx_media_close.c ****                 {
 597              		.loc 1 334 20 view .LVU219
 598 022e 13B9     		cbnz	r3, .L24
 349:Middlewares/ST/filex/common/src/fx_media_close.c ****             }
 599              		.loc 1 349 17 is_stmt 1 view .LVU220
 349:Middlewares/ST/filex/common/src/fx_media_close.c ****             }
 600              		.loc 1 349 89 is_stmt 0 view .LVU221
 601 0230 F36F     		ldr	r3, [r6, #124]
 349:Middlewares/ST/filex/common/src/fx_media_close.c ****             }
 602              		.loc 1 349 76 view .LVU222
 603 0232 F366     		str	r3, [r6, #108]
 604 0234 7AE7     		b	.L8
 605              	.L24:
 338:Middlewares/ST/filex/common/src/fx_media_close.c **** 
 606              		.loc 1 338 21 is_stmt 1 view .LVU223
 607 0236 3846     		mov	r0, r7
 608 0238 FFF7FEFF 		bl	_tx_mutex_put
 609              	.LVL55:
 341:Middlewares/ST/filex/common/src/fx_media_close.c **** 
 610              		.loc 1 341 21 view .LVU224
 611 023c 3046     		mov	r0, r6
 612 023e FFF7FEFF 		bl	_fx_media_abort
 613              	.LVL56:
 344:Middlewares/ST/filex/common/src/fx_media_close.c ****                 }
 614              		.loc 1 344 21 view .LVU225
 344:Middlewares/ST/filex/common/src/fx_media_close.c ****                 }
 615              		.loc 1 344 27 is_stmt 0 view .LVU226
 616 0242 9024     		movs	r4, #144
 617              	.LVL57:
 344:Middlewares/ST/filex/common/src/fx_media_close.c ****                 }
 618              		.loc 1 344 27 view .LVU227
 619 0244 E3E6     		b	.L1
 620              	.LVL58:
 621              	.L22:
 344:Middlewares/ST/filex/common/src/fx_media_close.c ****                 }
 622              		.loc 1 344 27 view .LVU228
 623              	.LBE30:
 390:Middlewares/ST/filex/common/src/fx_media_close.c ****     }
 624              		.loc 1 390 9 is_stmt 1 view .LVU229
 390:Middlewares/ST/filex/common/src/fx_media_close.c ****     }
 625              		.loc 1 390 37 is_stmt 0 view .LVU230
 626 0246 0A49     		ldr	r1, .L25+24
 627 0248 0020     		movs	r0, #0
 628 024a 0860     		str	r0, [r1]
 629 024c 9BE7     		b	.L12
 630              	.L23:
 406:Middlewares/ST/filex/common/src/fx_media_close.c ****         }
 631              		.loc 1 406 13 is_stmt 1 view .LVU231
 406:Middlewares/ST/filex/common/src/fx_media_close.c ****         }
 632              		.loc 1 406 41 is_stmt 0 view .LVU232
 633 024e 0849     		ldr	r1, .L25+24
 634 0250 0860     		str	r0, [r1]
ARM GAS  C:\Users\HP\AppData\Local\Temp\ccvQoPMk.s 			page 34


 635 0252 98E7     		b	.L12
 636              	.LVL59:
 637              	.L14:
 121:Middlewares/ST/filex/common/src/fx_media_close.c **** 
 638              		.loc 1 121 5 view .LVU233
 639 0254 1124     		movs	r4, #17
 640 0256 DAE6     		b	.L1
 641              	.L26:
 642              		.align	2
 643              	.L25:
 644 0258 4944454D 		.word	1296385097
 645 025c 434C4946 		.word	1179208771
 646 0260 00000000 		.word	_fx_system_time
 647 0264 00000000 		.word	_fx_system_date
 648 0268 52526141 		.word	1096897106
 649 026c 00000000 		.word	_fx_system_media_opened_count
 650 0270 00000000 		.word	_fx_system_media_opened_ptr
 651 0274 4344454D 		.word	1296385091
 652 0278 72724161 		.word	1631679090
 653              		.cfi_endproc
 654              	.LFE8:
 656              		.text
 657              	.Letext0:
 658              		.file 3 "Middlewares/ST/threadx/common/inc/tx_api.h"
 659              		.file 4 "Middlewares/ST/filex/common/inc/fx_api.h"
 660              		.file 5 "Middlewares/ST/filex/common/inc/fx_system.h"
 661              		.file 6 "Middlewares/ST/filex/common/inc/fx_utility.h"
 662              		.file 7 "Middlewares/ST/filex/common/inc/fx_media.h"
 663              		.file 8 "Middlewares/ST/filex/common/inc/fx_directory.h"
ARM GAS  C:\Users\HP\AppData\Local\Temp\ccvQoPMk.s 			page 35

