ARM GAS  C:\Users\HP\AppData\Local\Temp\cc2MRz0F.s 			page 1


   1              		.cpu cortex-m4
   2              		.arch armv7e-m
   3              		.fpu fpv4-sp-d16
   4              		.eabi_attribute 27, 1
   5              		.eabi_attribute 28, 1
   6              		.eabi_attribute 20, 1
   7              		.eabi_attribute 21, 1
   8              		.eabi_attribute 23, 3
   9              		.eabi_attribute 24, 1
  10              		.eabi_attribute 25, 1
  11              		.eabi_attribute 26, 1
  12              		.eabi_attribute 30, 1
  13              		.eabi_attribute 34, 1
  14              		.eabi_attribute 18, 4
  15              		.file	"fx_media_write.c"
  16              		.text
  17              	.Ltext0:
  18              		.cfi_sections	.debug_frame
  19              		.section	.text._fx_media_write,"ax",%progbits
  20              		.align	1
  21              		.global	_fx_media_write
  22              		.syntax unified
  23              		.thumb
  24              		.thumb_func
  26              	_fx_media_write:
  27              	.LVL0:
  28              	.LFB8:
  29              		.file 1 "Middlewares/ST/filex/common/src/fx_media_write.c"
   1:Middlewares/ST/filex/common/src/fx_media_write.c **** /**************************************************************************/
   2:Middlewares/ST/filex/common/src/fx_media_write.c **** /*                                                                        */
   3:Middlewares/ST/filex/common/src/fx_media_write.c **** /*       Copyright (c) Microsoft Corporation. All rights reserved.        */
   4:Middlewares/ST/filex/common/src/fx_media_write.c **** /*                                                                        */
   5:Middlewares/ST/filex/common/src/fx_media_write.c **** /*       This software is licensed under the Microsoft Software License   */
   6:Middlewares/ST/filex/common/src/fx_media_write.c **** /*       Terms for Microsoft Azure RTOS. Full text of the license can be  */
   7:Middlewares/ST/filex/common/src/fx_media_write.c **** /*       found in the LICENSE file at https://aka.ms/AzureRTOS_EULA       */
   8:Middlewares/ST/filex/common/src/fx_media_write.c **** /*       and in the root directory of this software.                      */
   9:Middlewares/ST/filex/common/src/fx_media_write.c **** /*                                                                        */
  10:Middlewares/ST/filex/common/src/fx_media_write.c **** /**************************************************************************/
  11:Middlewares/ST/filex/common/src/fx_media_write.c **** 
  12:Middlewares/ST/filex/common/src/fx_media_write.c **** 
  13:Middlewares/ST/filex/common/src/fx_media_write.c **** /**************************************************************************/
  14:Middlewares/ST/filex/common/src/fx_media_write.c **** /**************************************************************************/
  15:Middlewares/ST/filex/common/src/fx_media_write.c **** /**                                                                       */
  16:Middlewares/ST/filex/common/src/fx_media_write.c **** /** FileX Component                                                       */
  17:Middlewares/ST/filex/common/src/fx_media_write.c **** /**                                                                       */
  18:Middlewares/ST/filex/common/src/fx_media_write.c **** /**   Media                                                               */
  19:Middlewares/ST/filex/common/src/fx_media_write.c **** /**                                                                       */
  20:Middlewares/ST/filex/common/src/fx_media_write.c **** /**************************************************************************/
  21:Middlewares/ST/filex/common/src/fx_media_write.c **** /**************************************************************************/
  22:Middlewares/ST/filex/common/src/fx_media_write.c **** 
  23:Middlewares/ST/filex/common/src/fx_media_write.c **** #define FX_SOURCE_CODE
  24:Middlewares/ST/filex/common/src/fx_media_write.c **** 
  25:Middlewares/ST/filex/common/src/fx_media_write.c **** 
  26:Middlewares/ST/filex/common/src/fx_media_write.c **** /* Include necessary system files.  */
  27:Middlewares/ST/filex/common/src/fx_media_write.c **** 
  28:Middlewares/ST/filex/common/src/fx_media_write.c **** #include "fx_api.h"
  29:Middlewares/ST/filex/common/src/fx_media_write.c **** #include "fx_system.h"
ARM GAS  C:\Users\HP\AppData\Local\Temp\cc2MRz0F.s 			page 2


  30:Middlewares/ST/filex/common/src/fx_media_write.c **** #include "fx_media.h"
  31:Middlewares/ST/filex/common/src/fx_media_write.c **** #include "fx_utility.h"
  32:Middlewares/ST/filex/common/src/fx_media_write.c **** 
  33:Middlewares/ST/filex/common/src/fx_media_write.c **** 
  34:Middlewares/ST/filex/common/src/fx_media_write.c **** /**************************************************************************/
  35:Middlewares/ST/filex/common/src/fx_media_write.c **** /*                                                                        */
  36:Middlewares/ST/filex/common/src/fx_media_write.c **** /*  FUNCTION                                               RELEASE        */
  37:Middlewares/ST/filex/common/src/fx_media_write.c **** /*                                                                        */
  38:Middlewares/ST/filex/common/src/fx_media_write.c **** /*    _fx_media_write                                     PORTABLE C      */
  39:Middlewares/ST/filex/common/src/fx_media_write.c **** /*                                                           6.1          */
  40:Middlewares/ST/filex/common/src/fx_media_write.c **** /*  AUTHOR                                                                */
  41:Middlewares/ST/filex/common/src/fx_media_write.c **** /*                                                                        */
  42:Middlewares/ST/filex/common/src/fx_media_write.c **** /*    William E. Lamie, Microsoft Corporation                             */
  43:Middlewares/ST/filex/common/src/fx_media_write.c **** /*                                                                        */
  44:Middlewares/ST/filex/common/src/fx_media_write.c **** /*  DESCRIPTION                                                           */
  45:Middlewares/ST/filex/common/src/fx_media_write.c **** /*                                                                        */
  46:Middlewares/ST/filex/common/src/fx_media_write.c **** /*    This function writes the specified raw logical sector to the        */
  47:Middlewares/ST/filex/common/src/fx_media_write.c **** /*    specified media.                                                    */
  48:Middlewares/ST/filex/common/src/fx_media_write.c **** /*                                                                        */
  49:Middlewares/ST/filex/common/src/fx_media_write.c **** /*  INPUT                                                                 */
  50:Middlewares/ST/filex/common/src/fx_media_write.c **** /*                                                                        */
  51:Middlewares/ST/filex/common/src/fx_media_write.c **** /*    media_ptr                             Media control block pointer   */
  52:Middlewares/ST/filex/common/src/fx_media_write.c **** /*    logical_sector                        Logical sector to read        */
  53:Middlewares/ST/filex/common/src/fx_media_write.c **** /*    buffer_ptr                            Pointer to caller's buffer    */
  54:Middlewares/ST/filex/common/src/fx_media_write.c **** /*                                                                        */
  55:Middlewares/ST/filex/common/src/fx_media_write.c **** /*  OUTPUT                                                                */
  56:Middlewares/ST/filex/common/src/fx_media_write.c **** /*                                                                        */
  57:Middlewares/ST/filex/common/src/fx_media_write.c **** /*    return status                                                       */
  58:Middlewares/ST/filex/common/src/fx_media_write.c **** /*                                                                        */
  59:Middlewares/ST/filex/common/src/fx_media_write.c **** /*  CALLS                                                                 */
  60:Middlewares/ST/filex/common/src/fx_media_write.c **** /*                                                                        */
  61:Middlewares/ST/filex/common/src/fx_media_write.c **** /*    _fx_utility_logical_sector_write      Write logical sector utility  */
  62:Middlewares/ST/filex/common/src/fx_media_write.c **** /*                                                                        */
  63:Middlewares/ST/filex/common/src/fx_media_write.c **** /*  CALLED BY                                                             */
  64:Middlewares/ST/filex/common/src/fx_media_write.c **** /*                                                                        */
  65:Middlewares/ST/filex/common/src/fx_media_write.c **** /*    Application Code                                                    */
  66:Middlewares/ST/filex/common/src/fx_media_write.c **** /*                                                                        */
  67:Middlewares/ST/filex/common/src/fx_media_write.c **** /*  RELEASE HISTORY                                                       */
  68:Middlewares/ST/filex/common/src/fx_media_write.c **** /*                                                                        */
  69:Middlewares/ST/filex/common/src/fx_media_write.c **** /*    DATE              NAME                      DESCRIPTION             */
  70:Middlewares/ST/filex/common/src/fx_media_write.c **** /*                                                                        */
  71:Middlewares/ST/filex/common/src/fx_media_write.c **** /*  05-19-2020     William E. Lamie         Initial Version 6.0           */
  72:Middlewares/ST/filex/common/src/fx_media_write.c **** /*  09-30-2020     William E. Lamie         Modified comment(s),          */
  73:Middlewares/ST/filex/common/src/fx_media_write.c **** /*                                            resulting in version 6.1    */
  74:Middlewares/ST/filex/common/src/fx_media_write.c **** /*                                                                        */
  75:Middlewares/ST/filex/common/src/fx_media_write.c **** /**************************************************************************/
  76:Middlewares/ST/filex/common/src/fx_media_write.c **** UINT  _fx_media_write(FX_MEDIA *media_ptr, ULONG logical_sector, VOID *buffer_ptr)
  77:Middlewares/ST/filex/common/src/fx_media_write.c **** {
  30              		.loc 1 77 1 view -0
  31              		.cfi_startproc
  32              		@ args = 0, pretend = 0, frame = 0
  33              		@ frame_needed = 0, uses_anonymous_args = 0
  34              		.loc 1 77 1 is_stmt 0 view .LVU1
  35 0000 F0B5     		push	{r4, r5, r6, r7, lr}
  36              	.LCFI0:
  37              		.cfi_def_cfa_offset 20
  38              		.cfi_offset 4, -20
ARM GAS  C:\Users\HP\AppData\Local\Temp\cc2MRz0F.s 			page 3


  39              		.cfi_offset 5, -16
  40              		.cfi_offset 6, -12
  41              		.cfi_offset 7, -8
  42              		.cfi_offset 14, -4
  43 0002 85B0     		sub	sp, sp, #20
  44              	.LCFI1:
  45              		.cfi_def_cfa_offset 40
  46 0004 0446     		mov	r4, r0
  78:Middlewares/ST/filex/common/src/fx_media_write.c **** 
  79:Middlewares/ST/filex/common/src/fx_media_write.c **** UINT                   status;
  47              		.loc 1 79 1 is_stmt 1 view .LVU2
  80:Middlewares/ST/filex/common/src/fx_media_write.c **** 
  81:Middlewares/ST/filex/common/src/fx_media_write.c **** #ifdef TX_ENABLE_EVENT_TRACE
  82:Middlewares/ST/filex/common/src/fx_media_write.c **** TX_TRACE_BUFFER_ENTRY *trace_event;
  83:Middlewares/ST/filex/common/src/fx_media_write.c **** ULONG                  trace_timestamp;
  84:Middlewares/ST/filex/common/src/fx_media_write.c **** #endif
  85:Middlewares/ST/filex/common/src/fx_media_write.c **** 
  86:Middlewares/ST/filex/common/src/fx_media_write.c **** 
  87:Middlewares/ST/filex/common/src/fx_media_write.c **** #ifndef FX_MEDIA_STATISTICS_DISABLE
  88:Middlewares/ST/filex/common/src/fx_media_write.c **** 
  89:Middlewares/ST/filex/common/src/fx_media_write.c ****     /* Increment the number of times this service has been called.  */
  90:Middlewares/ST/filex/common/src/fx_media_write.c ****     media_ptr -> fx_media_writes++;
  48              		.loc 1 90 5 view .LVU3
  49              		.loc 1 90 15 is_stmt 0 view .LVU4
  50 0006 D0F86431 		ldr	r3, [r0, #356]
  51              		.loc 1 90 33 view .LVU5
  52 000a 0133     		adds	r3, r3, #1
  53 000c C0F86431 		str	r3, [r0, #356]
  91:Middlewares/ST/filex/common/src/fx_media_write.c **** #endif
  92:Middlewares/ST/filex/common/src/fx_media_write.c **** 
  93:Middlewares/ST/filex/common/src/fx_media_write.c ****     /* Check the media to make sure it is open.  */
  94:Middlewares/ST/filex/common/src/fx_media_write.c ****     if (media_ptr -> fx_media_id != FX_MEDIA_ID)
  54              		.loc 1 94 5 is_stmt 1 view .LVU6
  55              		.loc 1 94 19 is_stmt 0 view .LVU7
  56 0010 0068     		ldr	r0, [r0]
  57              	.LVL1:
  58              		.loc 1 94 8 view .LVU8
  59 0012 154B     		ldr	r3, .L9
  60 0014 9842     		cmp	r0, r3
  61 0016 03D0     		beq	.L7
  95:Middlewares/ST/filex/common/src/fx_media_write.c ****     {
  96:Middlewares/ST/filex/common/src/fx_media_write.c **** 
  97:Middlewares/ST/filex/common/src/fx_media_write.c ****         /* Return the media not opened error.  */
  98:Middlewares/ST/filex/common/src/fx_media_write.c ****         return(FX_MEDIA_NOT_OPEN);
  62              		.loc 1 98 15 view .LVU9
  63 0018 1124     		movs	r4, #17
  64              	.LVL2:
  65              	.L1:
  99:Middlewares/ST/filex/common/src/fx_media_write.c ****     }
 100:Middlewares/ST/filex/common/src/fx_media_write.c **** 
 101:Middlewares/ST/filex/common/src/fx_media_write.c ****     /* If trace is enabled, insert this event into the trace buffer.  */
 102:Middlewares/ST/filex/common/src/fx_media_write.c ****     FX_TRACE_IN_LINE_INSERT(FX_TRACE_MEDIA_WRITE, media_ptr, logical_sector, buffer_ptr, 0, FX_TRAC
 103:Middlewares/ST/filex/common/src/fx_media_write.c **** 
 104:Middlewares/ST/filex/common/src/fx_media_write.c ****     /* Protect against other threads accessing the media.  */
 105:Middlewares/ST/filex/common/src/fx_media_write.c ****     FX_PROTECT
 106:Middlewares/ST/filex/common/src/fx_media_write.c **** 
 107:Middlewares/ST/filex/common/src/fx_media_write.c ****     /* Check for write protect at the media level (set by driver).  */
ARM GAS  C:\Users\HP\AppData\Local\Temp\cc2MRz0F.s 			page 4


 108:Middlewares/ST/filex/common/src/fx_media_write.c ****     if (media_ptr -> fx_media_driver_write_protect)
 109:Middlewares/ST/filex/common/src/fx_media_write.c ****     {
 110:Middlewares/ST/filex/common/src/fx_media_write.c **** 
 111:Middlewares/ST/filex/common/src/fx_media_write.c ****         /* Release media protection.  */
 112:Middlewares/ST/filex/common/src/fx_media_write.c ****         FX_UNPROTECT
 113:Middlewares/ST/filex/common/src/fx_media_write.c **** 
 114:Middlewares/ST/filex/common/src/fx_media_write.c ****         /* Return write protect error.  */
 115:Middlewares/ST/filex/common/src/fx_media_write.c ****         return(FX_WRITE_PROTECT);
 116:Middlewares/ST/filex/common/src/fx_media_write.c ****     }
 117:Middlewares/ST/filex/common/src/fx_media_write.c **** 
 118:Middlewares/ST/filex/common/src/fx_media_write.c ****     /* Write the logical sector.  */
 119:Middlewares/ST/filex/common/src/fx_media_write.c ****     status =  _fx_utility_logical_sector_write(media_ptr, (ULONG64) logical_sector, buffer_ptr, ((U
 120:Middlewares/ST/filex/common/src/fx_media_write.c **** 
 121:Middlewares/ST/filex/common/src/fx_media_write.c **** #ifdef TX_ENABLE_EVENT_TRACE
 122:Middlewares/ST/filex/common/src/fx_media_write.c **** 
 123:Middlewares/ST/filex/common/src/fx_media_write.c ****     /* Check for successful status.  */
 124:Middlewares/ST/filex/common/src/fx_media_write.c ****     if (status == FX_SUCCESS)
 125:Middlewares/ST/filex/common/src/fx_media_write.c ****     {
 126:Middlewares/ST/filex/common/src/fx_media_write.c **** 
 127:Middlewares/ST/filex/common/src/fx_media_write.c ****         /* Update the trace event with the bytes written.  */
 128:Middlewares/ST/filex/common/src/fx_media_write.c ****         FX_TRACE_EVENT_UPDATE(trace_event, trace_timestamp, FX_TRACE_MEDIA_WRITE, 0, 0, 0, media_pt
 129:Middlewares/ST/filex/common/src/fx_media_write.c ****     }
 130:Middlewares/ST/filex/common/src/fx_media_write.c **** #endif
 131:Middlewares/ST/filex/common/src/fx_media_write.c **** 
 132:Middlewares/ST/filex/common/src/fx_media_write.c ****     /* Release media protection.  */
 133:Middlewares/ST/filex/common/src/fx_media_write.c ****     FX_UNPROTECT
 134:Middlewares/ST/filex/common/src/fx_media_write.c **** 
 135:Middlewares/ST/filex/common/src/fx_media_write.c ****     /* Return status to the caller.  */
 136:Middlewares/ST/filex/common/src/fx_media_write.c ****     return(status);
 137:Middlewares/ST/filex/common/src/fx_media_write.c **** }
  66              		.loc 1 137 1 view .LVU10
  67 001a 2046     		mov	r0, r4
  68 001c 05B0     		add	sp, sp, #20
  69              	.LCFI2:
  70              		.cfi_remember_state
  71              		.cfi_def_cfa_offset 20
  72              		@ sp needed
  73 001e F0BD     		pop	{r4, r5, r6, r7, pc}
  74              	.LVL3:
  75              	.L7:
  76              	.LCFI3:
  77              		.cfi_restore_state
  78              		.loc 1 137 1 view .LVU11
  79 0020 0E46     		mov	r6, r1
  80 0022 1546     		mov	r5, r2
 105:Middlewares/ST/filex/common/src/fx_media_write.c **** 
  81              		.loc 1 105 5 is_stmt 1 discriminator 2 view .LVU12
 105:Middlewares/ST/filex/common/src/fx_media_write.c **** 
  82              		.loc 1 105 5 discriminator 2 view .LVU13
  83 0024 04F5E477 		add	r7, r4, #456
  84 0028 4FF0FF31 		mov	r1, #-1
  85              	.LVL4:
 105:Middlewares/ST/filex/common/src/fx_media_write.c **** 
  86              		.loc 1 105 5 is_stmt 0 discriminator 2 view .LVU14
  87 002c 3846     		mov	r0, r7
  88 002e FFF7FEFF 		bl	_tx_mutex_get
  89              	.LVL5:
ARM GAS  C:\Users\HP\AppData\Local\Temp\cc2MRz0F.s 			page 5


 105:Middlewares/ST/filex/common/src/fx_media_write.c **** 
  90              		.loc 1 105 5 discriminator 2 view .LVU15
  91 0032 B0B9     		cbnz	r0, .L5
 108:Middlewares/ST/filex/common/src/fx_media_write.c ****     {
  92              		.loc 1 108 5 is_stmt 1 view .LVU16
 108:Middlewares/ST/filex/common/src/fx_media_write.c ****     {
  93              		.loc 1 108 19 is_stmt 0 view .LVU17
  94 0034 D4F8A830 		ldr	r3, [r4, #168]
 108:Middlewares/ST/filex/common/src/fx_media_write.c ****     {
  95              		.loc 1 108 8 view .LVU18
  96 0038 73B9     		cbnz	r3, .L8
 119:Middlewares/ST/filex/common/src/fx_media_write.c **** 
  97              		.loc 1 119 5 is_stmt 1 view .LVU19
 119:Middlewares/ST/filex/common/src/fx_media_write.c **** 
  98              		.loc 1 119 15 is_stmt 0 view .LVU20
  99 003a 0423     		movs	r3, #4
 100 003c 0293     		str	r3, [sp, #8]
 101 003e 0123     		movs	r3, #1
 102 0040 0193     		str	r3, [sp, #4]
 103 0042 0095     		str	r5, [sp]
 104 0044 3246     		mov	r2, r6
 105 0046 0023     		movs	r3, #0
 106 0048 2046     		mov	r0, r4
 107 004a FFF7FEFF 		bl	_fx_utility_logical_sector_write
 108              	.LVL6:
 109 004e 0446     		mov	r4, r0
 110              	.LVL7:
 133:Middlewares/ST/filex/common/src/fx_media_write.c **** 
 111              		.loc 1 133 5 is_stmt 1 view .LVU21
 112 0050 3846     		mov	r0, r7
 113              	.LVL8:
 133:Middlewares/ST/filex/common/src/fx_media_write.c **** 
 114              		.loc 1 133 5 is_stmt 0 view .LVU22
 115 0052 FFF7FEFF 		bl	_tx_mutex_put
 116              	.LVL9:
 136:Middlewares/ST/filex/common/src/fx_media_write.c **** }
 117              		.loc 1 136 5 is_stmt 1 view .LVU23
 136:Middlewares/ST/filex/common/src/fx_media_write.c **** }
 118              		.loc 1 136 11 is_stmt 0 view .LVU24
 119 0056 E0E7     		b	.L1
 120              	.LVL10:
 121              	.L8:
 112:Middlewares/ST/filex/common/src/fx_media_write.c **** 
 122              		.loc 1 112 9 is_stmt 1 view .LVU25
 123 0058 3846     		mov	r0, r7
 124 005a FFF7FEFF 		bl	_tx_mutex_put
 125              	.LVL11:
 115:Middlewares/ST/filex/common/src/fx_media_write.c ****     }
 126              		.loc 1 115 9 view .LVU26
 115:Middlewares/ST/filex/common/src/fx_media_write.c ****     }
 127              		.loc 1 115 15 is_stmt 0 view .LVU27
 128 005e 2324     		movs	r4, #35
 129              	.LVL12:
 115:Middlewares/ST/filex/common/src/fx_media_write.c ****     }
 130              		.loc 1 115 15 view .LVU28
 131 0060 DBE7     		b	.L1
 132              	.LVL13:
ARM GAS  C:\Users\HP\AppData\Local\Temp\cc2MRz0F.s 			page 6


 133              	.L5:
 105:Middlewares/ST/filex/common/src/fx_media_write.c **** 
 134              		.loc 1 105 5 view .LVU29
 135 0062 1124     		movs	r4, #17
 136              	.LVL14:
 105:Middlewares/ST/filex/common/src/fx_media_write.c **** 
 137              		.loc 1 105 5 view .LVU30
 138 0064 D9E7     		b	.L1
 139              	.L10:
 140 0066 00BF     		.align	2
 141              	.L9:
 142 0068 4944454D 		.word	1296385097
 143              		.cfi_endproc
 144              	.LFE8:
 146              		.text
 147              	.Letext0:
 148              		.file 2 "Middlewares/ST/threadx/ports/cortex_m4/gnu/inc/tx_port.h"
 149              		.file 3 "Middlewares/ST/threadx/common/inc/tx_api.h"
 150              		.file 4 "Middlewares/ST/filex/common/inc/fx_api.h"
 151              		.file 5 "Middlewares/ST/filex/common/inc/fx_utility.h"
ARM GAS  C:\Users\HP\AppData\Local\Temp\cc2MRz0F.s 			page 7

