ARM GAS  C:\Users\HP\AppData\Local\Temp\cctfzLQt.s 			page 1


   1              		.cpu cortex-m4
   2              		.arch armv7e-m
   3              		.fpu fpv4-sp-d16
   4              		.eabi_attribute 27, 1
   5              		.eabi_attribute 28, 1
   6              		.eabi_attribute 20, 1
   7              		.eabi_attribute 21, 1
   8              		.eabi_attribute 23, 3
   9              		.eabi_attribute 24, 1
  10              		.eabi_attribute 25, 1
  11              		.eabi_attribute 26, 1
  12              		.eabi_attribute 30, 1
  13              		.eabi_attribute 34, 1
  14              		.eabi_attribute 18, 4
  15              		.file	"fx_media_space_available.c"
  16              		.text
  17              	.Ltext0:
  18              		.cfi_sections	.debug_frame
  19              		.section	.text._fx_media_space_available,"ax",%progbits
  20              		.align	1
  21              		.global	_fx_media_space_available
  22              		.syntax unified
  23              		.thumb
  24              		.thumb_func
  26              	_fx_media_space_available:
  27              	.LVL0:
  28              	.LFB8:
  29              		.file 1 "Middlewares/ST/filex/common/src/fx_media_space_available.c"
   1:Middlewares/ST/filex/common/src/fx_media_space_available.c **** /**************************************************************************/
   2:Middlewares/ST/filex/common/src/fx_media_space_available.c **** /*                                                                        */
   3:Middlewares/ST/filex/common/src/fx_media_space_available.c **** /*       Copyright (c) Microsoft Corporation. All rights reserved.        */
   4:Middlewares/ST/filex/common/src/fx_media_space_available.c **** /*                                                                        */
   5:Middlewares/ST/filex/common/src/fx_media_space_available.c **** /*       This software is licensed under the Microsoft Software License   */
   6:Middlewares/ST/filex/common/src/fx_media_space_available.c **** /*       Terms for Microsoft Azure RTOS. Full text of the license can be  */
   7:Middlewares/ST/filex/common/src/fx_media_space_available.c **** /*       found in the LICENSE file at https://aka.ms/AzureRTOS_EULA       */
   8:Middlewares/ST/filex/common/src/fx_media_space_available.c **** /*       and in the root directory of this software.                      */
   9:Middlewares/ST/filex/common/src/fx_media_space_available.c **** /*                                                                        */
  10:Middlewares/ST/filex/common/src/fx_media_space_available.c **** /**************************************************************************/
  11:Middlewares/ST/filex/common/src/fx_media_space_available.c **** 
  12:Middlewares/ST/filex/common/src/fx_media_space_available.c **** 
  13:Middlewares/ST/filex/common/src/fx_media_space_available.c **** /**************************************************************************/
  14:Middlewares/ST/filex/common/src/fx_media_space_available.c **** /**************************************************************************/
  15:Middlewares/ST/filex/common/src/fx_media_space_available.c **** /**                                                                       */
  16:Middlewares/ST/filex/common/src/fx_media_space_available.c **** /** FileX Component                                                       */
  17:Middlewares/ST/filex/common/src/fx_media_space_available.c **** /**                                                                       */
  18:Middlewares/ST/filex/common/src/fx_media_space_available.c **** /**   Media                                                               */
  19:Middlewares/ST/filex/common/src/fx_media_space_available.c **** /**                                                                       */
  20:Middlewares/ST/filex/common/src/fx_media_space_available.c **** /**************************************************************************/
  21:Middlewares/ST/filex/common/src/fx_media_space_available.c **** /**************************************************************************/
  22:Middlewares/ST/filex/common/src/fx_media_space_available.c **** 
  23:Middlewares/ST/filex/common/src/fx_media_space_available.c **** #define FX_SOURCE_CODE
  24:Middlewares/ST/filex/common/src/fx_media_space_available.c **** 
  25:Middlewares/ST/filex/common/src/fx_media_space_available.c **** 
  26:Middlewares/ST/filex/common/src/fx_media_space_available.c **** /* Include necessary system files.  */
  27:Middlewares/ST/filex/common/src/fx_media_space_available.c **** 
  28:Middlewares/ST/filex/common/src/fx_media_space_available.c **** #include "fx_api.h"
  29:Middlewares/ST/filex/common/src/fx_media_space_available.c **** #include "fx_system.h"
ARM GAS  C:\Users\HP\AppData\Local\Temp\cctfzLQt.s 			page 2


  30:Middlewares/ST/filex/common/src/fx_media_space_available.c **** #include "fx_media.h"
  31:Middlewares/ST/filex/common/src/fx_media_space_available.c **** 
  32:Middlewares/ST/filex/common/src/fx_media_space_available.c **** 
  33:Middlewares/ST/filex/common/src/fx_media_space_available.c **** /**************************************************************************/
  34:Middlewares/ST/filex/common/src/fx_media_space_available.c **** /*                                                                        */
  35:Middlewares/ST/filex/common/src/fx_media_space_available.c **** /*  FUNCTION                                               RELEASE        */
  36:Middlewares/ST/filex/common/src/fx_media_space_available.c **** /*                                                                        */
  37:Middlewares/ST/filex/common/src/fx_media_space_available.c **** /*    _fx_media_space_available                           PORTABLE C      */
  38:Middlewares/ST/filex/common/src/fx_media_space_available.c **** /*                                                           6.1          */
  39:Middlewares/ST/filex/common/src/fx_media_space_available.c **** /*  AUTHOR                                                                */
  40:Middlewares/ST/filex/common/src/fx_media_space_available.c **** /*                                                                        */
  41:Middlewares/ST/filex/common/src/fx_media_space_available.c **** /*    William E. Lamie, Microsoft Corporation                             */
  42:Middlewares/ST/filex/common/src/fx_media_space_available.c **** /*                                                                        */
  43:Middlewares/ST/filex/common/src/fx_media_space_available.c **** /*  DESCRIPTION                                                           */
  44:Middlewares/ST/filex/common/src/fx_media_space_available.c **** /*                                                                        */
  45:Middlewares/ST/filex/common/src/fx_media_space_available.c **** /*    This function returns the number of bytes available in the          */
  46:Middlewares/ST/filex/common/src/fx_media_space_available.c **** /*    specified media.                                                    */
  47:Middlewares/ST/filex/common/src/fx_media_space_available.c **** /*                                                                        */
  48:Middlewares/ST/filex/common/src/fx_media_space_available.c **** /*  INPUT                                                                 */
  49:Middlewares/ST/filex/common/src/fx_media_space_available.c **** /*                                                                        */
  50:Middlewares/ST/filex/common/src/fx_media_space_available.c **** /*    media_ptr                             Media control block pointer   */
  51:Middlewares/ST/filex/common/src/fx_media_space_available.c **** /*    available_bytes_ptr                   Pointer to available bytes    */
  52:Middlewares/ST/filex/common/src/fx_media_space_available.c **** /*                                            destination                 */
  53:Middlewares/ST/filex/common/src/fx_media_space_available.c **** /*                                                                        */
  54:Middlewares/ST/filex/common/src/fx_media_space_available.c **** /*  OUTPUT                                                                */
  55:Middlewares/ST/filex/common/src/fx_media_space_available.c **** /*                                                                        */
  56:Middlewares/ST/filex/common/src/fx_media_space_available.c **** /*    return status                                                       */
  57:Middlewares/ST/filex/common/src/fx_media_space_available.c **** /*                                                                        */
  58:Middlewares/ST/filex/common/src/fx_media_space_available.c **** /*  CALLS                                                                 */
  59:Middlewares/ST/filex/common/src/fx_media_space_available.c **** /*                                                                        */
  60:Middlewares/ST/filex/common/src/fx_media_space_available.c **** /*    None                                                                */
  61:Middlewares/ST/filex/common/src/fx_media_space_available.c **** /*                                                                        */
  62:Middlewares/ST/filex/common/src/fx_media_space_available.c **** /*    _fx_media_extended_space_available    Actual space available service*/
  63:Middlewares/ST/filex/common/src/fx_media_space_available.c **** /*                                                                        */
  64:Middlewares/ST/filex/common/src/fx_media_space_available.c **** /*  CALLED BY                                                             */
  65:Middlewares/ST/filex/common/src/fx_media_space_available.c **** /*                                                                        */
  66:Middlewares/ST/filex/common/src/fx_media_space_available.c **** /*    Application Code                                                    */
  67:Middlewares/ST/filex/common/src/fx_media_space_available.c **** /*                                                                        */
  68:Middlewares/ST/filex/common/src/fx_media_space_available.c **** /*  RELEASE HISTORY                                                       */
  69:Middlewares/ST/filex/common/src/fx_media_space_available.c **** /*                                                                        */
  70:Middlewares/ST/filex/common/src/fx_media_space_available.c **** /*    DATE              NAME                      DESCRIPTION             */
  71:Middlewares/ST/filex/common/src/fx_media_space_available.c **** /*                                                                        */
  72:Middlewares/ST/filex/common/src/fx_media_space_available.c **** /*  05-19-2020     William E. Lamie         Initial Version 6.0           */
  73:Middlewares/ST/filex/common/src/fx_media_space_available.c **** /*  09-30-2020     William E. Lamie         Modified comment(s),          */
  74:Middlewares/ST/filex/common/src/fx_media_space_available.c **** /*                                            resulting in version 6.1    */
  75:Middlewares/ST/filex/common/src/fx_media_space_available.c **** /*                                                                        */
  76:Middlewares/ST/filex/common/src/fx_media_space_available.c **** /**************************************************************************/
  77:Middlewares/ST/filex/common/src/fx_media_space_available.c **** UINT  _fx_media_space_available(FX_MEDIA *media_ptr, ULONG *available_bytes_ptr)
  78:Middlewares/ST/filex/common/src/fx_media_space_available.c **** {
  30              		.loc 1 78 1 view -0
  31              		.cfi_startproc
  32              		@ args = 0, pretend = 0, frame = 8
  33              		@ frame_needed = 0, uses_anonymous_args = 0
  34              		.loc 1 78 1 is_stmt 0 view .LVU1
  35 0000 10B5     		push	{r4, lr}
  36              	.LCFI0:
  37              		.cfi_def_cfa_offset 8
ARM GAS  C:\Users\HP\AppData\Local\Temp\cctfzLQt.s 			page 3


  38              		.cfi_offset 4, -8
  39              		.cfi_offset 14, -4
  40 0002 82B0     		sub	sp, sp, #8
  41              	.LCFI1:
  42              		.cfi_def_cfa_offset 16
  43 0004 0C46     		mov	r4, r1
  79:Middlewares/ST/filex/common/src/fx_media_space_available.c **** 
  80:Middlewares/ST/filex/common/src/fx_media_space_available.c **** UINT    status;
  44              		.loc 1 80 1 is_stmt 1 view .LVU2
  81:Middlewares/ST/filex/common/src/fx_media_space_available.c **** ULONG64 available_bytes;
  45              		.loc 1 81 1 view .LVU3
  82:Middlewares/ST/filex/common/src/fx_media_space_available.c **** 
  83:Middlewares/ST/filex/common/src/fx_media_space_available.c ****     /* Call actual media space available service.  */
  84:Middlewares/ST/filex/common/src/fx_media_space_available.c ****     status = _fx_media_extended_space_available(media_ptr, &available_bytes);
  46              		.loc 1 84 5 view .LVU4
  47              		.loc 1 84 14 is_stmt 0 view .LVU5
  48 0006 6946     		mov	r1, sp
  49              	.LVL1:
  50              		.loc 1 84 14 view .LVU6
  51 0008 FFF7FEFF 		bl	_fx_media_extended_space_available
  52              	.LVL2:
  85:Middlewares/ST/filex/common/src/fx_media_space_available.c **** 
  86:Middlewares/ST/filex/common/src/fx_media_space_available.c ****     /* Check status.  */
  87:Middlewares/ST/filex/common/src/fx_media_space_available.c ****     if (status == FX_SUCCESS)
  53              		.loc 1 87 5 is_stmt 1 view .LVU7
  54              		.loc 1 87 8 is_stmt 0 view .LVU8
  55 000c 60B9     		cbnz	r0, .L1
  88:Middlewares/ST/filex/common/src/fx_media_space_available.c ****     {
  89:Middlewares/ST/filex/common/src/fx_media_space_available.c **** 
  90:Middlewares/ST/filex/common/src/fx_media_space_available.c ****         /* Determine if more than 4GB available.  */
  91:Middlewares/ST/filex/common/src/fx_media_space_available.c ****         if (available_bytes > 0x00000000FFFFFFFF)
  56              		.loc 1 91 9 is_stmt 1 view .LVU9
  57              		.loc 1 91 29 is_stmt 0 view .LVU10
  58 000e 009B     		ldr	r3, [sp]
  59              		.loc 1 91 12 view .LVU11
  60 0010 4FF0FF32 		mov	r2, #-1
  61 0014 9A42     		cmp	r2, r3
  62 0016 019A     		ldr	r2, [sp, #4]
  63 0018 4FF00001 		mov	r1, #0
  64 001c 71EB0202 		sbcs	r2, r1, r2
  65 0020 04D2     		bcs	.L3
  92:Middlewares/ST/filex/common/src/fx_media_space_available.c ****         {
  93:Middlewares/ST/filex/common/src/fx_media_space_available.c **** 
  94:Middlewares/ST/filex/common/src/fx_media_space_available.c ****             /* Yes, we must have more than 4GB available... report the maximum we can fit
  95:Middlewares/ST/filex/common/src/fx_media_space_available.c ****                in 32bits, which is 4GB.  */
  96:Middlewares/ST/filex/common/src/fx_media_space_available.c ****             *available_bytes_ptr = 0xFFFFFFFF;
  66              		.loc 1 96 13 is_stmt 1 view .LVU12
  67              		.loc 1 96 34 is_stmt 0 view .LVU13
  68 0022 4FF0FF33 		mov	r3, #-1
  69 0026 2360     		str	r3, [r4]
  70              	.L1:
  97:Middlewares/ST/filex/common/src/fx_media_space_available.c ****         }
  98:Middlewares/ST/filex/common/src/fx_media_space_available.c ****         else
  99:Middlewares/ST/filex/common/src/fx_media_space_available.c ****         {
 100:Middlewares/ST/filex/common/src/fx_media_space_available.c ****             *available_bytes_ptr = (ULONG)(available_bytes);
 101:Middlewares/ST/filex/common/src/fx_media_space_available.c ****         }
 102:Middlewares/ST/filex/common/src/fx_media_space_available.c ****     }
ARM GAS  C:\Users\HP\AppData\Local\Temp\cctfzLQt.s 			page 4


 103:Middlewares/ST/filex/common/src/fx_media_space_available.c **** 
 104:Middlewares/ST/filex/common/src/fx_media_space_available.c ****     /* Return status to the caller.  */
 105:Middlewares/ST/filex/common/src/fx_media_space_available.c ****     return(status);
 106:Middlewares/ST/filex/common/src/fx_media_space_available.c **** }
  71              		.loc 1 106 1 view .LVU14
  72 0028 02B0     		add	sp, sp, #8
  73              	.LCFI2:
  74              		.cfi_remember_state
  75              		.cfi_def_cfa_offset 8
  76              		@ sp needed
  77 002a 10BD     		pop	{r4, pc}
  78              	.LVL3:
  79              	.L3:
  80              	.LCFI3:
  81              		.cfi_restore_state
 100:Middlewares/ST/filex/common/src/fx_media_space_available.c ****         }
  82              		.loc 1 100 13 is_stmt 1 view .LVU15
 100:Middlewares/ST/filex/common/src/fx_media_space_available.c ****         }
  83              		.loc 1 100 34 is_stmt 0 view .LVU16
  84 002c 2360     		str	r3, [r4]
 105:Middlewares/ST/filex/common/src/fx_media_space_available.c **** }
  85              		.loc 1 105 5 is_stmt 1 view .LVU17
 105:Middlewares/ST/filex/common/src/fx_media_space_available.c **** }
  86              		.loc 1 105 11 is_stmt 0 view .LVU18
  87 002e FBE7     		b	.L1
  88              		.cfi_endproc
  89              	.LFE8:
  91              		.text
  92              	.Letext0:
  93              		.file 2 "Middlewares/ST/threadx/ports/cortex_m4/gnu/inc/tx_port.h"
  94              		.file 3 "Middlewares/ST/threadx/common/inc/tx_api.h"
  95              		.file 4 "Middlewares/ST/filex/common/inc/fx_api.h"
  96              		.file 5 "Middlewares/ST/filex/common/inc/fx_media.h"
ARM GAS  C:\Users\HP\AppData\Local\Temp\cctfzLQt.s 			page 5

