ARM GAS  C:\Users\HP\AppData\Local\Temp\ccCKtT2B.s 			page 1


   1              		.cpu cortex-m4
   2              		.arch armv7e-m
   3              		.fpu fpv4-sp-d16
   4              		.eabi_attribute 27, 1
   5              		.eabi_attribute 28, 1
   6              		.eabi_attribute 20, 1
   7              		.eabi_attribute 21, 1
   8              		.eabi_attribute 23, 3
   9              		.eabi_attribute 24, 1
  10              		.eabi_attribute 25, 1
  11              		.eabi_attribute 26, 1
  12              		.eabi_attribute 30, 1
  13              		.eabi_attribute 34, 1
  14              		.eabi_attribute 18, 4
  15              		.file	"fx_media_open.c"
  16              		.text
  17              	.Ltext0:
  18              		.cfi_sections	.debug_frame
  19              		.global	__aeabi_uldivmod
  20              		.section	.rodata._fx_media_open.str1.4,"aMS",%progbits,1
  21              		.align	2
  22              	.LC0:
  23 0000 46696C65 		.ascii	"FileX Media Mutex\000"
  23      58204D65 
  23      64696120 
  23      4D757465 
  23      7800
  24              		.section	.text._fx_media_open,"ax",%progbits
  25              		.align	1
  26              		.global	_fx_media_open
  27              		.syntax unified
  28              		.thumb
  29              		.thumb_func
  31              	_fx_media_open:
  32              	.LVL0:
  33              	.LFB8:
  34              		.file 1 "Middlewares/ST/filex/common/src/fx_media_open.c"
   1:Middlewares/ST/filex/common/src/fx_media_open.c **** /**************************************************************************/
   2:Middlewares/ST/filex/common/src/fx_media_open.c **** /*                                                                        */
   3:Middlewares/ST/filex/common/src/fx_media_open.c **** /*       Copyright (c) Microsoft Corporation. All rights reserved.        */
   4:Middlewares/ST/filex/common/src/fx_media_open.c **** /*                                                                        */
   5:Middlewares/ST/filex/common/src/fx_media_open.c **** /*       This software is licensed under the Microsoft Software License   */
   6:Middlewares/ST/filex/common/src/fx_media_open.c **** /*       Terms for Microsoft Azure RTOS. Full text of the license can be  */
   7:Middlewares/ST/filex/common/src/fx_media_open.c **** /*       found in the LICENSE file at https://aka.ms/AzureRTOS_EULA       */
   8:Middlewares/ST/filex/common/src/fx_media_open.c **** /*       and in the root directory of this software.                      */
   9:Middlewares/ST/filex/common/src/fx_media_open.c **** /*                                                                        */
  10:Middlewares/ST/filex/common/src/fx_media_open.c **** /**************************************************************************/
  11:Middlewares/ST/filex/common/src/fx_media_open.c **** 
  12:Middlewares/ST/filex/common/src/fx_media_open.c **** 
  13:Middlewares/ST/filex/common/src/fx_media_open.c **** /**************************************************************************/
  14:Middlewares/ST/filex/common/src/fx_media_open.c **** /**************************************************************************/
  15:Middlewares/ST/filex/common/src/fx_media_open.c **** /**                                                                       */
  16:Middlewares/ST/filex/common/src/fx_media_open.c **** /** FileX Component                                                       */
  17:Middlewares/ST/filex/common/src/fx_media_open.c **** /**                                                                       */
  18:Middlewares/ST/filex/common/src/fx_media_open.c **** /**   Media                                                               */
  19:Middlewares/ST/filex/common/src/fx_media_open.c **** /**                                                                       */
  20:Middlewares/ST/filex/common/src/fx_media_open.c **** /**************************************************************************/
ARM GAS  C:\Users\HP\AppData\Local\Temp\ccCKtT2B.s 			page 2


  21:Middlewares/ST/filex/common/src/fx_media_open.c **** /**************************************************************************/
  22:Middlewares/ST/filex/common/src/fx_media_open.c **** 
  23:Middlewares/ST/filex/common/src/fx_media_open.c **** #define FX_SOURCE_CODE
  24:Middlewares/ST/filex/common/src/fx_media_open.c **** 
  25:Middlewares/ST/filex/common/src/fx_media_open.c **** 
  26:Middlewares/ST/filex/common/src/fx_media_open.c **** /* Include necessary system files.  */
  27:Middlewares/ST/filex/common/src/fx_media_open.c **** 
  28:Middlewares/ST/filex/common/src/fx_media_open.c **** #include "fx_api.h"
  29:Middlewares/ST/filex/common/src/fx_media_open.c **** #include "fx_system.h"
  30:Middlewares/ST/filex/common/src/fx_media_open.c **** #include "fx_media.h"
  31:Middlewares/ST/filex/common/src/fx_media_open.c **** #include "fx_utility.h"
  32:Middlewares/ST/filex/common/src/fx_media_open.c **** 
  33:Middlewares/ST/filex/common/src/fx_media_open.c **** 
  34:Middlewares/ST/filex/common/src/fx_media_open.c **** /**************************************************************************/
  35:Middlewares/ST/filex/common/src/fx_media_open.c **** /*                                                                        */
  36:Middlewares/ST/filex/common/src/fx_media_open.c **** /*  FUNCTION                                               RELEASE        */
  37:Middlewares/ST/filex/common/src/fx_media_open.c **** /*                                                                        */
  38:Middlewares/ST/filex/common/src/fx_media_open.c **** /*    _fx_media_open                                      PORTABLE C      */
  39:Middlewares/ST/filex/common/src/fx_media_open.c **** /*                                                           6.2.0        */
  40:Middlewares/ST/filex/common/src/fx_media_open.c **** /*  AUTHOR                                                                */
  41:Middlewares/ST/filex/common/src/fx_media_open.c **** /*                                                                        */
  42:Middlewares/ST/filex/common/src/fx_media_open.c **** /*    William E. Lamie, Microsoft Corporation                             */
  43:Middlewares/ST/filex/common/src/fx_media_open.c **** /*                                                                        */
  44:Middlewares/ST/filex/common/src/fx_media_open.c **** /*  DESCRIPTION                                                           */
  45:Middlewares/ST/filex/common/src/fx_media_open.c **** /*                                                                        */
  46:Middlewares/ST/filex/common/src/fx_media_open.c **** /*    This function opens the specified media with the supplied device    */
  47:Middlewares/ST/filex/common/src/fx_media_open.c **** /*    driver.  The specified media must conform to the FAT compatible     */
  48:Middlewares/ST/filex/common/src/fx_media_open.c **** /*    file format, which is verified during the media open process.  In   */
  49:Middlewares/ST/filex/common/src/fx_media_open.c **** /*    addition, the supplied FileX device driver must also conform to     */
  50:Middlewares/ST/filex/common/src/fx_media_open.c **** /*    the FileX device driver specification.                              */
  51:Middlewares/ST/filex/common/src/fx_media_open.c **** /*                                                                        */
  52:Middlewares/ST/filex/common/src/fx_media_open.c **** /*    The FAT boot sector (512 bytes) that is verified by this            */
  53:Middlewares/ST/filex/common/src/fx_media_open.c **** /*    function must look like the following:                              */
  54:Middlewares/ST/filex/common/src/fx_media_open.c **** /*                                                                        */
  55:Middlewares/ST/filex/common/src/fx_media_open.c **** /*          Byte Offset         Meaning             Size                  */
  56:Middlewares/ST/filex/common/src/fx_media_open.c **** /*                                                                        */
  57:Middlewares/ST/filex/common/src/fx_media_open.c **** /*            0x000         Jump Instructions        3                    */
  58:Middlewares/ST/filex/common/src/fx_media_open.c **** /*            0x003         OEM Name                 8                    */
  59:Middlewares/ST/filex/common/src/fx_media_open.c **** /*            0x00B        *Bytes per Sector         2                    */
  60:Middlewares/ST/filex/common/src/fx_media_open.c **** /*            0x00D        *Sectors per Cluster      1                    */
  61:Middlewares/ST/filex/common/src/fx_media_open.c **** /*            0x00E        *Reserved Sectors         2                    */
  62:Middlewares/ST/filex/common/src/fx_media_open.c **** /*            0x010        *Number of FATs           1                    */
  63:Middlewares/ST/filex/common/src/fx_media_open.c **** /*            0x011        *Max Root Dir Entries     2                    */
  64:Middlewares/ST/filex/common/src/fx_media_open.c **** /*            0x013        *Number of Sectors        2                    */
  65:Middlewares/ST/filex/common/src/fx_media_open.c **** /*            0x015         Media Type               1                    */
  66:Middlewares/ST/filex/common/src/fx_media_open.c **** /*            0x016        *Sectors per FAT          2                    */
  67:Middlewares/ST/filex/common/src/fx_media_open.c **** /*            0x018        *Sectors per Track        2                    */
  68:Middlewares/ST/filex/common/src/fx_media_open.c **** /*            0x01A        *Number of Heads          2                    */
  69:Middlewares/ST/filex/common/src/fx_media_open.c **** /*            0x01C        *Hidden Sectors           4                    */
  70:Middlewares/ST/filex/common/src/fx_media_open.c **** /*            0x020        *Huge Sectors             4                    */
  71:Middlewares/ST/filex/common/src/fx_media_open.c **** /*            0x024         Drive Number             1                    */
  72:Middlewares/ST/filex/common/src/fx_media_open.c **** /*            0x025         Reserved                 1                    */
  73:Middlewares/ST/filex/common/src/fx_media_open.c **** /*            0x026         Boot Signature           1                    */
  74:Middlewares/ST/filex/common/src/fx_media_open.c **** /*            0x027         Volume ID                4                    */
  75:Middlewares/ST/filex/common/src/fx_media_open.c **** /*            0x02B         Volume Label             11                   */
  76:Middlewares/ST/filex/common/src/fx_media_open.c **** /*            0x036         File System Type         8                    */
  77:Middlewares/ST/filex/common/src/fx_media_open.c **** /*             ...              ...                 ...                   */
ARM GAS  C:\Users\HP\AppData\Local\Temp\ccCKtT2B.s 			page 3


  78:Middlewares/ST/filex/common/src/fx_media_open.c **** /*            0x1FE       **Signature (0x55aa)       2                    */
  79:Middlewares/ST/filex/common/src/fx_media_open.c **** /*                                                                        */
  80:Middlewares/ST/filex/common/src/fx_media_open.c **** /*            * Denotes which elements of the boot record                 */
  81:Middlewares/ST/filex/common/src/fx_media_open.c **** /*              FileX uses.                                               */
  82:Middlewares/ST/filex/common/src/fx_media_open.c **** /*                                                                        */
  83:Middlewares/ST/filex/common/src/fx_media_open.c **** /*            **Denotes the element is checked by the I/O                 */
  84:Middlewares/ST/filex/common/src/fx_media_open.c **** /*              driver.  This eliminates the need for a minimum           */
  85:Middlewares/ST/filex/common/src/fx_media_open.c **** /*              512-byte buffer for FileX.                                */
  86:Middlewares/ST/filex/common/src/fx_media_open.c **** /*                                                                        */
  87:Middlewares/ST/filex/common/src/fx_media_open.c **** /*  Note: All values above are in little endian format, i.e. the LSB is   */
  88:Middlewares/ST/filex/common/src/fx_media_open.c **** /*        in the lowest address.                                          */
  89:Middlewares/ST/filex/common/src/fx_media_open.c **** /*                                                                        */
  90:Middlewares/ST/filex/common/src/fx_media_open.c **** /*  INPUT                                                                 */
  91:Middlewares/ST/filex/common/src/fx_media_open.c **** /*                                                                        */
  92:Middlewares/ST/filex/common/src/fx_media_open.c **** /*    media_ptr                             Media control block pointer   */
  93:Middlewares/ST/filex/common/src/fx_media_open.c **** /*    media_name                            Pointer to media name string  */
  94:Middlewares/ST/filex/common/src/fx_media_open.c **** /*    media_driver                          Media driver entry function   */
  95:Middlewares/ST/filex/common/src/fx_media_open.c **** /*    driver_info_ptr                       Optional information pointer  */
  96:Middlewares/ST/filex/common/src/fx_media_open.c **** /*                                            supplied to media driver    */
  97:Middlewares/ST/filex/common/src/fx_media_open.c **** /*    memory_ptr                            Pointer to memory used by the */
  98:Middlewares/ST/filex/common/src/fx_media_open.c **** /*                                            FileX for this media.       */
  99:Middlewares/ST/filex/common/src/fx_media_open.c **** /*    memory_size                           Size of media memory - must   */
 100:Middlewares/ST/filex/common/src/fx_media_open.c **** /*                                            at least 512 bytes and      */
 101:Middlewares/ST/filex/common/src/fx_media_open.c **** /*                                            one sector size.            */
 102:Middlewares/ST/filex/common/src/fx_media_open.c **** /*                                                                        */
 103:Middlewares/ST/filex/common/src/fx_media_open.c **** /*  OUTPUT                                                                */
 104:Middlewares/ST/filex/common/src/fx_media_open.c **** /*                                                                        */
 105:Middlewares/ST/filex/common/src/fx_media_open.c **** /*    return status                                                       */
 106:Middlewares/ST/filex/common/src/fx_media_open.c **** /*                                                                        */
 107:Middlewares/ST/filex/common/src/fx_media_open.c **** /*  CALLS                                                                 */
 108:Middlewares/ST/filex/common/src/fx_media_open.c **** /*                                                                        */
 109:Middlewares/ST/filex/common/src/fx_media_open.c **** /*    I/O Driver                                                          */
 110:Middlewares/ST/filex/common/src/fx_media_open.c **** /*    _fx_utility_exFAT_bitmap_initialize   Initialize exFAT bitmap       */
 111:Middlewares/ST/filex/common/src/fx_media_open.c **** /*    _fx_utility_16_unsigned_read          Read 16-bit unsigned value    */
 112:Middlewares/ST/filex/common/src/fx_media_open.c **** /*    _fx_utility_32_unsigned_read          Read 32-bit unsigned value    */
 113:Middlewares/ST/filex/common/src/fx_media_open.c **** /*    _fx_utility_logical_sector_flush      Invalidate log sector cache   */
 114:Middlewares/ST/filex/common/src/fx_media_open.c **** /*    _fx_media_boot_info_extract           Extract media information     */
 115:Middlewares/ST/filex/common/src/fx_media_open.c **** /*    _fx_utility_FAT_entry_read            Pickup FAT entry contents     */
 116:Middlewares/ST/filex/common/src/fx_media_open.c **** /*    tx_mutex_create                       Create protection mutex       */
 117:Middlewares/ST/filex/common/src/fx_media_open.c **** /*                                                                        */
 118:Middlewares/ST/filex/common/src/fx_media_open.c **** /*  CALLED BY                                                             */
 119:Middlewares/ST/filex/common/src/fx_media_open.c **** /*                                                                        */
 120:Middlewares/ST/filex/common/src/fx_media_open.c **** /*    Application Code                                                    */
 121:Middlewares/ST/filex/common/src/fx_media_open.c **** /*                                                                        */
 122:Middlewares/ST/filex/common/src/fx_media_open.c **** /*  RELEASE HISTORY                                                       */
 123:Middlewares/ST/filex/common/src/fx_media_open.c **** /*                                                                        */
 124:Middlewares/ST/filex/common/src/fx_media_open.c **** /*    DATE              NAME                      DESCRIPTION             */
 125:Middlewares/ST/filex/common/src/fx_media_open.c **** /*                                                                        */
 126:Middlewares/ST/filex/common/src/fx_media_open.c **** /*  05-19-2020     William E. Lamie         Initial Version 6.0           */
 127:Middlewares/ST/filex/common/src/fx_media_open.c **** /*  09-30-2020     William E. Lamie         Modified comment(s), and      */
 128:Middlewares/ST/filex/common/src/fx_media_open.c **** /*                                            added conditional to        */
 129:Middlewares/ST/filex/common/src/fx_media_open.c **** /*                                            disable force memset,       */
 130:Middlewares/ST/filex/common/src/fx_media_open.c **** /*                                            build options and cache,    */
 131:Middlewares/ST/filex/common/src/fx_media_open.c **** /*                                            resulting in version 6.1    */
 132:Middlewares/ST/filex/common/src/fx_media_open.c **** /*  01-31-2022     William E. Lamie         Modified comment(s), fixed    */
 133:Middlewares/ST/filex/common/src/fx_media_open.c **** /*                                            errors without cache,       */
 134:Middlewares/ST/filex/common/src/fx_media_open.c **** /*                                            resulting in version 6.1.10 */
ARM GAS  C:\Users\HP\AppData\Local\Temp\ccCKtT2B.s 			page 4


 135:Middlewares/ST/filex/common/src/fx_media_open.c **** /*  10-31-2022     Tiejun Zhou              Modified comment(s),          */
 136:Middlewares/ST/filex/common/src/fx_media_open.c **** /*                                            fixed memory buffer when    */
 137:Middlewares/ST/filex/common/src/fx_media_open.c **** /*                                            cache is disabled,          */
 138:Middlewares/ST/filex/common/src/fx_media_open.c **** /*                                            resulting in version 6.2.0  */
 139:Middlewares/ST/filex/common/src/fx_media_open.c **** /*                                                                        */
 140:Middlewares/ST/filex/common/src/fx_media_open.c **** /**************************************************************************/
 141:Middlewares/ST/filex/common/src/fx_media_open.c **** UINT  _fx_media_open(FX_MEDIA *media_ptr, CHAR *media_name,
 142:Middlewares/ST/filex/common/src/fx_media_open.c ****                      VOID (*media_driver)(FX_MEDIA *), VOID *driver_info_ptr,
 143:Middlewares/ST/filex/common/src/fx_media_open.c ****                      VOID *memory_ptr, ULONG memory_size)
 144:Middlewares/ST/filex/common/src/fx_media_open.c **** {
  35              		.loc 1 144 1 view -0
  36              		.cfi_startproc
  37              		@ args = 8, pretend = 0, frame = 8
  38              		@ frame_needed = 0, uses_anonymous_args = 0
  39              		.loc 1 144 1 is_stmt 0 view .LVU1
  40 0000 2DE9F043 		push	{r4, r5, r6, r7, r8, r9, lr}
  41              	.LCFI0:
  42              		.cfi_def_cfa_offset 28
  43              		.cfi_offset 4, -28
  44              		.cfi_offset 5, -24
  45              		.cfi_offset 6, -20
  46              		.cfi_offset 7, -16
  47              		.cfi_offset 8, -12
  48              		.cfi_offset 9, -8
  49              		.cfi_offset 14, -4
  50 0004 87B0     		sub	sp, sp, #28
  51              	.LCFI1:
  52              		.cfi_def_cfa_offset 56
  53 0006 0446     		mov	r4, r0
  54 0008 0E9D     		ldr	r5, [sp, #56]
 145:Middlewares/ST/filex/common/src/fx_media_open.c **** 
 146:Middlewares/ST/filex/common/src/fx_media_open.c **** FX_MEDIA_PTR      tail_ptr;
  55              		.loc 1 146 1 is_stmt 1 view .LVU2
 147:Middlewares/ST/filex/common/src/fx_media_open.c **** ULONG             cluster_number;
  56              		.loc 1 147 1 view .LVU3
 148:Middlewares/ST/filex/common/src/fx_media_open.c **** ULONG             FAT_entry, FAT_sector, FAT_read_sectors;
  57              		.loc 1 148 1 view .LVU4
 149:Middlewares/ST/filex/common/src/fx_media_open.c **** ULONG             i, j;
  58              		.loc 1 149 1 view .LVU5
 150:Middlewares/ST/filex/common/src/fx_media_open.c **** #ifndef FX_DISABLE_CACHE
 151:Middlewares/ST/filex/common/src/fx_media_open.c **** FX_CACHED_SECTOR *cache_entry_ptr;
  59              		.loc 1 151 1 view .LVU6
 152:Middlewares/ST/filex/common/src/fx_media_open.c **** #endif /* FX_DISABLE_CACHE */
 153:Middlewares/ST/filex/common/src/fx_media_open.c **** UINT              status;
  60              		.loc 1 153 1 view .LVU7
 154:Middlewares/ST/filex/common/src/fx_media_open.c **** UINT              additional_info_sector;
  61              		.loc 1 154 1 view .LVU8
 155:Middlewares/ST/filex/common/src/fx_media_open.c **** UCHAR            *original_memory_ptr;
  62              		.loc 1 155 1 view .LVU9
 156:Middlewares/ST/filex/common/src/fx_media_open.c **** ULONG             bytes_in_buffer;
  63              		.loc 1 156 1 view .LVU10
 157:Middlewares/ST/filex/common/src/fx_media_open.c **** FX_INT_SAVE_AREA
  64              		.loc 1 157 1 view .LVU11
 158:Middlewares/ST/filex/common/src/fx_media_open.c **** 
 159:Middlewares/ST/filex/common/src/fx_media_open.c **** 
 160:Middlewares/ST/filex/common/src/fx_media_open.c **** #ifndef FX_DISABLE_BUILD_OPTIONS
 161:Middlewares/ST/filex/common/src/fx_media_open.c ****     /* Reference the version ID and option words to ensure they are linked in.  */
ARM GAS  C:\Users\HP\AppData\Local\Temp\ccCKtT2B.s 			page 5


 162:Middlewares/ST/filex/common/src/fx_media_open.c ****     if ((_fx_system_build_options_1 | _fx_system_build_options_2 | _fx_system_build_options_3) == 0
  65              		.loc 1 162 5 view .LVU12
  66              		.loc 1 162 37 is_stmt 0 view .LVU13
  67 000a A748     		ldr	r0, .L68+8
  68              	.LVL1:
  69              		.loc 1 162 37 view .LVU14
  70 000c 0068     		ldr	r0, [r0]
  71 000e A74E     		ldr	r6, .L68+12
  72 0010 3668     		ldr	r6, [r6]
  73 0012 3043     		orrs	r0, r0, r6
  74              		.loc 1 162 66 view .LVU15
  75 0014 A64E     		ldr	r6, .L68+16
  76 0016 3668     		ldr	r6, [r6]
  77              		.loc 1 162 8 view .LVU16
  78 0018 3043     		orrs	r0, r0, r6
  79 001a 00F02C83 		beq	.L48
 163:Middlewares/ST/filex/common/src/fx_media_open.c ****         _fx_version_id[0] == 0)
  80              		.loc 1 163 23 discriminator 1 view .LVU17
  81 001e A548     		ldr	r0, .L68+20
  82 0020 0078     		ldrb	r0, [r0]	@ zero_extendqisi2
 162:Middlewares/ST/filex/common/src/fx_media_open.c ****         _fx_version_id[0] == 0)
  83              		.loc 1 162 101 discriminator 1 view .LVU18
  84 0022 0028     		cmp	r0, #0
  85 0024 00F02983 		beq	.L49
 164:Middlewares/ST/filex/common/src/fx_media_open.c ****     {
 165:Middlewares/ST/filex/common/src/fx_media_open.c **** 
 166:Middlewares/ST/filex/common/src/fx_media_open.c ****         /* We should never get here!  */
 167:Middlewares/ST/filex/common/src/fx_media_open.c ****         return(FX_NOT_IMPLEMENTED);
 168:Middlewares/ST/filex/common/src/fx_media_open.c ****     }
 169:Middlewares/ST/filex/common/src/fx_media_open.c **** #endif /* FX_DISABLE_BUILD_OPTIONS */
 170:Middlewares/ST/filex/common/src/fx_media_open.c **** 
 171:Middlewares/ST/filex/common/src/fx_media_open.c **** #ifdef FX_DISABLE_FORCE_MEMORY_OPERATION
 172:Middlewares/ST/filex/common/src/fx_media_open.c ****     _fx_utility_memory_set((UCHAR *)media_ptr, 0, sizeof(FX_MEDIA));
 173:Middlewares/ST/filex/common/src/fx_media_open.c **** #endif /* FX_DISABLE_FORCE_MEMORY_OPERATION */
 174:Middlewares/ST/filex/common/src/fx_media_open.c **** #ifdef FX_DISABLE_CACHE
 175:Middlewares/ST/filex/common/src/fx_media_open.c ****     media_ptr -> fx_media_memory_buffer_sector = (ULONG64)-1;
 176:Middlewares/ST/filex/common/src/fx_media_open.c **** #endif /* FX_DISABLE_CACHE */
 177:Middlewares/ST/filex/common/src/fx_media_open.c **** 
 178:Middlewares/ST/filex/common/src/fx_media_open.c ****     /* Save the basic information in the media control block.  */
 179:Middlewares/ST/filex/common/src/fx_media_open.c ****     media_ptr -> fx_media_name =                        media_name;
  86              		.loc 1 179 5 is_stmt 1 view .LVU19
  87              		.loc 1 179 32 is_stmt 0 view .LVU20
  88 0028 6160     		str	r1, [r4, #4]
 180:Middlewares/ST/filex/common/src/fx_media_open.c ****     media_ptr -> fx_media_driver_entry =                media_driver;
  89              		.loc 1 180 5 is_stmt 1 view .LVU21
  90              		.loc 1 180 40 is_stmt 0 view .LVU22
  91 002a C4F8BC20 		str	r2, [r4, #188]
 181:Middlewares/ST/filex/common/src/fx_media_open.c ****     media_ptr -> fx_media_memory_buffer =               (UCHAR *)memory_ptr;
  92              		.loc 1 181 5 is_stmt 1 view .LVU23
  93              		.loc 1 181 41 is_stmt 0 view .LVU24
  94 002e A560     		str	r5, [r4, #8]
 182:Middlewares/ST/filex/common/src/fx_media_open.c ****     media_ptr -> fx_media_memory_size =                 memory_size;
  95              		.loc 1 182 5 is_stmt 1 view .LVU25
  96              		.loc 1 182 39 is_stmt 0 view .LVU26
  97 0030 0F99     		ldr	r1, [sp, #60]
  98              	.LVL2:
  99              		.loc 1 182 39 view .LVU27
ARM GAS  C:\Users\HP\AppData\Local\Temp\ccCKtT2B.s 			page 6


 100 0032 E160     		str	r1, [r4, #12]
 183:Middlewares/ST/filex/common/src/fx_media_open.c **** #ifndef FX_DISABLE_FORCE_MEMORY_OPERATION
 184:Middlewares/ST/filex/common/src/fx_media_open.c ****     media_ptr -> fx_media_disable_burst_cache =         FX_FALSE;
 101              		.loc 1 184 5 is_stmt 1 view .LVU28
 102              		.loc 1 184 47 is_stmt 0 view .LVU29
 103 0034 04F50050 		add	r0, r4, #8192
 104 0038 0021     		movs	r1, #0
 105 003a C0F8A414 		str	r1, [r0, #1188]
 185:Middlewares/ST/filex/common/src/fx_media_open.c ****     media_ptr -> fx_media_FAT_type =                    0;
 106              		.loc 1 185 5 is_stmt 1 view .LVU30
 107              		.loc 1 185 36 is_stmt 0 view .LVU31
 108 003e 80F8B014 		strb	r1, [r0, #1200]
 186:Middlewares/ST/filex/common/src/fx_media_open.c **** #endif /* FX_DISABLE_FORCE_MEMORY_OPERATION */
 187:Middlewares/ST/filex/common/src/fx_media_open.c **** 
 188:Middlewares/ST/filex/common/src/fx_media_open.c ****     /* Save the original memory pointer.  */
 189:Middlewares/ST/filex/common/src/fx_media_open.c ****     original_memory_ptr =  (UCHAR *)memory_ptr;
 109              		.loc 1 189 5 is_stmt 1 view .LVU32
 110              	.LVL3:
 190:Middlewares/ST/filex/common/src/fx_media_open.c **** 
 191:Middlewares/ST/filex/common/src/fx_media_open.c **** #ifndef FX_MEDIA_STATISTICS_DISABLE
 192:Middlewares/ST/filex/common/src/fx_media_open.c **** 
 193:Middlewares/ST/filex/common/src/fx_media_open.c ****     /* Clear the optional media statistics.  */
 194:Middlewares/ST/filex/common/src/fx_media_open.c ****     media_ptr -> fx_media_directory_attributes_reads =  0;
 111              		.loc 1 194 5 view .LVU33
 112              		.loc 1 194 54 is_stmt 0 view .LVU34
 113 0042 C4F8D810 		str	r1, [r4, #216]
 195:Middlewares/ST/filex/common/src/fx_media_open.c ****     media_ptr -> fx_media_directory_attributes_sets =  0;
 114              		.loc 1 195 5 is_stmt 1 view .LVU35
 115              		.loc 1 195 53 is_stmt 0 view .LVU36
 116 0046 C4F8DC10 		str	r1, [r4, #220]
 196:Middlewares/ST/filex/common/src/fx_media_open.c ****     media_ptr -> fx_media_directory_creates =  0;
 117              		.loc 1 196 5 is_stmt 1 view .LVU37
 118              		.loc 1 196 45 is_stmt 0 view .LVU38
 119 004a C4F8E010 		str	r1, [r4, #224]
 197:Middlewares/ST/filex/common/src/fx_media_open.c ****     media_ptr -> fx_media_directory_default_gets =  0;
 120              		.loc 1 197 5 is_stmt 1 view .LVU39
 121              		.loc 1 197 50 is_stmt 0 view .LVU40
 122 004e C4F8E410 		str	r1, [r4, #228]
 198:Middlewares/ST/filex/common/src/fx_media_open.c ****     media_ptr -> fx_media_directory_default_sets =  0;
 123              		.loc 1 198 5 is_stmt 1 view .LVU41
 124              		.loc 1 198 50 is_stmt 0 view .LVU42
 125 0052 C4F8E810 		str	r1, [r4, #232]
 199:Middlewares/ST/filex/common/src/fx_media_open.c ****     media_ptr -> fx_media_directory_deletes =  0;
 126              		.loc 1 199 5 is_stmt 1 view .LVU43
 127              		.loc 1 199 45 is_stmt 0 view .LVU44
 128 0056 C4F8EC10 		str	r1, [r4, #236]
 200:Middlewares/ST/filex/common/src/fx_media_open.c ****     media_ptr -> fx_media_directory_first_entry_finds =  0;
 129              		.loc 1 200 5 is_stmt 1 view .LVU45
 130              		.loc 1 200 55 is_stmt 0 view .LVU46
 131 005a C4F8F010 		str	r1, [r4, #240]
 201:Middlewares/ST/filex/common/src/fx_media_open.c ****     media_ptr -> fx_media_directory_first_full_entry_finds =  0;
 132              		.loc 1 201 5 is_stmt 1 view .LVU47
 133              		.loc 1 201 60 is_stmt 0 view .LVU48
 134 005e C4F8F410 		str	r1, [r4, #244]
 202:Middlewares/ST/filex/common/src/fx_media_open.c ****     media_ptr -> fx_media_directory_information_gets =  0;
 135              		.loc 1 202 5 is_stmt 1 view .LVU49
 136              		.loc 1 202 54 is_stmt 0 view .LVU50
ARM GAS  C:\Users\HP\AppData\Local\Temp\ccCKtT2B.s 			page 7


 137 0062 C4F8F810 		str	r1, [r4, #248]
 203:Middlewares/ST/filex/common/src/fx_media_open.c ****     media_ptr -> fx_media_directory_local_path_clears =  0;
 138              		.loc 1 203 5 is_stmt 1 view .LVU51
 139              		.loc 1 203 55 is_stmt 0 view .LVU52
 140 0066 C4F8FC10 		str	r1, [r4, #252]
 204:Middlewares/ST/filex/common/src/fx_media_open.c ****     media_ptr -> fx_media_directory_local_path_gets =  0;
 141              		.loc 1 204 5 is_stmt 1 view .LVU53
 142              		.loc 1 204 53 is_stmt 0 view .LVU54
 143 006a C4F80011 		str	r1, [r4, #256]
 205:Middlewares/ST/filex/common/src/fx_media_open.c ****     media_ptr -> fx_media_directory_local_path_restores =  0;
 144              		.loc 1 205 5 is_stmt 1 view .LVU55
 145              		.loc 1 205 57 is_stmt 0 view .LVU56
 146 006e C4F80411 		str	r1, [r4, #260]
 206:Middlewares/ST/filex/common/src/fx_media_open.c ****     media_ptr -> fx_media_directory_local_path_sets =  0;
 147              		.loc 1 206 5 is_stmt 1 view .LVU57
 148              		.loc 1 206 53 is_stmt 0 view .LVU58
 149 0072 C4F80811 		str	r1, [r4, #264]
 207:Middlewares/ST/filex/common/src/fx_media_open.c ****     media_ptr -> fx_media_directory_name_tests =  0;
 150              		.loc 1 207 5 is_stmt 1 view .LVU59
 151              		.loc 1 207 48 is_stmt 0 view .LVU60
 152 0076 C4F80C11 		str	r1, [r4, #268]
 208:Middlewares/ST/filex/common/src/fx_media_open.c ****     media_ptr -> fx_media_directory_next_entry_finds =  0;
 153              		.loc 1 208 5 is_stmt 1 view .LVU61
 154              		.loc 1 208 54 is_stmt 0 view .LVU62
 155 007a C4F81011 		str	r1, [r4, #272]
 209:Middlewares/ST/filex/common/src/fx_media_open.c ****     media_ptr -> fx_media_directory_next_full_entry_finds =  0;
 156              		.loc 1 209 5 is_stmt 1 view .LVU63
 157              		.loc 1 209 59 is_stmt 0 view .LVU64
 158 007e C4F81411 		str	r1, [r4, #276]
 210:Middlewares/ST/filex/common/src/fx_media_open.c ****     media_ptr -> fx_media_directory_renames =  0;
 159              		.loc 1 210 5 is_stmt 1 view .LVU65
 160              		.loc 1 210 45 is_stmt 0 view .LVU66
 161 0082 C4F81811 		str	r1, [r4, #280]
 211:Middlewares/ST/filex/common/src/fx_media_open.c ****     media_ptr -> fx_media_file_allocates =  0;
 162              		.loc 1 211 5 is_stmt 1 view .LVU67
 163              		.loc 1 211 42 is_stmt 0 view .LVU68
 164 0086 C4F81C11 		str	r1, [r4, #284]
 212:Middlewares/ST/filex/common/src/fx_media_open.c ****     media_ptr -> fx_media_file_attributes_reads =  0;
 165              		.loc 1 212 5 is_stmt 1 view .LVU69
 166              		.loc 1 212 49 is_stmt 0 view .LVU70
 167 008a C4F82011 		str	r1, [r4, #288]
 213:Middlewares/ST/filex/common/src/fx_media_open.c ****     media_ptr -> fx_media_file_attributes_sets =  0;
 168              		.loc 1 213 5 is_stmt 1 view .LVU71
 169              		.loc 1 213 48 is_stmt 0 view .LVU72
 170 008e C4F82411 		str	r1, [r4, #292]
 214:Middlewares/ST/filex/common/src/fx_media_open.c ****     media_ptr -> fx_media_file_best_effort_allocates =  0;
 171              		.loc 1 214 5 is_stmt 1 view .LVU73
 172              		.loc 1 214 54 is_stmt 0 view .LVU74
 173 0092 C4F82811 		str	r1, [r4, #296]
 215:Middlewares/ST/filex/common/src/fx_media_open.c ****     media_ptr -> fx_media_file_closes =  0;
 174              		.loc 1 215 5 is_stmt 1 view .LVU75
 175              		.loc 1 215 39 is_stmt 0 view .LVU76
 176 0096 C4F82C11 		str	r1, [r4, #300]
 216:Middlewares/ST/filex/common/src/fx_media_open.c ****     media_ptr -> fx_media_file_creates =  0;
 177              		.loc 1 216 5 is_stmt 1 view .LVU77
 178              		.loc 1 216 40 is_stmt 0 view .LVU78
 179 009a C4F83011 		str	r1, [r4, #304]
ARM GAS  C:\Users\HP\AppData\Local\Temp\ccCKtT2B.s 			page 8


 217:Middlewares/ST/filex/common/src/fx_media_open.c ****     media_ptr -> fx_media_file_deletes =  0;
 180              		.loc 1 217 5 is_stmt 1 view .LVU79
 181              		.loc 1 217 40 is_stmt 0 view .LVU80
 182 009e C4F83411 		str	r1, [r4, #308]
 218:Middlewares/ST/filex/common/src/fx_media_open.c ****     media_ptr -> fx_media_file_opens =  0;
 183              		.loc 1 218 5 is_stmt 1 view .LVU81
 184              		.loc 1 218 38 is_stmt 0 view .LVU82
 185 00a2 C4F83811 		str	r1, [r4, #312]
 219:Middlewares/ST/filex/common/src/fx_media_open.c ****     media_ptr -> fx_media_file_reads =  0;
 186              		.loc 1 219 5 is_stmt 1 view .LVU83
 187              		.loc 1 219 38 is_stmt 0 view .LVU84
 188 00a6 C4F83C11 		str	r1, [r4, #316]
 220:Middlewares/ST/filex/common/src/fx_media_open.c ****     media_ptr -> fx_media_file_relative_seeks =  0;
 189              		.loc 1 220 5 is_stmt 1 view .LVU85
 190              		.loc 1 220 47 is_stmt 0 view .LVU86
 191 00aa C4F84011 		str	r1, [r4, #320]
 221:Middlewares/ST/filex/common/src/fx_media_open.c ****     media_ptr -> fx_media_file_renames =  0;
 192              		.loc 1 221 5 is_stmt 1 view .LVU87
 193              		.loc 1 221 40 is_stmt 0 view .LVU88
 194 00ae C4F84411 		str	r1, [r4, #324]
 222:Middlewares/ST/filex/common/src/fx_media_open.c ****     media_ptr -> fx_media_file_seeks =  0;
 195              		.loc 1 222 5 is_stmt 1 view .LVU89
 196              		.loc 1 222 38 is_stmt 0 view .LVU90
 197 00b2 C4F84811 		str	r1, [r4, #328]
 223:Middlewares/ST/filex/common/src/fx_media_open.c ****     media_ptr -> fx_media_file_truncates =  0;
 198              		.loc 1 223 5 is_stmt 1 view .LVU91
 199              		.loc 1 223 42 is_stmt 0 view .LVU92
 200 00b6 C4F84C11 		str	r1, [r4, #332]
 224:Middlewares/ST/filex/common/src/fx_media_open.c ****     media_ptr -> fx_media_file_truncate_releases =  0;
 201              		.loc 1 224 5 is_stmt 1 view .LVU93
 202              		.loc 1 224 50 is_stmt 0 view .LVU94
 203 00ba C4F85011 		str	r1, [r4, #336]
 225:Middlewares/ST/filex/common/src/fx_media_open.c ****     media_ptr -> fx_media_file_writes =  0;
 204              		.loc 1 225 5 is_stmt 1 view .LVU95
 205              		.loc 1 225 39 is_stmt 0 view .LVU96
 206 00be C4F85411 		str	r1, [r4, #340]
 226:Middlewares/ST/filex/common/src/fx_media_open.c ****     media_ptr -> fx_media_aborts =  0;
 207              		.loc 1 226 5 is_stmt 1 view .LVU97
 208              		.loc 1 226 34 is_stmt 0 view .LVU98
 209 00c2 C4F85811 		str	r1, [r4, #344]
 227:Middlewares/ST/filex/common/src/fx_media_open.c ****     media_ptr -> fx_media_flushes =  0;
 210              		.loc 1 227 5 is_stmt 1 view .LVU99
 211              		.loc 1 227 35 is_stmt 0 view .LVU100
 212 00c6 C4F85C11 		str	r1, [r4, #348]
 228:Middlewares/ST/filex/common/src/fx_media_open.c ****     media_ptr -> fx_media_reads =  0;
 213              		.loc 1 228 5 is_stmt 1 view .LVU101
 214              		.loc 1 228 33 is_stmt 0 view .LVU102
 215 00ca C4F86011 		str	r1, [r4, #352]
 229:Middlewares/ST/filex/common/src/fx_media_open.c ****     media_ptr -> fx_media_writes =  0;
 216              		.loc 1 229 5 is_stmt 1 view .LVU103
 217              		.loc 1 229 34 is_stmt 0 view .LVU104
 218 00ce C4F86411 		str	r1, [r4, #356]
 230:Middlewares/ST/filex/common/src/fx_media_open.c ****     media_ptr -> fx_media_directory_entry_reads =  0;
 219              		.loc 1 230 5 is_stmt 1 view .LVU105
 220              		.loc 1 230 49 is_stmt 0 view .LVU106
 221 00d2 C4F86811 		str	r1, [r4, #360]
 231:Middlewares/ST/filex/common/src/fx_media_open.c ****     media_ptr -> fx_media_directory_entry_writes =  0;
ARM GAS  C:\Users\HP\AppData\Local\Temp\ccCKtT2B.s 			page 9


 222              		.loc 1 231 5 is_stmt 1 view .LVU107
 223              		.loc 1 231 50 is_stmt 0 view .LVU108
 224 00d6 C4F86C11 		str	r1, [r4, #364]
 232:Middlewares/ST/filex/common/src/fx_media_open.c ****     media_ptr -> fx_media_directory_searches =  0;
 225              		.loc 1 232 5 is_stmt 1 view .LVU109
 226              		.loc 1 232 46 is_stmt 0 view .LVU110
 227 00da C4F87011 		str	r1, [r4, #368]
 233:Middlewares/ST/filex/common/src/fx_media_open.c **** #ifndef FX_MEDIA_DISABLE_SEARCH_CACHE
 234:Middlewares/ST/filex/common/src/fx_media_open.c ****     media_ptr -> fx_media_directory_search_cache_hits =  0;
 228              		.loc 1 234 5 is_stmt 1 view .LVU111
 229              		.loc 1 234 55 is_stmt 0 view .LVU112
 230 00de C4F8C411 		str	r1, [r4, #452]
 235:Middlewares/ST/filex/common/src/fx_media_open.c **** #endif
 236:Middlewares/ST/filex/common/src/fx_media_open.c ****     media_ptr -> fx_media_directory_free_searches =  0;
 231              		.loc 1 236 5 is_stmt 1 view .LVU113
 232              		.loc 1 236 51 is_stmt 0 view .LVU114
 233 00e2 C4F87411 		str	r1, [r4, #372]
 237:Middlewares/ST/filex/common/src/fx_media_open.c ****     media_ptr -> fx_media_fat_entry_reads =  0;
 234              		.loc 1 237 5 is_stmt 1 view .LVU115
 235              		.loc 1 237 43 is_stmt 0 view .LVU116
 236 00e6 C4F87811 		str	r1, [r4, #376]
 238:Middlewares/ST/filex/common/src/fx_media_open.c ****     media_ptr -> fx_media_fat_entry_writes =  0;
 237              		.loc 1 238 5 is_stmt 1 view .LVU117
 238              		.loc 1 238 44 is_stmt 0 view .LVU118
 239 00ea C4F87C11 		str	r1, [r4, #380]
 239:Middlewares/ST/filex/common/src/fx_media_open.c ****     media_ptr -> fx_media_fat_entry_cache_read_hits =  0;
 240              		.loc 1 239 5 is_stmt 1 view .LVU119
 241              		.loc 1 239 53 is_stmt 0 view .LVU120
 242 00ee C4F88011 		str	r1, [r4, #384]
 240:Middlewares/ST/filex/common/src/fx_media_open.c ****     media_ptr -> fx_media_fat_entry_cache_read_misses =  0;
 243              		.loc 1 240 5 is_stmt 1 view .LVU121
 244              		.loc 1 240 55 is_stmt 0 view .LVU122
 245 00f2 C4F88411 		str	r1, [r4, #388]
 241:Middlewares/ST/filex/common/src/fx_media_open.c ****     media_ptr -> fx_media_fat_entry_cache_write_hits =  0;
 246              		.loc 1 241 5 is_stmt 1 view .LVU123
 247              		.loc 1 241 54 is_stmt 0 view .LVU124
 248 00f6 C4F88811 		str	r1, [r4, #392]
 242:Middlewares/ST/filex/common/src/fx_media_open.c ****     media_ptr -> fx_media_fat_entry_cache_write_misses =  0;
 249              		.loc 1 242 5 is_stmt 1 view .LVU125
 250              		.loc 1 242 56 is_stmt 0 view .LVU126
 251 00fa C4F88C11 		str	r1, [r4, #396]
 243:Middlewares/ST/filex/common/src/fx_media_open.c ****     media_ptr -> fx_media_fat_cache_flushes =  0;
 252              		.loc 1 243 5 is_stmt 1 view .LVU127
 253              		.loc 1 243 45 is_stmt 0 view .LVU128
 254 00fe C4F89011 		str	r1, [r4, #400]
 244:Middlewares/ST/filex/common/src/fx_media_open.c ****     media_ptr -> fx_media_fat_sector_reads =  0;
 255              		.loc 1 244 5 is_stmt 1 view .LVU129
 256              		.loc 1 244 44 is_stmt 0 view .LVU130
 257 0102 C4F89411 		str	r1, [r4, #404]
 245:Middlewares/ST/filex/common/src/fx_media_open.c ****     media_ptr -> fx_media_fat_sector_writes =  0;
 258              		.loc 1 245 5 is_stmt 1 view .LVU131
 259              		.loc 1 245 45 is_stmt 0 view .LVU132
 260 0106 C4F89811 		str	r1, [r4, #408]
 246:Middlewares/ST/filex/common/src/fx_media_open.c ****     media_ptr -> fx_media_logical_sector_reads =  0;
 261              		.loc 1 246 5 is_stmt 1 view .LVU133
 262              		.loc 1 246 48 is_stmt 0 view .LVU134
 263 010a C4F89C11 		str	r1, [r4, #412]
ARM GAS  C:\Users\HP\AppData\Local\Temp\ccCKtT2B.s 			page 10


 247:Middlewares/ST/filex/common/src/fx_media_open.c ****     media_ptr -> fx_media_logical_sector_writes =  0;
 264              		.loc 1 247 5 is_stmt 1 view .LVU135
 265              		.loc 1 247 49 is_stmt 0 view .LVU136
 266 010e C4F8A011 		str	r1, [r4, #416]
 248:Middlewares/ST/filex/common/src/fx_media_open.c ****     media_ptr -> fx_media_logical_sector_cache_read_hits =  0;
 267              		.loc 1 248 5 is_stmt 1 view .LVU137
 268              		.loc 1 248 58 is_stmt 0 view .LVU138
 269 0112 C4F8A411 		str	r1, [r4, #420]
 249:Middlewares/ST/filex/common/src/fx_media_open.c ****     media_ptr -> fx_media_logical_sector_cache_read_misses =  0;
 270              		.loc 1 249 5 is_stmt 1 view .LVU139
 271              		.loc 1 249 60 is_stmt 0 view .LVU140
 272 0116 C4F8A811 		str	r1, [r4, #424]
 250:Middlewares/ST/filex/common/src/fx_media_open.c ****     media_ptr -> fx_media_driver_read_requests =  0;
 273              		.loc 1 250 5 is_stmt 1 view .LVU141
 274              		.loc 1 250 48 is_stmt 0 view .LVU142
 275 011a C4F8AC11 		str	r1, [r4, #428]
 251:Middlewares/ST/filex/common/src/fx_media_open.c ****     media_ptr -> fx_media_driver_write_requests =  0;
 276              		.loc 1 251 5 is_stmt 1 view .LVU143
 277              		.loc 1 251 49 is_stmt 0 view .LVU144
 278 011e C4F8B011 		str	r1, [r4, #432]
 252:Middlewares/ST/filex/common/src/fx_media_open.c ****     media_ptr -> fx_media_driver_boot_read_requests =  0;
 279              		.loc 1 252 5 is_stmt 1 view .LVU145
 280              		.loc 1 252 53 is_stmt 0 view .LVU146
 281 0122 C4F8B411 		str	r1, [r4, #436]
 253:Middlewares/ST/filex/common/src/fx_media_open.c ****     media_ptr -> fx_media_driver_boot_write_requests =  0;
 282              		.loc 1 253 5 is_stmt 1 view .LVU147
 283              		.loc 1 253 54 is_stmt 0 view .LVU148
 284 0126 C4F8B811 		str	r1, [r4, #440]
 254:Middlewares/ST/filex/common/src/fx_media_open.c ****     media_ptr -> fx_media_driver_release_sectors_requests =  0;
 285              		.loc 1 254 5 is_stmt 1 view .LVU149
 286              		.loc 1 254 59 is_stmt 0 view .LVU150
 287 012a C4F8BC11 		str	r1, [r4, #444]
 255:Middlewares/ST/filex/common/src/fx_media_open.c ****     media_ptr -> fx_media_driver_flush_requests =  0;
 288              		.loc 1 255 5 is_stmt 1 view .LVU151
 289              		.loc 1 255 49 is_stmt 0 view .LVU152
 290 012e C4F8C011 		str	r1, [r4, #448]
 256:Middlewares/ST/filex/common/src/fx_media_open.c **** #endif
 257:Middlewares/ST/filex/common/src/fx_media_open.c **** #ifdef FX_ENABLE_FAULT_TOLERANT
 258:Middlewares/ST/filex/common/src/fx_media_open.c ****     media_ptr -> fx_media_fault_tolerant_enabled = FX_FALSE;
 259:Middlewares/ST/filex/common/src/fx_media_open.c ****     media_ptr -> fx_media_fault_tolerant_state = 0;
 260:Middlewares/ST/filex/common/src/fx_media_open.c **** #endif /* FX_ENABLE_FAULT_TOLERANT */
 261:Middlewares/ST/filex/common/src/fx_media_open.c **** 
 262:Middlewares/ST/filex/common/src/fx_media_open.c ****     /* If trace is enabled, insert this event into the trace buffer.  */
 263:Middlewares/ST/filex/common/src/fx_media_open.c ****     FX_TRACE_IN_LINE_INSERT(FX_TRACE_MEDIA_OPEN, media_ptr, media_driver, memory_ptr, memory_size, 
 264:Middlewares/ST/filex/common/src/fx_media_open.c **** 
 265:Middlewares/ST/filex/common/src/fx_media_open.c ****     /* Initialize the supplied media I/O driver.  First, build the
 266:Middlewares/ST/filex/common/src/fx_media_open.c ****        initialize driver request.  */
 267:Middlewares/ST/filex/common/src/fx_media_open.c ****     media_ptr -> fx_media_driver_request =              FX_DRIVER_INIT;
 291              		.loc 1 267 5 is_stmt 1 view .LVU153
 292              		.loc 1 267 42 is_stmt 0 view .LVU154
 293 0132 0420     		movs	r0, #4
 294 0134 C4F88800 		str	r0, [r4, #136]
 268:Middlewares/ST/filex/common/src/fx_media_open.c ****     media_ptr -> fx_media_driver_status =               FX_IO_ERROR;
 295              		.loc 1 268 5 is_stmt 1 view .LVU155
 296              		.loc 1 268 41 is_stmt 0 view .LVU156
 297 0138 9020     		movs	r0, #144
 298 013a C4F88C00 		str	r0, [r4, #140]
ARM GAS  C:\Users\HP\AppData\Local\Temp\ccCKtT2B.s 			page 11


 269:Middlewares/ST/filex/common/src/fx_media_open.c ****     media_ptr -> fx_media_driver_info =                 driver_info_ptr;
 299              		.loc 1 269 5 is_stmt 1 view .LVU157
 300              		.loc 1 269 39 is_stmt 0 view .LVU158
 301 013e C4F88430 		str	r3, [r4, #132]
 270:Middlewares/ST/filex/common/src/fx_media_open.c ****     media_ptr -> fx_media_driver_write_protect =        FX_FALSE;
 302              		.loc 1 270 5 is_stmt 1 view .LVU159
 303              		.loc 1 270 48 is_stmt 0 view .LVU160
 304 0142 C4F8A810 		str	r1, [r4, #168]
 271:Middlewares/ST/filex/common/src/fx_media_open.c ****     media_ptr -> fx_media_driver_free_sector_update =   FX_FALSE;
 305              		.loc 1 271 5 is_stmt 1 view .LVU161
 306              		.loc 1 271 53 is_stmt 0 view .LVU162
 307 0146 C4F8AC10 		str	r1, [r4, #172]
 272:Middlewares/ST/filex/common/src/fx_media_open.c ****     media_ptr -> fx_media_driver_data_sector_read =     FX_FALSE;
 308              		.loc 1 272 5 is_stmt 1 view .LVU163
 309              		.loc 1 272 51 is_stmt 0 view .LVU164
 310 014a C4F8B410 		str	r1, [r4, #180]
 273:Middlewares/ST/filex/common/src/fx_media_open.c **** 
 274:Middlewares/ST/filex/common/src/fx_media_open.c ****     /* If trace is enabled, insert this event into the trace buffer.  */
 275:Middlewares/ST/filex/common/src/fx_media_open.c ****     FX_TRACE_IN_LINE_INSERT(FX_TRACE_INTERNAL_IO_DRIVER_INIT, media_ptr, 0, 0, 0, FX_TRACE_INTERNAL
 276:Middlewares/ST/filex/common/src/fx_media_open.c **** 
 277:Middlewares/ST/filex/common/src/fx_media_open.c ****     /* Call the specified I/O driver with the initialize request.  */
 278:Middlewares/ST/filex/common/src/fx_media_open.c ****     (media_ptr -> fx_media_driver_entry) (media_ptr);
 311              		.loc 1 278 5 is_stmt 1 view .LVU165
 312              		.loc 1 278 16 is_stmt 0 view .LVU166
 313 014e 2046     		mov	r0, r4
 314 0150 9047     		blx	r2
 315              	.LVL4:
 279:Middlewares/ST/filex/common/src/fx_media_open.c **** 
 280:Middlewares/ST/filex/common/src/fx_media_open.c ****     /* Determine if the I/O driver initialized successfully.  */
 281:Middlewares/ST/filex/common/src/fx_media_open.c ****     if (media_ptr -> fx_media_driver_status != FX_SUCCESS)
 316              		.loc 1 281 5 is_stmt 1 view .LVU167
 317              		.loc 1 281 19 is_stmt 0 view .LVU168
 318 0152 D4F88C30 		ldr	r3, [r4, #140]
 319              		.loc 1 281 8 view .LVU169
 320 0156 002B     		cmp	r3, #0
 321 0158 40F09182 		bne	.L50
 282:Middlewares/ST/filex/common/src/fx_media_open.c ****     {
 283:Middlewares/ST/filex/common/src/fx_media_open.c **** 
 284:Middlewares/ST/filex/common/src/fx_media_open.c ****         /* Return the driver error status.  */
 285:Middlewares/ST/filex/common/src/fx_media_open.c ****         return(FX_IO_ERROR);
 286:Middlewares/ST/filex/common/src/fx_media_open.c ****     }
 287:Middlewares/ST/filex/common/src/fx_media_open.c **** 
 288:Middlewares/ST/filex/common/src/fx_media_open.c **** #ifndef FX_MEDIA_STATISTICS_DISABLE
 289:Middlewares/ST/filex/common/src/fx_media_open.c **** 
 290:Middlewares/ST/filex/common/src/fx_media_open.c ****     /* Increment the number of driver boot read requests.  */
 291:Middlewares/ST/filex/common/src/fx_media_open.c ****     media_ptr -> fx_media_driver_boot_read_requests++;
 322              		.loc 1 291 5 is_stmt 1 view .LVU170
 323              		.loc 1 291 15 is_stmt 0 view .LVU171
 324 015c D4F8B431 		ldr	r3, [r4, #436]
 325              		.loc 1 291 52 view .LVU172
 326 0160 0133     		adds	r3, r3, #1
 327 0162 C4F8B431 		str	r3, [r4, #436]
 292:Middlewares/ST/filex/common/src/fx_media_open.c **** #endif
 293:Middlewares/ST/filex/common/src/fx_media_open.c **** 
 294:Middlewares/ST/filex/common/src/fx_media_open.c ****     /* Read the boot sector from the device.  Build the read boot sector
 295:Middlewares/ST/filex/common/src/fx_media_open.c ****        command.  */
 296:Middlewares/ST/filex/common/src/fx_media_open.c ****     media_ptr -> fx_media_driver_request =          FX_DRIVER_BOOT_READ;
ARM GAS  C:\Users\HP\AppData\Local\Temp\ccCKtT2B.s 			page 12


 328              		.loc 1 296 5 is_stmt 1 view .LVU173
 329              		.loc 1 296 42 is_stmt 0 view .LVU174
 330 0166 0523     		movs	r3, #5
 331 0168 C4F88830 		str	r3, [r4, #136]
 297:Middlewares/ST/filex/common/src/fx_media_open.c ****     media_ptr -> fx_media_driver_status =           FX_IO_ERROR;
 332              		.loc 1 297 5 is_stmt 1 view .LVU175
 333              		.loc 1 297 41 is_stmt 0 view .LVU176
 334 016c 9023     		movs	r3, #144
 335 016e C4F88C30 		str	r3, [r4, #140]
 298:Middlewares/ST/filex/common/src/fx_media_open.c ****     media_ptr -> fx_media_driver_buffer =           memory_ptr;
 336              		.loc 1 298 5 is_stmt 1 view .LVU177
 337              		.loc 1 298 41 is_stmt 0 view .LVU178
 338 0172 C4F89050 		str	r5, [r4, #144]
 299:Middlewares/ST/filex/common/src/fx_media_open.c ****     media_ptr -> fx_media_driver_sectors =          1;
 339              		.loc 1 299 5 is_stmt 1 view .LVU179
 340              		.loc 1 299 42 is_stmt 0 view .LVU180
 341 0176 0123     		movs	r3, #1
 342 0178 C4F89830 		str	r3, [r4, #152]
 300:Middlewares/ST/filex/common/src/fx_media_open.c ****     media_ptr -> fx_media_driver_sector_type =      FX_BOOT_SECTOR;
 343              		.loc 1 300 5 is_stmt 1 view .LVU181
 344              		.loc 1 300 46 is_stmt 0 view .LVU182
 345 017c C4F8B830 		str	r3, [r4, #184]
 301:Middlewares/ST/filex/common/src/fx_media_open.c **** 
 302:Middlewares/ST/filex/common/src/fx_media_open.c ****     /* If trace is enabled, insert this event into the trace buffer.  */
 303:Middlewares/ST/filex/common/src/fx_media_open.c ****     FX_TRACE_IN_LINE_INSERT(FX_TRACE_INTERNAL_IO_DRIVER_BOOT_READ, media_ptr, memory_ptr, 0, 0, FX_
 304:Middlewares/ST/filex/common/src/fx_media_open.c **** 
 305:Middlewares/ST/filex/common/src/fx_media_open.c ****     /* Invoke the driver to read the boot sector.  */
 306:Middlewares/ST/filex/common/src/fx_media_open.c ****     (media_ptr -> fx_media_driver_entry) (media_ptr);
 346              		.loc 1 306 5 is_stmt 1 view .LVU183
 347              		.loc 1 306 16 is_stmt 0 view .LVU184
 348 0180 D4F8BC30 		ldr	r3, [r4, #188]
 349 0184 2046     		mov	r0, r4
 350 0186 9847     		blx	r3
 351              	.LVL5:
 307:Middlewares/ST/filex/common/src/fx_media_open.c **** 
 308:Middlewares/ST/filex/common/src/fx_media_open.c ****     /* Determine if the boot sector was read correctly. */
 309:Middlewares/ST/filex/common/src/fx_media_open.c ****     if (media_ptr -> fx_media_driver_status != FX_SUCCESS)
 352              		.loc 1 309 5 is_stmt 1 view .LVU185
 353              		.loc 1 309 19 is_stmt 0 view .LVU186
 354 0188 D4F88C30 		ldr	r3, [r4, #140]
 355              		.loc 1 309 8 view .LVU187
 356 018c 73B1     		cbz	r3, .L3
 310:Middlewares/ST/filex/common/src/fx_media_open.c ****     {
 311:Middlewares/ST/filex/common/src/fx_media_open.c **** 
 312:Middlewares/ST/filex/common/src/fx_media_open.c ****         /* Build the "uninitialize" I/O driver request.  */
 313:Middlewares/ST/filex/common/src/fx_media_open.c ****         media_ptr -> fx_media_driver_request =      FX_DRIVER_UNINIT;
 357              		.loc 1 313 9 is_stmt 1 view .LVU188
 358              		.loc 1 313 46 is_stmt 0 view .LVU189
 359 018e 0823     		movs	r3, #8
 360 0190 C4F88830 		str	r3, [r4, #136]
 314:Middlewares/ST/filex/common/src/fx_media_open.c ****         media_ptr -> fx_media_driver_status =       FX_IO_ERROR;
 361              		.loc 1 314 9 is_stmt 1 view .LVU190
 362              		.loc 1 314 45 is_stmt 0 view .LVU191
 363 0194 9023     		movs	r3, #144
 364 0196 C4F88C30 		str	r3, [r4, #140]
 315:Middlewares/ST/filex/common/src/fx_media_open.c **** 
 316:Middlewares/ST/filex/common/src/fx_media_open.c ****         /* If trace is enabled, insert this event into the trace buffer.  */
ARM GAS  C:\Users\HP\AppData\Local\Temp\ccCKtT2B.s 			page 13


 317:Middlewares/ST/filex/common/src/fx_media_open.c ****         FX_TRACE_IN_LINE_INSERT(FX_TRACE_INTERNAL_IO_DRIVER_UNINIT, media_ptr, 0, 0, 0, FX_TRACE_IN
 318:Middlewares/ST/filex/common/src/fx_media_open.c **** 
 319:Middlewares/ST/filex/common/src/fx_media_open.c ****         /* Call the specified I/O driver with the uninitialize request.  */
 320:Middlewares/ST/filex/common/src/fx_media_open.c ****         (media_ptr -> fx_media_driver_entry) (media_ptr);
 365              		.loc 1 320 9 is_stmt 1 view .LVU192
 366              		.loc 1 320 20 is_stmt 0 view .LVU193
 367 019a D4F8BC30 		ldr	r3, [r4, #188]
 368 019e 2046     		mov	r0, r4
 369 01a0 9847     		blx	r3
 370              	.LVL6:
 321:Middlewares/ST/filex/common/src/fx_media_open.c **** 
 322:Middlewares/ST/filex/common/src/fx_media_open.c ****         /* Return the boot sector error status.  */
 323:Middlewares/ST/filex/common/src/fx_media_open.c ****         return(FX_BOOT_ERROR);
 371              		.loc 1 323 9 is_stmt 1 view .LVU194
 372              		.loc 1 323 15 is_stmt 0 view .LVU195
 373 01a2 0126     		movs	r6, #1
 374              	.LVL7:
 375              	.L1:
 324:Middlewares/ST/filex/common/src/fx_media_open.c ****     }
 325:Middlewares/ST/filex/common/src/fx_media_open.c **** 
 326:Middlewares/ST/filex/common/src/fx_media_open.c ****     /* Extract and validate the media parameters from the boot sector.  */
 327:Middlewares/ST/filex/common/src/fx_media_open.c ****     if (_fx_media_boot_info_extract(media_ptr) != FX_SUCCESS)
 328:Middlewares/ST/filex/common/src/fx_media_open.c ****     {
 329:Middlewares/ST/filex/common/src/fx_media_open.c **** 
 330:Middlewares/ST/filex/common/src/fx_media_open.c ****         /* Build the "uninitialize" I/O driver request.  */
 331:Middlewares/ST/filex/common/src/fx_media_open.c ****         media_ptr -> fx_media_driver_request =      FX_DRIVER_UNINIT;
 332:Middlewares/ST/filex/common/src/fx_media_open.c ****         media_ptr -> fx_media_driver_status =       FX_IO_ERROR;
 333:Middlewares/ST/filex/common/src/fx_media_open.c **** 
 334:Middlewares/ST/filex/common/src/fx_media_open.c ****         /* If trace is enabled, insert this event into the trace buffer.  */
 335:Middlewares/ST/filex/common/src/fx_media_open.c ****         FX_TRACE_IN_LINE_INSERT(FX_TRACE_INTERNAL_IO_DRIVER_UNINIT, media_ptr, 0, 0, 0, FX_TRACE_IN
 336:Middlewares/ST/filex/common/src/fx_media_open.c **** 
 337:Middlewares/ST/filex/common/src/fx_media_open.c ****         /* Call the specified I/O driver with the uninitialize request.  */
 338:Middlewares/ST/filex/common/src/fx_media_open.c ****         (media_ptr -> fx_media_driver_entry) (media_ptr);
 339:Middlewares/ST/filex/common/src/fx_media_open.c **** 
 340:Middlewares/ST/filex/common/src/fx_media_open.c ****         /* Return the invalid media error status.  */
 341:Middlewares/ST/filex/common/src/fx_media_open.c ****         return(FX_MEDIA_INVALID);
 342:Middlewares/ST/filex/common/src/fx_media_open.c ****     }
 343:Middlewares/ST/filex/common/src/fx_media_open.c **** 
 344:Middlewares/ST/filex/common/src/fx_media_open.c ****     /* Pickup the additional info sector number. This will only be used in FAT32 situations.  */
 345:Middlewares/ST/filex/common/src/fx_media_open.c ****     additional_info_sector =  _fx_utility_16_unsigned_read(&media_ptr -> fx_media_driver_buffer[48]
 346:Middlewares/ST/filex/common/src/fx_media_open.c **** 
 347:Middlewares/ST/filex/common/src/fx_media_open.c ****     /* Is there at least one?  */
 348:Middlewares/ST/filex/common/src/fx_media_open.c ****     if (memory_size < media_ptr -> fx_media_bytes_per_sector)
 349:Middlewares/ST/filex/common/src/fx_media_open.c ****     {
 350:Middlewares/ST/filex/common/src/fx_media_open.c **** 
 351:Middlewares/ST/filex/common/src/fx_media_open.c ****         /* Build the "uninitialize" I/O driver request.  */
 352:Middlewares/ST/filex/common/src/fx_media_open.c ****         media_ptr -> fx_media_driver_request =      FX_DRIVER_UNINIT;
 353:Middlewares/ST/filex/common/src/fx_media_open.c ****         media_ptr -> fx_media_driver_status =       FX_IO_ERROR;
 354:Middlewares/ST/filex/common/src/fx_media_open.c **** 
 355:Middlewares/ST/filex/common/src/fx_media_open.c ****         /* If trace is enabled, insert this event into the trace buffer.  */
 356:Middlewares/ST/filex/common/src/fx_media_open.c ****         FX_TRACE_IN_LINE_INSERT(FX_TRACE_INTERNAL_IO_DRIVER_UNINIT, media_ptr, 0, 0, 0, FX_TRACE_IN
 357:Middlewares/ST/filex/common/src/fx_media_open.c **** 
 358:Middlewares/ST/filex/common/src/fx_media_open.c ****         /* Call the specified I/O driver with the uninitialize request.  */
 359:Middlewares/ST/filex/common/src/fx_media_open.c ****         (media_ptr -> fx_media_driver_entry) (media_ptr);
 360:Middlewares/ST/filex/common/src/fx_media_open.c **** 
 361:Middlewares/ST/filex/common/src/fx_media_open.c ****         /* Error in the buffer size supplied by user.  */
 362:Middlewares/ST/filex/common/src/fx_media_open.c ****         return(FX_BUFFER_ERROR);
ARM GAS  C:\Users\HP\AppData\Local\Temp\ccCKtT2B.s 			page 14


 363:Middlewares/ST/filex/common/src/fx_media_open.c ****     }
 364:Middlewares/ST/filex/common/src/fx_media_open.c **** 
 365:Middlewares/ST/filex/common/src/fx_media_open.c **** #ifndef FX_DISABLE_CACHE
 366:Middlewares/ST/filex/common/src/fx_media_open.c ****     /* Determine how many logical sectors can be cached with user's supplied
 367:Middlewares/ST/filex/common/src/fx_media_open.c ****        buffer area - there must be at least enough for one sector!  */
 368:Middlewares/ST/filex/common/src/fx_media_open.c ****     media_ptr -> fx_media_sector_cache_size =  memory_size / media_ptr -> fx_media_bytes_per_sector
 369:Middlewares/ST/filex/common/src/fx_media_open.c **** 
 370:Middlewares/ST/filex/common/src/fx_media_open.c ****     /* If trace is enabled, register this object.  */
 371:Middlewares/ST/filex/common/src/fx_media_open.c ****     FX_TRACE_OBJECT_REGISTER(FX_TRACE_OBJECT_TYPE_MEDIA, media_ptr, media_name, FX_MAX_FAT_CACHE, m
 372:Middlewares/ST/filex/common/src/fx_media_open.c ****     
 373:Middlewares/ST/filex/common/src/fx_media_open.c ****     /* Adjust the internal cache to fit the fixed number of sector cache control blocks
 374:Middlewares/ST/filex/common/src/fx_media_open.c ****        built into the media control block.  */
 375:Middlewares/ST/filex/common/src/fx_media_open.c ****     if (media_ptr -> fx_media_sector_cache_size > FX_MAX_SECTOR_CACHE)
 376:Middlewares/ST/filex/common/src/fx_media_open.c ****     {
 377:Middlewares/ST/filex/common/src/fx_media_open.c **** 
 378:Middlewares/ST/filex/common/src/fx_media_open.c ****         /* Adjust the number of cache sectors downward.  If this is insufficient,
 379:Middlewares/ST/filex/common/src/fx_media_open.c ****            the FX_MAX_SECTOR_CACHE constant in FX_API.H must be changed and the FileX
 380:Middlewares/ST/filex/common/src/fx_media_open.c ****            library must be rebuilt.  */
 381:Middlewares/ST/filex/common/src/fx_media_open.c ****         media_ptr -> fx_media_sector_cache_size =  FX_MAX_SECTOR_CACHE;
 382:Middlewares/ST/filex/common/src/fx_media_open.c ****     }
 383:Middlewares/ST/filex/common/src/fx_media_open.c **** 
 384:Middlewares/ST/filex/common/src/fx_media_open.c ****     /* Otherwise, everything is okay.  Initialize the data structures for managing the
 385:Middlewares/ST/filex/common/src/fx_media_open.c ****        logical sector cache.  */
 386:Middlewares/ST/filex/common/src/fx_media_open.c ****     i =  (UINT)media_ptr -> fx_media_sector_cache_size;
 387:Middlewares/ST/filex/common/src/fx_media_open.c ****     cache_entry_ptr =  media_ptr -> fx_media_sector_cache;
 388:Middlewares/ST/filex/common/src/fx_media_open.c ****     while (i--)
 389:Middlewares/ST/filex/common/src/fx_media_open.c ****     {
 390:Middlewares/ST/filex/common/src/fx_media_open.c **** 
 391:Middlewares/ST/filex/common/src/fx_media_open.c ****         /* Initialize each of the cache entries.  */
 392:Middlewares/ST/filex/common/src/fx_media_open.c ****         cache_entry_ptr -> fx_cached_sector_memory_buffer =  (UCHAR *)memory_ptr;
 393:Middlewares/ST/filex/common/src/fx_media_open.c ****         cache_entry_ptr -> fx_cached_sector =                (~(ULONG64)0);
 394:Middlewares/ST/filex/common/src/fx_media_open.c ****         cache_entry_ptr -> fx_cached_sector_buffer_dirty =   FX_FALSE;
 395:Middlewares/ST/filex/common/src/fx_media_open.c ****         cache_entry_ptr -> fx_cached_sector_valid =          FX_FALSE;
 396:Middlewares/ST/filex/common/src/fx_media_open.c ****         cache_entry_ptr -> fx_cached_sector_next_used =      cache_entry_ptr + 1;
 397:Middlewares/ST/filex/common/src/fx_media_open.c **** 
 398:Middlewares/ST/filex/common/src/fx_media_open.c ****         /* Move to the next cache sector entry.  */
 399:Middlewares/ST/filex/common/src/fx_media_open.c ****         cache_entry_ptr++;
 400:Middlewares/ST/filex/common/src/fx_media_open.c **** 
 401:Middlewares/ST/filex/common/src/fx_media_open.c ****         /* Update the memory pointer to the next buffer slot.  */
 402:Middlewares/ST/filex/common/src/fx_media_open.c ****         memory_ptr =  (VOID *)(((UCHAR *)memory_ptr) + media_ptr -> fx_media_bytes_per_sector);
 403:Middlewares/ST/filex/common/src/fx_media_open.c ****     }
 404:Middlewares/ST/filex/common/src/fx_media_open.c **** 
 405:Middlewares/ST/filex/common/src/fx_media_open.c ****     /* Backup to the last cache entry to set its next pointer to NULL.  */
 406:Middlewares/ST/filex/common/src/fx_media_open.c ****     cache_entry_ptr--;
 407:Middlewares/ST/filex/common/src/fx_media_open.c ****     cache_entry_ptr -> fx_cached_sector_next_used =  FX_NULL;
 408:Middlewares/ST/filex/common/src/fx_media_open.c **** 
 409:Middlewares/ST/filex/common/src/fx_media_open.c ****     /* Remember the last memory address used by the caching logic.  */
 410:Middlewares/ST/filex/common/src/fx_media_open.c ****     media_ptr -> fx_media_sector_cache_end =  ((UCHAR *)memory_ptr) - 1;
 411:Middlewares/ST/filex/common/src/fx_media_open.c **** 
 412:Middlewares/ST/filex/common/src/fx_media_open.c ****     /* Setup the head pointer of the list.  */
 413:Middlewares/ST/filex/common/src/fx_media_open.c ****     media_ptr -> fx_media_sector_cache_list_ptr =  media_ptr -> fx_media_sector_cache;
 414:Middlewares/ST/filex/common/src/fx_media_open.c **** 
 415:Middlewares/ST/filex/common/src/fx_media_open.c ****     /* Setup the bit map that keeps track of the valid hashed cache logical sectors.  */
 416:Middlewares/ST/filex/common/src/fx_media_open.c ****     media_ptr -> fx_media_sector_cache_hashed_sector_valid =  0;
 417:Middlewares/ST/filex/common/src/fx_media_open.c **** 
 418:Middlewares/ST/filex/common/src/fx_media_open.c ****     /* Clear the counter of the number of outstanding dirty sectors.  */
 419:Middlewares/ST/filex/common/src/fx_media_open.c ****     media_ptr -> fx_media_sector_cache_dirty_count =  0;
ARM GAS  C:\Users\HP\AppData\Local\Temp\ccCKtT2B.s 			page 15


 420:Middlewares/ST/filex/common/src/fx_media_open.c **** 
 421:Middlewares/ST/filex/common/src/fx_media_open.c ****     /* Determine if the logical sector cache should be managed by the hash function
 422:Middlewares/ST/filex/common/src/fx_media_open.c ****        instead of the linear search. The cache must be a power of 2 that is between the
 423:Middlewares/ST/filex/common/src/fx_media_open.c ****        minimum and maximum cache size.  */
 424:Middlewares/ST/filex/common/src/fx_media_open.c ****     if ((media_ptr -> fx_media_sector_cache_size >= FX_SECTOR_CACHE_HASH_ENABLE) &&
 425:Middlewares/ST/filex/common/src/fx_media_open.c ****         ((media_ptr -> fx_media_sector_cache_size ^ (media_ptr -> fx_media_sector_cache_size - 1)) 
 426:Middlewares/ST/filex/common/src/fx_media_open.c ****          (media_ptr -> fx_media_sector_cache_size | (media_ptr -> fx_media_sector_cache_size - 1)))
 427:Middlewares/ST/filex/common/src/fx_media_open.c ****     {
 428:Middlewares/ST/filex/common/src/fx_media_open.c **** 
 429:Middlewares/ST/filex/common/src/fx_media_open.c **** 
 430:Middlewares/ST/filex/common/src/fx_media_open.c ****         /* Set the logical sector cache hash flag. When this flag is set, the logical
 431:Middlewares/ST/filex/common/src/fx_media_open.c ****            sector cache is accessed with a hash function instead of a linear search.  */
 432:Middlewares/ST/filex/common/src/fx_media_open.c ****         media_ptr -> fx_media_sector_cache_hashed =  FX_TRUE;
 433:Middlewares/ST/filex/common/src/fx_media_open.c ****         media_ptr -> fx_media_sector_cache_hash_mask =
 434:Middlewares/ST/filex/common/src/fx_media_open.c ****             ((media_ptr -> fx_media_sector_cache_size / FX_SECTOR_CACHE_DEPTH) - 1);
 435:Middlewares/ST/filex/common/src/fx_media_open.c ****     }
 436:Middlewares/ST/filex/common/src/fx_media_open.c ****     else
 437:Middlewares/ST/filex/common/src/fx_media_open.c ****     {
 438:Middlewares/ST/filex/common/src/fx_media_open.c **** 
 439:Middlewares/ST/filex/common/src/fx_media_open.c ****         /* Clear the logical sector cache flag.  */
 440:Middlewares/ST/filex/common/src/fx_media_open.c ****         media_ptr -> fx_media_sector_cache_hashed =  FX_FALSE;
 441:Middlewares/ST/filex/common/src/fx_media_open.c ****     }
 442:Middlewares/ST/filex/common/src/fx_media_open.c **** #else
 443:Middlewares/ST/filex/common/src/fx_media_open.c ****     media_ptr -> fx_media_memory_buffer = memory_ptr;
 444:Middlewares/ST/filex/common/src/fx_media_open.c **** #endif /* FX_DISABLE_CACHE */
 445:Middlewares/ST/filex/common/src/fx_media_open.c **** 
 446:Middlewares/ST/filex/common/src/fx_media_open.c **** #ifndef FX_DISABLE_FORCE_MEMORY_OPERATION
 447:Middlewares/ST/filex/common/src/fx_media_open.c ****     /* Initialize the FAT cache entry array.  */
 448:Middlewares/ST/filex/common/src/fx_media_open.c ****     for (i = 0; i < FX_MAX_FAT_CACHE; i++)
 449:Middlewares/ST/filex/common/src/fx_media_open.c ****     {
 450:Middlewares/ST/filex/common/src/fx_media_open.c **** 
 451:Middlewares/ST/filex/common/src/fx_media_open.c ****         /* Clear entry in the FAT cache.  */
 452:Middlewares/ST/filex/common/src/fx_media_open.c ****         media_ptr -> fx_media_fat_cache[i].fx_fat_cache_entry_cluster =   0;
 453:Middlewares/ST/filex/common/src/fx_media_open.c ****         media_ptr -> fx_media_fat_cache[i].fx_fat_cache_entry_value   =   0;
 454:Middlewares/ST/filex/common/src/fx_media_open.c ****         media_ptr -> fx_media_fat_cache[i].fx_fat_cache_entry_dirty   =   0;
 455:Middlewares/ST/filex/common/src/fx_media_open.c ****     }
 456:Middlewares/ST/filex/common/src/fx_media_open.c **** 
 457:Middlewares/ST/filex/common/src/fx_media_open.c ****     /* Initialize the secondary FAT update map.  */
 458:Middlewares/ST/filex/common/src/fx_media_open.c ****     for (i = 0; i < FX_FAT_MAP_SIZE; i++)
 459:Middlewares/ST/filex/common/src/fx_media_open.c ****     {
 460:Middlewares/ST/filex/common/src/fx_media_open.c **** 
 461:Middlewares/ST/filex/common/src/fx_media_open.c ****         /* Clear bit map entry for secondary FAT update.  */
 462:Middlewares/ST/filex/common/src/fx_media_open.c ****         media_ptr -> fx_media_fat_secondary_update_map[i] =  0;
 463:Middlewares/ST/filex/common/src/fx_media_open.c ****     }
 464:Middlewares/ST/filex/common/src/fx_media_open.c **** #endif /* FX_DISABLE_FORCE_MEMORY_OPERATION */
 465:Middlewares/ST/filex/common/src/fx_media_open.c **** 
 466:Middlewares/ST/filex/common/src/fx_media_open.c **** #ifdef FX_ENABLE_EXFAT
 467:Middlewares/ST/filex/common/src/fx_media_open.c ****     if (media_ptr -> fx_media_FAT_type != FX_exFAT)
 468:Middlewares/ST/filex/common/src/fx_media_open.c ****     {
 469:Middlewares/ST/filex/common/src/fx_media_open.c **** #endif /* FX_ENABLE_EXFAT */
 470:Middlewares/ST/filex/common/src/fx_media_open.c **** 
 471:Middlewares/ST/filex/common/src/fx_media_open.c ****         /* Root_sector_start has been computed */
 472:Middlewares/ST/filex/common/src/fx_media_open.c ****         media_ptr -> fx_media_root_sector_start =  media_ptr -> fx_media_reserved_sectors +
 473:Middlewares/ST/filex/common/src/fx_media_open.c ****             (media_ptr -> fx_media_number_of_FATs *
 474:Middlewares/ST/filex/common/src/fx_media_open.c ****              media_ptr -> fx_media_sectors_per_FAT);
 475:Middlewares/ST/filex/common/src/fx_media_open.c **** 
 476:Middlewares/ST/filex/common/src/fx_media_open.c ****         /* Calculate the number of directory sectors.  */
ARM GAS  C:\Users\HP\AppData\Local\Temp\ccCKtT2B.s 			page 16


 477:Middlewares/ST/filex/common/src/fx_media_open.c ****         media_ptr -> fx_media_root_sectors =
 478:Middlewares/ST/filex/common/src/fx_media_open.c ****             ((media_ptr -> fx_media_root_directory_entries * FX_DIR_ENTRY_SIZE) +
 479:Middlewares/ST/filex/common/src/fx_media_open.c ****              media_ptr -> fx_media_bytes_per_sector - 1) /
 480:Middlewares/ST/filex/common/src/fx_media_open.c ****             media_ptr -> fx_media_bytes_per_sector;
 481:Middlewares/ST/filex/common/src/fx_media_open.c **** 
 482:Middlewares/ST/filex/common/src/fx_media_open.c ****         /* Calculate the starting data sector.  */
 483:Middlewares/ST/filex/common/src/fx_media_open.c ****         media_ptr -> fx_media_data_sector_start =  media_ptr -> fx_media_root_sector_start +
 484:Middlewares/ST/filex/common/src/fx_media_open.c ****             media_ptr -> fx_media_root_sectors;
 485:Middlewares/ST/filex/common/src/fx_media_open.c **** 
 486:Middlewares/ST/filex/common/src/fx_media_open.c ****         /* Calculate the total number of clusters.  */
 487:Middlewares/ST/filex/common/src/fx_media_open.c ****         media_ptr -> fx_media_total_clusters =  (ULONG)((media_ptr -> fx_media_total_sectors - medi
 488:Middlewares/ST/filex/common/src/fx_media_open.c ****                                                             media_ptr -> fx_media_sectors_per_clust
 489:Middlewares/ST/filex/common/src/fx_media_open.c **** 
 490:Middlewares/ST/filex/common/src/fx_media_open.c ****         /* Determine if a 12-bit FAT is in use.  */
 491:Middlewares/ST/filex/common/src/fx_media_open.c ****         if (media_ptr -> fx_media_total_clusters < FX_12_BIT_FAT_SIZE)
 492:Middlewares/ST/filex/common/src/fx_media_open.c ****         {
 493:Middlewares/ST/filex/common/src/fx_media_open.c **** 
 494:Middlewares/ST/filex/common/src/fx_media_open.c ****             /* Yes, 12-bit FAT is present.  Set flag accordingly.  */
 495:Middlewares/ST/filex/common/src/fx_media_open.c ****             media_ptr -> fx_media_12_bit_FAT = FX_TRUE;
 496:Middlewares/ST/filex/common/src/fx_media_open.c ****             media_ptr -> fx_media_32_bit_FAT = FX_FALSE;
 497:Middlewares/ST/filex/common/src/fx_media_open.c **** #ifdef FX_ENABLE_EXFAT
 498:Middlewares/ST/filex/common/src/fx_media_open.c ****             media_ptr -> fx_media_FAT_type = FX_FAT12;
 499:Middlewares/ST/filex/common/src/fx_media_open.c **** #endif /* FX_ENABLE_EXFAT */
 500:Middlewares/ST/filex/common/src/fx_media_open.c **** 
 501:Middlewares/ST/filex/common/src/fx_media_open.c ****             /* No additional information sector in FAT12.  */
 502:Middlewares/ST/filex/common/src/fx_media_open.c ****             media_ptr -> fx_media_FAT32_additional_info_sector =  0;
 503:Middlewares/ST/filex/common/src/fx_media_open.c **** 
 504:Middlewares/ST/filex/common/src/fx_media_open.c ****             /* Set FAT last and FAT reserved. */
 505:Middlewares/ST/filex/common/src/fx_media_open.c ****             media_ptr -> fx_media_fat_reserved = FX_RESERVED_1;
 506:Middlewares/ST/filex/common/src/fx_media_open.c ****             media_ptr -> fx_media_fat_last = FX_LAST_CLUSTER_2;
 507:Middlewares/ST/filex/common/src/fx_media_open.c ****         }
 508:Middlewares/ST/filex/common/src/fx_media_open.c ****         else if (media_ptr -> fx_media_total_clusters < FX_16_BIT_FAT_SIZE)
 509:Middlewares/ST/filex/common/src/fx_media_open.c ****         {
 510:Middlewares/ST/filex/common/src/fx_media_open.c **** 
 511:Middlewares/ST/filex/common/src/fx_media_open.c ****             /* A 16-bit FAT is present.  Set flag accordingly.  */
 512:Middlewares/ST/filex/common/src/fx_media_open.c ****             media_ptr -> fx_media_12_bit_FAT =  FX_FALSE;
 513:Middlewares/ST/filex/common/src/fx_media_open.c ****             media_ptr -> fx_media_32_bit_FAT =  FX_FALSE;
 514:Middlewares/ST/filex/common/src/fx_media_open.c **** #ifdef FX_ENABLE_EXFAT
 515:Middlewares/ST/filex/common/src/fx_media_open.c ****             media_ptr -> fx_media_FAT_type = FX_FAT16;
 516:Middlewares/ST/filex/common/src/fx_media_open.c **** #endif /* FX_ENABLE_EXFAT */
 517:Middlewares/ST/filex/common/src/fx_media_open.c **** 
 518:Middlewares/ST/filex/common/src/fx_media_open.c ****             /* No additional information sector in FAT16.  */
 519:Middlewares/ST/filex/common/src/fx_media_open.c ****             media_ptr -> fx_media_FAT32_additional_info_sector =  0;
 520:Middlewares/ST/filex/common/src/fx_media_open.c **** 
 521:Middlewares/ST/filex/common/src/fx_media_open.c ****             /* Set FAT last and FAT reserved. */
 522:Middlewares/ST/filex/common/src/fx_media_open.c ****             media_ptr -> fx_media_fat_reserved = FX_RESERVED_1;
 523:Middlewares/ST/filex/common/src/fx_media_open.c ****             media_ptr -> fx_media_fat_last = FX_LAST_CLUSTER_2;
 524:Middlewares/ST/filex/common/src/fx_media_open.c ****         }
 525:Middlewares/ST/filex/common/src/fx_media_open.c ****         else
 526:Middlewares/ST/filex/common/src/fx_media_open.c ****         {
 527:Middlewares/ST/filex/common/src/fx_media_open.c **** 
 528:Middlewares/ST/filex/common/src/fx_media_open.c ****             /* Yes, a 32-bit FAT is present.  */
 529:Middlewares/ST/filex/common/src/fx_media_open.c ****             media_ptr -> fx_media_12_bit_FAT =  FX_FALSE;
 530:Middlewares/ST/filex/common/src/fx_media_open.c ****             media_ptr -> fx_media_32_bit_FAT =  FX_TRUE;
 531:Middlewares/ST/filex/common/src/fx_media_open.c **** #ifdef FX_ENABLE_EXFAT
 532:Middlewares/ST/filex/common/src/fx_media_open.c ****             media_ptr -> fx_media_FAT_type = FX_FAT32;
 533:Middlewares/ST/filex/common/src/fx_media_open.c **** #endif /* FX_ENABLE_EXFAT */
ARM GAS  C:\Users\HP\AppData\Local\Temp\ccCKtT2B.s 			page 17


 534:Middlewares/ST/filex/common/src/fx_media_open.c **** 
 535:Middlewares/ST/filex/common/src/fx_media_open.c ****             /* Save the additional information sector FAT32. This was read from the boot
 536:Middlewares/ST/filex/common/src/fx_media_open.c ****                sector earlier in this routine. */
 537:Middlewares/ST/filex/common/src/fx_media_open.c ****             media_ptr -> fx_media_FAT32_additional_info_sector =  additional_info_sector;
 538:Middlewares/ST/filex/common/src/fx_media_open.c **** 
 539:Middlewares/ST/filex/common/src/fx_media_open.c ****             /* Set FAT last and FAT reserved. */
 540:Middlewares/ST/filex/common/src/fx_media_open.c ****             media_ptr -> fx_media_fat_reserved = FX_RESERVED_1_32;
 541:Middlewares/ST/filex/common/src/fx_media_open.c ****             media_ptr -> fx_media_fat_last = FX_LAST_CLUSTER_2_32;
 542:Middlewares/ST/filex/common/src/fx_media_open.c ****         }
 543:Middlewares/ST/filex/common/src/fx_media_open.c **** #ifdef FX_ENABLE_EXFAT
 544:Middlewares/ST/filex/common/src/fx_media_open.c ****     }
 545:Middlewares/ST/filex/common/src/fx_media_open.c ****     else
 546:Middlewares/ST/filex/common/src/fx_media_open.c ****     {
 547:Middlewares/ST/filex/common/src/fx_media_open.c **** 
 548:Middlewares/ST/filex/common/src/fx_media_open.c ****         /* Set FAT last and FAT reserved. */
 549:Middlewares/ST/filex/common/src/fx_media_open.c ****         media_ptr -> fx_media_fat_reserved = FX_RESERVED_1_exFAT;
 550:Middlewares/ST/filex/common/src/fx_media_open.c ****         media_ptr -> fx_media_fat_last = FX_LAST_CLUSTER_exFAT;
 551:Middlewares/ST/filex/common/src/fx_media_open.c ****     }
 552:Middlewares/ST/filex/common/src/fx_media_open.c **** #endif /* FX_ENABLE_EXFAT */
 553:Middlewares/ST/filex/common/src/fx_media_open.c **** 
 554:Middlewares/ST/filex/common/src/fx_media_open.c ****     /* Determine if a 32-bit FAT is present. If so, calculate the size of the root directory (since
 555:Middlewares/ST/filex/common/src/fx_media_open.c ****        it is variable in FAT32.  */
 556:Middlewares/ST/filex/common/src/fx_media_open.c **** #ifdef FX_ENABLE_EXFAT
 557:Middlewares/ST/filex/common/src/fx_media_open.c ****     if (media_ptr -> fx_media_32_bit_FAT == FX_TRUE || 
 558:Middlewares/ST/filex/common/src/fx_media_open.c ****         (media_ptr -> fx_media_FAT_type == FX_exFAT))
 559:Middlewares/ST/filex/common/src/fx_media_open.c **** #else
 560:Middlewares/ST/filex/common/src/fx_media_open.c ****     if (media_ptr -> fx_media_32_bit_FAT == FX_TRUE)
 561:Middlewares/ST/filex/common/src/fx_media_open.c **** #endif /* FX_ENABLE_EXFAT */
 562:Middlewares/ST/filex/common/src/fx_media_open.c ****     {
 563:Middlewares/ST/filex/common/src/fx_media_open.c **** #ifdef FX_ENABLE_EXFAT
 564:Middlewares/ST/filex/common/src/fx_media_open.c ****         if (media_ptr -> fx_media_32_bit_FAT == FX_TRUE)
 565:Middlewares/ST/filex/common/src/fx_media_open.c ****         {
 566:Middlewares/ST/filex/common/src/fx_media_open.c **** #endif /* FX_ENABLE_EXFAT */
 567:Middlewares/ST/filex/common/src/fx_media_open.c **** 
 568:Middlewares/ST/filex/common/src/fx_media_open.c ****             /* Root First cluster starts from at least cluster 2, or higher. */
 569:Middlewares/ST/filex/common/src/fx_media_open.c ****             if (media_ptr -> fx_media_root_cluster_32 < FX_FAT_ENTRY_START)
 570:Middlewares/ST/filex/common/src/fx_media_open.c ****             {
 571:Middlewares/ST/filex/common/src/fx_media_open.c ****                 return(FX_MEDIA_INVALID);
 572:Middlewares/ST/filex/common/src/fx_media_open.c ****             }
 573:Middlewares/ST/filex/common/src/fx_media_open.c **** 
 574:Middlewares/ST/filex/common/src/fx_media_open.c ****             /* Calculate logical number of root dir sector.  */
 575:Middlewares/ST/filex/common/src/fx_media_open.c ****             media_ptr -> fx_media_root_sector_start = media_ptr -> fx_media_data_sector_start +
 576:Middlewares/ST/filex/common/src/fx_media_open.c ****                 (media_ptr -> fx_media_root_cluster_32 - FX_FAT_ENTRY_START) *
 577:Middlewares/ST/filex/common/src/fx_media_open.c ****                 media_ptr -> fx_media_sectors_per_cluster;
 578:Middlewares/ST/filex/common/src/fx_media_open.c **** #ifdef FX_ENABLE_EXFAT
 579:Middlewares/ST/filex/common/src/fx_media_open.c ****         }
 580:Middlewares/ST/filex/common/src/fx_media_open.c **** #endif /* FX_ENABLE_EXFAT */
 581:Middlewares/ST/filex/common/src/fx_media_open.c **** 
 582:Middlewares/ST/filex/common/src/fx_media_open.c ****         /* Calculate maximum possible value for fx_media_root_directory_entries */
 583:Middlewares/ST/filex/common/src/fx_media_open.c ****         i = 0;
 584:Middlewares/ST/filex/common/src/fx_media_open.c ****         for (cluster_number = media_ptr -> fx_media_root_cluster_32;;)
 585:Middlewares/ST/filex/common/src/fx_media_open.c ****         {
 586:Middlewares/ST/filex/common/src/fx_media_open.c **** 
 587:Middlewares/ST/filex/common/src/fx_media_open.c ****             status =  _fx_utility_FAT_entry_read(media_ptr, cluster_number, &FAT_entry);
 588:Middlewares/ST/filex/common/src/fx_media_open.c ****             i++;
 589:Middlewares/ST/filex/common/src/fx_media_open.c ****             /* Determine if the read was successful.  */
 590:Middlewares/ST/filex/common/src/fx_media_open.c ****             if (status != FX_SUCCESS)
ARM GAS  C:\Users\HP\AppData\Local\Temp\ccCKtT2B.s 			page 18


 591:Middlewares/ST/filex/common/src/fx_media_open.c ****             {
 592:Middlewares/ST/filex/common/src/fx_media_open.c **** 
 593:Middlewares/ST/filex/common/src/fx_media_open.c ****                 /* Build the "uninitialize" I/O driver request.  */
 594:Middlewares/ST/filex/common/src/fx_media_open.c ****                 media_ptr -> fx_media_driver_request =      FX_DRIVER_UNINIT;
 595:Middlewares/ST/filex/common/src/fx_media_open.c ****                 media_ptr -> fx_media_driver_status =       FX_IO_ERROR;
 596:Middlewares/ST/filex/common/src/fx_media_open.c **** 
 597:Middlewares/ST/filex/common/src/fx_media_open.c ****                 /* If trace is enabled, insert this event into the trace buffer.  */
 598:Middlewares/ST/filex/common/src/fx_media_open.c ****                 FX_TRACE_IN_LINE_INSERT(FX_TRACE_INTERNAL_IO_DRIVER_UNINIT, media_ptr, 0, 0, 0, FX_
 599:Middlewares/ST/filex/common/src/fx_media_open.c **** 
 600:Middlewares/ST/filex/common/src/fx_media_open.c ****                 /* Call the specified I/O driver with the uninitialize request.  */
 601:Middlewares/ST/filex/common/src/fx_media_open.c ****                 (media_ptr -> fx_media_driver_entry) (media_ptr);
 602:Middlewares/ST/filex/common/src/fx_media_open.c **** 
 603:Middlewares/ST/filex/common/src/fx_media_open.c ****                 return(FX_FAT_READ_ERROR);
 604:Middlewares/ST/filex/common/src/fx_media_open.c ****             }
 605:Middlewares/ST/filex/common/src/fx_media_open.c **** 
 606:Middlewares/ST/filex/common/src/fx_media_open.c ****             if ((cluster_number == FAT_entry) || (i > media_ptr -> fx_media_total_clusters))
 607:Middlewares/ST/filex/common/src/fx_media_open.c ****             {
 608:Middlewares/ST/filex/common/src/fx_media_open.c **** 
 609:Middlewares/ST/filex/common/src/fx_media_open.c ****                 /* Build the "uninitialize" I/O driver request.  */
 610:Middlewares/ST/filex/common/src/fx_media_open.c ****                 media_ptr -> fx_media_driver_request =      FX_DRIVER_UNINIT;
 611:Middlewares/ST/filex/common/src/fx_media_open.c ****                 media_ptr -> fx_media_driver_status =       FX_IO_ERROR;
 612:Middlewares/ST/filex/common/src/fx_media_open.c **** 
 613:Middlewares/ST/filex/common/src/fx_media_open.c ****                 /* If trace is enabled, insert this event into the trace buffer.  */
 614:Middlewares/ST/filex/common/src/fx_media_open.c ****                 FX_TRACE_IN_LINE_INSERT(FX_TRACE_INTERNAL_IO_DRIVER_UNINIT, media_ptr, 0, 0, 0, FX_
 615:Middlewares/ST/filex/common/src/fx_media_open.c **** 
 616:Middlewares/ST/filex/common/src/fx_media_open.c ****                 /* Call the specified I/O driver with the uninitialize request.  */
 617:Middlewares/ST/filex/common/src/fx_media_open.c ****                 (media_ptr -> fx_media_driver_entry) (media_ptr);
 618:Middlewares/ST/filex/common/src/fx_media_open.c **** 
 619:Middlewares/ST/filex/common/src/fx_media_open.c ****                 return(FX_FAT_READ_ERROR);
 620:Middlewares/ST/filex/common/src/fx_media_open.c ****             }
 621:Middlewares/ST/filex/common/src/fx_media_open.c ****             if (FAT_entry >= FX_RESERVED_1_32)
 622:Middlewares/ST/filex/common/src/fx_media_open.c ****             {
 623:Middlewares/ST/filex/common/src/fx_media_open.c ****                 break;
 624:Middlewares/ST/filex/common/src/fx_media_open.c ****             }
 625:Middlewares/ST/filex/common/src/fx_media_open.c ****             cluster_number = FAT_entry;
 626:Middlewares/ST/filex/common/src/fx_media_open.c ****         }
 627:Middlewares/ST/filex/common/src/fx_media_open.c **** 
 628:Middlewares/ST/filex/common/src/fx_media_open.c ****         /* Calculate the number of directory entries.  */
 629:Middlewares/ST/filex/common/src/fx_media_open.c ****         media_ptr -> fx_media_root_directory_entries =  (i * media_ptr -> fx_media_sectors_per_clus
 630:Middlewares/ST/filex/common/src/fx_media_open.c ****                                                          media_ptr -> fx_media_bytes_per_sector) / 
 631:Middlewares/ST/filex/common/src/fx_media_open.c ****     }
 632:Middlewares/ST/filex/common/src/fx_media_open.c **** 
 633:Middlewares/ST/filex/common/src/fx_media_open.c **** #ifndef FX_DISABLE_FORCE_MEMORY_OPERATION
 634:Middlewares/ST/filex/common/src/fx_media_open.c ****     /* Calculate the number of available clusters.  */
 635:Middlewares/ST/filex/common/src/fx_media_open.c ****     media_ptr -> fx_media_available_clusters =  0;
 636:Middlewares/ST/filex/common/src/fx_media_open.c **** 
 637:Middlewares/ST/filex/common/src/fx_media_open.c ****     /* Set the cluster search start to an invalid value.  */
 638:Middlewares/ST/filex/common/src/fx_media_open.c ****     media_ptr -> fx_media_cluster_search_start =  0;
 639:Middlewares/ST/filex/common/src/fx_media_open.c **** #endif /* FX_DISABLE_FORCE_MEMORY_OPERATION */
 640:Middlewares/ST/filex/common/src/fx_media_open.c **** 
 641:Middlewares/ST/filex/common/src/fx_media_open.c ****     /* Determine if there is 32-bit FAT additional information sector. */
 642:Middlewares/ST/filex/common/src/fx_media_open.c ****     if (media_ptr -> fx_media_FAT32_additional_info_sector)
 643:Middlewares/ST/filex/common/src/fx_media_open.c ****     {
 644:Middlewares/ST/filex/common/src/fx_media_open.c **** 
 645:Middlewares/ST/filex/common/src/fx_media_open.c ****     UCHAR *buffer_ptr;
 646:Middlewares/ST/filex/common/src/fx_media_open.c ****     ULONG  signature;
 647:Middlewares/ST/filex/common/src/fx_media_open.c **** 
ARM GAS  C:\Users\HP\AppData\Local\Temp\ccCKtT2B.s 			page 19


 648:Middlewares/ST/filex/common/src/fx_media_open.c **** 
 649:Middlewares/ST/filex/common/src/fx_media_open.c ****         /* Yes, read the FAT32 additional information sector to get the available cluster count and
 650:Middlewares/ST/filex/common/src/fx_media_open.c ****            the hint for the first available cluster.  */
 651:Middlewares/ST/filex/common/src/fx_media_open.c **** 
 652:Middlewares/ST/filex/common/src/fx_media_open.c **** #ifndef FX_DISABLE_CACHE
 653:Middlewares/ST/filex/common/src/fx_media_open.c ****         /* Setup a pointer to the first cached entry's buffer.  */
 654:Middlewares/ST/filex/common/src/fx_media_open.c ****         buffer_ptr =  (media_ptr -> fx_media_sector_cache_list_ptr) -> fx_cached_sector_memory_buff
 655:Middlewares/ST/filex/common/src/fx_media_open.c **** 
 656:Middlewares/ST/filex/common/src/fx_media_open.c ****         /* Invalidate this cache entry.  */
 657:Middlewares/ST/filex/common/src/fx_media_open.c ****         (media_ptr -> fx_media_sector_cache_list_ptr) -> fx_cached_sector =  (~((ULONG64) 0));
 658:Middlewares/ST/filex/common/src/fx_media_open.c ****         (media_ptr -> fx_media_sector_cache_list_ptr) -> fx_cached_sector_valid =  FX_FALSE;
 659:Middlewares/ST/filex/common/src/fx_media_open.c **** #else
 660:Middlewares/ST/filex/common/src/fx_media_open.c ****         buffer_ptr =  media_ptr -> fx_media_memory_buffer;
 661:Middlewares/ST/filex/common/src/fx_media_open.c ****         media_ptr -> fx_media_memory_buffer_sector = (ULONG64)-1;
 662:Middlewares/ST/filex/common/src/fx_media_open.c **** #endif /* FX_DISABLE_CACHE */
 663:Middlewares/ST/filex/common/src/fx_media_open.c **** 
 664:Middlewares/ST/filex/common/src/fx_media_open.c ****         /* Read the FAT32 additional information sector from the device.  */
 665:Middlewares/ST/filex/common/src/fx_media_open.c ****         media_ptr -> fx_media_driver_request =          FX_DRIVER_READ;
 666:Middlewares/ST/filex/common/src/fx_media_open.c ****         media_ptr -> fx_media_driver_status =           FX_IO_ERROR;
 667:Middlewares/ST/filex/common/src/fx_media_open.c ****         media_ptr -> fx_media_driver_buffer =           buffer_ptr;
 668:Middlewares/ST/filex/common/src/fx_media_open.c ****         media_ptr -> fx_media_driver_logical_sector =   media_ptr -> fx_media_FAT32_additional_info
 669:Middlewares/ST/filex/common/src/fx_media_open.c ****         media_ptr -> fx_media_driver_sectors =          1;
 670:Middlewares/ST/filex/common/src/fx_media_open.c ****         media_ptr -> fx_media_driver_sector_type =      FX_DIRECTORY_SECTOR;
 671:Middlewares/ST/filex/common/src/fx_media_open.c **** 
 672:Middlewares/ST/filex/common/src/fx_media_open.c **** #ifndef FX_MEDIA_STATISTICS_DISABLE
 673:Middlewares/ST/filex/common/src/fx_media_open.c **** 
 674:Middlewares/ST/filex/common/src/fx_media_open.c ****         /* Increment the number of driver read sector(s) requests.  */
 675:Middlewares/ST/filex/common/src/fx_media_open.c ****         media_ptr -> fx_media_driver_read_requests++;
 676:Middlewares/ST/filex/common/src/fx_media_open.c **** #endif
 677:Middlewares/ST/filex/common/src/fx_media_open.c **** 
 678:Middlewares/ST/filex/common/src/fx_media_open.c ****         /* If trace is enabled, insert this event into the trace buffer.  */
 679:Middlewares/ST/filex/common/src/fx_media_open.c ****         FX_TRACE_IN_LINE_INSERT(FX_TRACE_INTERNAL_IO_DRIVER_READ, media_ptr, media_ptr -> fx_media_
 680:Middlewares/ST/filex/common/src/fx_media_open.c **** 
 681:Middlewares/ST/filex/common/src/fx_media_open.c ****         /* Invoke the driver to read the FAT32 additional information sector.  */
 682:Middlewares/ST/filex/common/src/fx_media_open.c ****         (media_ptr -> fx_media_driver_entry) (media_ptr);
 683:Middlewares/ST/filex/common/src/fx_media_open.c **** 
 684:Middlewares/ST/filex/common/src/fx_media_open.c ****         /* Determine if the FAT32 sector was read correctly. */
 685:Middlewares/ST/filex/common/src/fx_media_open.c ****         if (media_ptr -> fx_media_driver_status == FX_SUCCESS)
 686:Middlewares/ST/filex/common/src/fx_media_open.c ****         {
 687:Middlewares/ST/filex/common/src/fx_media_open.c **** 
 688:Middlewares/ST/filex/common/src/fx_media_open.c ****             /* Yes, setup a pointer into the FAT32 additional information sector.  */
 689:Middlewares/ST/filex/common/src/fx_media_open.c ****             buffer_ptr =  media_ptr -> fx_media_driver_buffer;
 690:Middlewares/ST/filex/common/src/fx_media_open.c **** 
 691:Middlewares/ST/filex/common/src/fx_media_open.c ****             /* Pickup the first signature long word.  */
 692:Middlewares/ST/filex/common/src/fx_media_open.c ****             signature =  _fx_utility_32_unsigned_read(&buffer_ptr[0]);
 693:Middlewares/ST/filex/common/src/fx_media_open.c **** 
 694:Middlewares/ST/filex/common/src/fx_media_open.c ****             /* Determine if the signature is correct.  */
 695:Middlewares/ST/filex/common/src/fx_media_open.c ****             if (signature == 0x41615252)
 696:Middlewares/ST/filex/common/src/fx_media_open.c ****             {
 697:Middlewares/ST/filex/common/src/fx_media_open.c **** 
 698:Middlewares/ST/filex/common/src/fx_media_open.c ****                 /* Yes, the first signature is correct, now pickup the next signature.  */
 699:Middlewares/ST/filex/common/src/fx_media_open.c ****                 signature =  _fx_utility_32_unsigned_read(&buffer_ptr[484]);
 700:Middlewares/ST/filex/common/src/fx_media_open.c **** 
 701:Middlewares/ST/filex/common/src/fx_media_open.c ****                 /* Determine if this signature is correct.  */
 702:Middlewares/ST/filex/common/src/fx_media_open.c ****                 if (signature == 0x61417272)
 703:Middlewares/ST/filex/common/src/fx_media_open.c ****                 {
 704:Middlewares/ST/filex/common/src/fx_media_open.c **** 
ARM GAS  C:\Users\HP\AppData\Local\Temp\ccCKtT2B.s 			page 20


 705:Middlewares/ST/filex/common/src/fx_media_open.c ****                     /* Yes, we have a good FAT32 additional information sector.  */
 706:Middlewares/ST/filex/common/src/fx_media_open.c **** 
 707:Middlewares/ST/filex/common/src/fx_media_open.c ****                     /* Pickup the current available cluster count on the media.  */
 708:Middlewares/ST/filex/common/src/fx_media_open.c ****                     media_ptr -> fx_media_available_clusters =  _fx_utility_32_unsigned_read(&buffe
 709:Middlewares/ST/filex/common/src/fx_media_open.c **** 
 710:Middlewares/ST/filex/common/src/fx_media_open.c ****                     /* Initialize the last reported available cluster count to the same value.  */
 711:Middlewares/ST/filex/common/src/fx_media_open.c ****                     media_ptr -> fx_media_FAT32_additional_info_last_available =  media_ptr -> fx_m
 712:Middlewares/ST/filex/common/src/fx_media_open.c **** 
 713:Middlewares/ST/filex/common/src/fx_media_open.c ****                     /* Pickup the hint for the starting free cluster search.  */
 714:Middlewares/ST/filex/common/src/fx_media_open.c ****                     media_ptr -> fx_media_cluster_search_start =  _fx_utility_32_unsigned_read(&buf
 715:Middlewares/ST/filex/common/src/fx_media_open.c **** 
 716:Middlewares/ST/filex/common/src/fx_media_open.c ****                     /* Perform a quick sanity check on the available cluster count and the starting
 717:Middlewares/ST/filex/common/src/fx_media_open.c ****                        cluster search.  */
 718:Middlewares/ST/filex/common/src/fx_media_open.c ****                     if ((media_ptr -> fx_media_available_clusters > media_ptr -> fx_media_total_clu
 719:Middlewares/ST/filex/common/src/fx_media_open.c ****                         (media_ptr -> fx_media_cluster_search_start > media_ptr -> fx_media_total_c
 720:Middlewares/ST/filex/common/src/fx_media_open.c ****                         (media_ptr -> fx_media_cluster_search_start < FX_FAT_ENTRY_START))
 721:Middlewares/ST/filex/common/src/fx_media_open.c ****                     {
 722:Middlewares/ST/filex/common/src/fx_media_open.c **** 
 723:Middlewares/ST/filex/common/src/fx_media_open.c ****                         /* Something is wrong, clear the available cluster count and search so the 
 724:Middlewares/ST/filex/common/src/fx_media_open.c ****                            is used.  */
 725:Middlewares/ST/filex/common/src/fx_media_open.c ****                         media_ptr -> fx_media_available_clusters =    0;
 726:Middlewares/ST/filex/common/src/fx_media_open.c ****                         media_ptr -> fx_media_cluster_search_start =  0;
 727:Middlewares/ST/filex/common/src/fx_media_open.c **** 
 728:Middlewares/ST/filex/common/src/fx_media_open.c ****                         /* We don't invalidate the additional info sector here because only the dat
 729:Middlewares/ST/filex/common/src/fx_media_open.c ****                     }
 730:Middlewares/ST/filex/common/src/fx_media_open.c ****                 }
 731:Middlewares/ST/filex/common/src/fx_media_open.c ****                 else
 732:Middlewares/ST/filex/common/src/fx_media_open.c ****                 {
 733:Middlewares/ST/filex/common/src/fx_media_open.c **** 
 734:Middlewares/ST/filex/common/src/fx_media_open.c ****                     /* Signature is bad, invalidate the additional info sector.  */
 735:Middlewares/ST/filex/common/src/fx_media_open.c ****                     media_ptr -> fx_media_FAT32_additional_info_sector =  0;
 736:Middlewares/ST/filex/common/src/fx_media_open.c ****                 }
 737:Middlewares/ST/filex/common/src/fx_media_open.c ****             }
 738:Middlewares/ST/filex/common/src/fx_media_open.c ****             else
 739:Middlewares/ST/filex/common/src/fx_media_open.c ****             {
 740:Middlewares/ST/filex/common/src/fx_media_open.c **** 
 741:Middlewares/ST/filex/common/src/fx_media_open.c ****                 /* Signature is bad, invalidate the additional info sector.  */
 742:Middlewares/ST/filex/common/src/fx_media_open.c ****                 media_ptr -> fx_media_FAT32_additional_info_sector =  0;
 743:Middlewares/ST/filex/common/src/fx_media_open.c ****             }
 744:Middlewares/ST/filex/common/src/fx_media_open.c ****         }
 745:Middlewares/ST/filex/common/src/fx_media_open.c ****         else
 746:Middlewares/ST/filex/common/src/fx_media_open.c ****         {
 747:Middlewares/ST/filex/common/src/fx_media_open.c **** 
 748:Middlewares/ST/filex/common/src/fx_media_open.c ****             /* IO error trying to read additional information sector, invalidate the additional inf
 749:Middlewares/ST/filex/common/src/fx_media_open.c ****             media_ptr -> fx_media_FAT32_additional_info_sector =  0;
 750:Middlewares/ST/filex/common/src/fx_media_open.c ****         }
 751:Middlewares/ST/filex/common/src/fx_media_open.c ****     }
 752:Middlewares/ST/filex/common/src/fx_media_open.c **** 
 753:Middlewares/ST/filex/common/src/fx_media_open.c ****     /* Search the media to find the first available cluster as well as the total
 754:Middlewares/ST/filex/common/src/fx_media_open.c ****        available clusters.  */
 755:Middlewares/ST/filex/common/src/fx_media_open.c **** 
 756:Middlewares/ST/filex/common/src/fx_media_open.c ****     /* Determine what type of FAT is present.  */
 757:Middlewares/ST/filex/common/src/fx_media_open.c ****     if (media_ptr -> fx_media_12_bit_FAT)
 758:Middlewares/ST/filex/common/src/fx_media_open.c ****     {
 759:Middlewares/ST/filex/common/src/fx_media_open.c **** 
 760:Middlewares/ST/filex/common/src/fx_media_open.c ****         /* A 12-bit FAT is present.  Utilize the FAT entry read utility to pickup
 761:Middlewares/ST/filex/common/src/fx_media_open.c ****            each FAT entry's contents.  */
ARM GAS  C:\Users\HP\AppData\Local\Temp\ccCKtT2B.s 			page 21


 762:Middlewares/ST/filex/common/src/fx_media_open.c **** 
 763:Middlewares/ST/filex/common/src/fx_media_open.c ****         /* Loop to read each cluster entry in the first FAT.  */
 764:Middlewares/ST/filex/common/src/fx_media_open.c ****         for (cluster_number =  FX_FAT_ENTRY_START;
 765:Middlewares/ST/filex/common/src/fx_media_open.c ****              cluster_number < (media_ptr -> fx_media_total_clusters) + FX_FAT_ENTRY_START;
 766:Middlewares/ST/filex/common/src/fx_media_open.c ****              cluster_number++)
 767:Middlewares/ST/filex/common/src/fx_media_open.c ****         {
 768:Middlewares/ST/filex/common/src/fx_media_open.c **** 
 769:Middlewares/ST/filex/common/src/fx_media_open.c ****             /* Read a FAT entry.  */
 770:Middlewares/ST/filex/common/src/fx_media_open.c ****             status =  _fx_utility_FAT_entry_read(media_ptr, cluster_number, &FAT_entry);
 771:Middlewares/ST/filex/common/src/fx_media_open.c **** 
 772:Middlewares/ST/filex/common/src/fx_media_open.c ****             /* Determine if the read was successful.  */
 773:Middlewares/ST/filex/common/src/fx_media_open.c ****             if (status != FX_SUCCESS)
 774:Middlewares/ST/filex/common/src/fx_media_open.c ****             {
 775:Middlewares/ST/filex/common/src/fx_media_open.c **** 
 776:Middlewares/ST/filex/common/src/fx_media_open.c ****                 /* Build the "uninitialize" I/O driver request.  */
 777:Middlewares/ST/filex/common/src/fx_media_open.c ****                 media_ptr -> fx_media_driver_request =      FX_DRIVER_UNINIT;
 778:Middlewares/ST/filex/common/src/fx_media_open.c ****                 media_ptr -> fx_media_driver_status =       FX_IO_ERROR;
 779:Middlewares/ST/filex/common/src/fx_media_open.c **** 
 780:Middlewares/ST/filex/common/src/fx_media_open.c ****                 /* If trace is enabled, insert this event into the trace buffer.  */
 781:Middlewares/ST/filex/common/src/fx_media_open.c ****                 FX_TRACE_IN_LINE_INSERT(FX_TRACE_INTERNAL_IO_DRIVER_UNINIT, media_ptr, 0, 0, 0, FX_
 782:Middlewares/ST/filex/common/src/fx_media_open.c **** 
 783:Middlewares/ST/filex/common/src/fx_media_open.c ****                 /* Call the specified I/O driver with the uninitialize request.  */
 784:Middlewares/ST/filex/common/src/fx_media_open.c ****                 (media_ptr -> fx_media_driver_entry) (media_ptr);
 785:Middlewares/ST/filex/common/src/fx_media_open.c **** 
 786:Middlewares/ST/filex/common/src/fx_media_open.c ****                 return(FX_FAT_READ_ERROR);
 787:Middlewares/ST/filex/common/src/fx_media_open.c ****             }
 788:Middlewares/ST/filex/common/src/fx_media_open.c **** 
 789:Middlewares/ST/filex/common/src/fx_media_open.c ****             /* Now determine if the FAT entry is available.  */
 790:Middlewares/ST/filex/common/src/fx_media_open.c ****             if (FAT_entry == FX_FREE_CLUSTER)
 791:Middlewares/ST/filex/common/src/fx_media_open.c ****             {
 792:Middlewares/ST/filex/common/src/fx_media_open.c **** 
 793:Middlewares/ST/filex/common/src/fx_media_open.c ****                 /* Increment the number of available clusters.  */
 794:Middlewares/ST/filex/common/src/fx_media_open.c ****                 media_ptr -> fx_media_available_clusters++;
 795:Middlewares/ST/filex/common/src/fx_media_open.c **** 
 796:Middlewares/ST/filex/common/src/fx_media_open.c ****                 /* Determine if the starting free cluster has been found yet.  */
 797:Middlewares/ST/filex/common/src/fx_media_open.c ****                 if (media_ptr -> fx_media_cluster_search_start == 0)
 798:Middlewares/ST/filex/common/src/fx_media_open.c ****                 {
 799:Middlewares/ST/filex/common/src/fx_media_open.c **** 
 800:Middlewares/ST/filex/common/src/fx_media_open.c ****                     /* Remember the first free cluster to start further searches from.  */
 801:Middlewares/ST/filex/common/src/fx_media_open.c ****                     media_ptr -> fx_media_cluster_search_start =  cluster_number;
 802:Middlewares/ST/filex/common/src/fx_media_open.c ****                 }
 803:Middlewares/ST/filex/common/src/fx_media_open.c ****             }
 804:Middlewares/ST/filex/common/src/fx_media_open.c ****         }
 805:Middlewares/ST/filex/common/src/fx_media_open.c ****     }
 806:Middlewares/ST/filex/common/src/fx_media_open.c **** #ifdef FX_ENABLE_EXFAT
 807:Middlewares/ST/filex/common/src/fx_media_open.c ****     else if ((media_ptr -> fx_media_available_clusters == 0)
 808:Middlewares/ST/filex/common/src/fx_media_open.c ****              && (media_ptr -> fx_media_FAT_type != FX_exFAT))
 809:Middlewares/ST/filex/common/src/fx_media_open.c **** #else
 810:Middlewares/ST/filex/common/src/fx_media_open.c ****     else if (media_ptr -> fx_media_available_clusters == 0)
 811:Middlewares/ST/filex/common/src/fx_media_open.c **** #endif /* FX_ENABLE_EXFAT */
 812:Middlewares/ST/filex/common/src/fx_media_open.c ****     {
 813:Middlewares/ST/filex/common/src/fx_media_open.c **** 
 814:Middlewares/ST/filex/common/src/fx_media_open.c ****         /* A 16 or 32-bit FAT is present. Read directly into the logical sector
 815:Middlewares/ST/filex/common/src/fx_media_open.c ****            cache memory to optimize I/O on larger devices. Since we are looking for
 816:Middlewares/ST/filex/common/src/fx_media_open.c ****            values of zero, endian issues are not important.  */
 817:Middlewares/ST/filex/common/src/fx_media_open.c **** 
 818:Middlewares/ST/filex/common/src/fx_media_open.c ****         /* Invalidate the current logical sector cache.  */
ARM GAS  C:\Users\HP\AppData\Local\Temp\ccCKtT2B.s 			page 22


 819:Middlewares/ST/filex/common/src/fx_media_open.c ****         _fx_utility_logical_sector_flush(media_ptr, ((ULONG64) 1), (ULONG64) (media_ptr -> fx_media
 820:Middlewares/ST/filex/common/src/fx_media_open.c **** 
 821:Middlewares/ST/filex/common/src/fx_media_open.c ****         /* Reset the memory pointer.  */
 822:Middlewares/ST/filex/common/src/fx_media_open.c ****         media_ptr -> fx_media_memory_buffer =  original_memory_ptr;
 823:Middlewares/ST/filex/common/src/fx_media_open.c **** 
 824:Middlewares/ST/filex/common/src/fx_media_open.c ****         /* Loop through all FAT sectors in the primary FAT.  The first two entries are
 825:Middlewares/ST/filex/common/src/fx_media_open.c ****            examined in this loop, but they are always unavailable.  */
 826:Middlewares/ST/filex/common/src/fx_media_open.c ****         cluster_number =  0;
 827:Middlewares/ST/filex/common/src/fx_media_open.c **** #ifndef FX_DISABLE_CACHE
 828:Middlewares/ST/filex/common/src/fx_media_open.c ****         for (i = 0; i < media_ptr -> fx_media_sectors_per_FAT; i = i + media_ptr -> fx_media_sector
 829:Middlewares/ST/filex/common/src/fx_media_open.c ****         {
 830:Middlewares/ST/filex/common/src/fx_media_open.c **** 
 831:Middlewares/ST/filex/common/src/fx_media_open.c ****             /* Calculate the starting next FAT sector.  */
 832:Middlewares/ST/filex/common/src/fx_media_open.c ****             FAT_sector =  media_ptr -> fx_media_reserved_sectors + i;
 833:Middlewares/ST/filex/common/src/fx_media_open.c **** 
 834:Middlewares/ST/filex/common/src/fx_media_open.c ****             /* Calculate how many sectors to read.  */
 835:Middlewares/ST/filex/common/src/fx_media_open.c ****             FAT_read_sectors =  media_ptr -> fx_media_sectors_per_FAT - i;
 836:Middlewares/ST/filex/common/src/fx_media_open.c **** 
 837:Middlewares/ST/filex/common/src/fx_media_open.c ****             /* Determine if there is not enough memory to read the remaining FAT sectors.  */
 838:Middlewares/ST/filex/common/src/fx_media_open.c ****             if (FAT_read_sectors > media_ptr -> fx_media_sector_cache_size)
 839:Middlewares/ST/filex/common/src/fx_media_open.c ****             {
 840:Middlewares/ST/filex/common/src/fx_media_open.c ****                 FAT_read_sectors =  media_ptr -> fx_media_sector_cache_size;
 841:Middlewares/ST/filex/common/src/fx_media_open.c ****             }
 842:Middlewares/ST/filex/common/src/fx_media_open.c **** #else
 843:Middlewares/ST/filex/common/src/fx_media_open.c ****         for (i = 0; i < media_ptr -> fx_media_sectors_per_FAT; i++)
 844:Middlewares/ST/filex/common/src/fx_media_open.c ****         {
 845:Middlewares/ST/filex/common/src/fx_media_open.c **** 
 846:Middlewares/ST/filex/common/src/fx_media_open.c ****             /* Calculate the starting next FAT sector.  */
 847:Middlewares/ST/filex/common/src/fx_media_open.c ****             FAT_sector =  media_ptr -> fx_media_reserved_sectors + i;
 848:Middlewares/ST/filex/common/src/fx_media_open.c **** 
 849:Middlewares/ST/filex/common/src/fx_media_open.c ****             /* Calculate how many sectors to read.  */
 850:Middlewares/ST/filex/common/src/fx_media_open.c ****             FAT_read_sectors =  1;
 851:Middlewares/ST/filex/common/src/fx_media_open.c **** #endif /* FX_DISABLE_CACHE */
 852:Middlewares/ST/filex/common/src/fx_media_open.c **** 
 853:Middlewares/ST/filex/common/src/fx_media_open.c ****             /* Read the FAT sectors directly from the driver.  */
 854:Middlewares/ST/filex/common/src/fx_media_open.c ****             media_ptr -> fx_media_driver_request =          FX_DRIVER_READ;
 855:Middlewares/ST/filex/common/src/fx_media_open.c ****             media_ptr -> fx_media_driver_status =           FX_IO_ERROR;
 856:Middlewares/ST/filex/common/src/fx_media_open.c ****             media_ptr -> fx_media_driver_buffer =           media_ptr -> fx_media_memory_buffer;
 857:Middlewares/ST/filex/common/src/fx_media_open.c ****             media_ptr -> fx_media_driver_logical_sector =   FAT_sector;
 858:Middlewares/ST/filex/common/src/fx_media_open.c ****             media_ptr -> fx_media_driver_sectors =          FAT_read_sectors;
 859:Middlewares/ST/filex/common/src/fx_media_open.c ****             media_ptr -> fx_media_driver_sector_type =      FX_FAT_SECTOR;
 860:Middlewares/ST/filex/common/src/fx_media_open.c **** 
 861:Middlewares/ST/filex/common/src/fx_media_open.c ****             /* If trace is enabled, insert this event into the trace buffer.  */
 862:Middlewares/ST/filex/common/src/fx_media_open.c ****             FX_TRACE_IN_LINE_INSERT(FX_TRACE_INTERNAL_IO_DRIVER_READ, media_ptr, FAT_sector, FAT_re
 863:Middlewares/ST/filex/common/src/fx_media_open.c **** 
 864:Middlewares/ST/filex/common/src/fx_media_open.c ****             /* Invoke the driver to read the FAT sectors.  */
 865:Middlewares/ST/filex/common/src/fx_media_open.c ****             (media_ptr -> fx_media_driver_entry) (media_ptr);
 866:Middlewares/ST/filex/common/src/fx_media_open.c **** 
 867:Middlewares/ST/filex/common/src/fx_media_open.c ****             /* Determine if the read was successful.  */
 868:Middlewares/ST/filex/common/src/fx_media_open.c ****             if (media_ptr -> fx_media_driver_status != FX_SUCCESS)
 869:Middlewares/ST/filex/common/src/fx_media_open.c ****             {
 870:Middlewares/ST/filex/common/src/fx_media_open.c **** 
 871:Middlewares/ST/filex/common/src/fx_media_open.c ****                 /* Build the "uninitialize" I/O driver request.  */
 872:Middlewares/ST/filex/common/src/fx_media_open.c ****                 media_ptr -> fx_media_driver_request =      FX_DRIVER_UNINIT;
 873:Middlewares/ST/filex/common/src/fx_media_open.c ****                 media_ptr -> fx_media_driver_status =       FX_IO_ERROR;
 874:Middlewares/ST/filex/common/src/fx_media_open.c **** 
 875:Middlewares/ST/filex/common/src/fx_media_open.c ****                 /* If trace is enabled, insert this event into the trace buffer.  */
ARM GAS  C:\Users\HP\AppData\Local\Temp\ccCKtT2B.s 			page 23


 876:Middlewares/ST/filex/common/src/fx_media_open.c ****                 FX_TRACE_IN_LINE_INSERT(FX_TRACE_INTERNAL_IO_DRIVER_UNINIT, media_ptr, 0, 0, 0, FX_
 877:Middlewares/ST/filex/common/src/fx_media_open.c **** 
 878:Middlewares/ST/filex/common/src/fx_media_open.c ****                 /* Call the specified I/O driver with the uninitialize request.  */
 879:Middlewares/ST/filex/common/src/fx_media_open.c ****                 (media_ptr -> fx_media_driver_entry) (media_ptr);
 880:Middlewares/ST/filex/common/src/fx_media_open.c **** 
 881:Middlewares/ST/filex/common/src/fx_media_open.c ****                 return(FX_FAT_READ_ERROR);
 882:Middlewares/ST/filex/common/src/fx_media_open.c ****             }
 883:Middlewares/ST/filex/common/src/fx_media_open.c **** 
 884:Middlewares/ST/filex/common/src/fx_media_open.c ****             /* Calculate the number of bytes in the buffer.  */
 885:Middlewares/ST/filex/common/src/fx_media_open.c ****             bytes_in_buffer =  (media_ptr -> fx_media_bytes_per_sector * FAT_read_sectors);
 886:Middlewares/ST/filex/common/src/fx_media_open.c **** 
 887:Middlewares/ST/filex/common/src/fx_media_open.c ****             /* Walk through the sector cache memory to search for available clusters and the first
 888:Middlewares/ST/filex/common/src/fx_media_open.c ****                available if not already found.  */
 889:Middlewares/ST/filex/common/src/fx_media_open.c ****             for (j = 0; j < bytes_in_buffer;)
 890:Middlewares/ST/filex/common/src/fx_media_open.c ****             {
 891:Middlewares/ST/filex/common/src/fx_media_open.c **** 
 892:Middlewares/ST/filex/common/src/fx_media_open.c ****                 /* Check for a 32-bit FAT.  */
 893:Middlewares/ST/filex/common/src/fx_media_open.c ****                 if (media_ptr -> fx_media_32_bit_FAT)
 894:Middlewares/ST/filex/common/src/fx_media_open.c ****                 {
 895:Middlewares/ST/filex/common/src/fx_media_open.c **** 
 896:Middlewares/ST/filex/common/src/fx_media_open.c ****                     /* Pickup 32-bit FAT entry.  */
 897:Middlewares/ST/filex/common/src/fx_media_open.c ****                     FAT_entry =  *((ULONG *)&(media_ptr -> fx_media_memory_buffer[j]));
 898:Middlewares/ST/filex/common/src/fx_media_open.c **** 
 899:Middlewares/ST/filex/common/src/fx_media_open.c ****                     /* Advance to next FAT entry.  */
 900:Middlewares/ST/filex/common/src/fx_media_open.c ****                     j = j + 4;
 901:Middlewares/ST/filex/common/src/fx_media_open.c ****                 }
 902:Middlewares/ST/filex/common/src/fx_media_open.c ****                 else
 903:Middlewares/ST/filex/common/src/fx_media_open.c ****                 {
 904:Middlewares/ST/filex/common/src/fx_media_open.c **** 
 905:Middlewares/ST/filex/common/src/fx_media_open.c ****                     /* Process a 16-bit FAT entry.  */
 906:Middlewares/ST/filex/common/src/fx_media_open.c ****                     FAT_entry =  (((ULONG)(media_ptr -> fx_media_memory_buffer[j])) & 0xFF) |
 907:Middlewares/ST/filex/common/src/fx_media_open.c ****                         ((((ULONG)(media_ptr -> fx_media_memory_buffer[j + 1])) & 0xFF) << 8);
 908:Middlewares/ST/filex/common/src/fx_media_open.c **** 
 909:Middlewares/ST/filex/common/src/fx_media_open.c ****                     /* Advance to next FAT entry.  */
 910:Middlewares/ST/filex/common/src/fx_media_open.c ****                     j =  j + 2;
 911:Middlewares/ST/filex/common/src/fx_media_open.c ****                 }
 912:Middlewares/ST/filex/common/src/fx_media_open.c **** 
 913:Middlewares/ST/filex/common/src/fx_media_open.c ****                 /* Determine if the FAT entry is free.  */
 914:Middlewares/ST/filex/common/src/fx_media_open.c ****                 if (FAT_entry == FX_FREE_CLUSTER)
 915:Middlewares/ST/filex/common/src/fx_media_open.c ****                 {
 916:Middlewares/ST/filex/common/src/fx_media_open.c **** 
 917:Middlewares/ST/filex/common/src/fx_media_open.c ****                     /* Entry is free, increment available clusters.  */
 918:Middlewares/ST/filex/common/src/fx_media_open.c ****                     media_ptr -> fx_media_available_clusters++;
 919:Middlewares/ST/filex/common/src/fx_media_open.c **** 
 920:Middlewares/ST/filex/common/src/fx_media_open.c ****                     /* Determine if the starting free cluster has been found yet.  */
 921:Middlewares/ST/filex/common/src/fx_media_open.c ****                     if (media_ptr -> fx_media_cluster_search_start == 0)
 922:Middlewares/ST/filex/common/src/fx_media_open.c ****                     {
 923:Middlewares/ST/filex/common/src/fx_media_open.c **** 
 924:Middlewares/ST/filex/common/src/fx_media_open.c ****                         /* Remember the first free cluster to start further searches from.  */
 925:Middlewares/ST/filex/common/src/fx_media_open.c ****                         media_ptr -> fx_media_cluster_search_start =  cluster_number;
 926:Middlewares/ST/filex/common/src/fx_media_open.c ****                     }
 927:Middlewares/ST/filex/common/src/fx_media_open.c ****                 }
 928:Middlewares/ST/filex/common/src/fx_media_open.c **** 
 929:Middlewares/ST/filex/common/src/fx_media_open.c ****                 /* Increment the cluster number.  */
 930:Middlewares/ST/filex/common/src/fx_media_open.c ****                 cluster_number++;
 931:Middlewares/ST/filex/common/src/fx_media_open.c **** 
 932:Middlewares/ST/filex/common/src/fx_media_open.c ****                 /* Determine if we have reviewed all FAT entries.  */
ARM GAS  C:\Users\HP\AppData\Local\Temp\ccCKtT2B.s 			page 24


 933:Middlewares/ST/filex/common/src/fx_media_open.c ****                 if (cluster_number >= (media_ptr -> fx_media_total_clusters + FX_FAT_ENTRY_START))
 934:Middlewares/ST/filex/common/src/fx_media_open.c ****                 {
 935:Middlewares/ST/filex/common/src/fx_media_open.c **** 
 936:Middlewares/ST/filex/common/src/fx_media_open.c ****                     /* Yes, we have looked at all the FAT entries.  */
 937:Middlewares/ST/filex/common/src/fx_media_open.c **** 
 938:Middlewares/ST/filex/common/src/fx_media_open.c ****                     /* Ensure that the outer loop terminates as well.  */
 939:Middlewares/ST/filex/common/src/fx_media_open.c ****                     i = media_ptr -> fx_media_sectors_per_FAT;
 940:Middlewares/ST/filex/common/src/fx_media_open.c ****                     break;
 941:Middlewares/ST/filex/common/src/fx_media_open.c ****                 }
 942:Middlewares/ST/filex/common/src/fx_media_open.c ****             }
 943:Middlewares/ST/filex/common/src/fx_media_open.c ****         }
 944:Middlewares/ST/filex/common/src/fx_media_open.c ****     }
 945:Middlewares/ST/filex/common/src/fx_media_open.c **** #ifdef FX_ENABLE_EXFAT
 946:Middlewares/ST/filex/common/src/fx_media_open.c ****     else if (media_ptr -> fx_media_FAT_type == FX_exFAT)
 947:Middlewares/ST/filex/common/src/fx_media_open.c ****     {
 948:Middlewares/ST/filex/common/src/fx_media_open.c ****         status = _fx_utility_exFAT_bitmap_initialize(media_ptr);
 949:Middlewares/ST/filex/common/src/fx_media_open.c **** 
 950:Middlewares/ST/filex/common/src/fx_media_open.c ****         if ((FX_SUCCESS         != status)  &&
 951:Middlewares/ST/filex/common/src/fx_media_open.c ****             (FX_NO_MORE_SPACE   != status))
 952:Middlewares/ST/filex/common/src/fx_media_open.c ****         {
 953:Middlewares/ST/filex/common/src/fx_media_open.c ****             return(status);
 954:Middlewares/ST/filex/common/src/fx_media_open.c ****         }
 955:Middlewares/ST/filex/common/src/fx_media_open.c ****     }
 956:Middlewares/ST/filex/common/src/fx_media_open.c **** #endif /* FX_ENABLE_EXFAT */
 957:Middlewares/ST/filex/common/src/fx_media_open.c **** 
 958:Middlewares/ST/filex/common/src/fx_media_open.c ****     /* If there were no free clusters, just set the search pointer to the
 959:Middlewares/ST/filex/common/src/fx_media_open.c ****        first cluster number.  */
 960:Middlewares/ST/filex/common/src/fx_media_open.c ****     if (media_ptr -> fx_media_cluster_search_start == 0)
 961:Middlewares/ST/filex/common/src/fx_media_open.c ****     {
 962:Middlewares/ST/filex/common/src/fx_media_open.c ****         media_ptr -> fx_media_cluster_search_start =  FX_FAT_ENTRY_START;
 963:Middlewares/ST/filex/common/src/fx_media_open.c ****     }
 964:Middlewares/ST/filex/common/src/fx_media_open.c **** 
 965:Middlewares/ST/filex/common/src/fx_media_open.c ****     /* Setup the current working directory fields to default to the root
 966:Middlewares/ST/filex/common/src/fx_media_open.c ****        directory.  */
 967:Middlewares/ST/filex/common/src/fx_media_open.c ****     media_ptr -> fx_media_default_path.fx_path_directory.fx_dir_entry_name =
 968:Middlewares/ST/filex/common/src/fx_media_open.c ****         media_ptr -> fx_media_default_path.fx_path_name_buffer;
 969:Middlewares/ST/filex/common/src/fx_media_open.c ****     media_ptr -> fx_media_default_path.fx_path_directory.fx_dir_entry_short_name[0] =  0;
 970:Middlewares/ST/filex/common/src/fx_media_open.c ****     media_ptr -> fx_media_default_path.fx_path_directory.fx_dir_entry_name[0] =        0;
 971:Middlewares/ST/filex/common/src/fx_media_open.c ****     media_ptr -> fx_media_default_path.fx_path_string[0] =                      (CHAR)0;
 972:Middlewares/ST/filex/common/src/fx_media_open.c ****     media_ptr -> fx_media_default_path.fx_path_string[FX_MAXIMUM_PATH - 1] =      (CHAR)0;
 973:Middlewares/ST/filex/common/src/fx_media_open.c ****     media_ptr -> fx_media_default_path.fx_path_current_entry =                         0;
 974:Middlewares/ST/filex/common/src/fx_media_open.c **** 
 975:Middlewares/ST/filex/common/src/fx_media_open.c **** #ifndef FX_MEDIA_DISABLE_SEARCH_CACHE
 976:Middlewares/ST/filex/common/src/fx_media_open.c **** 
 977:Middlewares/ST/filex/common/src/fx_media_open.c ****     /* Invalidate the previously found directory entry.  */
 978:Middlewares/ST/filex/common/src/fx_media_open.c ****     media_ptr -> fx_media_last_found_name[0] =  0;
 979:Middlewares/ST/filex/common/src/fx_media_open.c **** #endif
 980:Middlewares/ST/filex/common/src/fx_media_open.c **** 
 981:Middlewares/ST/filex/common/src/fx_media_open.c **** #ifndef FX_DISABLE_FORCE_MEMORY_OPERATION
 982:Middlewares/ST/filex/common/src/fx_media_open.c ****     /* Initialize the opened file linked list and associated counter.  */
 983:Middlewares/ST/filex/common/src/fx_media_open.c ****     media_ptr -> fx_media_opened_file_list =      FX_NULL;
 984:Middlewares/ST/filex/common/src/fx_media_open.c ****     media_ptr -> fx_media_opened_file_count =     0;
 985:Middlewares/ST/filex/common/src/fx_media_open.c **** #endif /* FX_DISABLE_FORCE_MEMORY_OPERATION */
 986:Middlewares/ST/filex/common/src/fx_media_open.c **** 
 987:Middlewares/ST/filex/common/src/fx_media_open.c ****     /* Create the media protection structure if FX_SINGLE_THREAD is not
 988:Middlewares/ST/filex/common/src/fx_media_open.c ****        defined.  */
 989:Middlewares/ST/filex/common/src/fx_media_open.c **** #ifndef FX_SINGLE_THREAD
ARM GAS  C:\Users\HP\AppData\Local\Temp\ccCKtT2B.s 			page 25


 990:Middlewares/ST/filex/common/src/fx_media_open.c **** 
 991:Middlewares/ST/filex/common/src/fx_media_open.c **** #ifndef FX_DONT_CREATE_MUTEX
 992:Middlewares/ST/filex/common/src/fx_media_open.c **** 
 993:Middlewares/ST/filex/common/src/fx_media_open.c ****     /* Create ThreadX mutex for protection.  */
 994:Middlewares/ST/filex/common/src/fx_media_open.c ****     tx_mutex_create(&(media_ptr -> fx_media_protect), "FileX Media Mutex", TX_NO_INHERIT);
 995:Middlewares/ST/filex/common/src/fx_media_open.c **** #endif
 996:Middlewares/ST/filex/common/src/fx_media_open.c **** 
 997:Middlewares/ST/filex/common/src/fx_media_open.c **** #endif
 998:Middlewares/ST/filex/common/src/fx_media_open.c **** 
 999:Middlewares/ST/filex/common/src/fx_media_open.c **** #ifdef FX_DONT_CREATE_MUTEX
1000:Middlewares/ST/filex/common/src/fx_media_open.c **** 
1001:Middlewares/ST/filex/common/src/fx_media_open.c ****     /* Load the media ID field in the media control block.  This allows the FX_PROTECT
1002:Middlewares/ST/filex/common/src/fx_media_open.c ****        call to succeed.  */
1003:Middlewares/ST/filex/common/src/fx_media_open.c ****     media_ptr -> fx_media_id =  (ULONG)FX_MEDIA_ID;
1004:Middlewares/ST/filex/common/src/fx_media_open.c **** 
1005:Middlewares/ST/filex/common/src/fx_media_open.c ****     /* Protect against other threads accessing the media.  */
1006:Middlewares/ST/filex/common/src/fx_media_open.c ****     FX_PROTECT
1007:Middlewares/ST/filex/common/src/fx_media_open.c **** #endif
1008:Middlewares/ST/filex/common/src/fx_media_open.c **** 
1009:Middlewares/ST/filex/common/src/fx_media_open.c ****     /* Lockout interrupts.  */
1010:Middlewares/ST/filex/common/src/fx_media_open.c ****     FX_DISABLE_INTS
1011:Middlewares/ST/filex/common/src/fx_media_open.c **** 
1012:Middlewares/ST/filex/common/src/fx_media_open.c ****     /* At this point, the media has been opened successfully.  Place the
1013:Middlewares/ST/filex/common/src/fx_media_open.c ****        media on the linked list of currently opened media.  */
1014:Middlewares/ST/filex/common/src/fx_media_open.c **** 
1015:Middlewares/ST/filex/common/src/fx_media_open.c ****     /* Load the media ID field in the media control block.  */
1016:Middlewares/ST/filex/common/src/fx_media_open.c ****     media_ptr -> fx_media_id =  (ULONG)FX_MEDIA_ID;
1017:Middlewares/ST/filex/common/src/fx_media_open.c **** 
1018:Middlewares/ST/filex/common/src/fx_media_open.c ****     /* Place the thread on the list of opened media.  First,
1019:Middlewares/ST/filex/common/src/fx_media_open.c ****        check for an empty list.  */
1020:Middlewares/ST/filex/common/src/fx_media_open.c ****     if (_fx_system_media_opened_ptr)
1021:Middlewares/ST/filex/common/src/fx_media_open.c ****     {
1022:Middlewares/ST/filex/common/src/fx_media_open.c **** 
1023:Middlewares/ST/filex/common/src/fx_media_open.c ****         /* Pickup tail pointer.  */
1024:Middlewares/ST/filex/common/src/fx_media_open.c ****         tail_ptr =  _fx_system_media_opened_ptr -> fx_media_opened_previous;
1025:Middlewares/ST/filex/common/src/fx_media_open.c **** 
1026:Middlewares/ST/filex/common/src/fx_media_open.c ****         /* Place the new media in the list.  */
1027:Middlewares/ST/filex/common/src/fx_media_open.c ****         _fx_system_media_opened_ptr -> fx_media_opened_previous =  media_ptr;
1028:Middlewares/ST/filex/common/src/fx_media_open.c ****         tail_ptr -> fx_media_opened_next =  media_ptr;
1029:Middlewares/ST/filex/common/src/fx_media_open.c **** 
1030:Middlewares/ST/filex/common/src/fx_media_open.c ****         /* Setup this media's opened links.  */
1031:Middlewares/ST/filex/common/src/fx_media_open.c ****         media_ptr -> fx_media_opened_previous =  tail_ptr;
1032:Middlewares/ST/filex/common/src/fx_media_open.c ****         media_ptr -> fx_media_opened_next =      _fx_system_media_opened_ptr;
1033:Middlewares/ST/filex/common/src/fx_media_open.c ****     }
1034:Middlewares/ST/filex/common/src/fx_media_open.c ****     else
1035:Middlewares/ST/filex/common/src/fx_media_open.c ****     {
1036:Middlewares/ST/filex/common/src/fx_media_open.c **** 
1037:Middlewares/ST/filex/common/src/fx_media_open.c ****         /* The opened media list is empty.  Add the media to empty list.  */
1038:Middlewares/ST/filex/common/src/fx_media_open.c ****         _fx_system_media_opened_ptr =           media_ptr;
1039:Middlewares/ST/filex/common/src/fx_media_open.c ****         media_ptr -> fx_media_opened_next =     media_ptr;
1040:Middlewares/ST/filex/common/src/fx_media_open.c ****         media_ptr -> fx_media_opened_previous = media_ptr;
1041:Middlewares/ST/filex/common/src/fx_media_open.c ****     }
1042:Middlewares/ST/filex/common/src/fx_media_open.c **** 
1043:Middlewares/ST/filex/common/src/fx_media_open.c ****     /* Increment the opened media counter.  */
1044:Middlewares/ST/filex/common/src/fx_media_open.c ****     _fx_system_media_opened_count++;
1045:Middlewares/ST/filex/common/src/fx_media_open.c **** 
1046:Middlewares/ST/filex/common/src/fx_media_open.c ****     /* Invoke media open callback. */
ARM GAS  C:\Users\HP\AppData\Local\Temp\ccCKtT2B.s 			page 26


1047:Middlewares/ST/filex/common/src/fx_media_open.c ****     if (media_ptr -> fx_media_open_notify)
1048:Middlewares/ST/filex/common/src/fx_media_open.c ****     {
1049:Middlewares/ST/filex/common/src/fx_media_open.c ****         media_ptr -> fx_media_open_notify(media_ptr);
1050:Middlewares/ST/filex/common/src/fx_media_open.c ****     }
1051:Middlewares/ST/filex/common/src/fx_media_open.c **** 
1052:Middlewares/ST/filex/common/src/fx_media_open.c ****     /* Restore interrupts.  */
1053:Middlewares/ST/filex/common/src/fx_media_open.c ****     FX_RESTORE_INTS
1054:Middlewares/ST/filex/common/src/fx_media_open.c **** 
1055:Middlewares/ST/filex/common/src/fx_media_open.c **** #ifdef FX_DONT_CREATE_MUTEX
1056:Middlewares/ST/filex/common/src/fx_media_open.c **** 
1057:Middlewares/ST/filex/common/src/fx_media_open.c ****     /* Release media protection.  */
1058:Middlewares/ST/filex/common/src/fx_media_open.c ****     FX_UNPROTECT
1059:Middlewares/ST/filex/common/src/fx_media_open.c **** #endif
1060:Middlewares/ST/filex/common/src/fx_media_open.c **** 
1061:Middlewares/ST/filex/common/src/fx_media_open.c ****     /* Return a successful status.  */
1062:Middlewares/ST/filex/common/src/fx_media_open.c ****     return(FX_SUCCESS);
1063:Middlewares/ST/filex/common/src/fx_media_open.c **** }
 376              		.loc 1 1063 1 view .LVU196
 377 01a4 3046     		mov	r0, r6
 378 01a6 07B0     		add	sp, sp, #28
 379              	.LCFI2:
 380              		.cfi_remember_state
 381              		.cfi_def_cfa_offset 28
 382              		@ sp needed
 383 01a8 BDE8F083 		pop	{r4, r5, r6, r7, r8, r9, pc}
 384              	.LVL8:
 385              	.L3:
 386              	.LCFI3:
 387              		.cfi_restore_state
 327:Middlewares/ST/filex/common/src/fx_media_open.c ****     {
 388              		.loc 1 327 5 is_stmt 1 view .LVU197
 327:Middlewares/ST/filex/common/src/fx_media_open.c ****     {
 389              		.loc 1 327 9 is_stmt 0 view .LVU198
 390 01ac 2046     		mov	r0, r4
 391 01ae FFF7FEFF 		bl	_fx_media_boot_info_extract
 392              	.LVL9:
 327:Middlewares/ST/filex/common/src/fx_media_open.c ****     {
 393              		.loc 1 327 8 view .LVU199
 394 01b2 C8B9     		cbnz	r0, .L56
 345:Middlewares/ST/filex/common/src/fx_media_open.c **** 
 395              		.loc 1 345 5 is_stmt 1 view .LVU200
 345:Middlewares/ST/filex/common/src/fx_media_open.c **** 
 396              		.loc 1 345 71 is_stmt 0 view .LVU201
 397 01b4 D4F89000 		ldr	r0, [r4, #144]
 345:Middlewares/ST/filex/common/src/fx_media_open.c **** 
 398              		.loc 1 345 31 view .LVU202
 399 01b8 3030     		adds	r0, r0, #48
 400 01ba FFF7FEFF 		bl	_fx_utility_16_unsigned_read
 401              	.LVL10:
 402 01be 0746     		mov	r7, r0
 403              	.LVL11:
 348:Middlewares/ST/filex/common/src/fx_media_open.c ****     {
 404              		.loc 1 348 5 is_stmt 1 view .LVU203
 348:Middlewares/ST/filex/common/src/fx_media_open.c ****     {
 405              		.loc 1 348 33 is_stmt 0 view .LVU204
 406 01c0 A36A     		ldr	r3, [r4, #40]
 348:Middlewares/ST/filex/common/src/fx_media_open.c ****     {
ARM GAS  C:\Users\HP\AppData\Local\Temp\ccCKtT2B.s 			page 27


 407              		.loc 1 348 8 view .LVU205
 408 01c2 0F9A     		ldr	r2, [sp, #60]
 409 01c4 9342     		cmp	r3, r2
 410 01c6 1BD8     		bhi	.L57
 368:Middlewares/ST/filex/common/src/fx_media_open.c **** 
 411              		.loc 1 368 5 is_stmt 1 view .LVU206
 368:Middlewares/ST/filex/common/src/fx_media_open.c **** 
 412              		.loc 1 368 60 is_stmt 0 view .LVU207
 413 01c8 0F9A     		ldr	r2, [sp, #60]
 414 01ca B2FBF3F3 		udiv	r3, r2, r3
 368:Middlewares/ST/filex/common/src/fx_media_open.c **** 
 415              		.loc 1 368 45 view .LVU208
 416 01ce 6361     		str	r3, [r4, #20]
 375:Middlewares/ST/filex/common/src/fx_media_open.c ****     {
 417              		.loc 1 375 5 is_stmt 1 view .LVU209
 375:Middlewares/ST/filex/common/src/fx_media_open.c ****     {
 418              		.loc 1 375 8 is_stmt 0 view .LVU210
 419 01d0 B3F5807F 		cmp	r3, #256
 420 01d4 02D9     		bls	.L6
 381:Middlewares/ST/filex/common/src/fx_media_open.c ****     }
 421              		.loc 1 381 9 is_stmt 1 view .LVU211
 381:Middlewares/ST/filex/common/src/fx_media_open.c ****     }
 422              		.loc 1 381 49 is_stmt 0 view .LVU212
 423 01d6 4FF48073 		mov	r3, #256
 424 01da 6361     		str	r3, [r4, #20]
 425              	.L6:
 386:Middlewares/ST/filex/common/src/fx_media_open.c ****     cache_entry_ptr =  media_ptr -> fx_media_sector_cache;
 426              		.loc 1 386 5 is_stmt 1 view .LVU213
 386:Middlewares/ST/filex/common/src/fx_media_open.c ****     cache_entry_ptr =  media_ptr -> fx_media_sector_cache;
 427              		.loc 1 386 7 is_stmt 0 view .LVU214
 428 01dc 6669     		ldr	r6, [r4, #20]
 429              	.LVL12:
 387:Middlewares/ST/filex/common/src/fx_media_open.c ****     while (i--)
 430              		.loc 1 387 5 is_stmt 1 view .LVU215
 387:Middlewares/ST/filex/common/src/fx_media_open.c ****     while (i--)
 431              		.loc 1 387 21 is_stmt 0 view .LVU216
 432 01de 04F54A6C 		add	ip, r4, #3232
 433              	.LVL13:
 388:Middlewares/ST/filex/common/src/fx_media_open.c ****     {
 434              		.loc 1 388 5 is_stmt 1 view .LVU217
 387:Middlewares/ST/filex/common/src/fx_media_open.c ****     while (i--)
 435              		.loc 1 387 21 is_stmt 0 view .LVU218
 436 01e2 6346     		mov	r3, ip
 388:Middlewares/ST/filex/common/src/fx_media_open.c ****     {
 437              		.loc 1 388 11 view .LVU219
 438 01e4 2A46     		mov	r2, r5
 439 01e6 26E0     		b	.L7
 440              	.LVL14:
 441              	.L56:
 331:Middlewares/ST/filex/common/src/fx_media_open.c ****         media_ptr -> fx_media_driver_status =       FX_IO_ERROR;
 442              		.loc 1 331 9 is_stmt 1 view .LVU220
 331:Middlewares/ST/filex/common/src/fx_media_open.c ****         media_ptr -> fx_media_driver_status =       FX_IO_ERROR;
 443              		.loc 1 331 46 is_stmt 0 view .LVU221
 444 01e8 0823     		movs	r3, #8
 445 01ea C4F88830 		str	r3, [r4, #136]
 332:Middlewares/ST/filex/common/src/fx_media_open.c **** 
 446              		.loc 1 332 9 is_stmt 1 view .LVU222
ARM GAS  C:\Users\HP\AppData\Local\Temp\ccCKtT2B.s 			page 28


 332:Middlewares/ST/filex/common/src/fx_media_open.c **** 
 447              		.loc 1 332 45 is_stmt 0 view .LVU223
 448 01ee 9023     		movs	r3, #144
 449 01f0 C4F88C30 		str	r3, [r4, #140]
 338:Middlewares/ST/filex/common/src/fx_media_open.c **** 
 450              		.loc 1 338 9 is_stmt 1 view .LVU224
 338:Middlewares/ST/filex/common/src/fx_media_open.c **** 
 451              		.loc 1 338 20 is_stmt 0 view .LVU225
 452 01f4 D4F8BC30 		ldr	r3, [r4, #188]
 453 01f8 2046     		mov	r0, r4
 454 01fa 9847     		blx	r3
 455              	.LVL15:
 341:Middlewares/ST/filex/common/src/fx_media_open.c ****     }
 456              		.loc 1 341 9 is_stmt 1 view .LVU226
 341:Middlewares/ST/filex/common/src/fx_media_open.c ****     }
 457              		.loc 1 341 15 is_stmt 0 view .LVU227
 458 01fc 0226     		movs	r6, #2
 459 01fe D1E7     		b	.L1
 460              	.LVL16:
 461              	.L57:
 352:Middlewares/ST/filex/common/src/fx_media_open.c ****         media_ptr -> fx_media_driver_status =       FX_IO_ERROR;
 462              		.loc 1 352 9 is_stmt 1 view .LVU228
 352:Middlewares/ST/filex/common/src/fx_media_open.c ****         media_ptr -> fx_media_driver_status =       FX_IO_ERROR;
 463              		.loc 1 352 46 is_stmt 0 view .LVU229
 464 0200 0823     		movs	r3, #8
 465 0202 C4F88830 		str	r3, [r4, #136]
 353:Middlewares/ST/filex/common/src/fx_media_open.c **** 
 466              		.loc 1 353 9 is_stmt 1 view .LVU230
 353:Middlewares/ST/filex/common/src/fx_media_open.c **** 
 467              		.loc 1 353 45 is_stmt 0 view .LVU231
 468 0206 9023     		movs	r3, #144
 469 0208 C4F88C30 		str	r3, [r4, #140]
 359:Middlewares/ST/filex/common/src/fx_media_open.c **** 
 470              		.loc 1 359 9 is_stmt 1 view .LVU232
 359:Middlewares/ST/filex/common/src/fx_media_open.c **** 
 471              		.loc 1 359 20 is_stmt 0 view .LVU233
 472 020c D4F8BC30 		ldr	r3, [r4, #188]
 473 0210 2046     		mov	r0, r4
 474              	.LVL17:
 359:Middlewares/ST/filex/common/src/fx_media_open.c **** 
 475              		.loc 1 359 20 view .LVU234
 476 0212 9847     		blx	r3
 477              	.LVL18:
 362:Middlewares/ST/filex/common/src/fx_media_open.c ****     }
 478              		.loc 1 362 9 is_stmt 1 view .LVU235
 362:Middlewares/ST/filex/common/src/fx_media_open.c ****     }
 479              		.loc 1 362 15 is_stmt 0 view .LVU236
 480 0214 2126     		movs	r6, #33
 481 0216 C5E7     		b	.L1
 482              	.LVL19:
 483              	.L8:
 392:Middlewares/ST/filex/common/src/fx_media_open.c ****         cache_entry_ptr -> fx_cached_sector =                (~(ULONG64)0);
 484              		.loc 1 392 9 is_stmt 1 view .LVU237
 392:Middlewares/ST/filex/common/src/fx_media_open.c ****         cache_entry_ptr -> fx_cached_sector =                (~(ULONG64)0);
 485              		.loc 1 392 59 is_stmt 0 view .LVU238
 486 0218 1A60     		str	r2, [r3]
 393:Middlewares/ST/filex/common/src/fx_media_open.c ****         cache_entry_ptr -> fx_cached_sector_buffer_dirty =   FX_FALSE;
ARM GAS  C:\Users\HP\AppData\Local\Temp\ccCKtT2B.s 			page 29


 487              		.loc 1 393 9 is_stmt 1 view .LVU239
 393:Middlewares/ST/filex/common/src/fx_media_open.c ****         cache_entry_ptr -> fx_cached_sector_buffer_dirty =   FX_FALSE;
 488              		.loc 1 393 45 is_stmt 0 view .LVU240
 489 021a 9FED217B 		vldr.64	d7, .L68	@ int
 490 021e 83ED027B 		vstr.64	d7, [r3, #8]	@ int
 394:Middlewares/ST/filex/common/src/fx_media_open.c ****         cache_entry_ptr -> fx_cached_sector_valid =          FX_FALSE;
 491              		.loc 1 394 9 is_stmt 1 view .LVU241
 394:Middlewares/ST/filex/common/src/fx_media_open.c ****         cache_entry_ptr -> fx_cached_sector_valid =          FX_FALSE;
 492              		.loc 1 394 58 is_stmt 0 view .LVU242
 493 0222 0021     		movs	r1, #0
 494 0224 1974     		strb	r1, [r3, #16]
 395:Middlewares/ST/filex/common/src/fx_media_open.c ****         cache_entry_ptr -> fx_cached_sector_next_used =      cache_entry_ptr + 1;
 495              		.loc 1 395 9 is_stmt 1 view .LVU243
 395:Middlewares/ST/filex/common/src/fx_media_open.c ****         cache_entry_ptr -> fx_cached_sector_next_used =      cache_entry_ptr + 1;
 496              		.loc 1 395 51 is_stmt 0 view .LVU244
 497 0226 5974     		strb	r1, [r3, #17]
 396:Middlewares/ST/filex/common/src/fx_media_open.c **** 
 498              		.loc 1 396 9 is_stmt 1 view .LVU245
 396:Middlewares/ST/filex/common/src/fx_media_open.c **** 
 499              		.loc 1 396 78 is_stmt 0 view .LVU246
 500 0228 03F11801 		add	r1, r3, #24
 396:Middlewares/ST/filex/common/src/fx_media_open.c **** 
 501              		.loc 1 396 55 view .LVU247
 502 022c 5961     		str	r1, [r3, #20]
 399:Middlewares/ST/filex/common/src/fx_media_open.c **** 
 503              		.loc 1 399 9 is_stmt 1 view .LVU248
 504              	.LVL20:
 402:Middlewares/ST/filex/common/src/fx_media_open.c ****     }
 505              		.loc 1 402 9 view .LVU249
 402:Middlewares/ST/filex/common/src/fx_media_open.c ****     }
 506              		.loc 1 402 66 is_stmt 0 view .LVU250
 507 022e A36A     		ldr	r3, [r4, #40]
 402:Middlewares/ST/filex/common/src/fx_media_open.c ****     }
 508              		.loc 1 402 20 view .LVU251
 509 0230 1A44     		add	r2, r2, r3
 510              	.LVL21:
 399:Middlewares/ST/filex/common/src/fx_media_open.c **** 
 511              		.loc 1 399 24 view .LVU252
 512 0232 0B46     		mov	r3, r1
 388:Middlewares/ST/filex/common/src/fx_media_open.c ****     {
 513              		.loc 1 388 13 view .LVU253
 514 0234 0646     		mov	r6, r0
 515              	.LVL22:
 516              	.L7:
 388:Middlewares/ST/filex/common/src/fx_media_open.c ****     {
 517              		.loc 1 388 11 is_stmt 1 view .LVU254
 388:Middlewares/ST/filex/common/src/fx_media_open.c ****     {
 518              		.loc 1 388 13 is_stmt 0 view .LVU255
 519 0236 701E     		subs	r0, r6, #1
 520              	.LVL23:
 388:Middlewares/ST/filex/common/src/fx_media_open.c ****     {
 521              		.loc 1 388 11 view .LVU256
 522 0238 002E     		cmp	r6, #0
 523 023a EDD1     		bne	.L8
 406:Middlewares/ST/filex/common/src/fx_media_open.c ****     cache_entry_ptr -> fx_cached_sector_next_used =  FX_NULL;
 524              		.loc 1 406 5 is_stmt 1 view .LVU257
 525              	.LVL24:
ARM GAS  C:\Users\HP\AppData\Local\Temp\ccCKtT2B.s 			page 30


 407:Middlewares/ST/filex/common/src/fx_media_open.c **** 
 526              		.loc 1 407 5 view .LVU258
 407:Middlewares/ST/filex/common/src/fx_media_open.c **** 
 527              		.loc 1 407 51 is_stmt 0 view .LVU259
 528 023c 0021     		movs	r1, #0
 529 023e 43F8041C 		str	r1, [r3, #-4]
 410:Middlewares/ST/filex/common/src/fx_media_open.c **** 
 530              		.loc 1 410 5 is_stmt 1 view .LVU260
 410:Middlewares/ST/filex/common/src/fx_media_open.c **** 
 531              		.loc 1 410 69 is_stmt 0 view .LVU261
 532 0242 013A     		subs	r2, r2, #1
 533              	.LVL25:
 410:Middlewares/ST/filex/common/src/fx_media_open.c **** 
 534              		.loc 1 410 44 view .LVU262
 535 0244 A261     		str	r2, [r4, #24]
 413:Middlewares/ST/filex/common/src/fx_media_open.c **** 
 536              		.loc 1 413 5 is_stmt 1 view .LVU263
 413:Middlewares/ST/filex/common/src/fx_media_open.c **** 
 537              		.loc 1 413 49 is_stmt 0 view .LVU264
 538 0246 C4F81CC0 		str	ip, [r4, #28]
 416:Middlewares/ST/filex/common/src/fx_media_open.c **** 
 539              		.loc 1 416 5 is_stmt 1 view .LVU265
 416:Middlewares/ST/filex/common/src/fx_media_open.c **** 
 540              		.loc 1 416 60 is_stmt 0 view .LVU266
 541 024a 2162     		str	r1, [r4, #32]
 419:Middlewares/ST/filex/common/src/fx_media_open.c **** 
 542              		.loc 1 419 5 is_stmt 1 view .LVU267
 419:Middlewares/ST/filex/common/src/fx_media_open.c **** 
 543              		.loc 1 419 52 is_stmt 0 view .LVU268
 544 024c 6162     		str	r1, [r4, #36]
 424:Middlewares/ST/filex/common/src/fx_media_open.c ****         ((media_ptr -> fx_media_sector_cache_size ^ (media_ptr -> fx_media_sector_cache_size - 1)) 
 545              		.loc 1 424 5 is_stmt 1 view .LVU269
 424:Middlewares/ST/filex/common/src/fx_media_open.c ****         ((media_ptr -> fx_media_sector_cache_size ^ (media_ptr -> fx_media_sector_cache_size - 1)) 
 546              		.loc 1 424 20 is_stmt 0 view .LVU270
 547 024e 6369     		ldr	r3, [r4, #20]
 548              	.LVL26:
 424:Middlewares/ST/filex/common/src/fx_media_open.c ****         ((media_ptr -> fx_media_sector_cache_size ^ (media_ptr -> fx_media_sector_cache_size - 1)) 
 549              		.loc 1 424 8 view .LVU271
 550 0250 0F2B     		cmp	r3, #15
 551 0252 05D9     		bls	.L9
 425:Middlewares/ST/filex/common/src/fx_media_open.c ****          (media_ptr -> fx_media_sector_cache_size | (media_ptr -> fx_media_sector_cache_size - 1)))
 552              		.loc 1 425 94 discriminator 1 view .LVU272
 553 0254 5A1E     		subs	r2, r3, #1
 554              	.LVL27:
 425:Middlewares/ST/filex/common/src/fx_media_open.c ****          (media_ptr -> fx_media_sector_cache_size | (media_ptr -> fx_media_sector_cache_size - 1)))
 555              		.loc 1 425 51 discriminator 1 view .LVU273
 556 0256 83EA0201 		eor	r1, r3, r2
 426:Middlewares/ST/filex/common/src/fx_media_open.c ****     {
 557              		.loc 1 426 51 discriminator 1 view .LVU274
 558 025a 1A43     		orrs	r2, r2, r3
 424:Middlewares/ST/filex/common/src/fx_media_open.c ****         ((media_ptr -> fx_media_sector_cache_size ^ (media_ptr -> fx_media_sector_cache_size - 1)) 
 559              		.loc 1 424 82 discriminator 1 view .LVU275
 560 025c 9142     		cmp	r1, r2
 561 025e 03D0     		beq	.L58
 562              	.L9:
 440:Middlewares/ST/filex/common/src/fx_media_open.c ****     }
 563              		.loc 1 440 9 is_stmt 1 view .LVU276
ARM GAS  C:\Users\HP\AppData\Local\Temp\ccCKtT2B.s 			page 31


 440:Middlewares/ST/filex/common/src/fx_media_open.c ****     }
 564              		.loc 1 440 51 is_stmt 0 view .LVU277
 565 0260 0023     		movs	r3, #0
 566 0262 2361     		str	r3, [r4, #16]
 567              	.L11:
 388:Middlewares/ST/filex/common/src/fx_media_open.c ****     {
 568              		.loc 1 388 13 discriminator 1 view .LVU278
 569 0264 3246     		mov	r2, r6
 570 0266 14E0     		b	.L10
 571              	.L58:
 432:Middlewares/ST/filex/common/src/fx_media_open.c ****         media_ptr -> fx_media_sector_cache_hash_mask =
 572              		.loc 1 432 9 is_stmt 1 view .LVU279
 432:Middlewares/ST/filex/common/src/fx_media_open.c ****         media_ptr -> fx_media_sector_cache_hash_mask =
 573              		.loc 1 432 51 is_stmt 0 view .LVU280
 574 0268 0122     		movs	r2, #1
 575 026a 2261     		str	r2, [r4, #16]
 433:Middlewares/ST/filex/common/src/fx_media_open.c ****             ((media_ptr -> fx_media_sector_cache_size / FX_SECTOR_CACHE_DEPTH) - 1);
 576              		.loc 1 433 9 is_stmt 1 view .LVU281
 434:Middlewares/ST/filex/common/src/fx_media_open.c ****     }
 577              		.loc 1 434 55 is_stmt 0 view .LVU282
 578 026c 9B08     		lsrs	r3, r3, #2
 434:Middlewares/ST/filex/common/src/fx_media_open.c ****     }
 579              		.loc 1 434 80 view .LVU283
 580 026e 013B     		subs	r3, r3, #1
 433:Middlewares/ST/filex/common/src/fx_media_open.c ****             ((media_ptr -> fx_media_sector_cache_size / FX_SECTOR_CACHE_DEPTH) - 1);
 581              		.loc 1 433 54 view .LVU284
 582 0270 04F50052 		add	r2, r4, #8192
 583 0274 C2F8A034 		str	r3, [r2, #1184]
 584 0278 F4E7     		b	.L11
 585              	.LVL28:
 586              	.L12:
 452:Middlewares/ST/filex/common/src/fx_media_open.c ****         media_ptr -> fx_media_fat_cache[i].fx_fat_cache_entry_value   =   0;
 587              		.loc 1 452 9 is_stmt 1 discriminator 3 view .LVU285
 452:Middlewares/ST/filex/common/src/fx_media_open.c ****         media_ptr -> fx_media_fat_cache[i].fx_fat_cache_entry_value   =   0;
 588              		.loc 1 452 71 is_stmt 0 discriminator 3 view .LVU286
 589 027a 02EB4203 		add	r3, r2, r2, lsl #1
 590 027e 04EB8303 		add	r3, r4, r3, lsl #2
 591 0282 0021     		movs	r1, #0
 592 0284 C3F85817 		str	r1, [r3, #1880]
 453:Middlewares/ST/filex/common/src/fx_media_open.c ****         media_ptr -> fx_media_fat_cache[i].fx_fat_cache_entry_dirty   =   0;
 593              		.loc 1 453 9 is_stmt 1 discriminator 3 view .LVU287
 453:Middlewares/ST/filex/common/src/fx_media_open.c ****         media_ptr -> fx_media_fat_cache[i].fx_fat_cache_entry_dirty   =   0;
 594              		.loc 1 453 71 is_stmt 0 discriminator 3 view .LVU288
 595 0288 C3F85C17 		str	r1, [r3, #1884]
 454:Middlewares/ST/filex/common/src/fx_media_open.c ****     }
 596              		.loc 1 454 9 is_stmt 1 discriminator 3 view .LVU289
 454:Middlewares/ST/filex/common/src/fx_media_open.c ****     }
 597              		.loc 1 454 71 is_stmt 0 discriminator 3 view .LVU290
 598 028c C3F86017 		str	r1, [r3, #1888]
 448:Middlewares/ST/filex/common/src/fx_media_open.c ****     {
 599              		.loc 1 448 39 is_stmt 1 discriminator 3 view .LVU291
 448:Middlewares/ST/filex/common/src/fx_media_open.c ****     {
 600              		.loc 1 448 40 is_stmt 0 discriminator 3 view .LVU292
 601 0290 0132     		adds	r2, r2, #1
 602              	.LVL29:
 603              	.L10:
 448:Middlewares/ST/filex/common/src/fx_media_open.c ****     {
ARM GAS  C:\Users\HP\AppData\Local\Temp\ccCKtT2B.s 			page 32


 604              		.loc 1 448 17 is_stmt 1 discriminator 1 view .LVU293
 448:Middlewares/ST/filex/common/src/fx_media_open.c ****     {
 605              		.loc 1 448 5 is_stmt 0 discriminator 1 view .LVU294
 606 0292 0F2A     		cmp	r2, #15
 607 0294 F1D9     		bls	.L12
 458:Middlewares/ST/filex/common/src/fx_media_open.c ****     {
 608              		.loc 1 458 12 view .LVU295
 609 0296 3346     		mov	r3, r6
 610 0298 13E0     		b	.L13
 611              	.L69:
 612 029a 00BFAFF3 		.align	3
 612      0080
 613              	.L68:
 614 02a0 FFFFFFFF 		.word	-1
 615 02a4 FFFFFFFF 		.word	-1
 616 02a8 00000000 		.word	_fx_system_build_options_1
 617 02ac 00000000 		.word	_fx_system_build_options_2
 618 02b0 00000000 		.word	_fx_system_build_options_3
 619 02b4 00000000 		.word	_fx_version_id
 620              	.LVL30:
 621              	.L14:
 462:Middlewares/ST/filex/common/src/fx_media_open.c ****     }
 622              		.loc 1 462 9 is_stmt 1 discriminator 3 view .LVU296
 462:Middlewares/ST/filex/common/src/fx_media_open.c ****     }
 623              		.loc 1 462 59 is_stmt 0 discriminator 3 view .LVU297
 624 02b8 E218     		adds	r2, r4, r3
 625 02ba 0021     		movs	r1, #0
 626 02bc 82F81818 		strb	r1, [r2, #2072]
 458:Middlewares/ST/filex/common/src/fx_media_open.c ****     {
 627              		.loc 1 458 38 is_stmt 1 discriminator 3 view .LVU298
 458:Middlewares/ST/filex/common/src/fx_media_open.c ****     {
 628              		.loc 1 458 39 is_stmt 0 discriminator 3 view .LVU299
 629 02c0 0133     		adds	r3, r3, #1
 630              	.LVL31:
 631              	.L13:
 458:Middlewares/ST/filex/common/src/fx_media_open.c ****     {
 632              		.loc 1 458 17 is_stmt 1 discriminator 1 view .LVU300
 458:Middlewares/ST/filex/common/src/fx_media_open.c ****     {
 633              		.loc 1 458 5 is_stmt 0 discriminator 1 view .LVU301
 634 02c2 7F2B     		cmp	r3, #127
 635 02c4 F8D9     		bls	.L14
 472:Middlewares/ST/filex/common/src/fx_media_open.c ****             (media_ptr -> fx_media_number_of_FATs *
 636              		.loc 1 472 9 is_stmt 1 view .LVU302
 472:Middlewares/ST/filex/common/src/fx_media_open.c ****             (media_ptr -> fx_media_number_of_FATs *
 637              		.loc 1 472 62 is_stmt 0 view .LVU303
 638 02c6 626C     		ldr	r2, [r4, #68]
 473:Middlewares/ST/filex/common/src/fx_media_open.c ****              media_ptr -> fx_media_sectors_per_FAT);
 639              		.loc 1 473 24 view .LVU304
 640 02c8 E36D     		ldr	r3, [r4, #92]
 641              	.LVL32:
 474:Middlewares/ST/filex/common/src/fx_media_open.c **** 
 642              		.loc 1 474 24 view .LVU305
 643 02ca A16D     		ldr	r1, [r4, #88]
 472:Middlewares/ST/filex/common/src/fx_media_open.c ****             (media_ptr -> fx_media_number_of_FATs *
 644              		.loc 1 472 91 view .LVU306
 645 02cc 01FB0322 		mla	r2, r1, r3, r2
 472:Middlewares/ST/filex/common/src/fx_media_open.c ****             (media_ptr -> fx_media_number_of_FATs *
ARM GAS  C:\Users\HP\AppData\Local\Temp\ccCKtT2B.s 			page 33


 646              		.loc 1 472 49 view .LVU307
 647 02d0 A264     		str	r2, [r4, #72]
 477:Middlewares/ST/filex/common/src/fx_media_open.c ****             ((media_ptr -> fx_media_root_directory_entries * FX_DIR_ENTRY_SIZE) +
 648              		.loc 1 477 9 is_stmt 1 view .LVU308
 478:Middlewares/ST/filex/common/src/fx_media_open.c ****              media_ptr -> fx_media_bytes_per_sector - 1) /
 649              		.loc 1 478 25 is_stmt 0 view .LVU309
 650 02d2 A36F     		ldr	r3, [r4, #120]
 479:Middlewares/ST/filex/common/src/fx_media_open.c ****             media_ptr -> fx_media_bytes_per_sector;
 651              		.loc 1 479 24 view .LVU310
 652 02d4 A16A     		ldr	r1, [r4, #40]
 478:Middlewares/ST/filex/common/src/fx_media_open.c ****              media_ptr -> fx_media_bytes_per_sector - 1) /
 653              		.loc 1 478 81 view .LVU311
 654 02d6 01EB4313 		add	r3, r1, r3, lsl #5
 479:Middlewares/ST/filex/common/src/fx_media_open.c ****             media_ptr -> fx_media_bytes_per_sector;
 655              		.loc 1 479 53 view .LVU312
 656 02da 013B     		subs	r3, r3, #1
 479:Middlewares/ST/filex/common/src/fx_media_open.c ****             media_ptr -> fx_media_bytes_per_sector;
 657              		.loc 1 479 58 view .LVU313
 658 02dc B3FBF1F3 		udiv	r3, r3, r1
 477:Middlewares/ST/filex/common/src/fx_media_open.c ****             ((media_ptr -> fx_media_root_directory_entries * FX_DIR_ENTRY_SIZE) +
 659              		.loc 1 477 44 view .LVU314
 660 02e0 E364     		str	r3, [r4, #76]
 483:Middlewares/ST/filex/common/src/fx_media_open.c ****             media_ptr -> fx_media_root_sectors;
 661              		.loc 1 483 9 is_stmt 1 view .LVU315
 483:Middlewares/ST/filex/common/src/fx_media_open.c ****             media_ptr -> fx_media_root_sectors;
 662              		.loc 1 483 92 is_stmt 0 view .LVU316
 663 02e2 02EB0308 		add	r8, r2, r3
 483:Middlewares/ST/filex/common/src/fx_media_open.c ****             media_ptr -> fx_media_root_sectors;
 664              		.loc 1 483 49 view .LVU317
 665 02e6 C4F85080 		str	r8, [r4, #80]
 487:Middlewares/ST/filex/common/src/fx_media_open.c ****                                                             media_ptr -> fx_media_sectors_per_clust
 666              		.loc 1 487 9 is_stmt 1 view .LVU318
 487:Middlewares/ST/filex/common/src/fx_media_open.c ****                                                             media_ptr -> fx_media_sectors_per_clust
 667              		.loc 1 487 68 is_stmt 0 view .LVU319
 668 02ea A36B     		ldr	r3, [r4, #56]
 669 02ec E16B     		ldr	r1, [r4, #60]
 487:Middlewares/ST/filex/common/src/fx_media_open.c ****                                                             media_ptr -> fx_media_sectors_per_clust
 670              		.loc 1 487 94 view .LVU320
 671 02ee B3EB0800 		subs	r0, r3, r8
 488:Middlewares/ST/filex/common/src/fx_media_open.c **** 
 672              		.loc 1 488 71 view .LVU321
 673 02f2 D4F85490 		ldr	r9, [r4, #84]
 487:Middlewares/ST/filex/common/src/fx_media_open.c ****                                                             media_ptr -> fx_media_sectors_per_clust
 674              		.loc 1 487 137 view .LVU322
 675 02f6 4A46     		mov	r2, r9
 676 02f8 4FF00003 		mov	r3, #0
 677 02fc 61F10001 		sbc	r1, r1, #0
 678 0300 FFF7FEFF 		bl	__aeabi_uldivmod
 679              	.LVL33:
 487:Middlewares/ST/filex/common/src/fx_media_open.c ****                                                             media_ptr -> fx_media_sectors_per_clust
 680              		.loc 1 487 46 view .LVU323
 681 0304 2064     		str	r0, [r4, #64]
 491:Middlewares/ST/filex/common/src/fx_media_open.c ****         {
 682              		.loc 1 491 9 is_stmt 1 view .LVU324
 491:Middlewares/ST/filex/common/src/fx_media_open.c ****         {
 683              		.loc 1 491 12 is_stmt 0 view .LVU325
 684 0306 40F6F573 		movw	r3, #4085
ARM GAS  C:\Users\HP\AppData\Local\Temp\ccCKtT2B.s 			page 34


 685 030a 9842     		cmp	r0, r3
 686 030c 00F28C80 		bhi	.L15
 495:Middlewares/ST/filex/common/src/fx_media_open.c ****             media_ptr -> fx_media_32_bit_FAT = FX_FALSE;
 687              		.loc 1 495 13 is_stmt 1 view .LVU326
 495:Middlewares/ST/filex/common/src/fx_media_open.c ****             media_ptr -> fx_media_32_bit_FAT = FX_FALSE;
 688              		.loc 1 495 46 is_stmt 0 view .LVU327
 689 0310 0123     		movs	r3, #1
 690 0312 2366     		str	r3, [r4, #96]
 496:Middlewares/ST/filex/common/src/fx_media_open.c **** #ifdef FX_ENABLE_EXFAT
 691              		.loc 1 496 13 is_stmt 1 view .LVU328
 496:Middlewares/ST/filex/common/src/fx_media_open.c **** #ifdef FX_ENABLE_EXFAT
 692              		.loc 1 496 46 is_stmt 0 view .LVU329
 693 0314 0023     		movs	r3, #0
 694 0316 6366     		str	r3, [r4, #100]
 502:Middlewares/ST/filex/common/src/fx_media_open.c **** 
 695              		.loc 1 502 13 is_stmt 1 view .LVU330
 502:Middlewares/ST/filex/common/src/fx_media_open.c **** 
 696              		.loc 1 502 64 is_stmt 0 view .LVU331
 697 0318 A366     		str	r3, [r4, #104]
 505:Middlewares/ST/filex/common/src/fx_media_open.c ****             media_ptr -> fx_media_fat_last = FX_LAST_CLUSTER_2;
 698              		.loc 1 505 13 is_stmt 1 view .LVU332
 505:Middlewares/ST/filex/common/src/fx_media_open.c ****             media_ptr -> fx_media_fat_last = FX_LAST_CLUSTER_2;
 699              		.loc 1 505 48 is_stmt 0 view .LVU333
 700 031a 04F50053 		add	r3, r4, #8192
 701 031e 4FF6F072 		movw	r2, #65520
 702 0322 C3F8A824 		str	r2, [r3, #1192]
 506:Middlewares/ST/filex/common/src/fx_media_open.c ****         }
 703              		.loc 1 506 13 is_stmt 1 view .LVU334
 506:Middlewares/ST/filex/common/src/fx_media_open.c ****         }
 704              		.loc 1 506 44 is_stmt 0 view .LVU335
 705 0326 4FF6FF72 		movw	r2, #65535
 706 032a C3F8AC24 		str	r2, [r3, #1196]
 707              	.L16:
 560:Middlewares/ST/filex/common/src/fx_media_open.c **** #endif /* FX_ENABLE_EXFAT */
 708              		.loc 1 560 5 is_stmt 1 view .LVU336
 560:Middlewares/ST/filex/common/src/fx_media_open.c **** #endif /* FX_ENABLE_EXFAT */
 709              		.loc 1 560 19 is_stmt 0 view .LVU337
 710 032e 636E     		ldr	r3, [r4, #100]
 560:Middlewares/ST/filex/common/src/fx_media_open.c **** #endif /* FX_ENABLE_EXFAT */
 711              		.loc 1 560 8 view .LVU338
 712 0330 012B     		cmp	r3, #1
 713 0332 00F09B80 		beq	.L59
 714              	.LVL34:
 715              	.L18:
 635:Middlewares/ST/filex/common/src/fx_media_open.c **** 
 716              		.loc 1 635 5 is_stmt 1 view .LVU339
 635:Middlewares/ST/filex/common/src/fx_media_open.c **** 
 717              		.loc 1 635 46 is_stmt 0 view .LVU340
 718 0336 0023     		movs	r3, #0
 719 0338 E367     		str	r3, [r4, #124]
 638:Middlewares/ST/filex/common/src/fx_media_open.c **** #endif /* FX_DISABLE_FORCE_MEMORY_OPERATION */
 720              		.loc 1 638 5 is_stmt 1 view .LVU341
 638:Middlewares/ST/filex/common/src/fx_media_open.c **** #endif /* FX_DISABLE_FORCE_MEMORY_OPERATION */
 721              		.loc 1 638 48 is_stmt 0 view .LVU342
 722 033a C4F88030 		str	r3, [r4, #128]
 642:Middlewares/ST/filex/common/src/fx_media_open.c ****     {
 723              		.loc 1 642 5 is_stmt 1 view .LVU343
ARM GAS  C:\Users\HP\AppData\Local\Temp\ccCKtT2B.s 			page 35


 642:Middlewares/ST/filex/common/src/fx_media_open.c ****     {
 724              		.loc 1 642 19 is_stmt 0 view .LVU344
 725 033e A36E     		ldr	r3, [r4, #104]
 642:Middlewares/ST/filex/common/src/fx_media_open.c ****     {
 726              		.loc 1 642 8 view .LVU345
 727 0340 53B3     		cbz	r3, .L23
 728              	.LBB11:
 645:Middlewares/ST/filex/common/src/fx_media_open.c ****     ULONG  signature;
 729              		.loc 1 645 5 is_stmt 1 view .LVU346
 646:Middlewares/ST/filex/common/src/fx_media_open.c **** 
 730              		.loc 1 646 5 view .LVU347
 654:Middlewares/ST/filex/common/src/fx_media_open.c **** 
 731              		.loc 1 654 9 view .LVU348
 654:Middlewares/ST/filex/common/src/fx_media_open.c **** 
 732              		.loc 1 654 34 is_stmt 0 view .LVU349
 733 0342 E369     		ldr	r3, [r4, #28]
 654:Middlewares/ST/filex/common/src/fx_media_open.c **** 
 734              		.loc 1 654 20 view .LVU350
 735 0344 1A68     		ldr	r2, [r3]
 736              	.LVL35:
 657:Middlewares/ST/filex/common/src/fx_media_open.c ****         (media_ptr -> fx_media_sector_cache_list_ptr) -> fx_cached_sector_valid =  FX_FALSE;
 737              		.loc 1 657 9 is_stmt 1 view .LVU351
 657:Middlewares/ST/filex/common/src/fx_media_open.c ****         (media_ptr -> fx_media_sector_cache_list_ptr) -> fx_cached_sector_valid =  FX_FALSE;
 738              		.loc 1 657 75 is_stmt 0 view .LVU352
 739 0346 4FF0FF30 		mov	r0, #-1
 740 034a 4FF0FF31 		mov	r1, #-1
 741 034e C3E90201 		strd	r0, [r3, #8]
 658:Middlewares/ST/filex/common/src/fx_media_open.c **** #else
 742              		.loc 1 658 9 is_stmt 1 view .LVU353
 658:Middlewares/ST/filex/common/src/fx_media_open.c **** #else
 743              		.loc 1 658 20 is_stmt 0 view .LVU354
 744 0352 E169     		ldr	r1, [r4, #28]
 658:Middlewares/ST/filex/common/src/fx_media_open.c **** #else
 745              		.loc 1 658 81 view .LVU355
 746 0354 0023     		movs	r3, #0
 747 0356 4B74     		strb	r3, [r1, #17]
 665:Middlewares/ST/filex/common/src/fx_media_open.c ****         media_ptr -> fx_media_driver_status =           FX_IO_ERROR;
 748              		.loc 1 665 9 is_stmt 1 view .LVU356
 665:Middlewares/ST/filex/common/src/fx_media_open.c ****         media_ptr -> fx_media_driver_status =           FX_IO_ERROR;
 749              		.loc 1 665 46 is_stmt 0 view .LVU357
 750 0358 C4F88830 		str	r3, [r4, #136]
 666:Middlewares/ST/filex/common/src/fx_media_open.c ****         media_ptr -> fx_media_driver_buffer =           buffer_ptr;
 751              		.loc 1 666 9 is_stmt 1 view .LVU358
 666:Middlewares/ST/filex/common/src/fx_media_open.c ****         media_ptr -> fx_media_driver_buffer =           buffer_ptr;
 752              		.loc 1 666 45 is_stmt 0 view .LVU359
 753 035c 9023     		movs	r3, #144
 754 035e C4F88C30 		str	r3, [r4, #140]
 667:Middlewares/ST/filex/common/src/fx_media_open.c ****         media_ptr -> fx_media_driver_logical_sector =   media_ptr -> fx_media_FAT32_additional_info
 755              		.loc 1 667 9 is_stmt 1 view .LVU360
 667:Middlewares/ST/filex/common/src/fx_media_open.c ****         media_ptr -> fx_media_driver_logical_sector =   media_ptr -> fx_media_FAT32_additional_info
 756              		.loc 1 667 45 is_stmt 0 view .LVU361
 757 0362 C4F89020 		str	r2, [r4, #144]
 668:Middlewares/ST/filex/common/src/fx_media_open.c ****         media_ptr -> fx_media_driver_sectors =          1;
 758              		.loc 1 668 9 is_stmt 1 view .LVU362
 668:Middlewares/ST/filex/common/src/fx_media_open.c ****         media_ptr -> fx_media_driver_sectors =          1;
 759              		.loc 1 668 67 is_stmt 0 view .LVU363
 760 0366 A36E     		ldr	r3, [r4, #104]
ARM GAS  C:\Users\HP\AppData\Local\Temp\ccCKtT2B.s 			page 36


 668:Middlewares/ST/filex/common/src/fx_media_open.c ****         media_ptr -> fx_media_driver_sectors =          1;
 761              		.loc 1 668 53 view .LVU364
 762 0368 C4F89430 		str	r3, [r4, #148]
 669:Middlewares/ST/filex/common/src/fx_media_open.c ****         media_ptr -> fx_media_driver_sector_type =      FX_DIRECTORY_SECTOR;
 763              		.loc 1 669 9 is_stmt 1 view .LVU365
 669:Middlewares/ST/filex/common/src/fx_media_open.c ****         media_ptr -> fx_media_driver_sector_type =      FX_DIRECTORY_SECTOR;
 764              		.loc 1 669 46 is_stmt 0 view .LVU366
 765 036c 0123     		movs	r3, #1
 766 036e C4F89830 		str	r3, [r4, #152]
 670:Middlewares/ST/filex/common/src/fx_media_open.c **** 
 767              		.loc 1 670 9 is_stmt 1 view .LVU367
 670:Middlewares/ST/filex/common/src/fx_media_open.c **** 
 768              		.loc 1 670 50 is_stmt 0 view .LVU368
 769 0372 0323     		movs	r3, #3
 770 0374 C4F8B830 		str	r3, [r4, #184]
 675:Middlewares/ST/filex/common/src/fx_media_open.c **** #endif
 771              		.loc 1 675 9 is_stmt 1 view .LVU369
 675:Middlewares/ST/filex/common/src/fx_media_open.c **** #endif
 772              		.loc 1 675 19 is_stmt 0 view .LVU370
 773 0378 D4F8AC31 		ldr	r3, [r4, #428]
 675:Middlewares/ST/filex/common/src/fx_media_open.c **** #endif
 774              		.loc 1 675 51 view .LVU371
 775 037c 0133     		adds	r3, r3, #1
 776 037e C4F8AC31 		str	r3, [r4, #428]
 682:Middlewares/ST/filex/common/src/fx_media_open.c **** 
 777              		.loc 1 682 9 is_stmt 1 view .LVU372
 682:Middlewares/ST/filex/common/src/fx_media_open.c **** 
 778              		.loc 1 682 20 is_stmt 0 view .LVU373
 779 0382 D4F8BC30 		ldr	r3, [r4, #188]
 780 0386 2046     		mov	r0, r4
 781 0388 9847     		blx	r3
 782              	.LVL36:
 685:Middlewares/ST/filex/common/src/fx_media_open.c ****         {
 783              		.loc 1 685 9 is_stmt 1 view .LVU374
 685:Middlewares/ST/filex/common/src/fx_media_open.c ****         {
 784              		.loc 1 685 23 is_stmt 0 view .LVU375
 785 038a D4F88C30 		ldr	r3, [r4, #140]
 685:Middlewares/ST/filex/common/src/fx_media_open.c ****         {
 786              		.loc 1 685 12 view .LVU376
 787 038e 002B     		cmp	r3, #0
 788 0390 00F0A980 		beq	.L60
 749:Middlewares/ST/filex/common/src/fx_media_open.c ****         }
 789              		.loc 1 749 13 is_stmt 1 view .LVU377
 749:Middlewares/ST/filex/common/src/fx_media_open.c ****         }
 790              		.loc 1 749 64 is_stmt 0 view .LVU378
 791 0394 0023     		movs	r3, #0
 792 0396 A366     		str	r3, [r4, #104]
 793              	.L23:
 749:Middlewares/ST/filex/common/src/fx_media_open.c ****         }
 794              		.loc 1 749 64 view .LVU379
 795              	.LBE11:
 757:Middlewares/ST/filex/common/src/fx_media_open.c ****     {
 796              		.loc 1 757 5 is_stmt 1 view .LVU380
 757:Middlewares/ST/filex/common/src/fx_media_open.c ****     {
 797              		.loc 1 757 19 is_stmt 0 view .LVU381
 798 0398 236E     		ldr	r3, [r4, #96]
 757:Middlewares/ST/filex/common/src/fx_media_open.c ****     {
ARM GAS  C:\Users\HP\AppData\Local\Temp\ccCKtT2B.s 			page 37


 799              		.loc 1 757 8 view .LVU382
 800 039a 002B     		cmp	r3, #0
 801 039c 40F0F980 		bne	.L53
 810:Middlewares/ST/filex/common/src/fx_media_open.c **** #endif /* FX_ENABLE_EXFAT */
 802              		.loc 1 810 10 is_stmt 1 view .LVU383
 810:Middlewares/ST/filex/common/src/fx_media_open.c **** #endif /* FX_ENABLE_EXFAT */
 803              		.loc 1 810 24 is_stmt 0 view .LVU384
 804 03a0 E76F     		ldr	r7, [r4, #124]
 810:Middlewares/ST/filex/common/src/fx_media_open.c **** #endif /* FX_ENABLE_EXFAT */
 805              		.loc 1 810 13 view .LVU385
 806 03a2 002F     		cmp	r7, #0
 807 03a4 00F0F780 		beq	.L61
 808              	.LVL37:
 809              	.L33:
 960:Middlewares/ST/filex/common/src/fx_media_open.c ****     {
 810              		.loc 1 960 5 is_stmt 1 view .LVU386
 960:Middlewares/ST/filex/common/src/fx_media_open.c ****     {
 811              		.loc 1 960 19 is_stmt 0 view .LVU387
 812 03a8 D4F88030 		ldr	r3, [r4, #128]
 960:Middlewares/ST/filex/common/src/fx_media_open.c ****     {
 813              		.loc 1 960 8 view .LVU388
 814 03ac 13B9     		cbnz	r3, .L44
 962:Middlewares/ST/filex/common/src/fx_media_open.c ****     }
 815              		.loc 1 962 9 is_stmt 1 view .LVU389
 962:Middlewares/ST/filex/common/src/fx_media_open.c ****     }
 816              		.loc 1 962 52 is_stmt 0 view .LVU390
 817 03ae 0223     		movs	r3, #2
 818 03b0 C4F88030 		str	r3, [r4, #128]
 819              	.L44:
 967:Middlewares/ST/filex/common/src/fx_media_open.c ****         media_ptr -> fx_media_default_path.fx_path_name_buffer;
 820              		.loc 1 967 5 is_stmt 1 view .LVU391
 968:Middlewares/ST/filex/common/src/fx_media_open.c ****     media_ptr -> fx_media_default_path.fx_path_directory.fx_dir_entry_short_name[0] =  0;
 821              		.loc 1 968 9 is_stmt 0 view .LVU392
 822 03b4 04F5CA63 		add	r3, r4, #1616
 967:Middlewares/ST/filex/common/src/fx_media_open.c ****         media_ptr -> fx_media_default_path.fx_path_name_buffer;
 823              		.loc 1 967 76 view .LVU393
 824 03b8 C4F8E034 		str	r3, [r4, #1248]
 969:Middlewares/ST/filex/common/src/fx_media_open.c ****     media_ptr -> fx_media_default_path.fx_path_directory.fx_dir_entry_name[0] =        0;
 825              		.loc 1 969 5 is_stmt 1 view .LVU394
 969:Middlewares/ST/filex/common/src/fx_media_open.c ****     media_ptr -> fx_media_default_path.fx_path_directory.fx_dir_entry_name[0] =        0;
 826              		.loc 1 969 85 is_stmt 0 view .LVU395
 827 03bc 0022     		movs	r2, #0
 828 03be 84F8E424 		strb	r2, [r4, #1252]
 970:Middlewares/ST/filex/common/src/fx_media_open.c ****     media_ptr -> fx_media_default_path.fx_path_string[0] =                      (CHAR)0;
 829              		.loc 1 970 5 is_stmt 1 view .LVU396
 970:Middlewares/ST/filex/common/src/fx_media_open.c ****     media_ptr -> fx_media_default_path.fx_path_string[0] =                      (CHAR)0;
 830              		.loc 1 970 79 is_stmt 0 view .LVU397
 831 03c2 84F85026 		strb	r2, [r4, #1616]
 971:Middlewares/ST/filex/common/src/fx_media_open.c ****     media_ptr -> fx_media_default_path.fx_path_string[FX_MAXIMUM_PATH - 1] =      (CHAR)0;
 832              		.loc 1 971 5 is_stmt 1 view .LVU398
 971:Middlewares/ST/filex/common/src/fx_media_open.c ****     media_ptr -> fx_media_default_path.fx_path_string[FX_MAXIMUM_PATH - 1] =      (CHAR)0;
 833              		.loc 1 971 58 is_stmt 0 view .LVU399
 834 03c6 84F85025 		strb	r2, [r4, #1360]
 972:Middlewares/ST/filex/common/src/fx_media_open.c ****     media_ptr -> fx_media_default_path.fx_path_current_entry =                         0;
 835              		.loc 1 972 5 is_stmt 1 view .LVU400
 972:Middlewares/ST/filex/common/src/fx_media_open.c ****     media_ptr -> fx_media_default_path.fx_path_current_entry =                         0;
 836              		.loc 1 972 76 is_stmt 0 view .LVU401
ARM GAS  C:\Users\HP\AppData\Local\Temp\ccCKtT2B.s 			page 38


 837 03ca 84F84F26 		strb	r2, [r4, #1615]
 973:Middlewares/ST/filex/common/src/fx_media_open.c **** 
 838              		.loc 1 973 5 is_stmt 1 view .LVU402
 973:Middlewares/ST/filex/common/src/fx_media_open.c **** 
 839              		.loc 1 973 62 is_stmt 0 view .LVU403
 840 03ce C4F85027 		str	r2, [r4, #1872]
 978:Middlewares/ST/filex/common/src/fx_media_open.c **** #endif
 841              		.loc 1 978 5 is_stmt 1 view .LVU404
 978:Middlewares/ST/filex/common/src/fx_media_open.c **** #endif
 842              		.loc 1 978 46 is_stmt 0 view .LVU405
 843 03d2 84F8E023 		strb	r2, [r4, #992]
 983:Middlewares/ST/filex/common/src/fx_media_open.c ****     media_ptr -> fx_media_opened_file_count =     0;
 844              		.loc 1 983 5 is_stmt 1 view .LVU406
 983:Middlewares/ST/filex/common/src/fx_media_open.c ****     media_ptr -> fx_media_opened_file_count =     0;
 845              		.loc 1 983 44 is_stmt 0 view .LVU407
 846 03d6 C4F8C820 		str	r2, [r4, #200]
 984:Middlewares/ST/filex/common/src/fx_media_open.c **** #endif /* FX_DISABLE_FORCE_MEMORY_OPERATION */
 847              		.loc 1 984 5 is_stmt 1 view .LVU408
 984:Middlewares/ST/filex/common/src/fx_media_open.c **** #endif /* FX_DISABLE_FORCE_MEMORY_OPERATION */
 848              		.loc 1 984 45 is_stmt 0 view .LVU409
 849 03da C4F8CC20 		str	r2, [r4, #204]
 994:Middlewares/ST/filex/common/src/fx_media_open.c **** #endif
 850              		.loc 1 994 5 is_stmt 1 view .LVU410
 851 03de AA49     		ldr	r1, .L70
 852 03e0 04F5E470 		add	r0, r4, #456
 853 03e4 FFF7FEFF 		bl	_tx_mutex_create
 854              	.LVL38:
1010:Middlewares/ST/filex/common/src/fx_media_open.c **** 
 855              		.loc 1 1010 5 view .LVU411
 856              	.LBB12:
 857              	.LBI12:
 858              		.file 2 "Middlewares/ST/threadx/ports/cortex_m4/gnu/inc/tx_port.h"
   1:Middlewares/ST/threadx/ports/cortex_m4/gnu/inc/tx_port.h **** /**************************************************************************/
   2:Middlewares/ST/threadx/ports/cortex_m4/gnu/inc/tx_port.h **** /*                                                                        */
   3:Middlewares/ST/threadx/ports/cortex_m4/gnu/inc/tx_port.h **** /*       Copyright (c) Microsoft Corporation. All rights reserved.        */
   4:Middlewares/ST/threadx/ports/cortex_m4/gnu/inc/tx_port.h **** /*                                                                        */
   5:Middlewares/ST/threadx/ports/cortex_m4/gnu/inc/tx_port.h **** /*       This software is licensed under the Microsoft Software License   */
   6:Middlewares/ST/threadx/ports/cortex_m4/gnu/inc/tx_port.h **** /*       Terms for Microsoft Azure RTOS. Full text of the license can be  */
   7:Middlewares/ST/threadx/ports/cortex_m4/gnu/inc/tx_port.h **** /*       found in the LICENSE file at https://aka.ms/AzureRTOS_EULA       */
   8:Middlewares/ST/threadx/ports/cortex_m4/gnu/inc/tx_port.h **** /*       and in the root directory of this software.                      */
   9:Middlewares/ST/threadx/ports/cortex_m4/gnu/inc/tx_port.h **** /*                                                                        */
  10:Middlewares/ST/threadx/ports/cortex_m4/gnu/inc/tx_port.h **** /**************************************************************************/
  11:Middlewares/ST/threadx/ports/cortex_m4/gnu/inc/tx_port.h **** 
  12:Middlewares/ST/threadx/ports/cortex_m4/gnu/inc/tx_port.h **** 
  13:Middlewares/ST/threadx/ports/cortex_m4/gnu/inc/tx_port.h **** /**************************************************************************/
  14:Middlewares/ST/threadx/ports/cortex_m4/gnu/inc/tx_port.h **** /**************************************************************************/
  15:Middlewares/ST/threadx/ports/cortex_m4/gnu/inc/tx_port.h **** /**                                                                       */
  16:Middlewares/ST/threadx/ports/cortex_m4/gnu/inc/tx_port.h **** /** ThreadX Component                                                     */
  17:Middlewares/ST/threadx/ports/cortex_m4/gnu/inc/tx_port.h **** /**                                                                       */
  18:Middlewares/ST/threadx/ports/cortex_m4/gnu/inc/tx_port.h **** /**   Port Specific                                                       */
  19:Middlewares/ST/threadx/ports/cortex_m4/gnu/inc/tx_port.h **** /**                                                                       */
  20:Middlewares/ST/threadx/ports/cortex_m4/gnu/inc/tx_port.h **** /**************************************************************************/
  21:Middlewares/ST/threadx/ports/cortex_m4/gnu/inc/tx_port.h **** /**************************************************************************/
  22:Middlewares/ST/threadx/ports/cortex_m4/gnu/inc/tx_port.h **** 
  23:Middlewares/ST/threadx/ports/cortex_m4/gnu/inc/tx_port.h **** 
  24:Middlewares/ST/threadx/ports/cortex_m4/gnu/inc/tx_port.h **** /**************************************************************************/
  25:Middlewares/ST/threadx/ports/cortex_m4/gnu/inc/tx_port.h **** /*                                                                        */
ARM GAS  C:\Users\HP\AppData\Local\Temp\ccCKtT2B.s 			page 39


  26:Middlewares/ST/threadx/ports/cortex_m4/gnu/inc/tx_port.h **** /*  PORT SPECIFIC C INFORMATION                            RELEASE        */
  27:Middlewares/ST/threadx/ports/cortex_m4/gnu/inc/tx_port.h **** /*                                                                        */
  28:Middlewares/ST/threadx/ports/cortex_m4/gnu/inc/tx_port.h **** /*    tx_port.h                                         Cortex-M4/GNU     */
  29:Middlewares/ST/threadx/ports/cortex_m4/gnu/inc/tx_port.h **** /*                                                           6.1.12       */
  30:Middlewares/ST/threadx/ports/cortex_m4/gnu/inc/tx_port.h **** /*                                                                        */
  31:Middlewares/ST/threadx/ports/cortex_m4/gnu/inc/tx_port.h **** /*  AUTHOR                                                                */
  32:Middlewares/ST/threadx/ports/cortex_m4/gnu/inc/tx_port.h **** /*                                                                        */
  33:Middlewares/ST/threadx/ports/cortex_m4/gnu/inc/tx_port.h **** /*    Scott Larson, Microsoft Corporation                                 */
  34:Middlewares/ST/threadx/ports/cortex_m4/gnu/inc/tx_port.h **** /*                                                                        */
  35:Middlewares/ST/threadx/ports/cortex_m4/gnu/inc/tx_port.h **** /*  DESCRIPTION                                                           */
  36:Middlewares/ST/threadx/ports/cortex_m4/gnu/inc/tx_port.h **** /*                                                                        */
  37:Middlewares/ST/threadx/ports/cortex_m4/gnu/inc/tx_port.h **** /*    This file contains data type definitions that make the ThreadX      */
  38:Middlewares/ST/threadx/ports/cortex_m4/gnu/inc/tx_port.h **** /*    real-time kernel function identically on a variety of different     */
  39:Middlewares/ST/threadx/ports/cortex_m4/gnu/inc/tx_port.h **** /*    processor architectures.  For example, the size or number of bits   */
  40:Middlewares/ST/threadx/ports/cortex_m4/gnu/inc/tx_port.h **** /*    in an "int" data type vary between microprocessor architectures and */
  41:Middlewares/ST/threadx/ports/cortex_m4/gnu/inc/tx_port.h **** /*    even C compilers for the same microprocessor.  ThreadX does not     */
  42:Middlewares/ST/threadx/ports/cortex_m4/gnu/inc/tx_port.h **** /*    directly use native C data types.  Instead, ThreadX creates its     */
  43:Middlewares/ST/threadx/ports/cortex_m4/gnu/inc/tx_port.h **** /*    own special types that can be mapped to actual data types by this   */
  44:Middlewares/ST/threadx/ports/cortex_m4/gnu/inc/tx_port.h **** /*    file to guarantee consistency in the interface and functionality.   */
  45:Middlewares/ST/threadx/ports/cortex_m4/gnu/inc/tx_port.h **** /*                                                                        */
  46:Middlewares/ST/threadx/ports/cortex_m4/gnu/inc/tx_port.h **** /*    This file replaces the previous Cortex-M3/M4/M7 files. It unifies   */
  47:Middlewares/ST/threadx/ports/cortex_m4/gnu/inc/tx_port.h **** /*    the ARMv7-M architecture and compilers into one common file.        */
  48:Middlewares/ST/threadx/ports/cortex_m4/gnu/inc/tx_port.h **** /*                                                                        */
  49:Middlewares/ST/threadx/ports/cortex_m4/gnu/inc/tx_port.h **** /*  RELEASE HISTORY                                                       */
  50:Middlewares/ST/threadx/ports/cortex_m4/gnu/inc/tx_port.h **** /*                                                                        */
  51:Middlewares/ST/threadx/ports/cortex_m4/gnu/inc/tx_port.h **** /*    DATE              NAME                      DESCRIPTION             */
  52:Middlewares/ST/threadx/ports/cortex_m4/gnu/inc/tx_port.h **** /*                                                                        */
  53:Middlewares/ST/threadx/ports/cortex_m4/gnu/inc/tx_port.h **** /*  06-02-2021      Scott Larson            Initial Version 6.1.7         */
  54:Middlewares/ST/threadx/ports/cortex_m4/gnu/inc/tx_port.h **** /*  01-31-2022      Scott Larson            Modified comments, updated    */
  55:Middlewares/ST/threadx/ports/cortex_m4/gnu/inc/tx_port.h **** /*                                            typedef to fix misra        */
  56:Middlewares/ST/threadx/ports/cortex_m4/gnu/inc/tx_port.h **** /*                                            violation,                  */
  57:Middlewares/ST/threadx/ports/cortex_m4/gnu/inc/tx_port.h **** /*                                            fixed predefined macro,     */
  58:Middlewares/ST/threadx/ports/cortex_m4/gnu/inc/tx_port.h **** /*                                            resulting in version 6.1.10 */
  59:Middlewares/ST/threadx/ports/cortex_m4/gnu/inc/tx_port.h **** /*  04-25-2022      Scott Larson            Modified comments and added   */
  60:Middlewares/ST/threadx/ports/cortex_m4/gnu/inc/tx_port.h **** /*                                            volatile to registers,      */
  61:Middlewares/ST/threadx/ports/cortex_m4/gnu/inc/tx_port.h **** /*                                            resulting in version 6.1.11 */
  62:Middlewares/ST/threadx/ports/cortex_m4/gnu/inc/tx_port.h **** /*  07-29-2022      Scott Larson            Modified comments and         */
  63:Middlewares/ST/threadx/ports/cortex_m4/gnu/inc/tx_port.h **** /*                                            described BASEPRI usage,    */
  64:Middlewares/ST/threadx/ports/cortex_m4/gnu/inc/tx_port.h **** /*                                            resulting in version 6.1.12 */
  65:Middlewares/ST/threadx/ports/cortex_m4/gnu/inc/tx_port.h **** /*                                                                        */
  66:Middlewares/ST/threadx/ports/cortex_m4/gnu/inc/tx_port.h **** /**************************************************************************/
  67:Middlewares/ST/threadx/ports/cortex_m4/gnu/inc/tx_port.h **** 
  68:Middlewares/ST/threadx/ports/cortex_m4/gnu/inc/tx_port.h **** #ifndef TX_PORT_H
  69:Middlewares/ST/threadx/ports/cortex_m4/gnu/inc/tx_port.h **** #define TX_PORT_H
  70:Middlewares/ST/threadx/ports/cortex_m4/gnu/inc/tx_port.h **** 
  71:Middlewares/ST/threadx/ports/cortex_m4/gnu/inc/tx_port.h **** 
  72:Middlewares/ST/threadx/ports/cortex_m4/gnu/inc/tx_port.h **** /* Determine if the optional ThreadX user define file should be used.  */
  73:Middlewares/ST/threadx/ports/cortex_m4/gnu/inc/tx_port.h **** 
  74:Middlewares/ST/threadx/ports/cortex_m4/gnu/inc/tx_port.h **** #ifdef TX_INCLUDE_USER_DEFINE_FILE
  75:Middlewares/ST/threadx/ports/cortex_m4/gnu/inc/tx_port.h **** 
  76:Middlewares/ST/threadx/ports/cortex_m4/gnu/inc/tx_port.h **** /* Yes, include the user defines in tx_user.h. The defines in this file may
  77:Middlewares/ST/threadx/ports/cortex_m4/gnu/inc/tx_port.h ****    alternately be defined on the command line.  */
  78:Middlewares/ST/threadx/ports/cortex_m4/gnu/inc/tx_port.h **** 
  79:Middlewares/ST/threadx/ports/cortex_m4/gnu/inc/tx_port.h **** #include "tx_user.h"
  80:Middlewares/ST/threadx/ports/cortex_m4/gnu/inc/tx_port.h **** #endif
  81:Middlewares/ST/threadx/ports/cortex_m4/gnu/inc/tx_port.h **** 
  82:Middlewares/ST/threadx/ports/cortex_m4/gnu/inc/tx_port.h **** 
ARM GAS  C:\Users\HP\AppData\Local\Temp\ccCKtT2B.s 			page 40


  83:Middlewares/ST/threadx/ports/cortex_m4/gnu/inc/tx_port.h **** /* Define compiler library include files.  */
  84:Middlewares/ST/threadx/ports/cortex_m4/gnu/inc/tx_port.h **** 
  85:Middlewares/ST/threadx/ports/cortex_m4/gnu/inc/tx_port.h **** #include <stdlib.h>
  86:Middlewares/ST/threadx/ports/cortex_m4/gnu/inc/tx_port.h **** #include <string.h>
  87:Middlewares/ST/threadx/ports/cortex_m4/gnu/inc/tx_port.h **** 
  88:Middlewares/ST/threadx/ports/cortex_m4/gnu/inc/tx_port.h **** #ifdef __ICCARM__
  89:Middlewares/ST/threadx/ports/cortex_m4/gnu/inc/tx_port.h **** #include <intrinsics.h>                     /* IAR Intrinsics */
  90:Middlewares/ST/threadx/ports/cortex_m4/gnu/inc/tx_port.h **** #define __asm__ __asm                       /* Define to make all inline asm look similar */
  91:Middlewares/ST/threadx/ports/cortex_m4/gnu/inc/tx_port.h **** #ifdef  TX_ENABLE_IAR_LIBRARY_SUPPORT
  92:Middlewares/ST/threadx/ports/cortex_m4/gnu/inc/tx_port.h **** #include <yvals.h>
  93:Middlewares/ST/threadx/ports/cortex_m4/gnu/inc/tx_port.h **** #endif
  94:Middlewares/ST/threadx/ports/cortex_m4/gnu/inc/tx_port.h **** #endif /* __ICCARM__ */
  95:Middlewares/ST/threadx/ports/cortex_m4/gnu/inc/tx_port.h **** 
  96:Middlewares/ST/threadx/ports/cortex_m4/gnu/inc/tx_port.h **** #ifdef __ghs__
  97:Middlewares/ST/threadx/ports/cortex_m4/gnu/inc/tx_port.h **** #include <arm_ghs.h>
  98:Middlewares/ST/threadx/ports/cortex_m4/gnu/inc/tx_port.h **** #include "tx_ghs.h"
  99:Middlewares/ST/threadx/ports/cortex_m4/gnu/inc/tx_port.h **** #endif  /* __ghs__ */
 100:Middlewares/ST/threadx/ports/cortex_m4/gnu/inc/tx_port.h **** 
 101:Middlewares/ST/threadx/ports/cortex_m4/gnu/inc/tx_port.h **** 
 102:Middlewares/ST/threadx/ports/cortex_m4/gnu/inc/tx_port.h **** #if !defined(__GNUC__) && !defined(__CC_ARM)
 103:Middlewares/ST/threadx/ports/cortex_m4/gnu/inc/tx_port.h **** #define __get_control_value __get_CONTROL
 104:Middlewares/ST/threadx/ports/cortex_m4/gnu/inc/tx_port.h **** #define __set_control_value __set_CONTROL
 105:Middlewares/ST/threadx/ports/cortex_m4/gnu/inc/tx_port.h **** #endif
 106:Middlewares/ST/threadx/ports/cortex_m4/gnu/inc/tx_port.h **** 
 107:Middlewares/ST/threadx/ports/cortex_m4/gnu/inc/tx_port.h **** #ifndef __GNUC__
 108:Middlewares/ST/threadx/ports/cortex_m4/gnu/inc/tx_port.h **** #define __get_ipsr_value __get_IPSR
 109:Middlewares/ST/threadx/ports/cortex_m4/gnu/inc/tx_port.h **** #endif
 110:Middlewares/ST/threadx/ports/cortex_m4/gnu/inc/tx_port.h **** 
 111:Middlewares/ST/threadx/ports/cortex_m4/gnu/inc/tx_port.h **** /* Define ThreadX basic types for this port.  */
 112:Middlewares/ST/threadx/ports/cortex_m4/gnu/inc/tx_port.h **** 
 113:Middlewares/ST/threadx/ports/cortex_m4/gnu/inc/tx_port.h **** #define VOID                                    void
 114:Middlewares/ST/threadx/ports/cortex_m4/gnu/inc/tx_port.h **** typedef char                                    CHAR;
 115:Middlewares/ST/threadx/ports/cortex_m4/gnu/inc/tx_port.h **** typedef unsigned char                           UCHAR;
 116:Middlewares/ST/threadx/ports/cortex_m4/gnu/inc/tx_port.h **** typedef int                                     INT;
 117:Middlewares/ST/threadx/ports/cortex_m4/gnu/inc/tx_port.h **** typedef unsigned int                            UINT;
 118:Middlewares/ST/threadx/ports/cortex_m4/gnu/inc/tx_port.h **** typedef long                                    LONG;
 119:Middlewares/ST/threadx/ports/cortex_m4/gnu/inc/tx_port.h **** typedef unsigned long                           ULONG;
 120:Middlewares/ST/threadx/ports/cortex_m4/gnu/inc/tx_port.h **** typedef unsigned long long                      ULONG64;
 121:Middlewares/ST/threadx/ports/cortex_m4/gnu/inc/tx_port.h **** typedef short                                   SHORT;
 122:Middlewares/ST/threadx/ports/cortex_m4/gnu/inc/tx_port.h **** typedef unsigned short                          USHORT;
 123:Middlewares/ST/threadx/ports/cortex_m4/gnu/inc/tx_port.h **** #define ULONG64_DEFINED
 124:Middlewares/ST/threadx/ports/cortex_m4/gnu/inc/tx_port.h **** 
 125:Middlewares/ST/threadx/ports/cortex_m4/gnu/inc/tx_port.h **** /* Define the priority levels for ThreadX.  Legal values range
 126:Middlewares/ST/threadx/ports/cortex_m4/gnu/inc/tx_port.h ****    from 32 to 1024 and MUST be evenly divisible by 32.  */
 127:Middlewares/ST/threadx/ports/cortex_m4/gnu/inc/tx_port.h **** 
 128:Middlewares/ST/threadx/ports/cortex_m4/gnu/inc/tx_port.h **** #ifndef TX_MAX_PRIORITIES
 129:Middlewares/ST/threadx/ports/cortex_m4/gnu/inc/tx_port.h **** #define TX_MAX_PRIORITIES                       32
 130:Middlewares/ST/threadx/ports/cortex_m4/gnu/inc/tx_port.h **** #endif
 131:Middlewares/ST/threadx/ports/cortex_m4/gnu/inc/tx_port.h **** 
 132:Middlewares/ST/threadx/ports/cortex_m4/gnu/inc/tx_port.h **** 
 133:Middlewares/ST/threadx/ports/cortex_m4/gnu/inc/tx_port.h **** /* Define the minimum stack for a ThreadX thread on this processor. If the size supplied during
 134:Middlewares/ST/threadx/ports/cortex_m4/gnu/inc/tx_port.h ****    thread creation is less than this value, the thread create call will return an error.  */
 135:Middlewares/ST/threadx/ports/cortex_m4/gnu/inc/tx_port.h **** 
 136:Middlewares/ST/threadx/ports/cortex_m4/gnu/inc/tx_port.h **** #ifndef TX_MINIMUM_STACK
 137:Middlewares/ST/threadx/ports/cortex_m4/gnu/inc/tx_port.h **** #define TX_MINIMUM_STACK                        200         /* Minimum stack size for this port  */
 138:Middlewares/ST/threadx/ports/cortex_m4/gnu/inc/tx_port.h **** #endif
 139:Middlewares/ST/threadx/ports/cortex_m4/gnu/inc/tx_port.h **** 
ARM GAS  C:\Users\HP\AppData\Local\Temp\ccCKtT2B.s 			page 41


 140:Middlewares/ST/threadx/ports/cortex_m4/gnu/inc/tx_port.h **** 
 141:Middlewares/ST/threadx/ports/cortex_m4/gnu/inc/tx_port.h **** /* Define the system timer thread's default stack size and priority.  These are only applicable
 142:Middlewares/ST/threadx/ports/cortex_m4/gnu/inc/tx_port.h ****    if TX_TIMER_PROCESS_IN_ISR is not defined.  */
 143:Middlewares/ST/threadx/ports/cortex_m4/gnu/inc/tx_port.h **** 
 144:Middlewares/ST/threadx/ports/cortex_m4/gnu/inc/tx_port.h **** #ifndef TX_TIMER_THREAD_STACK_SIZE
 145:Middlewares/ST/threadx/ports/cortex_m4/gnu/inc/tx_port.h **** #define TX_TIMER_THREAD_STACK_SIZE              1024        /* Default timer thread stack size  */
 146:Middlewares/ST/threadx/ports/cortex_m4/gnu/inc/tx_port.h **** #endif
 147:Middlewares/ST/threadx/ports/cortex_m4/gnu/inc/tx_port.h **** 
 148:Middlewares/ST/threadx/ports/cortex_m4/gnu/inc/tx_port.h **** #ifndef TX_TIMER_THREAD_PRIORITY
 149:Middlewares/ST/threadx/ports/cortex_m4/gnu/inc/tx_port.h **** #define TX_TIMER_THREAD_PRIORITY                0           /* Default timer thread priority    */
 150:Middlewares/ST/threadx/ports/cortex_m4/gnu/inc/tx_port.h **** #endif
 151:Middlewares/ST/threadx/ports/cortex_m4/gnu/inc/tx_port.h **** 
 152:Middlewares/ST/threadx/ports/cortex_m4/gnu/inc/tx_port.h **** /* By default, ThreadX for Cortex-M uses the PRIMASK register to enable/disable interrupts.
 153:Middlewares/ST/threadx/ports/cortex_m4/gnu/inc/tx_port.h **** If using BASEPRI is desired, define the following two symbols for both c and assembly files:
 154:Middlewares/ST/threadx/ports/cortex_m4/gnu/inc/tx_port.h **** TX_PORT_USE_BASEPRI - This tells ThreadX to use BASEPRI instead of PRIMASK.
 155:Middlewares/ST/threadx/ports/cortex_m4/gnu/inc/tx_port.h **** TX_PORT_BASEPRI = (priority_mask << (8 - number_priority_bits)) - this defines the maximum priority
 156:Middlewares/ST/threadx/ports/cortex_m4/gnu/inc/tx_port.h **** Any interrupt with a higher priority than priority_mask will not be masked, thus the interrupt will
 157:Middlewares/ST/threadx/ports/cortex_m4/gnu/inc/tx_port.h **** */
 158:Middlewares/ST/threadx/ports/cortex_m4/gnu/inc/tx_port.h **** 
 159:Middlewares/ST/threadx/ports/cortex_m4/gnu/inc/tx_port.h **** /* Define various constants for the ThreadX Cortex-M port.  */
 160:Middlewares/ST/threadx/ports/cortex_m4/gnu/inc/tx_port.h **** 
 161:Middlewares/ST/threadx/ports/cortex_m4/gnu/inc/tx_port.h **** #define TX_INT_DISABLE                          1           /* Disable interrupts               */
 162:Middlewares/ST/threadx/ports/cortex_m4/gnu/inc/tx_port.h **** #define TX_INT_ENABLE                           0           /* Enable interrupts                */
 163:Middlewares/ST/threadx/ports/cortex_m4/gnu/inc/tx_port.h **** 
 164:Middlewares/ST/threadx/ports/cortex_m4/gnu/inc/tx_port.h **** 
 165:Middlewares/ST/threadx/ports/cortex_m4/gnu/inc/tx_port.h **** /* Define the clock source for trace event entry time stamp. The following two item are port specif
 166:Middlewares/ST/threadx/ports/cortex_m4/gnu/inc/tx_port.h ****    For example, if the time source is at the address 0x0a800024 and is 16-bits in size, the clock
 167:Middlewares/ST/threadx/ports/cortex_m4/gnu/inc/tx_port.h ****    source constants would be:
 168:Middlewares/ST/threadx/ports/cortex_m4/gnu/inc/tx_port.h **** 
 169:Middlewares/ST/threadx/ports/cortex_m4/gnu/inc/tx_port.h **** #define TX_TRACE_TIME_SOURCE                    *((volatile ULONG *) 0x0a800024)
 170:Middlewares/ST/threadx/ports/cortex_m4/gnu/inc/tx_port.h **** #define TX_TRACE_TIME_MASK                      0x0000FFFFUL
 171:Middlewares/ST/threadx/ports/cortex_m4/gnu/inc/tx_port.h **** 
 172:Middlewares/ST/threadx/ports/cortex_m4/gnu/inc/tx_port.h **** */
 173:Middlewares/ST/threadx/ports/cortex_m4/gnu/inc/tx_port.h **** 
 174:Middlewares/ST/threadx/ports/cortex_m4/gnu/inc/tx_port.h **** #ifndef TX_MISRA_ENABLE
 175:Middlewares/ST/threadx/ports/cortex_m4/gnu/inc/tx_port.h **** #ifndef TX_TRACE_TIME_SOURCE
 176:Middlewares/ST/threadx/ports/cortex_m4/gnu/inc/tx_port.h **** #define TX_TRACE_TIME_SOURCE                    *((volatile ULONG *) 0xE0001004)
 177:Middlewares/ST/threadx/ports/cortex_m4/gnu/inc/tx_port.h **** #endif
 178:Middlewares/ST/threadx/ports/cortex_m4/gnu/inc/tx_port.h **** #else
 179:Middlewares/ST/threadx/ports/cortex_m4/gnu/inc/tx_port.h **** ULONG   _tx_misra_time_stamp_get(VOID);
 180:Middlewares/ST/threadx/ports/cortex_m4/gnu/inc/tx_port.h **** #define TX_TRACE_TIME_SOURCE                    _tx_misra_time_stamp_get()
 181:Middlewares/ST/threadx/ports/cortex_m4/gnu/inc/tx_port.h **** #endif
 182:Middlewares/ST/threadx/ports/cortex_m4/gnu/inc/tx_port.h **** 
 183:Middlewares/ST/threadx/ports/cortex_m4/gnu/inc/tx_port.h **** #ifndef TX_TRACE_TIME_MASK
 184:Middlewares/ST/threadx/ports/cortex_m4/gnu/inc/tx_port.h **** #define TX_TRACE_TIME_MASK                      0xFFFFFFFFUL
 185:Middlewares/ST/threadx/ports/cortex_m4/gnu/inc/tx_port.h **** #endif
 186:Middlewares/ST/threadx/ports/cortex_m4/gnu/inc/tx_port.h **** 
 187:Middlewares/ST/threadx/ports/cortex_m4/gnu/inc/tx_port.h **** #ifdef __ghs__
 188:Middlewares/ST/threadx/ports/cortex_m4/gnu/inc/tx_port.h **** /* Define constants for Green Hills EventAnalyzer.  */
 189:Middlewares/ST/threadx/ports/cortex_m4/gnu/inc/tx_port.h **** 
 190:Middlewares/ST/threadx/ports/cortex_m4/gnu/inc/tx_port.h **** /* Define the number of ticks per second. This informs the EventAnalyzer what the timestamps
 191:Middlewares/ST/threadx/ports/cortex_m4/gnu/inc/tx_port.h ****    represent.  By default, this is set to 1,000,000 i.e., one tick every microsecond. */
 192:Middlewares/ST/threadx/ports/cortex_m4/gnu/inc/tx_port.h **** 
 193:Middlewares/ST/threadx/ports/cortex_m4/gnu/inc/tx_port.h **** #define TX_EL_TICKS_PER_SECOND                  1000000
 194:Middlewares/ST/threadx/ports/cortex_m4/gnu/inc/tx_port.h **** 
 195:Middlewares/ST/threadx/ports/cortex_m4/gnu/inc/tx_port.h **** /* Define the method of how to get the upper and lower 32-bits of the time stamp. By default, simpl
 196:Middlewares/ST/threadx/ports/cortex_m4/gnu/inc/tx_port.h ****    simulate the time-stamp source with a counter.  */
ARM GAS  C:\Users\HP\AppData\Local\Temp\ccCKtT2B.s 			page 42


 197:Middlewares/ST/threadx/ports/cortex_m4/gnu/inc/tx_port.h **** 
 198:Middlewares/ST/threadx/ports/cortex_m4/gnu/inc/tx_port.h **** #define read_tbu()                              _tx_el_time_base_upper
 199:Middlewares/ST/threadx/ports/cortex_m4/gnu/inc/tx_port.h **** #define read_tbl()                              ++_tx_el_time_base_lower
 200:Middlewares/ST/threadx/ports/cortex_m4/gnu/inc/tx_port.h **** #endif  /* __ghs__ */
 201:Middlewares/ST/threadx/ports/cortex_m4/gnu/inc/tx_port.h **** 
 202:Middlewares/ST/threadx/ports/cortex_m4/gnu/inc/tx_port.h **** /* Define the port specific options for the _tx_build_options variable. This variable indicates
 203:Middlewares/ST/threadx/ports/cortex_m4/gnu/inc/tx_port.h ****    how the ThreadX library was built.  */
 204:Middlewares/ST/threadx/ports/cortex_m4/gnu/inc/tx_port.h **** 
 205:Middlewares/ST/threadx/ports/cortex_m4/gnu/inc/tx_port.h **** #define TX_PORT_SPECIFIC_BUILD_OPTIONS          (0)
 206:Middlewares/ST/threadx/ports/cortex_m4/gnu/inc/tx_port.h **** 
 207:Middlewares/ST/threadx/ports/cortex_m4/gnu/inc/tx_port.h **** 
 208:Middlewares/ST/threadx/ports/cortex_m4/gnu/inc/tx_port.h **** /* Define the in-line initialization constant so that modules with in-line
 209:Middlewares/ST/threadx/ports/cortex_m4/gnu/inc/tx_port.h ****    initialization capabilities can prevent their initialization from being
 210:Middlewares/ST/threadx/ports/cortex_m4/gnu/inc/tx_port.h ****    a function call.  */
 211:Middlewares/ST/threadx/ports/cortex_m4/gnu/inc/tx_port.h **** 
 212:Middlewares/ST/threadx/ports/cortex_m4/gnu/inc/tx_port.h **** #ifdef TX_MISRA_ENABLE
 213:Middlewares/ST/threadx/ports/cortex_m4/gnu/inc/tx_port.h **** #define TX_DISABLE_INLINE
 214:Middlewares/ST/threadx/ports/cortex_m4/gnu/inc/tx_port.h **** #else
 215:Middlewares/ST/threadx/ports/cortex_m4/gnu/inc/tx_port.h **** #define TX_INLINE_INITIALIZATION
 216:Middlewares/ST/threadx/ports/cortex_m4/gnu/inc/tx_port.h **** #endif
 217:Middlewares/ST/threadx/ports/cortex_m4/gnu/inc/tx_port.h **** 
 218:Middlewares/ST/threadx/ports/cortex_m4/gnu/inc/tx_port.h **** 
 219:Middlewares/ST/threadx/ports/cortex_m4/gnu/inc/tx_port.h **** /* Determine whether or not stack checking is enabled. By default, ThreadX stack checking is
 220:Middlewares/ST/threadx/ports/cortex_m4/gnu/inc/tx_port.h ****    disabled. When the following is defined, ThreadX thread stack checking is enabled.  If stack
 221:Middlewares/ST/threadx/ports/cortex_m4/gnu/inc/tx_port.h ****    checking is enabled (TX_ENABLE_STACK_CHECKING is defined), the TX_DISABLE_STACK_FILLING
 222:Middlewares/ST/threadx/ports/cortex_m4/gnu/inc/tx_port.h ****    define is negated, thereby forcing the stack fill which is necessary for the stack checking
 223:Middlewares/ST/threadx/ports/cortex_m4/gnu/inc/tx_port.h ****    logic.  */
 224:Middlewares/ST/threadx/ports/cortex_m4/gnu/inc/tx_port.h **** 
 225:Middlewares/ST/threadx/ports/cortex_m4/gnu/inc/tx_port.h **** #ifndef TX_MISRA_ENABLE
 226:Middlewares/ST/threadx/ports/cortex_m4/gnu/inc/tx_port.h **** #ifdef TX_ENABLE_STACK_CHECKING
 227:Middlewares/ST/threadx/ports/cortex_m4/gnu/inc/tx_port.h **** #undef TX_DISABLE_STACK_FILLING
 228:Middlewares/ST/threadx/ports/cortex_m4/gnu/inc/tx_port.h **** #endif
 229:Middlewares/ST/threadx/ports/cortex_m4/gnu/inc/tx_port.h **** #endif
 230:Middlewares/ST/threadx/ports/cortex_m4/gnu/inc/tx_port.h **** 
 231:Middlewares/ST/threadx/ports/cortex_m4/gnu/inc/tx_port.h **** 
 232:Middlewares/ST/threadx/ports/cortex_m4/gnu/inc/tx_port.h **** /* Define the TX_THREAD control block extensions for this port. The main reason
 233:Middlewares/ST/threadx/ports/cortex_m4/gnu/inc/tx_port.h ****    for the multiple macros is so that backward compatibility can be maintained with
 234:Middlewares/ST/threadx/ports/cortex_m4/gnu/inc/tx_port.h ****    existing ThreadX kernel awareness modules.  */
 235:Middlewares/ST/threadx/ports/cortex_m4/gnu/inc/tx_port.h **** 
 236:Middlewares/ST/threadx/ports/cortex_m4/gnu/inc/tx_port.h **** #define TX_THREAD_EXTENSION_0
 237:Middlewares/ST/threadx/ports/cortex_m4/gnu/inc/tx_port.h **** #define TX_THREAD_EXTENSION_1
 238:Middlewares/ST/threadx/ports/cortex_m4/gnu/inc/tx_port.h **** #ifdef  TX_ENABLE_IAR_LIBRARY_SUPPORT
 239:Middlewares/ST/threadx/ports/cortex_m4/gnu/inc/tx_port.h **** #define TX_THREAD_EXTENSION_2           VOID    *tx_thread_iar_tls_pointer;
 240:Middlewares/ST/threadx/ports/cortex_m4/gnu/inc/tx_port.h **** #elif defined(__ghs__)
 241:Middlewares/ST/threadx/ports/cortex_m4/gnu/inc/tx_port.h **** #define TX_THREAD_EXTENSION_2           VOID *  tx_thread_eh_globals;                           \
 242:Middlewares/ST/threadx/ports/cortex_m4/gnu/inc/tx_port.h ****                                         int     Errno;             /* errno.  */                \
 243:Middlewares/ST/threadx/ports/cortex_m4/gnu/inc/tx_port.h ****                                         char *  strtok_saved_pos;  /* strtok() position.  */
 244:Middlewares/ST/threadx/ports/cortex_m4/gnu/inc/tx_port.h **** #else
 245:Middlewares/ST/threadx/ports/cortex_m4/gnu/inc/tx_port.h **** #define TX_THREAD_EXTENSION_2
 246:Middlewares/ST/threadx/ports/cortex_m4/gnu/inc/tx_port.h **** #endif
 247:Middlewares/ST/threadx/ports/cortex_m4/gnu/inc/tx_port.h **** 
 248:Middlewares/ST/threadx/ports/cortex_m4/gnu/inc/tx_port.h **** 
 249:Middlewares/ST/threadx/ports/cortex_m4/gnu/inc/tx_port.h **** #define TX_THREAD_EXTENSION_3
 250:Middlewares/ST/threadx/ports/cortex_m4/gnu/inc/tx_port.h **** 
 251:Middlewares/ST/threadx/ports/cortex_m4/gnu/inc/tx_port.h **** 
 252:Middlewares/ST/threadx/ports/cortex_m4/gnu/inc/tx_port.h **** 
 253:Middlewares/ST/threadx/ports/cortex_m4/gnu/inc/tx_port.h **** /* Define the port extensions of the remaining ThreadX objects.  */
ARM GAS  C:\Users\HP\AppData\Local\Temp\ccCKtT2B.s 			page 43


 254:Middlewares/ST/threadx/ports/cortex_m4/gnu/inc/tx_port.h **** 
 255:Middlewares/ST/threadx/ports/cortex_m4/gnu/inc/tx_port.h **** #define TX_BLOCK_POOL_EXTENSION
 256:Middlewares/ST/threadx/ports/cortex_m4/gnu/inc/tx_port.h **** #define TX_BYTE_POOL_EXTENSION
 257:Middlewares/ST/threadx/ports/cortex_m4/gnu/inc/tx_port.h **** #define TX_EVENT_FLAGS_GROUP_EXTENSION
 258:Middlewares/ST/threadx/ports/cortex_m4/gnu/inc/tx_port.h **** #define TX_MUTEX_EXTENSION
 259:Middlewares/ST/threadx/ports/cortex_m4/gnu/inc/tx_port.h **** #define TX_QUEUE_EXTENSION
 260:Middlewares/ST/threadx/ports/cortex_m4/gnu/inc/tx_port.h **** #define TX_SEMAPHORE_EXTENSION
 261:Middlewares/ST/threadx/ports/cortex_m4/gnu/inc/tx_port.h **** #define TX_TIMER_EXTENSION
 262:Middlewares/ST/threadx/ports/cortex_m4/gnu/inc/tx_port.h **** 
 263:Middlewares/ST/threadx/ports/cortex_m4/gnu/inc/tx_port.h **** 
 264:Middlewares/ST/threadx/ports/cortex_m4/gnu/inc/tx_port.h **** /* Define the user extension field of the thread control block.  Nothing
 265:Middlewares/ST/threadx/ports/cortex_m4/gnu/inc/tx_port.h ****    additional is needed for this port so it is defined as white space.  */
 266:Middlewares/ST/threadx/ports/cortex_m4/gnu/inc/tx_port.h **** 
 267:Middlewares/ST/threadx/ports/cortex_m4/gnu/inc/tx_port.h **** #ifndef TX_THREAD_USER_EXTENSION
 268:Middlewares/ST/threadx/ports/cortex_m4/gnu/inc/tx_port.h **** #define TX_THREAD_USER_EXTENSION
 269:Middlewares/ST/threadx/ports/cortex_m4/gnu/inc/tx_port.h **** #endif
 270:Middlewares/ST/threadx/ports/cortex_m4/gnu/inc/tx_port.h **** 
 271:Middlewares/ST/threadx/ports/cortex_m4/gnu/inc/tx_port.h **** 
 272:Middlewares/ST/threadx/ports/cortex_m4/gnu/inc/tx_port.h **** /* Define the macros for processing extensions in tx_thread_create, tx_thread_delete,
 273:Middlewares/ST/threadx/ports/cortex_m4/gnu/inc/tx_port.h ****    tx_thread_shell_entry, and tx_thread_terminate.  */
 274:Middlewares/ST/threadx/ports/cortex_m4/gnu/inc/tx_port.h **** 
 275:Middlewares/ST/threadx/ports/cortex_m4/gnu/inc/tx_port.h **** 
 276:Middlewares/ST/threadx/ports/cortex_m4/gnu/inc/tx_port.h **** #ifdef  TX_ENABLE_IAR_LIBRARY_SUPPORT
 277:Middlewares/ST/threadx/ports/cortex_m4/gnu/inc/tx_port.h **** #if (__VER__ < 8000000)
 278:Middlewares/ST/threadx/ports/cortex_m4/gnu/inc/tx_port.h **** #define TX_THREAD_CREATE_EXTENSION(thread_ptr)                      thread_ptr -> tx_thread_iar_tls
 279:Middlewares/ST/threadx/ports/cortex_m4/gnu/inc/tx_port.h **** #define TX_THREAD_DELETE_EXTENSION(thread_ptr)                      __iar_dlib_perthread_deallocate
 280:Middlewares/ST/threadx/ports/cortex_m4/gnu/inc/tx_port.h ****                                                                     thread_ptr -> tx_thread_iar_tls
 281:Middlewares/ST/threadx/ports/cortex_m4/gnu/inc/tx_port.h **** #define TX_PORT_SPECIFIC_PRE_SCHEDULER_INITIALIZATION               __iar_dlib_perthread_access(0);
 282:Middlewares/ST/threadx/ports/cortex_m4/gnu/inc/tx_port.h **** #else
 283:Middlewares/ST/threadx/ports/cortex_m4/gnu/inc/tx_port.h **** void    *_tx_iar_create_per_thread_tls_area(void);
 284:Middlewares/ST/threadx/ports/cortex_m4/gnu/inc/tx_port.h **** void    _tx_iar_destroy_per_thread_tls_area(void *tls_ptr);
 285:Middlewares/ST/threadx/ports/cortex_m4/gnu/inc/tx_port.h **** void    __iar_Initlocks(void);
 286:Middlewares/ST/threadx/ports/cortex_m4/gnu/inc/tx_port.h **** 
 287:Middlewares/ST/threadx/ports/cortex_m4/gnu/inc/tx_port.h **** #define TX_THREAD_CREATE_EXTENSION(thread_ptr)                      thread_ptr -> tx_thread_iar_tls
 288:Middlewares/ST/threadx/ports/cortex_m4/gnu/inc/tx_port.h **** #define TX_THREAD_DELETE_EXTENSION(thread_ptr)                      do {_tx_iar_destroy_per_thread_
 289:Middlewares/ST/threadx/ports/cortex_m4/gnu/inc/tx_port.h ****                                                                         thread_ptr -> tx_thread_iar
 290:Middlewares/ST/threadx/ports/cortex_m4/gnu/inc/tx_port.h **** #define TX_PORT_SPECIFIC_PRE_SCHEDULER_INITIALIZATION               do {__iar_Initlocks();} while(0
 291:Middlewares/ST/threadx/ports/cortex_m4/gnu/inc/tx_port.h **** #endif
 292:Middlewares/ST/threadx/ports/cortex_m4/gnu/inc/tx_port.h **** #else
 293:Middlewares/ST/threadx/ports/cortex_m4/gnu/inc/tx_port.h **** #define TX_THREAD_CREATE_EXTENSION(thread_ptr)
 294:Middlewares/ST/threadx/ports/cortex_m4/gnu/inc/tx_port.h **** #define TX_THREAD_DELETE_EXTENSION(thread_ptr)
 295:Middlewares/ST/threadx/ports/cortex_m4/gnu/inc/tx_port.h **** #endif
 296:Middlewares/ST/threadx/ports/cortex_m4/gnu/inc/tx_port.h **** 
 297:Middlewares/ST/threadx/ports/cortex_m4/gnu/inc/tx_port.h **** #if defined(__ARMVFP__) || defined(__ARM_PCS_VFP) || defined(__ARM_FP) || defined(__TARGET_FPU_VFP)
 298:Middlewares/ST/threadx/ports/cortex_m4/gnu/inc/tx_port.h **** 
 299:Middlewares/ST/threadx/ports/cortex_m4/gnu/inc/tx_port.h **** #ifdef TX_MISRA_ENABLE
 300:Middlewares/ST/threadx/ports/cortex_m4/gnu/inc/tx_port.h **** 
 301:Middlewares/ST/threadx/ports/cortex_m4/gnu/inc/tx_port.h **** ULONG  _tx_misra_control_get(void);
 302:Middlewares/ST/threadx/ports/cortex_m4/gnu/inc/tx_port.h **** void   _tx_misra_control_set(ULONG value);
 303:Middlewares/ST/threadx/ports/cortex_m4/gnu/inc/tx_port.h **** ULONG  _tx_misra_fpccr_get(void);
 304:Middlewares/ST/threadx/ports/cortex_m4/gnu/inc/tx_port.h **** void   _tx_misra_vfp_touch(void);
 305:Middlewares/ST/threadx/ports/cortex_m4/gnu/inc/tx_port.h **** 
 306:Middlewares/ST/threadx/ports/cortex_m4/gnu/inc/tx_port.h **** #else   /* TX_MISRA_ENABLE not defined */
 307:Middlewares/ST/threadx/ports/cortex_m4/gnu/inc/tx_port.h **** 
 308:Middlewares/ST/threadx/ports/cortex_m4/gnu/inc/tx_port.h **** /* Define some helper functions (these are intrinsics in some compilers). */
 309:Middlewares/ST/threadx/ports/cortex_m4/gnu/inc/tx_port.h **** #ifdef __GNUC__ /* GCC and ARM Compiler 6 */
 310:Middlewares/ST/threadx/ports/cortex_m4/gnu/inc/tx_port.h **** 
ARM GAS  C:\Users\HP\AppData\Local\Temp\ccCKtT2B.s 			page 44


 311:Middlewares/ST/threadx/ports/cortex_m4/gnu/inc/tx_port.h **** __attribute__( ( always_inline ) ) static inline ULONG __get_control_value(void)
 312:Middlewares/ST/threadx/ports/cortex_m4/gnu/inc/tx_port.h **** {
 313:Middlewares/ST/threadx/ports/cortex_m4/gnu/inc/tx_port.h **** ULONG  control_value;
 314:Middlewares/ST/threadx/ports/cortex_m4/gnu/inc/tx_port.h **** 
 315:Middlewares/ST/threadx/ports/cortex_m4/gnu/inc/tx_port.h ****     __asm__ volatile (" MRS  %0,CONTROL ": "=r" (control_value) );
 316:Middlewares/ST/threadx/ports/cortex_m4/gnu/inc/tx_port.h ****     return(control_value);
 317:Middlewares/ST/threadx/ports/cortex_m4/gnu/inc/tx_port.h **** }
 318:Middlewares/ST/threadx/ports/cortex_m4/gnu/inc/tx_port.h **** 
 319:Middlewares/ST/threadx/ports/cortex_m4/gnu/inc/tx_port.h **** __attribute__( ( always_inline ) ) static inline void __set_control_value(ULONG control_value)
 320:Middlewares/ST/threadx/ports/cortex_m4/gnu/inc/tx_port.h **** {
 321:Middlewares/ST/threadx/ports/cortex_m4/gnu/inc/tx_port.h ****     __asm__ volatile (" MSR  CONTROL,%0": : "r" (control_value): "memory" );
 322:Middlewares/ST/threadx/ports/cortex_m4/gnu/inc/tx_port.h **** }
 323:Middlewares/ST/threadx/ports/cortex_m4/gnu/inc/tx_port.h **** 
 324:Middlewares/ST/threadx/ports/cortex_m4/gnu/inc/tx_port.h **** #define TX_VFP_TOUCH()  __asm__ volatile ("VMOV.F32 s0, s0");
 325:Middlewares/ST/threadx/ports/cortex_m4/gnu/inc/tx_port.h **** 
 326:Middlewares/ST/threadx/ports/cortex_m4/gnu/inc/tx_port.h **** #elif defined(__CC_ARM) /* ARM Compiler 5 */
 327:Middlewares/ST/threadx/ports/cortex_m4/gnu/inc/tx_port.h **** 
 328:Middlewares/ST/threadx/ports/cortex_m4/gnu/inc/tx_port.h **** __attribute__( ( always_inline ) ) ULONG __get_control_value(void)
 329:Middlewares/ST/threadx/ports/cortex_m4/gnu/inc/tx_port.h **** {
 330:Middlewares/ST/threadx/ports/cortex_m4/gnu/inc/tx_port.h **** ULONG  control_value;
 331:Middlewares/ST/threadx/ports/cortex_m4/gnu/inc/tx_port.h **** 
 332:Middlewares/ST/threadx/ports/cortex_m4/gnu/inc/tx_port.h ****     __asm volatile ("MRS control_value,CONTROL");
 333:Middlewares/ST/threadx/ports/cortex_m4/gnu/inc/tx_port.h ****     return(control_value);
 334:Middlewares/ST/threadx/ports/cortex_m4/gnu/inc/tx_port.h **** }
 335:Middlewares/ST/threadx/ports/cortex_m4/gnu/inc/tx_port.h **** 
 336:Middlewares/ST/threadx/ports/cortex_m4/gnu/inc/tx_port.h **** __attribute__( ( always_inline ) ) void __set_control_value(ULONG control_value)
 337:Middlewares/ST/threadx/ports/cortex_m4/gnu/inc/tx_port.h **** {
 338:Middlewares/ST/threadx/ports/cortex_m4/gnu/inc/tx_port.h ****     __asm__ volatile ("MSR CONTROL,control_value");
 339:Middlewares/ST/threadx/ports/cortex_m4/gnu/inc/tx_port.h **** }
 340:Middlewares/ST/threadx/ports/cortex_m4/gnu/inc/tx_port.h **** /* Can't access VFP registers with inline asm, so define this in tx_thread_schedule.  */
 341:Middlewares/ST/threadx/ports/cortex_m4/gnu/inc/tx_port.h **** void _tx_vfp_access(void);
 342:Middlewares/ST/threadx/ports/cortex_m4/gnu/inc/tx_port.h **** #define TX_VFP_TOUCH()  _tx_vfp_access();
 343:Middlewares/ST/threadx/ports/cortex_m4/gnu/inc/tx_port.h **** 
 344:Middlewares/ST/threadx/ports/cortex_m4/gnu/inc/tx_port.h **** #elif defined(__ICCARM__)  /* IAR */
 345:Middlewares/ST/threadx/ports/cortex_m4/gnu/inc/tx_port.h **** #define TX_VFP_TOUCH()  __asm__ volatile ("VMOV.F32 s0, s0");
 346:Middlewares/ST/threadx/ports/cortex_m4/gnu/inc/tx_port.h **** #endif  /* Helper functions for different compilers */
 347:Middlewares/ST/threadx/ports/cortex_m4/gnu/inc/tx_port.h **** 
 348:Middlewares/ST/threadx/ports/cortex_m4/gnu/inc/tx_port.h **** #endif  /* TX_MISRA_ENABLE */
 349:Middlewares/ST/threadx/ports/cortex_m4/gnu/inc/tx_port.h **** 
 350:Middlewares/ST/threadx/ports/cortex_m4/gnu/inc/tx_port.h **** 
 351:Middlewares/ST/threadx/ports/cortex_m4/gnu/inc/tx_port.h **** /* A completed thread falls into _thread_shell_entry and we can simply deactivate the FPU via CONTR
 352:Middlewares/ST/threadx/ports/cortex_m4/gnu/inc/tx_port.h ****    in order to ensure no lazy stacking will occur. */
 353:Middlewares/ST/threadx/ports/cortex_m4/gnu/inc/tx_port.h **** 
 354:Middlewares/ST/threadx/ports/cortex_m4/gnu/inc/tx_port.h **** #ifndef TX_MISRA_ENABLE
 355:Middlewares/ST/threadx/ports/cortex_m4/gnu/inc/tx_port.h **** 
 356:Middlewares/ST/threadx/ports/cortex_m4/gnu/inc/tx_port.h **** #define TX_THREAD_COMPLETED_EXTENSION(thread_ptr)   {                                              
 357:Middlewares/ST/threadx/ports/cortex_m4/gnu/inc/tx_port.h ****                                                     ULONG  _tx_vfp_state;                          
 358:Middlewares/ST/threadx/ports/cortex_m4/gnu/inc/tx_port.h ****                                                         _tx_vfp_state =  __get_control_value();    
 359:Middlewares/ST/threadx/ports/cortex_m4/gnu/inc/tx_port.h ****                                                         _tx_vfp_state =  _tx_vfp_state & ~((ULONG) 
 360:Middlewares/ST/threadx/ports/cortex_m4/gnu/inc/tx_port.h ****                                                         __set_control_value(_tx_vfp_state);        
 361:Middlewares/ST/threadx/ports/cortex_m4/gnu/inc/tx_port.h ****                                                     }
 362:Middlewares/ST/threadx/ports/cortex_m4/gnu/inc/tx_port.h **** #else
 363:Middlewares/ST/threadx/ports/cortex_m4/gnu/inc/tx_port.h **** 
 364:Middlewares/ST/threadx/ports/cortex_m4/gnu/inc/tx_port.h **** #define TX_THREAD_COMPLETED_EXTENSION(thread_ptr)   {                                              
 365:Middlewares/ST/threadx/ports/cortex_m4/gnu/inc/tx_port.h ****                                                     ULONG  _tx_vfp_state;                          
 366:Middlewares/ST/threadx/ports/cortex_m4/gnu/inc/tx_port.h ****                                                         _tx_vfp_state =  _tx_misra_control_get();  
 367:Middlewares/ST/threadx/ports/cortex_m4/gnu/inc/tx_port.h ****                                                         _tx_vfp_state =  _tx_vfp_state & ~((ULONG) 
ARM GAS  C:\Users\HP\AppData\Local\Temp\ccCKtT2B.s 			page 45


 368:Middlewares/ST/threadx/ports/cortex_m4/gnu/inc/tx_port.h ****                                                         _tx_misra_control_set(_tx_vfp_state);      
 369:Middlewares/ST/threadx/ports/cortex_m4/gnu/inc/tx_port.h ****                                                     }
 370:Middlewares/ST/threadx/ports/cortex_m4/gnu/inc/tx_port.h **** 
 371:Middlewares/ST/threadx/ports/cortex_m4/gnu/inc/tx_port.h **** #endif
 372:Middlewares/ST/threadx/ports/cortex_m4/gnu/inc/tx_port.h **** 
 373:Middlewares/ST/threadx/ports/cortex_m4/gnu/inc/tx_port.h **** /* A thread can be terminated by another thread, so we first check if it's self-terminating and not
 374:Middlewares/ST/threadx/ports/cortex_m4/gnu/inc/tx_port.h ****    If so, deactivate the FPU via CONTROL.FPCA. Otherwise we are in an interrupt or another thread i
 375:Middlewares/ST/threadx/ports/cortex_m4/gnu/inc/tx_port.h ****    this one, so if the FPCCR.LSPACT bit is set, we need to save the CONTROL.FPCA state, touch the F
 376:Middlewares/ST/threadx/ports/cortex_m4/gnu/inc/tx_port.h ****    the lazy FPU save, then restore the CONTROL.FPCA state. */
 377:Middlewares/ST/threadx/ports/cortex_m4/gnu/inc/tx_port.h **** 
 378:Middlewares/ST/threadx/ports/cortex_m4/gnu/inc/tx_port.h **** #ifndef TX_MISRA_ENABLE
 379:Middlewares/ST/threadx/ports/cortex_m4/gnu/inc/tx_port.h **** 
 380:Middlewares/ST/threadx/ports/cortex_m4/gnu/inc/tx_port.h **** #define TX_THREAD_TERMINATED_EXTENSION(thread_ptr)  {                                              
 381:Middlewares/ST/threadx/ports/cortex_m4/gnu/inc/tx_port.h ****                                                     ULONG  _tx_system_state;                       
 382:Middlewares/ST/threadx/ports/cortex_m4/gnu/inc/tx_port.h ****                                                         _tx_system_state =  TX_THREAD_GET_SYSTEM_ST
 383:Middlewares/ST/threadx/ports/cortex_m4/gnu/inc/tx_port.h ****                                                         if ((_tx_system_state == ((ULONG) 0)) && ((
 384:Middlewares/ST/threadx/ports/cortex_m4/gnu/inc/tx_port.h ****                                                         {                                          
 385:Middlewares/ST/threadx/ports/cortex_m4/gnu/inc/tx_port.h ****                                                         ULONG  _tx_vfp_state;                      
 386:Middlewares/ST/threadx/ports/cortex_m4/gnu/inc/tx_port.h ****                                                             _tx_vfp_state =  __get_control_value();
 387:Middlewares/ST/threadx/ports/cortex_m4/gnu/inc/tx_port.h ****                                                             _tx_vfp_state =  _tx_vfp_state & ~((ULO
 388:Middlewares/ST/threadx/ports/cortex_m4/gnu/inc/tx_port.h ****                                                             __set_control_value(_tx_vfp_state);    
 389:Middlewares/ST/threadx/ports/cortex_m4/gnu/inc/tx_port.h ****                                                         }                                          
 390:Middlewares/ST/threadx/ports/cortex_m4/gnu/inc/tx_port.h ****                                                         else                                       
 391:Middlewares/ST/threadx/ports/cortex_m4/gnu/inc/tx_port.h ****                                                         {                                          
 392:Middlewares/ST/threadx/ports/cortex_m4/gnu/inc/tx_port.h ****                                                         ULONG  _tx_fpccr;                          
 393:Middlewares/ST/threadx/ports/cortex_m4/gnu/inc/tx_port.h ****                                                             _tx_fpccr =  *((volatile ULONG *) 0xE00
 394:Middlewares/ST/threadx/ports/cortex_m4/gnu/inc/tx_port.h ****                                                             _tx_fpccr =  _tx_fpccr & ((ULONG) 0x01)
 395:Middlewares/ST/threadx/ports/cortex_m4/gnu/inc/tx_port.h ****                                                             if (_tx_fpccr == ((ULONG) 0x01))       
 396:Middlewares/ST/threadx/ports/cortex_m4/gnu/inc/tx_port.h ****                                                             {                                      
 397:Middlewares/ST/threadx/ports/cortex_m4/gnu/inc/tx_port.h ****                                                             ULONG _tx_vfp_state;                   
 398:Middlewares/ST/threadx/ports/cortex_m4/gnu/inc/tx_port.h ****                                                                 _tx_vfp_state = __get_control_value
 399:Middlewares/ST/threadx/ports/cortex_m4/gnu/inc/tx_port.h ****                                                                 _tx_vfp_state =  _tx_vfp_state & ((
 400:Middlewares/ST/threadx/ports/cortex_m4/gnu/inc/tx_port.h ****                                                                 TX_VFP_TOUCH();                    
 401:Middlewares/ST/threadx/ports/cortex_m4/gnu/inc/tx_port.h ****                                                                 if (_tx_vfp_state == ((ULONG) 0))  
 402:Middlewares/ST/threadx/ports/cortex_m4/gnu/inc/tx_port.h ****                                                                 {                                  
 403:Middlewares/ST/threadx/ports/cortex_m4/gnu/inc/tx_port.h ****                                                                     _tx_vfp_state =  __get_control_
 404:Middlewares/ST/threadx/ports/cortex_m4/gnu/inc/tx_port.h ****                                                                     _tx_vfp_state =  _tx_vfp_state 
 405:Middlewares/ST/threadx/ports/cortex_m4/gnu/inc/tx_port.h ****                                                                     __set_control_value(_tx_vfp_sta
 406:Middlewares/ST/threadx/ports/cortex_m4/gnu/inc/tx_port.h ****                                                                 }                                  
 407:Middlewares/ST/threadx/ports/cortex_m4/gnu/inc/tx_port.h ****                                                             }                                      
 408:Middlewares/ST/threadx/ports/cortex_m4/gnu/inc/tx_port.h ****                                                         }                                          
 409:Middlewares/ST/threadx/ports/cortex_m4/gnu/inc/tx_port.h ****                                                     }
 410:Middlewares/ST/threadx/ports/cortex_m4/gnu/inc/tx_port.h **** #else
 411:Middlewares/ST/threadx/ports/cortex_m4/gnu/inc/tx_port.h **** 
 412:Middlewares/ST/threadx/ports/cortex_m4/gnu/inc/tx_port.h **** #define TX_THREAD_TERMINATED_EXTENSION(thread_ptr)  {                                              
 413:Middlewares/ST/threadx/ports/cortex_m4/gnu/inc/tx_port.h ****                                                     ULONG  _tx_system_state;                       
 414:Middlewares/ST/threadx/ports/cortex_m4/gnu/inc/tx_port.h ****                                                         _tx_system_state =  TX_THREAD_GET_SYSTEM_ST
 415:Middlewares/ST/threadx/ports/cortex_m4/gnu/inc/tx_port.h ****                                                         if ((_tx_system_state == ((ULONG) 0)) && ((
 416:Middlewares/ST/threadx/ports/cortex_m4/gnu/inc/tx_port.h ****                                                         {                                          
 417:Middlewares/ST/threadx/ports/cortex_m4/gnu/inc/tx_port.h ****                                                         ULONG  _tx_vfp_state;                      
 418:Middlewares/ST/threadx/ports/cortex_m4/gnu/inc/tx_port.h ****                                                             _tx_vfp_state =  _tx_misra_control_get(
 419:Middlewares/ST/threadx/ports/cortex_m4/gnu/inc/tx_port.h ****                                                             _tx_vfp_state =  _tx_vfp_state & ~((ULO
 420:Middlewares/ST/threadx/ports/cortex_m4/gnu/inc/tx_port.h ****                                                             _tx_misra_control_set(_tx_vfp_state);  
 421:Middlewares/ST/threadx/ports/cortex_m4/gnu/inc/tx_port.h ****                                                         }                                          
 422:Middlewares/ST/threadx/ports/cortex_m4/gnu/inc/tx_port.h ****                                                         else                                       
 423:Middlewares/ST/threadx/ports/cortex_m4/gnu/inc/tx_port.h ****                                                         {                                          
 424:Middlewares/ST/threadx/ports/cortex_m4/gnu/inc/tx_port.h ****                                                         ULONG  _tx_fpccr;                          
ARM GAS  C:\Users\HP\AppData\Local\Temp\ccCKtT2B.s 			page 46


 425:Middlewares/ST/threadx/ports/cortex_m4/gnu/inc/tx_port.h ****                                                             _tx_fpccr =  _tx_misra_fpccr_get();    
 426:Middlewares/ST/threadx/ports/cortex_m4/gnu/inc/tx_port.h ****                                                             _tx_fpccr =  _tx_fpccr & ((ULONG) 0x01)
 427:Middlewares/ST/threadx/ports/cortex_m4/gnu/inc/tx_port.h ****                                                             if (_tx_fpccr == ((ULONG) 0x01))       
 428:Middlewares/ST/threadx/ports/cortex_m4/gnu/inc/tx_port.h ****                                                             {                                      
 429:Middlewares/ST/threadx/ports/cortex_m4/gnu/inc/tx_port.h ****                                                             ULONG _tx_vfp_state;                   
 430:Middlewares/ST/threadx/ports/cortex_m4/gnu/inc/tx_port.h ****                                                                 _tx_vfp_state = _tx_misra_control_g
 431:Middlewares/ST/threadx/ports/cortex_m4/gnu/inc/tx_port.h ****                                                                 _tx_vfp_state =  _tx_vfp_state & ((
 432:Middlewares/ST/threadx/ports/cortex_m4/gnu/inc/tx_port.h ****                                                                 _tx_misra_vfp_touch();             
 433:Middlewares/ST/threadx/ports/cortex_m4/gnu/inc/tx_port.h ****                                                                 if (_tx_vfp_state == ((ULONG) 0))  
 434:Middlewares/ST/threadx/ports/cortex_m4/gnu/inc/tx_port.h ****                                                                 {                                  
 435:Middlewares/ST/threadx/ports/cortex_m4/gnu/inc/tx_port.h ****                                                                     _tx_vfp_state =  _tx_misra_cont
 436:Middlewares/ST/threadx/ports/cortex_m4/gnu/inc/tx_port.h ****                                                                     _tx_vfp_state =  _tx_vfp_state 
 437:Middlewares/ST/threadx/ports/cortex_m4/gnu/inc/tx_port.h ****                                                                     _tx_misra_control_set(_tx_vfp_s
 438:Middlewares/ST/threadx/ports/cortex_m4/gnu/inc/tx_port.h ****                                                                 }                                  
 439:Middlewares/ST/threadx/ports/cortex_m4/gnu/inc/tx_port.h ****                                                             }                                      
 440:Middlewares/ST/threadx/ports/cortex_m4/gnu/inc/tx_port.h ****                                                         }                                          
 441:Middlewares/ST/threadx/ports/cortex_m4/gnu/inc/tx_port.h ****                                                     }
 442:Middlewares/ST/threadx/ports/cortex_m4/gnu/inc/tx_port.h **** #endif
 443:Middlewares/ST/threadx/ports/cortex_m4/gnu/inc/tx_port.h **** 
 444:Middlewares/ST/threadx/ports/cortex_m4/gnu/inc/tx_port.h **** #else   /* No VFP in use */
 445:Middlewares/ST/threadx/ports/cortex_m4/gnu/inc/tx_port.h **** 
 446:Middlewares/ST/threadx/ports/cortex_m4/gnu/inc/tx_port.h **** #define TX_THREAD_COMPLETED_EXTENSION(thread_ptr)
 447:Middlewares/ST/threadx/ports/cortex_m4/gnu/inc/tx_port.h **** #define TX_THREAD_TERMINATED_EXTENSION(thread_ptr)
 448:Middlewares/ST/threadx/ports/cortex_m4/gnu/inc/tx_port.h **** 
 449:Middlewares/ST/threadx/ports/cortex_m4/gnu/inc/tx_port.h **** #endif  /* defined(__ARMVFP__) || defined(__ARM_PCS_VFP) || defined(__ARM_FP) || defined(__TARGET_F
 450:Middlewares/ST/threadx/ports/cortex_m4/gnu/inc/tx_port.h **** 
 451:Middlewares/ST/threadx/ports/cortex_m4/gnu/inc/tx_port.h **** 
 452:Middlewares/ST/threadx/ports/cortex_m4/gnu/inc/tx_port.h **** /* Define the ThreadX object creation extensions for the remaining objects.  */
 453:Middlewares/ST/threadx/ports/cortex_m4/gnu/inc/tx_port.h **** 
 454:Middlewares/ST/threadx/ports/cortex_m4/gnu/inc/tx_port.h **** #define TX_BLOCK_POOL_CREATE_EXTENSION(pool_ptr)
 455:Middlewares/ST/threadx/ports/cortex_m4/gnu/inc/tx_port.h **** #define TX_BYTE_POOL_CREATE_EXTENSION(pool_ptr)
 456:Middlewares/ST/threadx/ports/cortex_m4/gnu/inc/tx_port.h **** #define TX_EVENT_FLAGS_GROUP_CREATE_EXTENSION(group_ptr)
 457:Middlewares/ST/threadx/ports/cortex_m4/gnu/inc/tx_port.h **** #define TX_MUTEX_CREATE_EXTENSION(mutex_ptr)
 458:Middlewares/ST/threadx/ports/cortex_m4/gnu/inc/tx_port.h **** #define TX_QUEUE_CREATE_EXTENSION(queue_ptr)
 459:Middlewares/ST/threadx/ports/cortex_m4/gnu/inc/tx_port.h **** #define TX_SEMAPHORE_CREATE_EXTENSION(semaphore_ptr)
 460:Middlewares/ST/threadx/ports/cortex_m4/gnu/inc/tx_port.h **** #define TX_TIMER_CREATE_EXTENSION(timer_ptr)
 461:Middlewares/ST/threadx/ports/cortex_m4/gnu/inc/tx_port.h **** 
 462:Middlewares/ST/threadx/ports/cortex_m4/gnu/inc/tx_port.h **** 
 463:Middlewares/ST/threadx/ports/cortex_m4/gnu/inc/tx_port.h **** /* Define the ThreadX object deletion extensions for the remaining objects.  */
 464:Middlewares/ST/threadx/ports/cortex_m4/gnu/inc/tx_port.h **** 
 465:Middlewares/ST/threadx/ports/cortex_m4/gnu/inc/tx_port.h **** #define TX_BLOCK_POOL_DELETE_EXTENSION(pool_ptr)
 466:Middlewares/ST/threadx/ports/cortex_m4/gnu/inc/tx_port.h **** #define TX_BYTE_POOL_DELETE_EXTENSION(pool_ptr)
 467:Middlewares/ST/threadx/ports/cortex_m4/gnu/inc/tx_port.h **** #define TX_EVENT_FLAGS_GROUP_DELETE_EXTENSION(group_ptr)
 468:Middlewares/ST/threadx/ports/cortex_m4/gnu/inc/tx_port.h **** #define TX_MUTEX_DELETE_EXTENSION(mutex_ptr)
 469:Middlewares/ST/threadx/ports/cortex_m4/gnu/inc/tx_port.h **** #define TX_QUEUE_DELETE_EXTENSION(queue_ptr)
 470:Middlewares/ST/threadx/ports/cortex_m4/gnu/inc/tx_port.h **** #define TX_SEMAPHORE_DELETE_EXTENSION(semaphore_ptr)
 471:Middlewares/ST/threadx/ports/cortex_m4/gnu/inc/tx_port.h **** #define TX_TIMER_DELETE_EXTENSION(timer_ptr)
 472:Middlewares/ST/threadx/ports/cortex_m4/gnu/inc/tx_port.h **** 
 473:Middlewares/ST/threadx/ports/cortex_m4/gnu/inc/tx_port.h **** 
 474:Middlewares/ST/threadx/ports/cortex_m4/gnu/inc/tx_port.h **** /* Define the get system state macro.  */
 475:Middlewares/ST/threadx/ports/cortex_m4/gnu/inc/tx_port.h **** 
 476:Middlewares/ST/threadx/ports/cortex_m4/gnu/inc/tx_port.h **** #ifndef TX_THREAD_GET_SYSTEM_STATE
 477:Middlewares/ST/threadx/ports/cortex_m4/gnu/inc/tx_port.h **** #ifndef TX_MISRA_ENABLE
 478:Middlewares/ST/threadx/ports/cortex_m4/gnu/inc/tx_port.h **** 
 479:Middlewares/ST/threadx/ports/cortex_m4/gnu/inc/tx_port.h **** #ifdef __CC_ARM /* ARM Compiler 5 */
 480:Middlewares/ST/threadx/ports/cortex_m4/gnu/inc/tx_port.h **** 
 481:Middlewares/ST/threadx/ports/cortex_m4/gnu/inc/tx_port.h **** register unsigned int _ipsr __asm("ipsr");
ARM GAS  C:\Users\HP\AppData\Local\Temp\ccCKtT2B.s 			page 47


 482:Middlewares/ST/threadx/ports/cortex_m4/gnu/inc/tx_port.h **** #define TX_THREAD_GET_SYSTEM_STATE()        (_tx_thread_system_state | _ipsr)
 483:Middlewares/ST/threadx/ports/cortex_m4/gnu/inc/tx_port.h **** 
 484:Middlewares/ST/threadx/ports/cortex_m4/gnu/inc/tx_port.h **** #elif defined(__GNUC__) /* GCC and ARM Compiler 6 */
 485:Middlewares/ST/threadx/ports/cortex_m4/gnu/inc/tx_port.h **** 
 486:Middlewares/ST/threadx/ports/cortex_m4/gnu/inc/tx_port.h **** __attribute__( ( always_inline ) ) static inline unsigned int __get_ipsr_value(void)
 487:Middlewares/ST/threadx/ports/cortex_m4/gnu/inc/tx_port.h **** {
 488:Middlewares/ST/threadx/ports/cortex_m4/gnu/inc/tx_port.h **** unsigned int  ipsr_value;
 489:Middlewares/ST/threadx/ports/cortex_m4/gnu/inc/tx_port.h ****     __asm__ volatile (" MRS  %0,IPSR ": "=r" (ipsr_value) );
 490:Middlewares/ST/threadx/ports/cortex_m4/gnu/inc/tx_port.h ****     return(ipsr_value);
 491:Middlewares/ST/threadx/ports/cortex_m4/gnu/inc/tx_port.h **** }
 492:Middlewares/ST/threadx/ports/cortex_m4/gnu/inc/tx_port.h **** 
 493:Middlewares/ST/threadx/ports/cortex_m4/gnu/inc/tx_port.h **** #define TX_THREAD_GET_SYSTEM_STATE()        (_tx_thread_system_state | __get_ipsr_value())
 494:Middlewares/ST/threadx/ports/cortex_m4/gnu/inc/tx_port.h **** 
 495:Middlewares/ST/threadx/ports/cortex_m4/gnu/inc/tx_port.h **** #elif defined(__ICCARM__)   /* IAR */
 496:Middlewares/ST/threadx/ports/cortex_m4/gnu/inc/tx_port.h **** 
 497:Middlewares/ST/threadx/ports/cortex_m4/gnu/inc/tx_port.h **** #define TX_THREAD_GET_SYSTEM_STATE()        (_tx_thread_system_state | __get_IPSR())
 498:Middlewares/ST/threadx/ports/cortex_m4/gnu/inc/tx_port.h **** 
 499:Middlewares/ST/threadx/ports/cortex_m4/gnu/inc/tx_port.h **** #endif  /* TX_THREAD_GET_SYSTEM_STATE for different compilers */
 500:Middlewares/ST/threadx/ports/cortex_m4/gnu/inc/tx_port.h **** 
 501:Middlewares/ST/threadx/ports/cortex_m4/gnu/inc/tx_port.h **** #else   /* TX_MISRA_ENABLE is defined, use MISRA function. */
 502:Middlewares/ST/threadx/ports/cortex_m4/gnu/inc/tx_port.h **** ULONG   _tx_misra_ipsr_get(VOID);
 503:Middlewares/ST/threadx/ports/cortex_m4/gnu/inc/tx_port.h **** #define TX_THREAD_GET_SYSTEM_STATE()        (_tx_thread_system_state | _tx_misra_ipsr_get())
 504:Middlewares/ST/threadx/ports/cortex_m4/gnu/inc/tx_port.h **** #endif  /* TX_MISRA_ENABLE */
 505:Middlewares/ST/threadx/ports/cortex_m4/gnu/inc/tx_port.h **** #endif  /* TX_THREAD_GET_SYSTEM_STATE */
 506:Middlewares/ST/threadx/ports/cortex_m4/gnu/inc/tx_port.h **** 
 507:Middlewares/ST/threadx/ports/cortex_m4/gnu/inc/tx_port.h **** 
 508:Middlewares/ST/threadx/ports/cortex_m4/gnu/inc/tx_port.h **** /* Define the check for whether or not to call the _tx_thread_system_return function.  A non-zero v
 509:Middlewares/ST/threadx/ports/cortex_m4/gnu/inc/tx_port.h ****    indicates that _tx_thread_system_return should not be called. This overrides the definition in t
 510:Middlewares/ST/threadx/ports/cortex_m4/gnu/inc/tx_port.h ****    for Cortex-M since so we don't waste time checking the _tx_thread_system_state variable that is 
 511:Middlewares/ST/threadx/ports/cortex_m4/gnu/inc/tx_port.h ****    zero after initialization for Cortex-M ports. */
 512:Middlewares/ST/threadx/ports/cortex_m4/gnu/inc/tx_port.h **** 
 513:Middlewares/ST/threadx/ports/cortex_m4/gnu/inc/tx_port.h **** #ifndef TX_THREAD_SYSTEM_RETURN_CHECK
 514:Middlewares/ST/threadx/ports/cortex_m4/gnu/inc/tx_port.h **** #define TX_THREAD_SYSTEM_RETURN_CHECK(c)    (c) = ((ULONG) _tx_thread_preempt_disable);
 515:Middlewares/ST/threadx/ports/cortex_m4/gnu/inc/tx_port.h **** #endif
 516:Middlewares/ST/threadx/ports/cortex_m4/gnu/inc/tx_port.h **** 
 517:Middlewares/ST/threadx/ports/cortex_m4/gnu/inc/tx_port.h **** /* Define the macro to ensure _tx_thread_preempt_disable is set early in initialization in order to
 518:Middlewares/ST/threadx/ports/cortex_m4/gnu/inc/tx_port.h ****    prevent early scheduling on Cortex-M parts.  */
 519:Middlewares/ST/threadx/ports/cortex_m4/gnu/inc/tx_port.h **** 
 520:Middlewares/ST/threadx/ports/cortex_m4/gnu/inc/tx_port.h **** #define TX_PORT_SPECIFIC_POST_INITIALIZATION    _tx_thread_preempt_disable++;
 521:Middlewares/ST/threadx/ports/cortex_m4/gnu/inc/tx_port.h **** 
 522:Middlewares/ST/threadx/ports/cortex_m4/gnu/inc/tx_port.h **** 
 523:Middlewares/ST/threadx/ports/cortex_m4/gnu/inc/tx_port.h **** 
 524:Middlewares/ST/threadx/ports/cortex_m4/gnu/inc/tx_port.h **** 
 525:Middlewares/ST/threadx/ports/cortex_m4/gnu/inc/tx_port.h **** #ifndef TX_DISABLE_INLINE
 526:Middlewares/ST/threadx/ports/cortex_m4/gnu/inc/tx_port.h **** 
 527:Middlewares/ST/threadx/ports/cortex_m4/gnu/inc/tx_port.h **** /* Define the TX_LOWEST_SET_BIT_CALCULATE macro for each compiler. */
 528:Middlewares/ST/threadx/ports/cortex_m4/gnu/inc/tx_port.h **** #ifdef __ICCARM__       /* IAR Compiler */
 529:Middlewares/ST/threadx/ports/cortex_m4/gnu/inc/tx_port.h **** #define TX_LOWEST_SET_BIT_CALCULATE(m, b)       (b) = (UINT) __CLZ(__RBIT((m)));
 530:Middlewares/ST/threadx/ports/cortex_m4/gnu/inc/tx_port.h **** #elif defined(__CC_ARM) /* AC5 Compiler */
 531:Middlewares/ST/threadx/ports/cortex_m4/gnu/inc/tx_port.h **** #define TX_LOWEST_SET_BIT_CALCULATE(m, b)       (b) = (UINT) __clz(__rbit((m)));
 532:Middlewares/ST/threadx/ports/cortex_m4/gnu/inc/tx_port.h **** #elif defined(__GNUC__) /* GCC and AC6 Compiler */
 533:Middlewares/ST/threadx/ports/cortex_m4/gnu/inc/tx_port.h **** #define TX_LOWEST_SET_BIT_CALCULATE(m, b)       __asm__ volatile (" RBIT %0,%1 ": "=r" (m) : "r" (m
 534:Middlewares/ST/threadx/ports/cortex_m4/gnu/inc/tx_port.h ****                                                 __asm__ volatile (" CLZ  %0,%1 ": "=r" (b) : "r" (m
 535:Middlewares/ST/threadx/ports/cortex_m4/gnu/inc/tx_port.h **** #endif
 536:Middlewares/ST/threadx/ports/cortex_m4/gnu/inc/tx_port.h **** 
 537:Middlewares/ST/threadx/ports/cortex_m4/gnu/inc/tx_port.h **** 
 538:Middlewares/ST/threadx/ports/cortex_m4/gnu/inc/tx_port.h **** 
ARM GAS  C:\Users\HP\AppData\Local\Temp\ccCKtT2B.s 			page 48


 539:Middlewares/ST/threadx/ports/cortex_m4/gnu/inc/tx_port.h **** /* Define the interrupt disable/restore macros for each compiler. */
 540:Middlewares/ST/threadx/ports/cortex_m4/gnu/inc/tx_port.h **** 
 541:Middlewares/ST/threadx/ports/cortex_m4/gnu/inc/tx_port.h **** #if defined(__GNUC__) || defined(__ICCARM__)
 542:Middlewares/ST/threadx/ports/cortex_m4/gnu/inc/tx_port.h **** 
 543:Middlewares/ST/threadx/ports/cortex_m4/gnu/inc/tx_port.h **** /*** GCC/AC6 and IAR ***/
 544:Middlewares/ST/threadx/ports/cortex_m4/gnu/inc/tx_port.h **** 
 545:Middlewares/ST/threadx/ports/cortex_m4/gnu/inc/tx_port.h **** __attribute__( ( always_inline ) ) static inline unsigned int __get_interrupt_posture(void)
 546:Middlewares/ST/threadx/ports/cortex_m4/gnu/inc/tx_port.h **** {
 547:Middlewares/ST/threadx/ports/cortex_m4/gnu/inc/tx_port.h **** unsigned int posture;
 548:Middlewares/ST/threadx/ports/cortex_m4/gnu/inc/tx_port.h **** #ifdef TX_PORT_USE_BASEPRI
 549:Middlewares/ST/threadx/ports/cortex_m4/gnu/inc/tx_port.h ****     __asm__ volatile ("MRS  %0, BASEPRI ": "=r" (posture));
 550:Middlewares/ST/threadx/ports/cortex_m4/gnu/inc/tx_port.h **** #else
 551:Middlewares/ST/threadx/ports/cortex_m4/gnu/inc/tx_port.h ****     __asm__ volatile ("MRS  %0, PRIMASK ": "=r" (posture));
 552:Middlewares/ST/threadx/ports/cortex_m4/gnu/inc/tx_port.h **** #endif
 553:Middlewares/ST/threadx/ports/cortex_m4/gnu/inc/tx_port.h ****     return(posture);
 554:Middlewares/ST/threadx/ports/cortex_m4/gnu/inc/tx_port.h **** }
 555:Middlewares/ST/threadx/ports/cortex_m4/gnu/inc/tx_port.h **** 
 556:Middlewares/ST/threadx/ports/cortex_m4/gnu/inc/tx_port.h **** #ifdef TX_PORT_USE_BASEPRI
 557:Middlewares/ST/threadx/ports/cortex_m4/gnu/inc/tx_port.h **** __attribute__( ( always_inline ) ) static inline void __set_basepri_value(unsigned int basepri_valu
 558:Middlewares/ST/threadx/ports/cortex_m4/gnu/inc/tx_port.h **** {
 559:Middlewares/ST/threadx/ports/cortex_m4/gnu/inc/tx_port.h ****     __asm__ volatile ("MSR  BASEPRI,%0 ": : "r" (basepri_value));
 560:Middlewares/ST/threadx/ports/cortex_m4/gnu/inc/tx_port.h **** }
 561:Middlewares/ST/threadx/ports/cortex_m4/gnu/inc/tx_port.h **** #else
 562:Middlewares/ST/threadx/ports/cortex_m4/gnu/inc/tx_port.h **** __attribute__( ( always_inline ) ) static inline void __enable_interrupts(void)
 563:Middlewares/ST/threadx/ports/cortex_m4/gnu/inc/tx_port.h **** {
 564:Middlewares/ST/threadx/ports/cortex_m4/gnu/inc/tx_port.h ****     __asm__ volatile ("CPSIE  i": : : "memory");
 565:Middlewares/ST/threadx/ports/cortex_m4/gnu/inc/tx_port.h **** }
 566:Middlewares/ST/threadx/ports/cortex_m4/gnu/inc/tx_port.h **** #endif
 567:Middlewares/ST/threadx/ports/cortex_m4/gnu/inc/tx_port.h **** 
 568:Middlewares/ST/threadx/ports/cortex_m4/gnu/inc/tx_port.h **** __attribute__( ( always_inline ) ) static inline void __restore_interrupt(unsigned int int_posture)
 569:Middlewares/ST/threadx/ports/cortex_m4/gnu/inc/tx_port.h **** {
 570:Middlewares/ST/threadx/ports/cortex_m4/gnu/inc/tx_port.h **** #ifdef TX_PORT_USE_BASEPRI
 571:Middlewares/ST/threadx/ports/cortex_m4/gnu/inc/tx_port.h ****     __set_basepri_value(int_posture);
 572:Middlewares/ST/threadx/ports/cortex_m4/gnu/inc/tx_port.h ****     //__asm__ volatile ("MSR  BASEPRI,%0": : "r" (int_posture): "memory");
 573:Middlewares/ST/threadx/ports/cortex_m4/gnu/inc/tx_port.h **** #else
 574:Middlewares/ST/threadx/ports/cortex_m4/gnu/inc/tx_port.h ****     __asm__ volatile ("MSR  PRIMASK,%0": : "r" (int_posture): "memory");
 575:Middlewares/ST/threadx/ports/cortex_m4/gnu/inc/tx_port.h **** #endif
 576:Middlewares/ST/threadx/ports/cortex_m4/gnu/inc/tx_port.h **** }
 577:Middlewares/ST/threadx/ports/cortex_m4/gnu/inc/tx_port.h **** 
 578:Middlewares/ST/threadx/ports/cortex_m4/gnu/inc/tx_port.h **** __attribute__( ( always_inline ) ) static inline unsigned int __disable_interrupts(void)
 859              		.loc 2 578 63 view .LVU412
 860              	.LBB13:
 579:Middlewares/ST/threadx/ports/cortex_m4/gnu/inc/tx_port.h **** {
 580:Middlewares/ST/threadx/ports/cortex_m4/gnu/inc/tx_port.h **** unsigned int int_posture;
 861              		.loc 2 580 1 view .LVU413
 581:Middlewares/ST/threadx/ports/cortex_m4/gnu/inc/tx_port.h **** 
 582:Middlewares/ST/threadx/ports/cortex_m4/gnu/inc/tx_port.h ****     int_posture = __get_interrupt_posture();
 862              		.loc 2 582 5 view .LVU414
 863              	.LBB14:
 864              	.LBI14:
 545:Middlewares/ST/threadx/ports/cortex_m4/gnu/inc/tx_port.h **** {
 865              		.loc 2 545 63 view .LVU415
 866              	.LBB15:
 547:Middlewares/ST/threadx/ports/cortex_m4/gnu/inc/tx_port.h **** #ifdef TX_PORT_USE_BASEPRI
 867              		.loc 2 547 1 view .LVU416
 551:Middlewares/ST/threadx/ports/cortex_m4/gnu/inc/tx_port.h **** #endif
 868              		.loc 2 551 5 view .LVU417
ARM GAS  C:\Users\HP\AppData\Local\Temp\ccCKtT2B.s 			page 49


 869              		.syntax unified
 870              	@ 551 "Middlewares/ST/threadx/ports/cortex_m4/gnu/inc/tx_port.h" 1
 871 03e8 EFF31085 		MRS  r5, PRIMASK 
 872              	@ 0 "" 2
 873              	.LVL39:
 553:Middlewares/ST/threadx/ports/cortex_m4/gnu/inc/tx_port.h **** }
 874              		.loc 2 553 5 view .LVU418
 553:Middlewares/ST/threadx/ports/cortex_m4/gnu/inc/tx_port.h **** }
 875              		.loc 2 553 5 is_stmt 0 view .LVU419
 876              		.thumb
 877              		.syntax unified
 878              	.LBE15:
 879              	.LBE14:
 583:Middlewares/ST/threadx/ports/cortex_m4/gnu/inc/tx_port.h **** 
 584:Middlewares/ST/threadx/ports/cortex_m4/gnu/inc/tx_port.h **** #ifdef TX_PORT_USE_BASEPRI
 585:Middlewares/ST/threadx/ports/cortex_m4/gnu/inc/tx_port.h ****     __set_basepri_value(TX_PORT_BASEPRI);
 586:Middlewares/ST/threadx/ports/cortex_m4/gnu/inc/tx_port.h **** #else
 587:Middlewares/ST/threadx/ports/cortex_m4/gnu/inc/tx_port.h ****     __asm__ volatile ("CPSID i" : : : "memory");
 880              		.loc 2 587 5 is_stmt 1 view .LVU420
 881              		.syntax unified
 882              	@ 587 "Middlewares/ST/threadx/ports/cortex_m4/gnu/inc/tx_port.h" 1
 883 03ec 72B6     		CPSID i
 884              	@ 0 "" 2
 588:Middlewares/ST/threadx/ports/cortex_m4/gnu/inc/tx_port.h **** #endif
 589:Middlewares/ST/threadx/ports/cortex_m4/gnu/inc/tx_port.h ****     return(int_posture);
 885              		.loc 2 589 5 view .LVU421
 886              	.LVL40:
 887              		.loc 2 589 5 is_stmt 0 view .LVU422
 888              		.thumb
 889              		.syntax unified
 890              	.LBE13:
 891              	.LBE12:
1016:Middlewares/ST/filex/common/src/fx_media_open.c **** 
 892              		.loc 1 1016 5 is_stmt 1 view .LVU423
1016:Middlewares/ST/filex/common/src/fx_media_open.c **** 
 893              		.loc 1 1016 30 is_stmt 0 view .LVU424
 894 03ee A74B     		ldr	r3, .L70+4
 895 03f0 2360     		str	r3, [r4]
1020:Middlewares/ST/filex/common/src/fx_media_open.c ****     {
 896              		.loc 1 1020 5 is_stmt 1 view .LVU425
1020:Middlewares/ST/filex/common/src/fx_media_open.c ****     {
 897              		.loc 1 1020 9 is_stmt 0 view .LVU426
 898 03f2 A74B     		ldr	r3, .L70+8
 899 03f4 1B68     		ldr	r3, [r3]
1020:Middlewares/ST/filex/common/src/fx_media_open.c ****     {
 900              		.loc 1 1020 8 view .LVU427
 901 03f6 002B     		cmp	r3, #0
 902 03f8 00F03681 		beq	.L45
1024:Middlewares/ST/filex/common/src/fx_media_open.c **** 
 903              		.loc 1 1024 9 is_stmt 1 view .LVU428
1024:Middlewares/ST/filex/common/src/fx_media_open.c **** 
 904              		.loc 1 1024 18 is_stmt 0 view .LVU429
 905 03fc D3F8D420 		ldr	r2, [r3, #212]
 906              	.LVL41:
1027:Middlewares/ST/filex/common/src/fx_media_open.c ****         tail_ptr -> fx_media_opened_next =  media_ptr;
 907              		.loc 1 1027 9 is_stmt 1 view .LVU430
1027:Middlewares/ST/filex/common/src/fx_media_open.c ****         tail_ptr -> fx_media_opened_next =  media_ptr;
ARM GAS  C:\Users\HP\AppData\Local\Temp\ccCKtT2B.s 			page 50


 908              		.loc 1 1027 65 is_stmt 0 view .LVU431
 909 0400 C3F8D440 		str	r4, [r3, #212]
1028:Middlewares/ST/filex/common/src/fx_media_open.c **** 
 910              		.loc 1 1028 9 is_stmt 1 view .LVU432
1028:Middlewares/ST/filex/common/src/fx_media_open.c **** 
 911              		.loc 1 1028 42 is_stmt 0 view .LVU433
 912 0404 C2F8D040 		str	r4, [r2, #208]
1031:Middlewares/ST/filex/common/src/fx_media_open.c ****         media_ptr -> fx_media_opened_next =      _fx_system_media_opened_ptr;
 913              		.loc 1 1031 9 is_stmt 1 view .LVU434
1031:Middlewares/ST/filex/common/src/fx_media_open.c ****         media_ptr -> fx_media_opened_next =      _fx_system_media_opened_ptr;
 914              		.loc 1 1031 47 is_stmt 0 view .LVU435
 915 0408 C4F8D420 		str	r2, [r4, #212]
1032:Middlewares/ST/filex/common/src/fx_media_open.c ****     }
 916              		.loc 1 1032 9 is_stmt 1 view .LVU436
1032:Middlewares/ST/filex/common/src/fx_media_open.c ****     }
 917              		.loc 1 1032 43 is_stmt 0 view .LVU437
 918 040c C4F8D030 		str	r3, [r4, #208]
 919              	.LVL42:
 920              	.L46:
1044:Middlewares/ST/filex/common/src/fx_media_open.c **** 
 921              		.loc 1 1044 5 is_stmt 1 view .LVU438
1044:Middlewares/ST/filex/common/src/fx_media_open.c **** 
 922              		.loc 1 1044 34 is_stmt 0 view .LVU439
 923 0410 A04A     		ldr	r2, .L70+12
 924 0412 1368     		ldr	r3, [r2]
 925 0414 0133     		adds	r3, r3, #1
 926 0416 1360     		str	r3, [r2]
1047:Middlewares/ST/filex/common/src/fx_media_open.c ****     {
 927              		.loc 1 1047 5 is_stmt 1 view .LVU440
1047:Middlewares/ST/filex/common/src/fx_media_open.c ****     {
 928              		.loc 1 1047 19 is_stmt 0 view .LVU441
 929 0418 D4F8C030 		ldr	r3, [r4, #192]
1047:Middlewares/ST/filex/common/src/fx_media_open.c ****     {
 930              		.loc 1 1047 8 view .LVU442
 931 041c 0BB1     		cbz	r3, .L47
1049:Middlewares/ST/filex/common/src/fx_media_open.c ****     }
 932              		.loc 1 1049 9 is_stmt 1 view .LVU443
 933 041e 2046     		mov	r0, r4
 934 0420 9847     		blx	r3
 935              	.LVL43:
 936              	.L47:
1053:Middlewares/ST/filex/common/src/fx_media_open.c **** 
 937              		.loc 1 1053 5 view .LVU444
 938              	.LBB16:
 939              	.LBI16:
 568:Middlewares/ST/threadx/ports/cortex_m4/gnu/inc/tx_port.h **** {
 940              		.loc 2 568 55 view .LVU445
 941              	.LBB17:
 574:Middlewares/ST/threadx/ports/cortex_m4/gnu/inc/tx_port.h **** #endif
 942              		.loc 2 574 5 view .LVU446
 943              		.syntax unified
 944              	@ 574 "Middlewares/ST/threadx/ports/cortex_m4/gnu/inc/tx_port.h" 1
 945 0422 85F31088 		MSR  PRIMASK,r5
 946              	@ 0 "" 2
 947              	.LVL44:
 574:Middlewares/ST/threadx/ports/cortex_m4/gnu/inc/tx_port.h **** #endif
 948              		.loc 2 574 5 is_stmt 0 view .LVU447
ARM GAS  C:\Users\HP\AppData\Local\Temp\ccCKtT2B.s 			page 51


 949              		.thumb
 950              		.syntax unified
 951              	.LBE17:
 952              	.LBE16:
1062:Middlewares/ST/filex/common/src/fx_media_open.c **** }
 953              		.loc 1 1062 5 is_stmt 1 view .LVU448
1062:Middlewares/ST/filex/common/src/fx_media_open.c **** }
 954              		.loc 1 1062 11 is_stmt 0 view .LVU449
 955 0426 BDE6     		b	.L1
 956              	.LVL45:
 957              	.L15:
 508:Middlewares/ST/filex/common/src/fx_media_open.c ****         {
 958              		.loc 1 508 14 is_stmt 1 view .LVU450
 508:Middlewares/ST/filex/common/src/fx_media_open.c ****         {
 959              		.loc 1 508 17 is_stmt 0 view .LVU451
 960 0428 4FF6F473 		movw	r3, #65524
 961 042c 9842     		cmp	r0, r3
 962 042e 0ED8     		bhi	.L17
 512:Middlewares/ST/filex/common/src/fx_media_open.c ****             media_ptr -> fx_media_32_bit_FAT =  FX_FALSE;
 963              		.loc 1 512 13 is_stmt 1 view .LVU452
 512:Middlewares/ST/filex/common/src/fx_media_open.c ****             media_ptr -> fx_media_32_bit_FAT =  FX_FALSE;
 964              		.loc 1 512 46 is_stmt 0 view .LVU453
 965 0430 0023     		movs	r3, #0
 966 0432 2366     		str	r3, [r4, #96]
 513:Middlewares/ST/filex/common/src/fx_media_open.c **** #ifdef FX_ENABLE_EXFAT
 967              		.loc 1 513 13 is_stmt 1 view .LVU454
 513:Middlewares/ST/filex/common/src/fx_media_open.c **** #ifdef FX_ENABLE_EXFAT
 968              		.loc 1 513 46 is_stmt 0 view .LVU455
 969 0434 6366     		str	r3, [r4, #100]
 519:Middlewares/ST/filex/common/src/fx_media_open.c **** 
 970              		.loc 1 519 13 is_stmt 1 view .LVU456
 519:Middlewares/ST/filex/common/src/fx_media_open.c **** 
 971              		.loc 1 519 64 is_stmt 0 view .LVU457
 972 0436 A366     		str	r3, [r4, #104]
 522:Middlewares/ST/filex/common/src/fx_media_open.c ****             media_ptr -> fx_media_fat_last = FX_LAST_CLUSTER_2;
 973              		.loc 1 522 13 is_stmt 1 view .LVU458
 522:Middlewares/ST/filex/common/src/fx_media_open.c ****             media_ptr -> fx_media_fat_last = FX_LAST_CLUSTER_2;
 974              		.loc 1 522 48 is_stmt 0 view .LVU459
 975 0438 04F50053 		add	r3, r4, #8192
 976 043c 4FF6F072 		movw	r2, #65520
 977 0440 C3F8A824 		str	r2, [r3, #1192]
 523:Middlewares/ST/filex/common/src/fx_media_open.c ****         }
 978              		.loc 1 523 13 is_stmt 1 view .LVU460
 523:Middlewares/ST/filex/common/src/fx_media_open.c ****         }
 979              		.loc 1 523 44 is_stmt 0 view .LVU461
 980 0444 4FF6FF72 		movw	r2, #65535
 981 0448 C3F8AC24 		str	r2, [r3, #1196]
 982 044c 6FE7     		b	.L16
 983              	.L17:
 529:Middlewares/ST/filex/common/src/fx_media_open.c ****             media_ptr -> fx_media_32_bit_FAT =  FX_TRUE;
 984              		.loc 1 529 13 is_stmt 1 view .LVU462
 529:Middlewares/ST/filex/common/src/fx_media_open.c ****             media_ptr -> fx_media_32_bit_FAT =  FX_TRUE;
 985              		.loc 1 529 46 is_stmt 0 view .LVU463
 986 044e 0023     		movs	r3, #0
 987 0450 2366     		str	r3, [r4, #96]
 530:Middlewares/ST/filex/common/src/fx_media_open.c **** #ifdef FX_ENABLE_EXFAT
 988              		.loc 1 530 13 is_stmt 1 view .LVU464
ARM GAS  C:\Users\HP\AppData\Local\Temp\ccCKtT2B.s 			page 52


 530:Middlewares/ST/filex/common/src/fx_media_open.c **** #ifdef FX_ENABLE_EXFAT
 989              		.loc 1 530 46 is_stmt 0 view .LVU465
 990 0452 0123     		movs	r3, #1
 991 0454 6366     		str	r3, [r4, #100]
 537:Middlewares/ST/filex/common/src/fx_media_open.c **** 
 992              		.loc 1 537 13 is_stmt 1 view .LVU466
 537:Middlewares/ST/filex/common/src/fx_media_open.c **** 
 993              		.loc 1 537 64 is_stmt 0 view .LVU467
 994 0456 A766     		str	r7, [r4, #104]
 540:Middlewares/ST/filex/common/src/fx_media_open.c ****             media_ptr -> fx_media_fat_last = FX_LAST_CLUSTER_2_32;
 995              		.loc 1 540 13 is_stmt 1 view .LVU468
 540:Middlewares/ST/filex/common/src/fx_media_open.c ****             media_ptr -> fx_media_fat_last = FX_LAST_CLUSTER_2_32;
 996              		.loc 1 540 48 is_stmt 0 view .LVU469
 997 0458 04F50053 		add	r3, r4, #8192
 998 045c 8E4A     		ldr	r2, .L70+16
 999 045e C3F8A824 		str	r2, [r3, #1192]
 541:Middlewares/ST/filex/common/src/fx_media_open.c ****         }
 1000              		.loc 1 541 13 is_stmt 1 view .LVU470
 541:Middlewares/ST/filex/common/src/fx_media_open.c ****         }
 1001              		.loc 1 541 44 is_stmt 0 view .LVU471
 1002 0462 6FF07042 		mvn	r2, #-268435456
 1003 0466 C3F8AC24 		str	r2, [r3, #1196]
 1004 046a 60E7     		b	.L16
 1005              	.L59:
 569:Middlewares/ST/filex/common/src/fx_media_open.c ****             {
 1006              		.loc 1 569 13 is_stmt 1 view .LVU472
 569:Middlewares/ST/filex/common/src/fx_media_open.c ****             {
 1007              		.loc 1 569 27 is_stmt 0 view .LVU473
 1008 046c 676F     		ldr	r7, [r4, #116]
 1009              	.LVL46:
 569:Middlewares/ST/filex/common/src/fx_media_open.c ****             {
 1010              		.loc 1 569 16 view .LVU474
 1011 046e 012F     		cmp	r7, #1
 1012 0470 40F20781 		bls	.L51
 575:Middlewares/ST/filex/common/src/fx_media_open.c ****                 (media_ptr -> fx_media_root_cluster_32 - FX_FAT_ENTRY_START) *
 1013              		.loc 1 575 13 is_stmt 1 view .LVU475
 576:Middlewares/ST/filex/common/src/fx_media_open.c ****                 media_ptr -> fx_media_sectors_per_cluster;
 1014              		.loc 1 576 56 is_stmt 0 view .LVU476
 1015 0474 BB1E     		subs	r3, r7, #2
 575:Middlewares/ST/filex/common/src/fx_media_open.c ****                 (media_ptr -> fx_media_root_cluster_32 - FX_FAT_ENTRY_START) *
 1016              		.loc 1 575 95 view .LVU477
 1017 0476 03FB0983 		mla	r3, r3, r9, r8
 575:Middlewares/ST/filex/common/src/fx_media_open.c ****                 (media_ptr -> fx_media_root_cluster_32 - FX_FAT_ENTRY_START) *
 1018              		.loc 1 575 53 view .LVU478
 1019 047a A364     		str	r3, [r4, #72]
