ARM GAS  C:\Users\HP\AppData\Local\Temp\ccNhL92X.s 			page 1


   1              		.cpu cortex-m4
   2              		.arch armv7e-m
   3              		.fpu fpv4-sp-d16
   4              		.eabi_attribute 27, 1
   5              		.eabi_attribute 28, 1
   6              		.eabi_attribute 20, 1
   7              		.eabi_attribute 21, 1
   8              		.eabi_attribute 23, 3
   9              		.eabi_attribute 24, 1
  10              		.eabi_attribute 25, 1
  11              		.eabi_attribute 26, 1
  12              		.eabi_attribute 30, 1
  13              		.eabi_attribute 34, 1
  14              		.eabi_attribute 18, 4
  15              		.file	"fx_media_volume_get_extended.c"
  16              		.text
  17              	.Ltext0:
  18              		.cfi_sections	.debug_frame
  19              		.section	.text._fx_media_volume_get_extended,"ax",%progbits
  20              		.align	1
  21              		.global	_fx_media_volume_get_extended
  22              		.syntax unified
  23              		.thumb
  24              		.thumb_func
  26              	_fx_media_volume_get_extended:
  27              	.LVL0:
  28              	.LFB8:
  29              		.file 1 "Middlewares/ST/filex/common/src/fx_media_volume_get_extended.c"
   1:Middlewares/ST/filex/common/src/fx_media_volume_get_extended.c **** /**************************************************************************/
   2:Middlewares/ST/filex/common/src/fx_media_volume_get_extended.c **** /*                                                                        */
   3:Middlewares/ST/filex/common/src/fx_media_volume_get_extended.c **** /*       Copyright (c) Microsoft Corporation. All rights reserved.        */
   4:Middlewares/ST/filex/common/src/fx_media_volume_get_extended.c **** /*                                                                        */
   5:Middlewares/ST/filex/common/src/fx_media_volume_get_extended.c **** /*       This software is licensed under the Microsoft Software License   */
   6:Middlewares/ST/filex/common/src/fx_media_volume_get_extended.c **** /*       Terms for Microsoft Azure RTOS. Full text of the license can be  */
   7:Middlewares/ST/filex/common/src/fx_media_volume_get_extended.c **** /*       found in the LICENSE file at https://aka.ms/AzureRTOS_EULA       */
   8:Middlewares/ST/filex/common/src/fx_media_volume_get_extended.c **** /*       and in the root directory of this software.                      */
   9:Middlewares/ST/filex/common/src/fx_media_volume_get_extended.c **** /*                                                                        */
  10:Middlewares/ST/filex/common/src/fx_media_volume_get_extended.c **** /**************************************************************************/
  11:Middlewares/ST/filex/common/src/fx_media_volume_get_extended.c **** 
  12:Middlewares/ST/filex/common/src/fx_media_volume_get_extended.c **** 
  13:Middlewares/ST/filex/common/src/fx_media_volume_get_extended.c **** /**************************************************************************/
  14:Middlewares/ST/filex/common/src/fx_media_volume_get_extended.c **** /**************************************************************************/
  15:Middlewares/ST/filex/common/src/fx_media_volume_get_extended.c **** /**                                                                       */
  16:Middlewares/ST/filex/common/src/fx_media_volume_get_extended.c **** /** FileX Component                                                       */
  17:Middlewares/ST/filex/common/src/fx_media_volume_get_extended.c **** /**                                                                       */
  18:Middlewares/ST/filex/common/src/fx_media_volume_get_extended.c **** /**   Media                                                               */
  19:Middlewares/ST/filex/common/src/fx_media_volume_get_extended.c **** /**                                                                       */
  20:Middlewares/ST/filex/common/src/fx_media_volume_get_extended.c **** /**************************************************************************/
  21:Middlewares/ST/filex/common/src/fx_media_volume_get_extended.c **** /**************************************************************************/
  22:Middlewares/ST/filex/common/src/fx_media_volume_get_extended.c **** 
  23:Middlewares/ST/filex/common/src/fx_media_volume_get_extended.c **** #define FX_SOURCE_CODE
  24:Middlewares/ST/filex/common/src/fx_media_volume_get_extended.c **** 
  25:Middlewares/ST/filex/common/src/fx_media_volume_get_extended.c **** 
  26:Middlewares/ST/filex/common/src/fx_media_volume_get_extended.c **** /* Include necessary system files.  */
  27:Middlewares/ST/filex/common/src/fx_media_volume_get_extended.c **** 
  28:Middlewares/ST/filex/common/src/fx_media_volume_get_extended.c **** #include "fx_api.h"
  29:Middlewares/ST/filex/common/src/fx_media_volume_get_extended.c **** #include "fx_system.h"
ARM GAS  C:\Users\HP\AppData\Local\Temp\ccNhL92X.s 			page 2


  30:Middlewares/ST/filex/common/src/fx_media_volume_get_extended.c **** #include "fx_directory.h"
  31:Middlewares/ST/filex/common/src/fx_media_volume_get_extended.c **** #include "fx_media.h"
  32:Middlewares/ST/filex/common/src/fx_media_volume_get_extended.c **** #include "fx_utility.h"
  33:Middlewares/ST/filex/common/src/fx_media_volume_get_extended.c **** #ifdef FX_ENABLE_EXFAT
  34:Middlewares/ST/filex/common/src/fx_media_volume_get_extended.c **** #include "fx_directory_exFAT.h"
  35:Middlewares/ST/filex/common/src/fx_media_volume_get_extended.c **** #endif /* FX_ENABLE_EXFAT */
  36:Middlewares/ST/filex/common/src/fx_media_volume_get_extended.c **** 
  37:Middlewares/ST/filex/common/src/fx_media_volume_get_extended.c **** 
  38:Middlewares/ST/filex/common/src/fx_media_volume_get_extended.c **** /**************************************************************************/
  39:Middlewares/ST/filex/common/src/fx_media_volume_get_extended.c **** /*                                                                        */
  40:Middlewares/ST/filex/common/src/fx_media_volume_get_extended.c **** /*  FUNCTION                                               RELEASE        */
  41:Middlewares/ST/filex/common/src/fx_media_volume_get_extended.c **** /*                                                                        */
  42:Middlewares/ST/filex/common/src/fx_media_volume_get_extended.c **** /*    _fx_media_volume_get_extended                       PORTABLE C      */
  43:Middlewares/ST/filex/common/src/fx_media_volume_get_extended.c **** /*                                                           6.1.11       */
  44:Middlewares/ST/filex/common/src/fx_media_volume_get_extended.c **** /*  AUTHOR                                                                */
  45:Middlewares/ST/filex/common/src/fx_media_volume_get_extended.c **** /*                                                                        */
  46:Middlewares/ST/filex/common/src/fx_media_volume_get_extended.c **** /*    William E. Lamie, Microsoft Corporation                             */
  47:Middlewares/ST/filex/common/src/fx_media_volume_get_extended.c **** /*                                                                        */
  48:Middlewares/ST/filex/common/src/fx_media_volume_get_extended.c **** /*  DESCRIPTION                                                           */
  49:Middlewares/ST/filex/common/src/fx_media_volume_get_extended.c **** /*                                                                        */
  50:Middlewares/ST/filex/common/src/fx_media_volume_get_extended.c **** /*    This function reads the volume name stored in the media's boot      */
  51:Middlewares/ST/filex/common/src/fx_media_volume_get_extended.c **** /*    record or root directory.                                           */
  52:Middlewares/ST/filex/common/src/fx_media_volume_get_extended.c **** /*                                                                        */
  53:Middlewares/ST/filex/common/src/fx_media_volume_get_extended.c **** /*  INPUT                                                                 */
  54:Middlewares/ST/filex/common/src/fx_media_volume_get_extended.c **** /*                                                                        */
  55:Middlewares/ST/filex/common/src/fx_media_volume_get_extended.c **** /*    media_ptr                             Media control block pointer   */
  56:Middlewares/ST/filex/common/src/fx_media_volume_get_extended.c **** /*    volume_name                           Pointer to destination for    */
  57:Middlewares/ST/filex/common/src/fx_media_volume_get_extended.c **** /*                                            the volume name (maximum    */
  58:Middlewares/ST/filex/common/src/fx_media_volume_get_extended.c **** /*                                            11 characters + NULL)       */
  59:Middlewares/ST/filex/common/src/fx_media_volume_get_extended.c **** /*    volume_name_buffer_length             Buffer length for volume_name */
  60:Middlewares/ST/filex/common/src/fx_media_volume_get_extended.c **** /*    volume_source                         Source of volume              */
  61:Middlewares/ST/filex/common/src/fx_media_volume_get_extended.c **** /*                                                                        */
  62:Middlewares/ST/filex/common/src/fx_media_volume_get_extended.c **** /*  OUTPUT                                                                */
  63:Middlewares/ST/filex/common/src/fx_media_volume_get_extended.c **** /*                                                                        */
  64:Middlewares/ST/filex/common/src/fx_media_volume_get_extended.c **** /*    return status                                                       */
  65:Middlewares/ST/filex/common/src/fx_media_volume_get_extended.c **** /*                                                                        */
  66:Middlewares/ST/filex/common/src/fx_media_volume_get_extended.c **** /*  CALLS                                                                 */
  67:Middlewares/ST/filex/common/src/fx_media_volume_get_extended.c **** /*                                                                        */
  68:Middlewares/ST/filex/common/src/fx_media_volume_get_extended.c **** /*    _fx_utility_logical_sector_read       Read directory sector         */
  69:Middlewares/ST/filex/common/src/fx_media_volume_get_extended.c **** /*    _fx_directory_entry_read              Directory entry read          */
  70:Middlewares/ST/filex/common/src/fx_media_volume_get_extended.c **** /*                                                                        */
  71:Middlewares/ST/filex/common/src/fx_media_volume_get_extended.c **** /*  CALLED BY                                                             */
  72:Middlewares/ST/filex/common/src/fx_media_volume_get_extended.c **** /*                                                                        */
  73:Middlewares/ST/filex/common/src/fx_media_volume_get_extended.c **** /*    Application Code                                                    */
  74:Middlewares/ST/filex/common/src/fx_media_volume_get_extended.c **** /*                                                                        */
  75:Middlewares/ST/filex/common/src/fx_media_volume_get_extended.c **** /*  RELEASE HISTORY                                                       */
  76:Middlewares/ST/filex/common/src/fx_media_volume_get_extended.c **** /*                                                                        */
  77:Middlewares/ST/filex/common/src/fx_media_volume_get_extended.c **** /*    DATE              NAME                      DESCRIPTION             */
  78:Middlewares/ST/filex/common/src/fx_media_volume_get_extended.c **** /*                                                                        */
  79:Middlewares/ST/filex/common/src/fx_media_volume_get_extended.c **** /*  05-19-2020     William E. Lamie         Initial Version 6.0           */
  80:Middlewares/ST/filex/common/src/fx_media_volume_get_extended.c **** /*  09-30-2020     William E. Lamie         Modified comment(s),          */
  81:Middlewares/ST/filex/common/src/fx_media_volume_get_extended.c **** /*                                            resulting in version 6.1    */
  82:Middlewares/ST/filex/common/src/fx_media_volume_get_extended.c **** /*  04-25-2022     Bhupendra Naphade        Modified comment(s), and      */
  83:Middlewares/ST/filex/common/src/fx_media_volume_get_extended.c **** /*                                            updated check for           */
  84:Middlewares/ST/filex/common/src/fx_media_volume_get_extended.c **** /*                                            volume name,                */
  85:Middlewares/ST/filex/common/src/fx_media_volume_get_extended.c **** /*                                            resulting in version 6.1.11 */
  86:Middlewares/ST/filex/common/src/fx_media_volume_get_extended.c **** /*                                                                        */
ARM GAS  C:\Users\HP\AppData\Local\Temp\ccNhL92X.s 			page 3


  87:Middlewares/ST/filex/common/src/fx_media_volume_get_extended.c **** /**************************************************************************/
  88:Middlewares/ST/filex/common/src/fx_media_volume_get_extended.c **** UINT  _fx_media_volume_get_extended(FX_MEDIA *media_ptr, CHAR *volume_name, UINT volume_name_buffer
  89:Middlewares/ST/filex/common/src/fx_media_volume_get_extended.c **** {
  30              		.loc 1 89 1 view -0
  31              		.cfi_startproc
  32              		@ args = 0, pretend = 0, frame = 120
  33              		@ frame_needed = 0, uses_anonymous_args = 0
  34              		.loc 1 89 1 is_stmt 0 view .LVU1
  35 0000 2DE9F041 		push	{r4, r5, r6, r7, r8, lr}
  36              	.LCFI0:
  37              		.cfi_def_cfa_offset 24
  38              		.cfi_offset 4, -24
  39              		.cfi_offset 5, -20
  40              		.cfi_offset 6, -16
  41              		.cfi_offset 7, -12
  42              		.cfi_offset 8, -8
  43              		.cfi_offset 14, -4
  44 0004 A2B0     		sub	sp, sp, #136
  45              	.LCFI1:
  46              		.cfi_def_cfa_offset 160
  47 0006 0D46     		mov	r5, r1
  48 0008 1646     		mov	r6, r2
  90:Middlewares/ST/filex/common/src/fx_media_volume_get_extended.c **** 
  91:Middlewares/ST/filex/common/src/fx_media_volume_get_extended.c **** UINT         status, offset;
  49              		.loc 1 91 1 is_stmt 1 view .LVU2
  92:Middlewares/ST/filex/common/src/fx_media_volume_get_extended.c **** ULONG        i;
  50              		.loc 1 92 1 view .LVU3
  93:Middlewares/ST/filex/common/src/fx_media_volume_get_extended.c **** INT          j;
  51              		.loc 1 93 1 view .LVU4
  94:Middlewares/ST/filex/common/src/fx_media_volume_get_extended.c **** 
  95:Middlewares/ST/filex/common/src/fx_media_volume_get_extended.c **** #ifdef FX_ENABLE_EXFAT
  96:Middlewares/ST/filex/common/src/fx_media_volume_get_extended.c **** ULONG        character_count;
  97:Middlewares/ST/filex/common/src/fx_media_volume_get_extended.c **** #endif /* FX_ENABLE_EXFAT */
  98:Middlewares/ST/filex/common/src/fx_media_volume_get_extended.c **** FX_DIR_ENTRY dir_entry;
  52              		.loc 1 98 1 view .LVU5
  99:Middlewares/ST/filex/common/src/fx_media_volume_get_extended.c **** 
 100:Middlewares/ST/filex/common/src/fx_media_volume_get_extended.c **** 
 101:Middlewares/ST/filex/common/src/fx_media_volume_get_extended.c ****     /* Clear the volume name.  */
 102:Middlewares/ST/filex/common/src/fx_media_volume_get_extended.c ****     volume_name[0] =  FX_NULL;
  53              		.loc 1 102 5 view .LVU6
  54              		.loc 1 102 20 is_stmt 0 view .LVU7
  55 000a 0022     		movs	r2, #0
  56              	.LVL1:
  57              		.loc 1 102 20 view .LVU8
  58 000c 0A70     		strb	r2, [r1]
 103:Middlewares/ST/filex/common/src/fx_media_volume_get_extended.c **** 
 104:Middlewares/ST/filex/common/src/fx_media_volume_get_extended.c ****     /* Check the media to make sure it is open.  */
 105:Middlewares/ST/filex/common/src/fx_media_volume_get_extended.c ****     if (media_ptr -> fx_media_id != FX_MEDIA_ID)
  59              		.loc 1 105 5 is_stmt 1 view .LVU9
  60              		.loc 1 105 19 is_stmt 0 view .LVU10
  61 000e 0168     		ldr	r1, [r0]
  62              	.LVL2:
  63              		.loc 1 105 8 view .LVU11
  64 0010 664A     		ldr	r2, .L35
  65 0012 9142     		cmp	r1, r2
  66 0014 05D0     		beq	.L28
 106:Middlewares/ST/filex/common/src/fx_media_volume_get_extended.c ****     {
ARM GAS  C:\Users\HP\AppData\Local\Temp\ccNhL92X.s 			page 4


 107:Middlewares/ST/filex/common/src/fx_media_volume_get_extended.c **** 
 108:Middlewares/ST/filex/common/src/fx_media_volume_get_extended.c ****         /* Return the media not opened error.  */
 109:Middlewares/ST/filex/common/src/fx_media_volume_get_extended.c ****         return(FX_MEDIA_NOT_OPEN);
  67              		.loc 1 109 15 view .LVU12
  68 0016 4FF01108 		mov	r8, #17
  69              	.LVL3:
  70              	.L1:
 110:Middlewares/ST/filex/common/src/fx_media_volume_get_extended.c ****     }
 111:Middlewares/ST/filex/common/src/fx_media_volume_get_extended.c **** 
 112:Middlewares/ST/filex/common/src/fx_media_volume_get_extended.c ****     /* If trace is enabled, insert this event into the trace buffer.  */
 113:Middlewares/ST/filex/common/src/fx_media_volume_get_extended.c ****     FX_TRACE_IN_LINE_INSERT(FX_TRACE_MEDIA_VOLUME_GET, media_ptr, volume_name, volume_source, 0, FX
 114:Middlewares/ST/filex/common/src/fx_media_volume_get_extended.c **** 
 115:Middlewares/ST/filex/common/src/fx_media_volume_get_extended.c ****     /* Protect against other threads accessing the media.  */
 116:Middlewares/ST/filex/common/src/fx_media_volume_get_extended.c ****     FX_PROTECT
 117:Middlewares/ST/filex/common/src/fx_media_volume_get_extended.c **** 
 118:Middlewares/ST/filex/common/src/fx_media_volume_get_extended.c **** #ifdef FX_ENABLE_EXFAT
 119:Middlewares/ST/filex/common/src/fx_media_volume_get_extended.c ****     if (media_ptr -> fx_media_FAT_type == FX_exFAT)
 120:Middlewares/ST/filex/common/src/fx_media_volume_get_extended.c ****     {
 121:Middlewares/ST/filex/common/src/fx_media_volume_get_extended.c ****         volume_source = FX_DIRECTORY_SECTOR;
 122:Middlewares/ST/filex/common/src/fx_media_volume_get_extended.c ****     }
 123:Middlewares/ST/filex/common/src/fx_media_volume_get_extended.c **** #endif /* FX_ENABLE_EXFAT */
 124:Middlewares/ST/filex/common/src/fx_media_volume_get_extended.c **** 
 125:Middlewares/ST/filex/common/src/fx_media_volume_get_extended.c ****     /* Ensure the volume name is NULL initially.  */
 126:Middlewares/ST/filex/common/src/fx_media_volume_get_extended.c ****     volume_name[0] =  FX_NULL;
 127:Middlewares/ST/filex/common/src/fx_media_volume_get_extended.c **** 
 128:Middlewares/ST/filex/common/src/fx_media_volume_get_extended.c ****     if (volume_source == FX_DIRECTORY_SECTOR)
 129:Middlewares/ST/filex/common/src/fx_media_volume_get_extended.c ****     {
 130:Middlewares/ST/filex/common/src/fx_media_volume_get_extended.c **** 
 131:Middlewares/ST/filex/common/src/fx_media_volume_get_extended.c ****         /* Setup pointer to media name buffer.  */
 132:Middlewares/ST/filex/common/src/fx_media_volume_get_extended.c ****         dir_entry.fx_dir_entry_name =  media_ptr -> fx_media_name_buffer;
 133:Middlewares/ST/filex/common/src/fx_media_volume_get_extended.c **** 
 134:Middlewares/ST/filex/common/src/fx_media_volume_get_extended.c ****         /* Clear the short name string.  */
 135:Middlewares/ST/filex/common/src/fx_media_volume_get_extended.c ****         dir_entry.fx_dir_entry_short_name[0] =  0;
 136:Middlewares/ST/filex/common/src/fx_media_volume_get_extended.c **** 
 137:Middlewares/ST/filex/common/src/fx_media_volume_get_extended.c ****         /* Attempt to find the volume name in the root directory.  */
 138:Middlewares/ST/filex/common/src/fx_media_volume_get_extended.c ****         i =  0;
 139:Middlewares/ST/filex/common/src/fx_media_volume_get_extended.c ****         do
 140:Middlewares/ST/filex/common/src/fx_media_volume_get_extended.c ****         {
 141:Middlewares/ST/filex/common/src/fx_media_volume_get_extended.c **** 
 142:Middlewares/ST/filex/common/src/fx_media_volume_get_extended.c ****             /* Read an entry from the root directory.  */
 143:Middlewares/ST/filex/common/src/fx_media_volume_get_extended.c ****             status =  _fx_directory_entry_read(media_ptr, FX_NULL, &i, &dir_entry);
 144:Middlewares/ST/filex/common/src/fx_media_volume_get_extended.c **** 
 145:Middlewares/ST/filex/common/src/fx_media_volume_get_extended.c ****             /* Check for error status.  */
 146:Middlewares/ST/filex/common/src/fx_media_volume_get_extended.c ****             if (status != FX_SUCCESS)
 147:Middlewares/ST/filex/common/src/fx_media_volume_get_extended.c ****             {
 148:Middlewares/ST/filex/common/src/fx_media_volume_get_extended.c **** 
 149:Middlewares/ST/filex/common/src/fx_media_volume_get_extended.c ****                 /* Release media protection.  */
 150:Middlewares/ST/filex/common/src/fx_media_volume_get_extended.c ****                 FX_UNPROTECT
 151:Middlewares/ST/filex/common/src/fx_media_volume_get_extended.c **** 
 152:Middlewares/ST/filex/common/src/fx_media_volume_get_extended.c ****                 /* Return to caller.  */
 153:Middlewares/ST/filex/common/src/fx_media_volume_get_extended.c ****                 return(status);
 154:Middlewares/ST/filex/common/src/fx_media_volume_get_extended.c ****             }
 155:Middlewares/ST/filex/common/src/fx_media_volume_get_extended.c **** 
 156:Middlewares/ST/filex/common/src/fx_media_volume_get_extended.c ****             /* Check for a volume name.  */
 157:Middlewares/ST/filex/common/src/fx_media_volume_get_extended.c **** #ifdef FX_ENABLE_EXFAT
 158:Middlewares/ST/filex/common/src/fx_media_volume_get_extended.c ****             if (((media_ptr -> fx_media_FAT_type == FX_exFAT) && ((dir_entry.fx_dir_entry_attribute
 159:Middlewares/ST/filex/common/src/fx_media_volume_get_extended.c ****                     || ((media_ptr -> fx_media_FAT_type != FX_exFAT) && (dir_entry.fx_dir_entry_att
ARM GAS  C:\Users\HP\AppData\Local\Temp\ccNhL92X.s 			page 5


 160:Middlewares/ST/filex/common/src/fx_media_volume_get_extended.c **** #else
 161:Middlewares/ST/filex/common/src/fx_media_volume_get_extended.c ****             if ((dir_entry.fx_dir_entry_attributes & FX_VOLUME) && ((UCHAR)dir_entry.fx_dir_entry_n
 162:Middlewares/ST/filex/common/src/fx_media_volume_get_extended.c **** #endif /* FX_ENABLE_EXFAT */
 163:Middlewares/ST/filex/common/src/fx_media_volume_get_extended.c ****             {
 164:Middlewares/ST/filex/common/src/fx_media_volume_get_extended.c **** 
 165:Middlewares/ST/filex/common/src/fx_media_volume_get_extended.c ****                 /* Yes, we have found a previously set volume name.  */
 166:Middlewares/ST/filex/common/src/fx_media_volume_get_extended.c ****                 break;
 167:Middlewares/ST/filex/common/src/fx_media_volume_get_extended.c ****             }
 168:Middlewares/ST/filex/common/src/fx_media_volume_get_extended.c **** 
 169:Middlewares/ST/filex/common/src/fx_media_volume_get_extended.c ****             /* Move to next directory entry.  */
 170:Middlewares/ST/filex/common/src/fx_media_volume_get_extended.c ****             i++;
 171:Middlewares/ST/filex/common/src/fx_media_volume_get_extended.c ****         } while (i < media_ptr -> fx_media_root_directory_entries);
 172:Middlewares/ST/filex/common/src/fx_media_volume_get_extended.c **** 
 173:Middlewares/ST/filex/common/src/fx_media_volume_get_extended.c ****         /* Determine if a volume entry has been found.  */
 174:Middlewares/ST/filex/common/src/fx_media_volume_get_extended.c ****         if (i < media_ptr -> fx_media_root_directory_entries)
 175:Middlewares/ST/filex/common/src/fx_media_volume_get_extended.c ****         {
 176:Middlewares/ST/filex/common/src/fx_media_volume_get_extended.c **** 
 177:Middlewares/ST/filex/common/src/fx_media_volume_get_extended.c ****             /* Read the logical directory sector.  */
 178:Middlewares/ST/filex/common/src/fx_media_volume_get_extended.c ****             status =  _fx_utility_logical_sector_read(media_ptr, (ULONG64) dir_entry.fx_dir_entry_l
 179:Middlewares/ST/filex/common/src/fx_media_volume_get_extended.c ****                                                       media_ptr -> fx_media_memory_buffer, ((ULONG)
 180:Middlewares/ST/filex/common/src/fx_media_volume_get_extended.c **** 
 181:Middlewares/ST/filex/common/src/fx_media_volume_get_extended.c ****             /* Determine if an error occurred.  */
 182:Middlewares/ST/filex/common/src/fx_media_volume_get_extended.c ****             if (status != FX_SUCCESS)
 183:Middlewares/ST/filex/common/src/fx_media_volume_get_extended.c ****             {
 184:Middlewares/ST/filex/common/src/fx_media_volume_get_extended.c **** 
 185:Middlewares/ST/filex/common/src/fx_media_volume_get_extended.c ****                 /* Release media protection.  */
 186:Middlewares/ST/filex/common/src/fx_media_volume_get_extended.c ****                 FX_UNPROTECT
 187:Middlewares/ST/filex/common/src/fx_media_volume_get_extended.c **** 
 188:Middlewares/ST/filex/common/src/fx_media_volume_get_extended.c ****                 /* Return error code.  */
 189:Middlewares/ST/filex/common/src/fx_media_volume_get_extended.c ****                 return(status);
 190:Middlewares/ST/filex/common/src/fx_media_volume_get_extended.c ****             }
 191:Middlewares/ST/filex/common/src/fx_media_volume_get_extended.c **** 
 192:Middlewares/ST/filex/common/src/fx_media_volume_get_extended.c ****             /* Offset to volume label entry.  */
 193:Middlewares/ST/filex/common/src/fx_media_volume_get_extended.c ****             offset = dir_entry.fx_dir_entry_byte_offset;
 194:Middlewares/ST/filex/common/src/fx_media_volume_get_extended.c **** 
 195:Middlewares/ST/filex/common/src/fx_media_volume_get_extended.c **** #ifdef FX_ENABLE_EXFAT
 196:Middlewares/ST/filex/common/src/fx_media_volume_get_extended.c ****             if (media_ptr -> fx_media_FAT_type == FX_exFAT)
 197:Middlewares/ST/filex/common/src/fx_media_volume_get_extended.c ****             {
 198:Middlewares/ST/filex/common/src/fx_media_volume_get_extended.c **** 
 199:Middlewares/ST/filex/common/src/fx_media_volume_get_extended.c ****                 /* Read character count of volume label.  */
 200:Middlewares/ST/filex/common/src/fx_media_volume_get_extended.c ****                 character_count = media_ptr -> fx_media_memory_buffer[offset + FX_EXFAT_CHAR_COUNT]
 201:Middlewares/ST/filex/common/src/fx_media_volume_get_extended.c **** 
 202:Middlewares/ST/filex/common/src/fx_media_volume_get_extended.c ****                 /* Check if the buffer is too short for the name.  */
 203:Middlewares/ST/filex/common/src/fx_media_volume_get_extended.c ****                 if (character_count >= volume_name_buffer_length)
 204:Middlewares/ST/filex/common/src/fx_media_volume_get_extended.c ****                 {
 205:Middlewares/ST/filex/common/src/fx_media_volume_get_extended.c **** 
 206:Middlewares/ST/filex/common/src/fx_media_volume_get_extended.c ****                     /* Buffer too short, return error.  */
 207:Middlewares/ST/filex/common/src/fx_media_volume_get_extended.c ****                     status =  FX_BUFFER_ERROR;
 208:Middlewares/ST/filex/common/src/fx_media_volume_get_extended.c **** 
 209:Middlewares/ST/filex/common/src/fx_media_volume_get_extended.c ****                     /* Set character count to fit for the buffer.  */
 210:Middlewares/ST/filex/common/src/fx_media_volume_get_extended.c ****                     character_count = volume_name_buffer_length - 1;
 211:Middlewares/ST/filex/common/src/fx_media_volume_get_extended.c ****                 }
 212:Middlewares/ST/filex/common/src/fx_media_volume_get_extended.c **** 
 213:Middlewares/ST/filex/common/src/fx_media_volume_get_extended.c ****                 /* Move to volume label field.  */
 214:Middlewares/ST/filex/common/src/fx_media_volume_get_extended.c ****                 offset += FX_EXFAT_VOLUME_LABEL;
 215:Middlewares/ST/filex/common/src/fx_media_volume_get_extended.c **** 
 216:Middlewares/ST/filex/common/src/fx_media_volume_get_extended.c ****                 for (i = 0; i < character_count; i++)
ARM GAS  C:\Users\HP\AppData\Local\Temp\ccNhL92X.s 			page 6


 217:Middlewares/ST/filex/common/src/fx_media_volume_get_extended.c ****                 {
 218:Middlewares/ST/filex/common/src/fx_media_volume_get_extended.c **** 
 219:Middlewares/ST/filex/common/src/fx_media_volume_get_extended.c ****                     /* Read one character of volume label.  */
 220:Middlewares/ST/filex/common/src/fx_media_volume_get_extended.c ****                     volume_name[i] = (CHAR)_fx_utility_16_unsigned_read(&media_ptr -> fx_media_memo
 221:Middlewares/ST/filex/common/src/fx_media_volume_get_extended.c **** 
 222:Middlewares/ST/filex/common/src/fx_media_volume_get_extended.c ****                     /* Move to next character.  */
 223:Middlewares/ST/filex/common/src/fx_media_volume_get_extended.c ****                     offset += 2;
 224:Middlewares/ST/filex/common/src/fx_media_volume_get_extended.c ****                 }
 225:Middlewares/ST/filex/common/src/fx_media_volume_get_extended.c **** 
 226:Middlewares/ST/filex/common/src/fx_media_volume_get_extended.c ****                 /* NULL terminate the volume name.  */
 227:Middlewares/ST/filex/common/src/fx_media_volume_get_extended.c ****                 volume_name[i] =  FX_NULL;
 228:Middlewares/ST/filex/common/src/fx_media_volume_get_extended.c ****             }
 229:Middlewares/ST/filex/common/src/fx_media_volume_get_extended.c ****             else
 230:Middlewares/ST/filex/common/src/fx_media_volume_get_extended.c ****             {
 231:Middlewares/ST/filex/common/src/fx_media_volume_get_extended.c **** #endif /* FX_ENABLE_EXFAT */
 232:Middlewares/ST/filex/common/src/fx_media_volume_get_extended.c **** 
 233:Middlewares/ST/filex/common/src/fx_media_volume_get_extended.c ****                 /* Skip trailing space characters of volume name. */
 234:Middlewares/ST/filex/common/src/fx_media_volume_get_extended.c ****                 for (j = 10; j >= 0; j--)
 235:Middlewares/ST/filex/common/src/fx_media_volume_get_extended.c ****                 {
 236:Middlewares/ST/filex/common/src/fx_media_volume_get_extended.c **** 
 237:Middlewares/ST/filex/common/src/fx_media_volume_get_extended.c ****                     /* Check for space character.  */
 238:Middlewares/ST/filex/common/src/fx_media_volume_get_extended.c ****                     if (media_ptr -> fx_media_memory_buffer[offset + (UINT)j] != (UCHAR)' ')
 239:Middlewares/ST/filex/common/src/fx_media_volume_get_extended.c ****                     {
 240:Middlewares/ST/filex/common/src/fx_media_volume_get_extended.c **** 
 241:Middlewares/ST/filex/common/src/fx_media_volume_get_extended.c ****                         /* Last character found. */
 242:Middlewares/ST/filex/common/src/fx_media_volume_get_extended.c ****                         break;
 243:Middlewares/ST/filex/common/src/fx_media_volume_get_extended.c ****                     }
 244:Middlewares/ST/filex/common/src/fx_media_volume_get_extended.c ****                 }
 245:Middlewares/ST/filex/common/src/fx_media_volume_get_extended.c **** 
 246:Middlewares/ST/filex/common/src/fx_media_volume_get_extended.c ****                 /* Check if the buffer is too short for the name.  */
 247:Middlewares/ST/filex/common/src/fx_media_volume_get_extended.c ****                 if (j >= (INT)volume_name_buffer_length - 1)
 248:Middlewares/ST/filex/common/src/fx_media_volume_get_extended.c ****                 {
 249:Middlewares/ST/filex/common/src/fx_media_volume_get_extended.c **** 
 250:Middlewares/ST/filex/common/src/fx_media_volume_get_extended.c ****                     /* Buffer too short, return error.  */
 251:Middlewares/ST/filex/common/src/fx_media_volume_get_extended.c ****                     status =  FX_BUFFER_ERROR;
 252:Middlewares/ST/filex/common/src/fx_media_volume_get_extended.c **** 
 253:Middlewares/ST/filex/common/src/fx_media_volume_get_extended.c ****                     /* Set character count to fit for the buffer.  */
 254:Middlewares/ST/filex/common/src/fx_media_volume_get_extended.c ****                     j = (INT)volume_name_buffer_length - 2;
 255:Middlewares/ST/filex/common/src/fx_media_volume_get_extended.c ****                 }
 256:Middlewares/ST/filex/common/src/fx_media_volume_get_extended.c **** 
 257:Middlewares/ST/filex/common/src/fx_media_volume_get_extended.c ****                 /* NULL terminate the volume name.  */
 258:Middlewares/ST/filex/common/src/fx_media_volume_get_extended.c ****                 volume_name[j + 1] =  FX_NULL;
 259:Middlewares/ST/filex/common/src/fx_media_volume_get_extended.c **** 
 260:Middlewares/ST/filex/common/src/fx_media_volume_get_extended.c ****                 /* Pickup the remaining characters of the volume name from the boot sector.  */
 261:Middlewares/ST/filex/common/src/fx_media_volume_get_extended.c ****                 for (; j >= 0; j--)
 262:Middlewares/ST/filex/common/src/fx_media_volume_get_extended.c ****                 {
 263:Middlewares/ST/filex/common/src/fx_media_volume_get_extended.c **** 
 264:Middlewares/ST/filex/common/src/fx_media_volume_get_extended.c ****                     /* Pickup byte of volume name.  */
 265:Middlewares/ST/filex/common/src/fx_media_volume_get_extended.c ****                     volume_name[j] =  (CHAR)media_ptr -> fx_media_memory_buffer[offset + (UINT)j];
 266:Middlewares/ST/filex/common/src/fx_media_volume_get_extended.c ****                 }
 267:Middlewares/ST/filex/common/src/fx_media_volume_get_extended.c **** #ifdef FX_ENABLE_EXFAT
 268:Middlewares/ST/filex/common/src/fx_media_volume_get_extended.c ****             }
 269:Middlewares/ST/filex/common/src/fx_media_volume_get_extended.c **** #endif /* FX_ENABLE_EXFAT */
 270:Middlewares/ST/filex/common/src/fx_media_volume_get_extended.c **** 
 271:Middlewares/ST/filex/common/src/fx_media_volume_get_extended.c ****             /* Release media protection.  */
 272:Middlewares/ST/filex/common/src/fx_media_volume_get_extended.c ****             FX_UNPROTECT
 273:Middlewares/ST/filex/common/src/fx_media_volume_get_extended.c **** 
ARM GAS  C:\Users\HP\AppData\Local\Temp\ccNhL92X.s 			page 7


 274:Middlewares/ST/filex/common/src/fx_media_volume_get_extended.c ****             /* Return the completion status.  */
 275:Middlewares/ST/filex/common/src/fx_media_volume_get_extended.c ****             return(status);
 276:Middlewares/ST/filex/common/src/fx_media_volume_get_extended.c ****         }
 277:Middlewares/ST/filex/common/src/fx_media_volume_get_extended.c ****     }
 278:Middlewares/ST/filex/common/src/fx_media_volume_get_extended.c **** 
 279:Middlewares/ST/filex/common/src/fx_media_volume_get_extended.c ****     /* Read volume name from boot record.  */
 280:Middlewares/ST/filex/common/src/fx_media_volume_get_extended.c ****     /* Read the logical directory sector 0 - we just do this to get a memory_buffer pointer */
 281:Middlewares/ST/filex/common/src/fx_media_volume_get_extended.c ****     status =  _fx_utility_logical_sector_read(media_ptr, ((ULONG64) 0),
 282:Middlewares/ST/filex/common/src/fx_media_volume_get_extended.c ****                                               media_ptr -> fx_media_memory_buffer, ((ULONG) 1), FX_
 283:Middlewares/ST/filex/common/src/fx_media_volume_get_extended.c **** 
 284:Middlewares/ST/filex/common/src/fx_media_volume_get_extended.c ****     /* Check the return status.  */
 285:Middlewares/ST/filex/common/src/fx_media_volume_get_extended.c ****     if (status != FX_SUCCESS)
 286:Middlewares/ST/filex/common/src/fx_media_volume_get_extended.c ****     {
 287:Middlewares/ST/filex/common/src/fx_media_volume_get_extended.c **** 
 288:Middlewares/ST/filex/common/src/fx_media_volume_get_extended.c ****         /* Release media protection.  */
 289:Middlewares/ST/filex/common/src/fx_media_volume_get_extended.c ****         FX_UNPROTECT
 290:Middlewares/ST/filex/common/src/fx_media_volume_get_extended.c **** 
 291:Middlewares/ST/filex/common/src/fx_media_volume_get_extended.c ****         /* Return the error status.  */
 292:Middlewares/ST/filex/common/src/fx_media_volume_get_extended.c ****         return(status);
 293:Middlewares/ST/filex/common/src/fx_media_volume_get_extended.c ****     }
 294:Middlewares/ST/filex/common/src/fx_media_volume_get_extended.c **** 
 295:Middlewares/ST/filex/common/src/fx_media_volume_get_extended.c **** #ifndef FX_MEDIA_STATISTICS_DISABLE
 296:Middlewares/ST/filex/common/src/fx_media_volume_get_extended.c **** 
 297:Middlewares/ST/filex/common/src/fx_media_volume_get_extended.c ****     /* Increment the number of driver read boot sector requests.  */
 298:Middlewares/ST/filex/common/src/fx_media_volume_get_extended.c ****     media_ptr -> fx_media_driver_boot_read_requests++;
 299:Middlewares/ST/filex/common/src/fx_media_volume_get_extended.c **** #endif
 300:Middlewares/ST/filex/common/src/fx_media_volume_get_extended.c **** 
 301:Middlewares/ST/filex/common/src/fx_media_volume_get_extended.c ****     /* Build the driver request to read the boot record.  */
 302:Middlewares/ST/filex/common/src/fx_media_volume_get_extended.c ****     media_ptr -> fx_media_driver_request =      FX_DRIVER_BOOT_READ;
 303:Middlewares/ST/filex/common/src/fx_media_volume_get_extended.c ****     media_ptr -> fx_media_driver_status =       FX_IO_ERROR;
 304:Middlewares/ST/filex/common/src/fx_media_volume_get_extended.c ****     media_ptr -> fx_media_driver_buffer =       media_ptr -> fx_media_memory_buffer;
 305:Middlewares/ST/filex/common/src/fx_media_volume_get_extended.c ****     media_ptr -> fx_media_driver_sectors =      1;
 306:Middlewares/ST/filex/common/src/fx_media_volume_get_extended.c ****     media_ptr -> fx_media_driver_sector_type =  FX_BOOT_SECTOR;
 307:Middlewares/ST/filex/common/src/fx_media_volume_get_extended.c **** 
 308:Middlewares/ST/filex/common/src/fx_media_volume_get_extended.c ****     /* If trace is enabled, insert this event into the trace buffer.  */
 309:Middlewares/ST/filex/common/src/fx_media_volume_get_extended.c ****     FX_TRACE_IN_LINE_INSERT(FX_TRACE_INTERNAL_IO_DRIVER_BOOT_READ, media_ptr, media_ptr -> fx_media
 310:Middlewares/ST/filex/common/src/fx_media_volume_get_extended.c **** 
 311:Middlewares/ST/filex/common/src/fx_media_volume_get_extended.c ****     /* Invoke the driver to read the boot sector.  */
 312:Middlewares/ST/filex/common/src/fx_media_volume_get_extended.c ****     (media_ptr -> fx_media_driver_entry) (media_ptr);
 313:Middlewares/ST/filex/common/src/fx_media_volume_get_extended.c **** 
 314:Middlewares/ST/filex/common/src/fx_media_volume_get_extended.c ****     /* Determine if the request is successful.  */
 315:Middlewares/ST/filex/common/src/fx_media_volume_get_extended.c ****     if (media_ptr -> fx_media_driver_status)
 316:Middlewares/ST/filex/common/src/fx_media_volume_get_extended.c ****     {
 317:Middlewares/ST/filex/common/src/fx_media_volume_get_extended.c **** 
 318:Middlewares/ST/filex/common/src/fx_media_volume_get_extended.c ****         /* Release media protection.  */
 319:Middlewares/ST/filex/common/src/fx_media_volume_get_extended.c ****         FX_UNPROTECT
 320:Middlewares/ST/filex/common/src/fx_media_volume_get_extended.c **** 
 321:Middlewares/ST/filex/common/src/fx_media_volume_get_extended.c ****         /* An error occurred in the driver.  */
 322:Middlewares/ST/filex/common/src/fx_media_volume_get_extended.c ****         return(media_ptr -> fx_media_driver_status);
 323:Middlewares/ST/filex/common/src/fx_media_volume_get_extended.c ****     }
 324:Middlewares/ST/filex/common/src/fx_media_volume_get_extended.c **** 
 325:Middlewares/ST/filex/common/src/fx_media_volume_get_extended.c ****     /* Calculate the offset to the volume name based on the type of FAT.  */
 326:Middlewares/ST/filex/common/src/fx_media_volume_get_extended.c ****     if (media_ptr -> fx_media_32_bit_FAT)
 327:Middlewares/ST/filex/common/src/fx_media_volume_get_extended.c ****     {
 328:Middlewares/ST/filex/common/src/fx_media_volume_get_extended.c **** 
 329:Middlewares/ST/filex/common/src/fx_media_volume_get_extended.c ****         /* FAT32 offset to volume name.  */
 330:Middlewares/ST/filex/common/src/fx_media_volume_get_extended.c ****         offset =  FX_VOLUME_LABEL_32;
ARM GAS  C:\Users\HP\AppData\Local\Temp\ccNhL92X.s 			page 8


 331:Middlewares/ST/filex/common/src/fx_media_volume_get_extended.c ****     }
 332:Middlewares/ST/filex/common/src/fx_media_volume_get_extended.c ****     else
 333:Middlewares/ST/filex/common/src/fx_media_volume_get_extended.c ****     {
 334:Middlewares/ST/filex/common/src/fx_media_volume_get_extended.c **** 
 335:Middlewares/ST/filex/common/src/fx_media_volume_get_extended.c ****         /* FAT12/16 offset to volume name.  */
 336:Middlewares/ST/filex/common/src/fx_media_volume_get_extended.c ****         offset =  FX_VOLUME_LABEL;
 337:Middlewares/ST/filex/common/src/fx_media_volume_get_extended.c ****     }
 338:Middlewares/ST/filex/common/src/fx_media_volume_get_extended.c **** 
 339:Middlewares/ST/filex/common/src/fx_media_volume_get_extended.c ****     /* Skip trailing space characters of volume name. */
 340:Middlewares/ST/filex/common/src/fx_media_volume_get_extended.c ****     for (j = 10; j >= 0; j--)
 341:Middlewares/ST/filex/common/src/fx_media_volume_get_extended.c ****     {
 342:Middlewares/ST/filex/common/src/fx_media_volume_get_extended.c **** 
 343:Middlewares/ST/filex/common/src/fx_media_volume_get_extended.c ****         /* Check for space character.  */
 344:Middlewares/ST/filex/common/src/fx_media_volume_get_extended.c ****         if (media_ptr -> fx_media_memory_buffer[offset + (UINT)j] != (UCHAR)' ')
 345:Middlewares/ST/filex/common/src/fx_media_volume_get_extended.c ****         {
 346:Middlewares/ST/filex/common/src/fx_media_volume_get_extended.c **** 
 347:Middlewares/ST/filex/common/src/fx_media_volume_get_extended.c ****             /* Last character found. */
 348:Middlewares/ST/filex/common/src/fx_media_volume_get_extended.c ****             break;
 349:Middlewares/ST/filex/common/src/fx_media_volume_get_extended.c ****         }
 350:Middlewares/ST/filex/common/src/fx_media_volume_get_extended.c ****     }
 351:Middlewares/ST/filex/common/src/fx_media_volume_get_extended.c ****     
 352:Middlewares/ST/filex/common/src/fx_media_volume_get_extended.c ****     /* Check if the buffer is too short for the name.  */
 353:Middlewares/ST/filex/common/src/fx_media_volume_get_extended.c ****     if (j >= (INT)volume_name_buffer_length - 1)
 354:Middlewares/ST/filex/common/src/fx_media_volume_get_extended.c ****     {
 355:Middlewares/ST/filex/common/src/fx_media_volume_get_extended.c **** 
 356:Middlewares/ST/filex/common/src/fx_media_volume_get_extended.c ****         /* Buffer too short, return error.  */
 357:Middlewares/ST/filex/common/src/fx_media_volume_get_extended.c ****         status =  FX_BUFFER_ERROR;
 358:Middlewares/ST/filex/common/src/fx_media_volume_get_extended.c **** 
 359:Middlewares/ST/filex/common/src/fx_media_volume_get_extended.c ****         /* Set character count to fit for the buffer.  */
 360:Middlewares/ST/filex/common/src/fx_media_volume_get_extended.c ****         j = (INT)volume_name_buffer_length - 2;
 361:Middlewares/ST/filex/common/src/fx_media_volume_get_extended.c ****     }
 362:Middlewares/ST/filex/common/src/fx_media_volume_get_extended.c **** 
 363:Middlewares/ST/filex/common/src/fx_media_volume_get_extended.c ****     /* NULL terminate the volume name.  */
 364:Middlewares/ST/filex/common/src/fx_media_volume_get_extended.c ****     volume_name[j + 1] =  FX_NULL;
 365:Middlewares/ST/filex/common/src/fx_media_volume_get_extended.c **** 
 366:Middlewares/ST/filex/common/src/fx_media_volume_get_extended.c ****     /* Pickup the remaining characters of the volume name from the boot sector.  */
 367:Middlewares/ST/filex/common/src/fx_media_volume_get_extended.c ****     for (; j >= 0; j--)
 368:Middlewares/ST/filex/common/src/fx_media_volume_get_extended.c ****     {
 369:Middlewares/ST/filex/common/src/fx_media_volume_get_extended.c **** 
 370:Middlewares/ST/filex/common/src/fx_media_volume_get_extended.c ****         /* Pickup byte of volume name.  */
 371:Middlewares/ST/filex/common/src/fx_media_volume_get_extended.c ****         volume_name[j] =  (CHAR)media_ptr -> fx_media_memory_buffer[offset + (UINT)j];
 372:Middlewares/ST/filex/common/src/fx_media_volume_get_extended.c ****     }
 373:Middlewares/ST/filex/common/src/fx_media_volume_get_extended.c **** 
 374:Middlewares/ST/filex/common/src/fx_media_volume_get_extended.c ****     /* Release media protection.  */
 375:Middlewares/ST/filex/common/src/fx_media_volume_get_extended.c ****     FX_UNPROTECT
 376:Middlewares/ST/filex/common/src/fx_media_volume_get_extended.c **** 
 377:Middlewares/ST/filex/common/src/fx_media_volume_get_extended.c ****     /* Return the completion status.  */
 378:Middlewares/ST/filex/common/src/fx_media_volume_get_extended.c ****     return(status);
 379:Middlewares/ST/filex/common/src/fx_media_volume_get_extended.c **** }
  71              		.loc 1 379 1 view .LVU13
  72 001a 4046     		mov	r0, r8
  73 001c 22B0     		add	sp, sp, #136
  74              	.LCFI2:
  75              		.cfi_remember_state
  76              		.cfi_def_cfa_offset 24
  77              		@ sp needed
  78 001e BDE8F081 		pop	{r4, r5, r6, r7, r8, pc}
ARM GAS  C:\Users\HP\AppData\Local\Temp\ccNhL92X.s 			page 9


  79              	.LVL4:
  80              	.L28:
  81              	.LCFI3:
  82              		.cfi_restore_state
  83              		.loc 1 379 1 view .LVU14
  84 0022 0446     		mov	r4, r0
  85 0024 9846     		mov	r8, r3
 116:Middlewares/ST/filex/common/src/fx_media_volume_get_extended.c **** 
  86              		.loc 1 116 5 is_stmt 1 discriminator 2 view .LVU15
 116:Middlewares/ST/filex/common/src/fx_media_volume_get_extended.c **** 
  87              		.loc 1 116 5 discriminator 2 view .LVU16
  88 0026 00F5E477 		add	r7, r0, #456
  89 002a 4FF0FF31 		mov	r1, #-1
  90 002e 3846     		mov	r0, r7
  91              	.LVL5:
 116:Middlewares/ST/filex/common/src/fx_media_volume_get_extended.c **** 
  92              		.loc 1 116 5 is_stmt 0 discriminator 2 view .LVU17
  93 0030 FFF7FEFF 		bl	_tx_mutex_get
  94              	.LVL6:
 116:Middlewares/ST/filex/common/src/fx_media_volume_get_extended.c **** 
  95              		.loc 1 116 5 discriminator 2 view .LVU18
  96 0034 0028     		cmp	r0, #0
  97 0036 40F0B680 		bne	.L25
 126:Middlewares/ST/filex/common/src/fx_media_volume_get_extended.c **** 
  98              		.loc 1 126 5 is_stmt 1 view .LVU19
 126:Middlewares/ST/filex/common/src/fx_media_volume_get_extended.c **** 
  99              		.loc 1 126 20 is_stmt 0 view .LVU20
 100 003a 0023     		movs	r3, #0
 101 003c 2B70     		strb	r3, [r5]
 128:Middlewares/ST/filex/common/src/fx_media_volume_get_extended.c ****     {
 102              		.loc 1 128 5 is_stmt 1 view .LVU21
 128:Middlewares/ST/filex/common/src/fx_media_volume_get_extended.c ****     {
 103              		.loc 1 128 8 is_stmt 0 view .LVU22
 104 003e B8F1030F 		cmp	r8, #3
 105 0042 27D1     		bne	.L3
 132:Middlewares/ST/filex/common/src/fx_media_volume_get_extended.c **** 
 106              		.loc 1 132 9 is_stmt 1 view .LVU23
 132:Middlewares/ST/filex/common/src/fx_media_volume_get_extended.c **** 
 107              		.loc 1 132 40 is_stmt 0 view .LVU24
 108 0044 04F69C03 		addw	r3, r4, #2204
 132:Middlewares/ST/filex/common/src/fx_media_volume_get_extended.c **** 
 109              		.loc 1 132 37 view .LVU25
 110 0048 0493     		str	r3, [sp, #16]
 135:Middlewares/ST/filex/common/src/fx_media_volume_get_extended.c **** 
 111              		.loc 1 135 9 is_stmt 1 view .LVU26
 135:Middlewares/ST/filex/common/src/fx_media_volume_get_extended.c **** 
 112              		.loc 1 135 46 is_stmt 0 view .LVU27
 113 004a 0023     		movs	r3, #0
 114 004c 8DF81430 		strb	r3, [sp, #20]
 138:Middlewares/ST/filex/common/src/fx_media_volume_get_extended.c ****         do
 115              		.loc 1 138 9 is_stmt 1 view .LVU28
 138:Middlewares/ST/filex/common/src/fx_media_volume_get_extended.c ****         do
 116              		.loc 1 138 11 is_stmt 0 view .LVU29
 117 0050 2193     		str	r3, [sp, #132]
 118 0052 09E0     		b	.L7
 119              	.LVL7:
 120              	.L29:
ARM GAS  C:\Users\HP\AppData\Local\Temp\ccNhL92X.s 			page 10


 150:Middlewares/ST/filex/common/src/fx_media_volume_get_extended.c **** 
 121              		.loc 1 150 17 is_stmt 1 view .LVU30
 122 0054 3846     		mov	r0, r7
 123              	.LVL8:
 150:Middlewares/ST/filex/common/src/fx_media_volume_get_extended.c **** 
 124              		.loc 1 150 17 is_stmt 0 view .LVU31
 125 0056 FFF7FEFF 		bl	_tx_mutex_put
 126              	.LVL9:
 153:Middlewares/ST/filex/common/src/fx_media_volume_get_extended.c ****             }
 127              		.loc 1 153 17 is_stmt 1 view .LVU32
 153:Middlewares/ST/filex/common/src/fx_media_volume_get_extended.c ****             }
 128              		.loc 1 153 23 is_stmt 0 view .LVU33
 129 005a DEE7     		b	.L1
 130              	.LVL10:
 131              	.L5:
 170:Middlewares/ST/filex/common/src/fx_media_volume_get_extended.c ****         } while (i < media_ptr -> fx_media_root_directory_entries);
 132              		.loc 1 170 13 is_stmt 1 view .LVU34
 170:Middlewares/ST/filex/common/src/fx_media_volume_get_extended.c ****         } while (i < media_ptr -> fx_media_root_directory_entries);
 133              		.loc 1 170 14 is_stmt 0 view .LVU35
 134 005c 219B     		ldr	r3, [sp, #132]
 135 005e 0133     		adds	r3, r3, #1
 136 0060 2193     		str	r3, [sp, #132]
 171:Middlewares/ST/filex/common/src/fx_media_volume_get_extended.c **** 
 137              		.loc 1 171 17 is_stmt 1 view .LVU36
 171:Middlewares/ST/filex/common/src/fx_media_volume_get_extended.c **** 
 138              		.loc 1 171 32 is_stmt 0 view .LVU37
 139 0062 A26F     		ldr	r2, [r4, #120]
 171:Middlewares/ST/filex/common/src/fx_media_volume_get_extended.c **** 
 140              		.loc 1 171 9 view .LVU38
 141 0064 9342     		cmp	r3, r2
 142 0066 11D2     		bcs	.L6
 143              	.LVL11:
 144              	.L7:
 139:Middlewares/ST/filex/common/src/fx_media_volume_get_extended.c ****         {
 145              		.loc 1 139 9 is_stmt 1 view .LVU39
 143:Middlewares/ST/filex/common/src/fx_media_volume_get_extended.c **** 
 146              		.loc 1 143 13 view .LVU40
 143:Middlewares/ST/filex/common/src/fx_media_volume_get_extended.c **** 
 147              		.loc 1 143 23 is_stmt 0 view .LVU41
 148 0068 04AB     		add	r3, sp, #16
 149 006a 21AA     		add	r2, sp, #132
 150 006c 0021     		movs	r1, #0
 151 006e 2046     		mov	r0, r4
 152 0070 FFF7FEFF 		bl	_fx_directory_entry_read
 153              	.LVL12:
 146:Middlewares/ST/filex/common/src/fx_media_volume_get_extended.c ****             {
 154              		.loc 1 146 13 is_stmt 1 view .LVU42
 146:Middlewares/ST/filex/common/src/fx_media_volume_get_extended.c ****             {
 155              		.loc 1 146 16 is_stmt 0 view .LVU43
 156 0074 8046     		mov	r8, r0
 157 0076 0028     		cmp	r0, #0
 158 0078 ECD1     		bne	.L29
 161:Middlewares/ST/filex/common/src/fx_media_volume_get_extended.c **** #endif /* FX_ENABLE_EXFAT */
 159              		.loc 1 161 13 is_stmt 1 view .LVU44
 161:Middlewares/ST/filex/common/src/fx_media_volume_get_extended.c **** #endif /* FX_ENABLE_EXFAT */
 160              		.loc 1 161 27 is_stmt 0 view .LVU45
 161 007a 9DF82C30 		ldrb	r3, [sp, #44]	@ zero_extendqisi2
ARM GAS  C:\Users\HP\AppData\Local\Temp\ccNhL92X.s 			page 11


 161:Middlewares/ST/filex/common/src/fx_media_volume_get_extended.c **** #endif /* FX_ENABLE_EXFAT */
 162              		.loc 1 161 16 view .LVU46
 163 007e 13F0080F 		tst	r3, #8
 164 0082 EBD0     		beq	.L5
 161:Middlewares/ST/filex/common/src/fx_media_volume_get_extended.c **** #endif /* FX_ENABLE_EXFAT */
 165              		.loc 1 161 85 discriminator 1 view .LVU47
 166 0084 049B     		ldr	r3, [sp, #16]
 161:Middlewares/ST/filex/common/src/fx_media_volume_get_extended.c **** #endif /* FX_ENABLE_EXFAT */
 167              		.loc 1 161 103 discriminator 1 view .LVU48
 168 0086 1B78     		ldrb	r3, [r3]	@ zero_extendqisi2
 161:Middlewares/ST/filex/common/src/fx_media_volume_get_extended.c **** #endif /* FX_ENABLE_EXFAT */
 169              		.loc 1 161 65 discriminator 1 view .LVU49
 170 0088 E52B     		cmp	r3, #229
 171 008a E7D0     		beq	.L5
 172              	.L6:
 174:Middlewares/ST/filex/common/src/fx_media_volume_get_extended.c ****         {
 173              		.loc 1 174 9 is_stmt 1 view .LVU50
 174:Middlewares/ST/filex/common/src/fx_media_volume_get_extended.c ****         {
 174              		.loc 1 174 27 is_stmt 0 view .LVU51
 175 008c A26F     		ldr	r2, [r4, #120]
 174:Middlewares/ST/filex/common/src/fx_media_volume_get_extended.c ****         {
 176              		.loc 1 174 15 view .LVU52
 177 008e 219B     		ldr	r3, [sp, #132]
 174:Middlewares/ST/filex/common/src/fx_media_volume_get_extended.c ****         {
 178              		.loc 1 174 12 view .LVU53
 179 0090 9A42     		cmp	r2, r3
 180 0092 36D8     		bhi	.L30
 181              	.LVL13:
 182              	.L3:
 281:Middlewares/ST/filex/common/src/fx_media_volume_get_extended.c ****                                               media_ptr -> fx_media_memory_buffer, ((ULONG) 1), FX_
 183              		.loc 1 281 5 is_stmt 1 view .LVU54
 282:Middlewares/ST/filex/common/src/fx_media_volume_get_extended.c **** 
 184              		.loc 1 282 57 is_stmt 0 view .LVU55
 185 0094 A368     		ldr	r3, [r4, #8]
 281:Middlewares/ST/filex/common/src/fx_media_volume_get_extended.c ****                                               media_ptr -> fx_media_memory_buffer, ((ULONG) 1), FX_
 186              		.loc 1 281 15 view .LVU56
 187 0096 0422     		movs	r2, #4
 188 0098 0292     		str	r2, [sp, #8]
 189 009a 0122     		movs	r2, #1
 190 009c 0192     		str	r2, [sp, #4]
 191 009e 0093     		str	r3, [sp]
 192 00a0 0022     		movs	r2, #0
 193 00a2 0023     		movs	r3, #0
 194 00a4 2046     		mov	r0, r4
 195 00a6 FFF7FEFF 		bl	_fx_utility_logical_sector_read
 196              	.LVL14:
 285:Middlewares/ST/filex/common/src/fx_media_volume_get_extended.c ****     {
 197              		.loc 1 285 5 is_stmt 1 view .LVU57
 285:Middlewares/ST/filex/common/src/fx_media_volume_get_extended.c ****     {
 198              		.loc 1 285 8 is_stmt 0 view .LVU58
 199 00aa 8046     		mov	r8, r0
 200 00ac 0028     		cmp	r0, #0
 201 00ae 59D1     		bne	.L31
 298:Middlewares/ST/filex/common/src/fx_media_volume_get_extended.c **** #endif
 202              		.loc 1 298 5 is_stmt 1 view .LVU59
 298:Middlewares/ST/filex/common/src/fx_media_volume_get_extended.c **** #endif
 203              		.loc 1 298 15 is_stmt 0 view .LVU60
ARM GAS  C:\Users\HP\AppData\Local\Temp\ccNhL92X.s 			page 12


 204 00b0 D4F8B431 		ldr	r3, [r4, #436]
 298:Middlewares/ST/filex/common/src/fx_media_volume_get_extended.c **** #endif
 205              		.loc 1 298 52 view .LVU61
 206 00b4 0133     		adds	r3, r3, #1
 207 00b6 C4F8B431 		str	r3, [r4, #436]
 302:Middlewares/ST/filex/common/src/fx_media_volume_get_extended.c ****     media_ptr -> fx_media_driver_status =       FX_IO_ERROR;
 208              		.loc 1 302 5 is_stmt 1 view .LVU62
 302:Middlewares/ST/filex/common/src/fx_media_volume_get_extended.c ****     media_ptr -> fx_media_driver_status =       FX_IO_ERROR;
 209              		.loc 1 302 42 is_stmt 0 view .LVU63
 210 00ba 0523     		movs	r3, #5
 211 00bc C4F88830 		str	r3, [r4, #136]
 303:Middlewares/ST/filex/common/src/fx_media_volume_get_extended.c ****     media_ptr -> fx_media_driver_buffer =       media_ptr -> fx_media_memory_buffer;
 212              		.loc 1 303 5 is_stmt 1 view .LVU64
 303:Middlewares/ST/filex/common/src/fx_media_volume_get_extended.c ****     media_ptr -> fx_media_driver_buffer =       media_ptr -> fx_media_memory_buffer;
 213              		.loc 1 303 41 is_stmt 0 view .LVU65
 214 00c0 9023     		movs	r3, #144
 215 00c2 C4F88C30 		str	r3, [r4, #140]
 304:Middlewares/ST/filex/common/src/fx_media_volume_get_extended.c ****     media_ptr -> fx_media_driver_sectors =      1;
 216              		.loc 1 304 5 is_stmt 1 view .LVU66
 304:Middlewares/ST/filex/common/src/fx_media_volume_get_extended.c ****     media_ptr -> fx_media_driver_sectors =      1;
 217              		.loc 1 304 59 is_stmt 0 view .LVU67
 218 00c6 A368     		ldr	r3, [r4, #8]
 304:Middlewares/ST/filex/common/src/fx_media_volume_get_extended.c ****     media_ptr -> fx_media_driver_sectors =      1;
 219              		.loc 1 304 41 view .LVU68
 220 00c8 C4F89030 		str	r3, [r4, #144]
 305:Middlewares/ST/filex/common/src/fx_media_volume_get_extended.c ****     media_ptr -> fx_media_driver_sector_type =  FX_BOOT_SECTOR;
 221              		.loc 1 305 5 is_stmt 1 view .LVU69
 305:Middlewares/ST/filex/common/src/fx_media_volume_get_extended.c ****     media_ptr -> fx_media_driver_sector_type =  FX_BOOT_SECTOR;
 222              		.loc 1 305 42 is_stmt 0 view .LVU70
 223 00cc 0123     		movs	r3, #1
 224 00ce C4F89830 		str	r3, [r4, #152]
 306:Middlewares/ST/filex/common/src/fx_media_volume_get_extended.c **** 
 225              		.loc 1 306 5 is_stmt 1 view .LVU71
 306:Middlewares/ST/filex/common/src/fx_media_volume_get_extended.c **** 
 226              		.loc 1 306 46 is_stmt 0 view .LVU72
 227 00d2 C4F8B830 		str	r3, [r4, #184]
 312:Middlewares/ST/filex/common/src/fx_media_volume_get_extended.c **** 
 228              		.loc 1 312 5 is_stmt 1 view .LVU73
 312:Middlewares/ST/filex/common/src/fx_media_volume_get_extended.c **** 
 229              		.loc 1 312 16 is_stmt 0 view .LVU74
 230 00d6 D4F8BC30 		ldr	r3, [r4, #188]
 231 00da 2046     		mov	r0, r4
 232              	.LVL15:
 312:Middlewares/ST/filex/common/src/fx_media_volume_get_extended.c **** 
 233              		.loc 1 312 16 view .LVU75
 234 00dc 9847     		blx	r3
 235              	.LVL16:
 315:Middlewares/ST/filex/common/src/fx_media_volume_get_extended.c ****     {
 236              		.loc 1 315 5 is_stmt 1 view .LVU76
 315:Middlewares/ST/filex/common/src/fx_media_volume_get_extended.c ****     {
 237              		.loc 1 315 19 is_stmt 0 view .LVU77
 238 00de D4F88C30 		ldr	r3, [r4, #140]
 315:Middlewares/ST/filex/common/src/fx_media_volume_get_extended.c ****     {
 239              		.loc 1 315 8 view .LVU78
 240 00e2 002B     		cmp	r3, #0
 241 00e4 42D1     		bne	.L32
 326:Middlewares/ST/filex/common/src/fx_media_volume_get_extended.c ****     {
ARM GAS  C:\Users\HP\AppData\Local\Temp\ccNhL92X.s 			page 13


 242              		.loc 1 326 5 is_stmt 1 view .LVU79
 326:Middlewares/ST/filex/common/src/fx_media_volume_get_extended.c ****     {
 243              		.loc 1 326 19 is_stmt 0 view .LVU80
 244 00e6 636E     		ldr	r3, [r4, #100]
 326:Middlewares/ST/filex/common/src/fx_media_volume_get_extended.c ****     {
 245              		.loc 1 326 8 view .LVU81
 246 00e8 002B     		cmp	r3, #0
 247 00ea 45D0     		beq	.L26
 330:Middlewares/ST/filex/common/src/fx_media_volume_get_extended.c ****     }
 248              		.loc 1 330 16 view .LVU82
 249 00ec 4720     		movs	r0, #71
 250              	.L17:
 251              	.LVL17:
 340:Middlewares/ST/filex/common/src/fx_media_volume_get_extended.c ****     {
 252              		.loc 1 340 5 is_stmt 1 view .LVU83
 340:Middlewares/ST/filex/common/src/fx_media_volume_get_extended.c ****     {
 253              		.loc 1 340 12 is_stmt 0 view .LVU84
 254 00ee 0A23     		movs	r3, #10
 255              	.LVL18:
 256              	.L18:
 340:Middlewares/ST/filex/common/src/fx_media_volume_get_extended.c ****     {
 257              		.loc 1 340 18 is_stmt 1 discriminator 1 view .LVU85
 340:Middlewares/ST/filex/common/src/fx_media_volume_get_extended.c ****     {
 258              		.loc 1 340 5 is_stmt 0 discriminator 1 view .LVU86
 259 00f0 002B     		cmp	r3, #0
 260 00f2 43DB     		blt	.L19
 344:Middlewares/ST/filex/common/src/fx_media_volume_get_extended.c ****         {
 261              		.loc 1 344 9 is_stmt 1 view .LVU87
 344:Middlewares/ST/filex/common/src/fx_media_volume_get_extended.c ****         {
 262              		.loc 1 344 23 is_stmt 0 view .LVU88
 263 00f4 A168     		ldr	r1, [r4, #8]
 344:Middlewares/ST/filex/common/src/fx_media_volume_get_extended.c ****         {
 264              		.loc 1 344 56 view .LVU89
 265 00f6 1A18     		adds	r2, r3, r0
 344:Middlewares/ST/filex/common/src/fx_media_volume_get_extended.c ****         {
 266              		.loc 1 344 48 view .LVU90
 267 00f8 8A5C     		ldrb	r2, [r1, r2]	@ zero_extendqisi2
 344:Middlewares/ST/filex/common/src/fx_media_volume_get_extended.c ****         {
 268              		.loc 1 344 12 view .LVU91
 269 00fa 202A     		cmp	r2, #32
 270 00fc 3ED1     		bne	.L19
 340:Middlewares/ST/filex/common/src/fx_media_volume_get_extended.c ****     {
 271              		.loc 1 340 26 is_stmt 1 discriminator 2 view .LVU92
 340:Middlewares/ST/filex/common/src/fx_media_volume_get_extended.c ****     {
 272              		.loc 1 340 27 is_stmt 0 discriminator 2 view .LVU93
 273 00fe 013B     		subs	r3, r3, #1
 274              	.LVL19:
 340:Middlewares/ST/filex/common/src/fx_media_volume_get_extended.c ****     {
 275              		.loc 1 340 27 discriminator 2 view .LVU94
 276 0100 F6E7     		b	.L18
 277              	.LVL20:
 278              	.L30:
 178:Middlewares/ST/filex/common/src/fx_media_volume_get_extended.c ****                                                       media_ptr -> fx_media_memory_buffer, ((ULONG)
 279              		.loc 1 178 13 is_stmt 1 view .LVU95
 179:Middlewares/ST/filex/common/src/fx_media_volume_get_extended.c **** 
 280              		.loc 1 179 65 is_stmt 0 view .LVU96
 281 0102 A368     		ldr	r3, [r4, #8]
ARM GAS  C:\Users\HP\AppData\Local\Temp\ccNhL92X.s 			page 14


 178:Middlewares/ST/filex/common/src/fx_media_volume_get_extended.c ****                                                       media_ptr -> fx_media_memory_buffer, ((ULONG)
 282              		.loc 1 178 23 view .LVU97
 283 0104 0322     		movs	r2, #3
 284 0106 0292     		str	r2, [sp, #8]
 285 0108 0122     		movs	r2, #1
 286 010a 0192     		str	r2, [sp, #4]
 287 010c 0093     		str	r3, [sp]
 288 010e DDE91423 		ldrd	r2, [sp, #80]
 289 0112 2046     		mov	r0, r4
 290              	.LVL21:
 178:Middlewares/ST/filex/common/src/fx_media_volume_get_extended.c ****                                                       media_ptr -> fx_media_memory_buffer, ((ULONG)
 291              		.loc 1 178 23 view .LVU98
 292 0114 FFF7FEFF 		bl	_fx_utility_logical_sector_read
 293              	.LVL22:
 182:Middlewares/ST/filex/common/src/fx_media_volume_get_extended.c ****             {
 294              		.loc 1 182 13 is_stmt 1 view .LVU99
 182:Middlewares/ST/filex/common/src/fx_media_volume_get_extended.c ****             {
 295              		.loc 1 182 16 is_stmt 0 view .LVU100
 296 0118 8046     		mov	r8, r0
 297 011a 50B9     		cbnz	r0, .L33
 193:Middlewares/ST/filex/common/src/fx_media_volume_get_extended.c **** 
 298              		.loc 1 193 13 is_stmt 1 view .LVU101
 193:Middlewares/ST/filex/common/src/fx_media_volume_get_extended.c **** 
 299              		.loc 1 193 20 is_stmt 0 view .LVU102
 300 011c 1698     		ldr	r0, [sp, #88]
 301              	.LVL23:
 234:Middlewares/ST/filex/common/src/fx_media_volume_get_extended.c ****                 {
 302              		.loc 1 234 17 is_stmt 1 view .LVU103
 234:Middlewares/ST/filex/common/src/fx_media_volume_get_extended.c ****                 {
 303              		.loc 1 234 24 is_stmt 0 view .LVU104
 304 011e 0A23     		movs	r3, #10
 305              	.LVL24:
 306              	.L9:
 234:Middlewares/ST/filex/common/src/fx_media_volume_get_extended.c ****                 {
 307              		.loc 1 234 30 is_stmt 1 discriminator 1 view .LVU105
 234:Middlewares/ST/filex/common/src/fx_media_volume_get_extended.c ****                 {
 308              		.loc 1 234 17 is_stmt 0 discriminator 1 view .LVU106
 309 0120 002B     		cmp	r3, #0
 310 0122 0ADB     		blt	.L10
 238:Middlewares/ST/filex/common/src/fx_media_volume_get_extended.c ****                     {
 311              		.loc 1 238 21 is_stmt 1 view .LVU107
 238:Middlewares/ST/filex/common/src/fx_media_volume_get_extended.c ****                     {
 312              		.loc 1 238 35 is_stmt 0 view .LVU108
 313 0124 A168     		ldr	r1, [r4, #8]
 238:Middlewares/ST/filex/common/src/fx_media_volume_get_extended.c ****                     {
 314              		.loc 1 238 68 view .LVU109
 315 0126 1A18     		adds	r2, r3, r0
 238:Middlewares/ST/filex/common/src/fx_media_volume_get_extended.c ****                     {
 316              		.loc 1 238 60 view .LVU110
 317 0128 8A5C     		ldrb	r2, [r1, r2]	@ zero_extendqisi2
 238:Middlewares/ST/filex/common/src/fx_media_volume_get_extended.c ****                     {
 318              		.loc 1 238 24 view .LVU111
 319 012a 202A     		cmp	r2, #32
 320 012c 05D1     		bne	.L10
 234:Middlewares/ST/filex/common/src/fx_media_volume_get_extended.c ****                 {
 321              		.loc 1 234 38 is_stmt 1 discriminator 2 view .LVU112
 234:Middlewares/ST/filex/common/src/fx_media_volume_get_extended.c ****                 {
ARM GAS  C:\Users\HP\AppData\Local\Temp\ccNhL92X.s 			page 15


 322              		.loc 1 234 39 is_stmt 0 discriminator 2 view .LVU113
 323 012e 013B     		subs	r3, r3, #1
 324              	.LVL25:
 234:Middlewares/ST/filex/common/src/fx_media_volume_get_extended.c ****                 {
 325              		.loc 1 234 39 discriminator 2 view .LVU114
 326 0130 F6E7     		b	.L9
 327              	.LVL26:
 328              	.L33:
 186:Middlewares/ST/filex/common/src/fx_media_volume_get_extended.c **** 
 329              		.loc 1 186 17 is_stmt 1 view .LVU115
 330 0132 3846     		mov	r0, r7
 331              	.LVL27:
 186:Middlewares/ST/filex/common/src/fx_media_volume_get_extended.c **** 
 332              		.loc 1 186 17 is_stmt 0 view .LVU116
 333 0134 FFF7FEFF 		bl	_tx_mutex_put
 334              	.LVL28:
 189:Middlewares/ST/filex/common/src/fx_media_volume_get_extended.c ****             }
 335              		.loc 1 189 17 is_stmt 1 view .LVU117
 189:Middlewares/ST/filex/common/src/fx_media_volume_get_extended.c ****             }
 336              		.loc 1 189 23 is_stmt 0 view .LVU118
 337 0138 6FE7     		b	.L1
 338              	.LVL29:
 339              	.L10:
 247:Middlewares/ST/filex/common/src/fx_media_volume_get_extended.c ****                 {
 340              		.loc 1 247 17 is_stmt 1 view .LVU119
 247:Middlewares/ST/filex/common/src/fx_media_volume_get_extended.c ****                 {
 341              		.loc 1 247 57 is_stmt 0 view .LVU120
 342 013a 721E     		subs	r2, r6, #1
 247:Middlewares/ST/filex/common/src/fx_media_volume_get_extended.c ****                 {
 343              		.loc 1 247 20 view .LVU121
 344 013c 9A42     		cmp	r2, r3
 345 013e 02DC     		bgt	.L12
 251:Middlewares/ST/filex/common/src/fx_media_volume_get_extended.c **** 
 346              		.loc 1 251 21 is_stmt 1 view .LVU122
 347              	.LVL30:
 254:Middlewares/ST/filex/common/src/fx_media_volume_get_extended.c ****                 }
 348              		.loc 1 254 21 view .LVU123
 254:Middlewares/ST/filex/common/src/fx_media_volume_get_extended.c ****                 }
 349              		.loc 1 254 23 is_stmt 0 view .LVU124
 350 0140 B31E     		subs	r3, r6, #2
 351              	.LVL31:
 251:Middlewares/ST/filex/common/src/fx_media_volume_get_extended.c **** 
 352              		.loc 1 251 28 view .LVU125
 353 0142 4FF02108 		mov	r8, #33
 354              	.LVL32:
 355              	.L12:
 258:Middlewares/ST/filex/common/src/fx_media_volume_get_extended.c **** 
 356              		.loc 1 258 17 is_stmt 1 view .LVU126
 258:Middlewares/ST/filex/common/src/fx_media_volume_get_extended.c **** 
 357              		.loc 1 258 28 is_stmt 0 view .LVU127
 358 0146 5A1C     		adds	r2, r3, #1
 258:Middlewares/ST/filex/common/src/fx_media_volume_get_extended.c **** 
 359              		.loc 1 258 36 view .LVU128
 360 0148 0021     		movs	r1, #0
 361 014a A954     		strb	r1, [r5, r2]
 261:Middlewares/ST/filex/common/src/fx_media_volume_get_extended.c ****                 {
 362              		.loc 1 261 17 is_stmt 1 view .LVU129
ARM GAS  C:\Users\HP\AppData\Local\Temp\ccNhL92X.s 			page 16


 363 014c 04E0     		b	.L13
 364              	.L14:
 265:Middlewares/ST/filex/common/src/fx_media_volume_get_extended.c ****                 }
 365              		.loc 1 265 21 discriminator 2 view .LVU130
 265:Middlewares/ST/filex/common/src/fx_media_volume_get_extended.c ****                 }
 366              		.loc 1 265 55 is_stmt 0 discriminator 2 view .LVU131
 367 014e A168     		ldr	r1, [r4, #8]
 265:Middlewares/ST/filex/common/src/fx_media_volume_get_extended.c ****                 }
 368              		.loc 1 265 88 discriminator 2 view .LVU132
 369 0150 1A18     		adds	r2, r3, r0
 265:Middlewares/ST/filex/common/src/fx_media_volume_get_extended.c ****                 }
 370              		.loc 1 265 39 discriminator 2 view .LVU133
 371 0152 8A5C     		ldrb	r2, [r1, r2]	@ zero_extendqisi2
 265:Middlewares/ST/filex/common/src/fx_media_volume_get_extended.c ****                 }
 372              		.loc 1 265 36 discriminator 2 view .LVU134
 373 0154 EA54     		strb	r2, [r5, r3]
 261:Middlewares/ST/filex/common/src/fx_media_volume_get_extended.c ****                 {
 374              		.loc 1 261 32 is_stmt 1 discriminator 2 view .LVU135
 261:Middlewares/ST/filex/common/src/fx_media_volume_get_extended.c ****                 {
 375              		.loc 1 261 33 is_stmt 0 discriminator 2 view .LVU136
 376 0156 013B     		subs	r3, r3, #1
 377              	.LVL33:
 378              	.L13:
 261:Middlewares/ST/filex/common/src/fx_media_volume_get_extended.c ****                 {
 379              		.loc 1 261 24 is_stmt 1 discriminator 1 view .LVU137
 261:Middlewares/ST/filex/common/src/fx_media_volume_get_extended.c ****                 {
 380              		.loc 1 261 17 is_stmt 0 discriminator 1 view .LVU138
 381 0158 002B     		cmp	r3, #0
 382 015a F8DA     		bge	.L14
 272:Middlewares/ST/filex/common/src/fx_media_volume_get_extended.c **** 
 383              		.loc 1 272 13 is_stmt 1 view .LVU139
 384 015c 3846     		mov	r0, r7
 385              	.LVL34:
 272:Middlewares/ST/filex/common/src/fx_media_volume_get_extended.c **** 
 386              		.loc 1 272 13 is_stmt 0 view .LVU140
 387 015e FFF7FEFF 		bl	_tx_mutex_put
 388              	.LVL35:
 275:Middlewares/ST/filex/common/src/fx_media_volume_get_extended.c ****         }
 389              		.loc 1 275 13 is_stmt 1 view .LVU141
 275:Middlewares/ST/filex/common/src/fx_media_volume_get_extended.c ****         }
 390              		.loc 1 275 19 is_stmt 0 view .LVU142
 391 0162 5AE7     		b	.L1
 392              	.LVL36:
 393              	.L31:
 289:Middlewares/ST/filex/common/src/fx_media_volume_get_extended.c **** 
 394              		.loc 1 289 9 is_stmt 1 view .LVU143
 395 0164 3846     		mov	r0, r7
 396              	.LVL37:
 289:Middlewares/ST/filex/common/src/fx_media_volume_get_extended.c **** 
 397              		.loc 1 289 9 is_stmt 0 view .LVU144
 398 0166 FFF7FEFF 		bl	_tx_mutex_put
 399              	.LVL38:
 292:Middlewares/ST/filex/common/src/fx_media_volume_get_extended.c ****     }
 400              		.loc 1 292 9 is_stmt 1 view .LVU145
 292:Middlewares/ST/filex/common/src/fx_media_volume_get_extended.c ****     }
 401              		.loc 1 292 15 is_stmt 0 view .LVU146
 402 016a 56E7     		b	.L1
ARM GAS  C:\Users\HP\AppData\Local\Temp\ccNhL92X.s 			page 17


 403              	.L32:
 319:Middlewares/ST/filex/common/src/fx_media_volume_get_extended.c **** 
 404              		.loc 1 319 9 is_stmt 1 view .LVU147
 405 016c 3846     		mov	r0, r7
 406 016e FFF7FEFF 		bl	_tx_mutex_put
 407              	.LVL39:
 322:Middlewares/ST/filex/common/src/fx_media_volume_get_extended.c ****     }
 408              		.loc 1 322 9 view .LVU148
 322:Middlewares/ST/filex/common/src/fx_media_volume_get_extended.c ****     }
 409              		.loc 1 322 26 is_stmt 0 view .LVU149
 410 0172 D4F88C80 		ldr	r8, [r4, #140]
 411              	.LVL40:
 322:Middlewares/ST/filex/common/src/fx_media_volume_get_extended.c ****     }
 412              		.loc 1 322 26 view .LVU150
 413 0176 50E7     		b	.L1
 414              	.LVL41:
 415              	.L26:
 336:Middlewares/ST/filex/common/src/fx_media_volume_get_extended.c ****     }
 416              		.loc 1 336 16 view .LVU151
 417 0178 2B20     		movs	r0, #43
 418 017a B8E7     		b	.L17
 419              	.LVL42:
 420              	.L19:
 353:Middlewares/ST/filex/common/src/fx_media_volume_get_extended.c ****     {
 421              		.loc 1 353 5 is_stmt 1 view .LVU152
 353:Middlewares/ST/filex/common/src/fx_media_volume_get_extended.c ****     {
 422              		.loc 1 353 45 is_stmt 0 view .LVU153
 423 017c 721E     		subs	r2, r6, #1
 353:Middlewares/ST/filex/common/src/fx_media_volume_get_extended.c ****     {
 424              		.loc 1 353 8 view .LVU154
 425 017e 9A42     		cmp	r2, r3
 426 0180 02DC     		bgt	.L21
 357:Middlewares/ST/filex/common/src/fx_media_volume_get_extended.c **** 
 427              		.loc 1 357 9 is_stmt 1 view .LVU155
 428              	.LVL43:
 360:Middlewares/ST/filex/common/src/fx_media_volume_get_extended.c ****     }
 429              		.loc 1 360 9 view .LVU156
 360:Middlewares/ST/filex/common/src/fx_media_volume_get_extended.c ****     }
 430              		.loc 1 360 11 is_stmt 0 view .LVU157
 431 0182 B31E     		subs	r3, r6, #2
 432              	.LVL44:
 357:Middlewares/ST/filex/common/src/fx_media_volume_get_extended.c **** 
 433              		.loc 1 357 16 view .LVU158
 434 0184 4FF02108 		mov	r8, #33
 435              	.LVL45:
 436              	.L21:
 364:Middlewares/ST/filex/common/src/fx_media_volume_get_extended.c **** 
 437              		.loc 1 364 5 is_stmt 1 view .LVU159
 364:Middlewares/ST/filex/common/src/fx_media_volume_get_extended.c **** 
 438              		.loc 1 364 16 is_stmt 0 view .LVU160
 439 0188 5A1C     		adds	r2, r3, #1
 364:Middlewares/ST/filex/common/src/fx_media_volume_get_extended.c **** 
 440              		.loc 1 364 24 view .LVU161
 441 018a 0021     		movs	r1, #0
 442 018c A954     		strb	r1, [r5, r2]
 367:Middlewares/ST/filex/common/src/fx_media_volume_get_extended.c ****     {
 443              		.loc 1 367 5 is_stmt 1 view .LVU162
ARM GAS  C:\Users\HP\AppData\Local\Temp\ccNhL92X.s 			page 18


 444              	.L22:
 367:Middlewares/ST/filex/common/src/fx_media_volume_get_extended.c ****     {
 445              		.loc 1 367 12 discriminator 1 view .LVU163
 367:Middlewares/ST/filex/common/src/fx_media_volume_get_extended.c ****     {
 446              		.loc 1 367 5 is_stmt 0 discriminator 1 view .LVU164
 447 018e 002B     		cmp	r3, #0
 448 0190 05DB     		blt	.L34
 371:Middlewares/ST/filex/common/src/fx_media_volume_get_extended.c ****     }
 449              		.loc 1 371 9 is_stmt 1 discriminator 2 view .LVU165
 371:Middlewares/ST/filex/common/src/fx_media_volume_get_extended.c ****     }
 450              		.loc 1 371 43 is_stmt 0 discriminator 2 view .LVU166
 451 0192 A168     		ldr	r1, [r4, #8]
 371:Middlewares/ST/filex/common/src/fx_media_volume_get_extended.c ****     }
 452              		.loc 1 371 76 discriminator 2 view .LVU167
 453 0194 1A18     		adds	r2, r3, r0
 371:Middlewares/ST/filex/common/src/fx_media_volume_get_extended.c ****     }
 454              		.loc 1 371 27 discriminator 2 view .LVU168
 455 0196 8A5C     		ldrb	r2, [r1, r2]	@ zero_extendqisi2
 371:Middlewares/ST/filex/common/src/fx_media_volume_get_extended.c ****     }
 456              		.loc 1 371 24 discriminator 2 view .LVU169
 457 0198 EA54     		strb	r2, [r5, r3]
 367:Middlewares/ST/filex/common/src/fx_media_volume_get_extended.c ****     {
 458              		.loc 1 367 20 is_stmt 1 discriminator 2 view .LVU170
 367:Middlewares/ST/filex/common/src/fx_media_volume_get_extended.c ****     {
 459              		.loc 1 367 21 is_stmt 0 discriminator 2 view .LVU171
 460 019a 013B     		subs	r3, r3, #1
 461              	.LVL46:
 367:Middlewares/ST/filex/common/src/fx_media_volume_get_extended.c ****     {
 462              		.loc 1 367 21 discriminator 2 view .LVU172
 463 019c F7E7     		b	.L22
 464              	.L34:
 375:Middlewares/ST/filex/common/src/fx_media_volume_get_extended.c **** 
 465              		.loc 1 375 5 is_stmt 1 view .LVU173
 466 019e 3846     		mov	r0, r7
 467              	.LVL47:
 375:Middlewares/ST/filex/common/src/fx_media_volume_get_extended.c **** 
 468              		.loc 1 375 5 is_stmt 0 view .LVU174
 469 01a0 FFF7FEFF 		bl	_tx_mutex_put
 470              	.LVL48:
 378:Middlewares/ST/filex/common/src/fx_media_volume_get_extended.c **** }
 471              		.loc 1 378 5 is_stmt 1 view .LVU175
 378:Middlewares/ST/filex/common/src/fx_media_volume_get_extended.c **** }
 472              		.loc 1 378 11 is_stmt 0 view .LVU176
 473 01a4 39E7     		b	.L1
 474              	.LVL49:
 475              	.L25:
 116:Middlewares/ST/filex/common/src/fx_media_volume_get_extended.c **** 
 476              		.loc 1 116 5 view .LVU177
 477 01a6 4FF01108 		mov	r8, #17
 478              	.LVL50:
 116:Middlewares/ST/filex/common/src/fx_media_volume_get_extended.c **** 
 479              		.loc 1 116 5 view .LVU178
 480 01aa 36E7     		b	.L1
 481              	.L36:
 482              		.align	2
 483              	.L35:
 484 01ac 4944454D 		.word	1296385097
ARM GAS  C:\Users\HP\AppData\Local\Temp\ccNhL92X.s 			page 19


 485              		.cfi_endproc
 486              	.LFE8:
 488              		.text
 489              	.Letext0:
 490              		.file 2 "Middlewares/ST/threadx/ports/cortex_m4/gnu/inc/tx_port.h"
 491              		.file 3 "Middlewares/ST/threadx/common/inc/tx_api.h"
 492              		.file 4 "Middlewares/ST/filex/common/inc/fx_api.h"
 493              		.file 5 "Middlewares/ST/filex/common/inc/fx_directory.h"
 494              		.file 6 "Middlewares/ST/filex/common/inc/fx_utility.h"
ARM GAS  C:\Users\HP\AppData\Local\Temp\ccNhL92X.s 			page 20

