ARM GAS  C:\Users\HP\AppData\Local\Temp\ccuZUZuW.s 			page 1


   1              		.cpu cortex-m4
   2              		.arch armv7e-m
   3              		.fpu fpv4-sp-d16
   4              		.eabi_attribute 27, 1
   5              		.eabi_attribute 28, 1
   6              		.eabi_attribute 20, 1
   7              		.eabi_attribute 21, 1
   8              		.eabi_attribute 23, 3
   9              		.eabi_attribute 24, 1
  10              		.eabi_attribute 25, 1
  11              		.eabi_attribute 26, 1
  12              		.eabi_attribute 30, 1
  13              		.eabi_attribute 34, 1
  14              		.eabi_attribute 18, 4
  15              		.file	"fx_partition_offset_calculate.c"
  16              		.text
  17              	.Ltext0:
  18              		.cfi_sections	.debug_frame
  19              		.section	.text._fx_utility_partition_get,"ax",%progbits
  20              		.align	1
  21              		.global	_fx_utility_partition_get
  22              		.syntax unified
  23              		.thumb
  24              		.thumb_func
  26              	_fx_utility_partition_get:
  27              	.LVL0:
  28              	.LFB9:
  29              		.file 1 "Middlewares/ST/filex/common/src/fx_partition_offset_calculate.c"
   1:Middlewares/ST/filex/common/src/fx_partition_offset_calculate.c **** /**************************************************************************/
   2:Middlewares/ST/filex/common/src/fx_partition_offset_calculate.c **** /*                                                                        */
   3:Middlewares/ST/filex/common/src/fx_partition_offset_calculate.c **** /*       Copyright (c) Microsoft Corporation. All rights reserved.        */
   4:Middlewares/ST/filex/common/src/fx_partition_offset_calculate.c **** /*                                                                        */
   5:Middlewares/ST/filex/common/src/fx_partition_offset_calculate.c **** /*       This software is licensed under the Microsoft Software License   */
   6:Middlewares/ST/filex/common/src/fx_partition_offset_calculate.c **** /*       Terms for Microsoft Azure RTOS. Full text of the license can be  */
   7:Middlewares/ST/filex/common/src/fx_partition_offset_calculate.c **** /*       found in the LICENSE file at https://aka.ms/AzureRTOS_EULA       */
   8:Middlewares/ST/filex/common/src/fx_partition_offset_calculate.c **** /*       and in the root directory of this software.                      */
   9:Middlewares/ST/filex/common/src/fx_partition_offset_calculate.c **** /*                                                                        */
  10:Middlewares/ST/filex/common/src/fx_partition_offset_calculate.c **** /**************************************************************************/
  11:Middlewares/ST/filex/common/src/fx_partition_offset_calculate.c **** 
  12:Middlewares/ST/filex/common/src/fx_partition_offset_calculate.c **** 
  13:Middlewares/ST/filex/common/src/fx_partition_offset_calculate.c **** /**************************************************************************/
  14:Middlewares/ST/filex/common/src/fx_partition_offset_calculate.c **** /**************************************************************************/
  15:Middlewares/ST/filex/common/src/fx_partition_offset_calculate.c **** /**                                                                       */ 
  16:Middlewares/ST/filex/common/src/fx_partition_offset_calculate.c **** /** FileX Component                                                       */ 
  17:Middlewares/ST/filex/common/src/fx_partition_offset_calculate.c **** /**                                                                       */
  18:Middlewares/ST/filex/common/src/fx_partition_offset_calculate.c **** /**   Application Utility                                                 */
  19:Middlewares/ST/filex/common/src/fx_partition_offset_calculate.c **** /**                                                                       */
  20:Middlewares/ST/filex/common/src/fx_partition_offset_calculate.c **** /**************************************************************************/
  21:Middlewares/ST/filex/common/src/fx_partition_offset_calculate.c **** /**************************************************************************/
  22:Middlewares/ST/filex/common/src/fx_partition_offset_calculate.c **** 
  23:Middlewares/ST/filex/common/src/fx_partition_offset_calculate.c **** #define FX_SOURCE_CODE
  24:Middlewares/ST/filex/common/src/fx_partition_offset_calculate.c **** 
  25:Middlewares/ST/filex/common/src/fx_partition_offset_calculate.c **** 
  26:Middlewares/ST/filex/common/src/fx_partition_offset_calculate.c **** /* Include necessary system files.  */
  27:Middlewares/ST/filex/common/src/fx_partition_offset_calculate.c **** 
  28:Middlewares/ST/filex/common/src/fx_partition_offset_calculate.c **** #include "fx_api.h"
  29:Middlewares/ST/filex/common/src/fx_partition_offset_calculate.c **** #include "fx_utility.h"
ARM GAS  C:\Users\HP\AppData\Local\Temp\ccuZUZuW.s 			page 2


  30:Middlewares/ST/filex/common/src/fx_partition_offset_calculate.c **** 
  31:Middlewares/ST/filex/common/src/fx_partition_offset_calculate.c **** 
  32:Middlewares/ST/filex/common/src/fx_partition_offset_calculate.c **** /* Define internal data structures.  */
  33:Middlewares/ST/filex/common/src/fx_partition_offset_calculate.c **** 
  34:Middlewares/ST/filex/common/src/fx_partition_offset_calculate.c **** typedef struct FX_MEDIA_PARTITION_STRUCT
  35:Middlewares/ST/filex/common/src/fx_partition_offset_calculate.c **** {
  36:Middlewares/ST/filex/common/src/fx_partition_offset_calculate.c ****     ULONG fx_media_part_start;    
  37:Middlewares/ST/filex/common/src/fx_partition_offset_calculate.c ****     ULONG fx_media_part_size;
  38:Middlewares/ST/filex/common/src/fx_partition_offset_calculate.c **** } FX_MEDIA_PARTITION;
  39:Middlewares/ST/filex/common/src/fx_partition_offset_calculate.c **** 
  40:Middlewares/ST/filex/common/src/fx_partition_offset_calculate.c **** /* Define internal partition constants. */
  41:Middlewares/ST/filex/common/src/fx_partition_offset_calculate.c **** 
  42:Middlewares/ST/filex/common/src/fx_partition_offset_calculate.c **** #ifndef FX_MAX_PARTITION_COUNT
  43:Middlewares/ST/filex/common/src/fx_partition_offset_calculate.c **** #define FX_MAX_PARTITION_COUNT              16
  44:Middlewares/ST/filex/common/src/fx_partition_offset_calculate.c **** #endif /* FX_MAX_PARTITION_COUNT */
  45:Middlewares/ST/filex/common/src/fx_partition_offset_calculate.c **** 
  46:Middlewares/ST/filex/common/src/fx_partition_offset_calculate.c **** #define FX_PARTITION_TABLE_OFFSET           446
  47:Middlewares/ST/filex/common/src/fx_partition_offset_calculate.c **** #define FX_PARTITION_ENTRY_SIZE             16
  48:Middlewares/ST/filex/common/src/fx_partition_offset_calculate.c **** #define FX_PARTITION_TYPE_OFFSET            4
  49:Middlewares/ST/filex/common/src/fx_partition_offset_calculate.c **** #define FX_PARTITION_LBA_OFFSET             8
  50:Middlewares/ST/filex/common/src/fx_partition_offset_calculate.c **** #define FX_PARTITION_SECTORS_OFFSET         12
  51:Middlewares/ST/filex/common/src/fx_partition_offset_calculate.c **** 
  52:Middlewares/ST/filex/common/src/fx_partition_offset_calculate.c **** #define FX_PARTITION_TYPE_FREE              0x00
  53:Middlewares/ST/filex/common/src/fx_partition_offset_calculate.c **** #define FX_PARTITION_TYPE_EXTENDED          0x05
  54:Middlewares/ST/filex/common/src/fx_partition_offset_calculate.c **** #define FX_PARTITION_TYPE_EXTENDED_LBA      0x0F
  55:Middlewares/ST/filex/common/src/fx_partition_offset_calculate.c **** 
  56:Middlewares/ST/filex/common/src/fx_partition_offset_calculate.c **** 
  57:Middlewares/ST/filex/common/src/fx_partition_offset_calculate.c **** /* Define function prototypes for the partition table parsing application
  58:Middlewares/ST/filex/common/src/fx_partition_offset_calculate.c ****    utility.  */
  59:Middlewares/ST/filex/common/src/fx_partition_offset_calculate.c **** 
  60:Middlewares/ST/filex/common/src/fx_partition_offset_calculate.c **** UINT    _fx_partition_offset_calculate(void  *partition_sector, UINT partition,
  61:Middlewares/ST/filex/common/src/fx_partition_offset_calculate.c ****                                      ULONG *partition_start, ULONG *partition_size);
  62:Middlewares/ST/filex/common/src/fx_partition_offset_calculate.c **** UINT    _fx_utility_partition_get(FX_MEDIA_PARTITION *partition_table, 
  63:Middlewares/ST/filex/common/src/fx_partition_offset_calculate.c ****                                 UINT *count, ULONG sector, UCHAR *sector_buffer);
  64:Middlewares/ST/filex/common/src/fx_partition_offset_calculate.c **** UINT    _fx_partition_offset_calculate_extended(FX_MEDIA *media_ptr, void  *partition_sector, UINT 
  65:Middlewares/ST/filex/common/src/fx_partition_offset_calculate.c ****                                      ULONG *partition_start, ULONG *partition_size);
  66:Middlewares/ST/filex/common/src/fx_partition_offset_calculate.c **** 
  67:Middlewares/ST/filex/common/src/fx_partition_offset_calculate.c **** /**************************************************************************/ 
  68:Middlewares/ST/filex/common/src/fx_partition_offset_calculate.c **** /*                                                                        */ 
  69:Middlewares/ST/filex/common/src/fx_partition_offset_calculate.c **** /*  FUNCTION                                               RELEASE        */ 
  70:Middlewares/ST/filex/common/src/fx_partition_offset_calculate.c **** /*                                                                        */ 
  71:Middlewares/ST/filex/common/src/fx_partition_offset_calculate.c **** /*    _fx_partition_offset_calculate                      PORTABLE C      */ 
  72:Middlewares/ST/filex/common/src/fx_partition_offset_calculate.c **** /*                                                           6.1.6        */
  73:Middlewares/ST/filex/common/src/fx_partition_offset_calculate.c **** /*  AUTHOR                                                                */
  74:Middlewares/ST/filex/common/src/fx_partition_offset_calculate.c **** /*                                                                        */
  75:Middlewares/ST/filex/common/src/fx_partition_offset_calculate.c **** /*    William E. Lamie, Microsoft Corporation                             */
  76:Middlewares/ST/filex/common/src/fx_partition_offset_calculate.c **** /*                                                                        */
  77:Middlewares/ST/filex/common/src/fx_partition_offset_calculate.c **** /*  DESCRIPTION                                                           */
  78:Middlewares/ST/filex/common/src/fx_partition_offset_calculate.c **** /*                                                                        */ 
  79:Middlewares/ST/filex/common/src/fx_partition_offset_calculate.c **** /*    This function calculates the sector offset to the specified         */ 
  80:Middlewares/ST/filex/common/src/fx_partition_offset_calculate.c **** /*    partition.  The buffer containing the partition table is also       */ 
  81:Middlewares/ST/filex/common/src/fx_partition_offset_calculate.c **** /*    supplied to this function.  If the buffer supplied is a boot        */ 
  82:Middlewares/ST/filex/common/src/fx_partition_offset_calculate.c **** /*    record (which could be the case in non-partition systems), this     */ 
  83:Middlewares/ST/filex/common/src/fx_partition_offset_calculate.c **** /*    function returns an offset of zero, the total sectors, and a        */ 
  84:Middlewares/ST/filex/common/src/fx_partition_offset_calculate.c **** /*    successful status indicating that the buffer supplied is the boot   */ 
  85:Middlewares/ST/filex/common/src/fx_partition_offset_calculate.c **** /*    record.  Otherwise, if a partition is found, this function returns  */ 
  86:Middlewares/ST/filex/common/src/fx_partition_offset_calculate.c **** /*    the sector offset to its boot record along with a successful        */ 
ARM GAS  C:\Users\HP\AppData\Local\Temp\ccuZUZuW.s 			page 3


  87:Middlewares/ST/filex/common/src/fx_partition_offset_calculate.c **** /*    status. If the specified partition is not found or the buffer is    */ 
  88:Middlewares/ST/filex/common/src/fx_partition_offset_calculate.c **** /*    not a partition table or boot record, this function returns an      */ 
  89:Middlewares/ST/filex/common/src/fx_partition_offset_calculate.c **** /*    error.                                                              */ 
  90:Middlewares/ST/filex/common/src/fx_partition_offset_calculate.c **** /*                                                                        */ 
  91:Middlewares/ST/filex/common/src/fx_partition_offset_calculate.c **** /*    Note: Empty partitions have a FX_SUCCESS return code, however their */ 
  92:Middlewares/ST/filex/common/src/fx_partition_offset_calculate.c **** /*          starting sector is FX_NULL and the size returned is 0.        */ 
  93:Middlewares/ST/filex/common/src/fx_partition_offset_calculate.c **** /*                                                                        */ 
  94:Middlewares/ST/filex/common/src/fx_partition_offset_calculate.c **** /*  INPUT                                                                 */ 
  95:Middlewares/ST/filex/common/src/fx_partition_offset_calculate.c **** /*                                                                        */ 
  96:Middlewares/ST/filex/common/src/fx_partition_offset_calculate.c **** /*    partition_sector                      Pointer to buffer containing  */ 
  97:Middlewares/ST/filex/common/src/fx_partition_offset_calculate.c **** /*                                            either the partition table  */ 
  98:Middlewares/ST/filex/common/src/fx_partition_offset_calculate.c **** /*                                            or the boot sector          */ 
  99:Middlewares/ST/filex/common/src/fx_partition_offset_calculate.c **** /*    partition                             Desired partition             */ 
 100:Middlewares/ST/filex/common/src/fx_partition_offset_calculate.c **** /*    partition_start                       Return partition start        */ 
 101:Middlewares/ST/filex/common/src/fx_partition_offset_calculate.c **** /*    partition_size                        Return partition size         */ 
 102:Middlewares/ST/filex/common/src/fx_partition_offset_calculate.c **** /*                                                                        */ 
 103:Middlewares/ST/filex/common/src/fx_partition_offset_calculate.c **** /*  OUTPUT                                                                */ 
 104:Middlewares/ST/filex/common/src/fx_partition_offset_calculate.c **** /*                                                                        */ 
 105:Middlewares/ST/filex/common/src/fx_partition_offset_calculate.c **** /*    return status                                                       */ 
 106:Middlewares/ST/filex/common/src/fx_partition_offset_calculate.c **** /*                                                                        */ 
 107:Middlewares/ST/filex/common/src/fx_partition_offset_calculate.c **** /*  CALLS                                                                 */ 
 108:Middlewares/ST/filex/common/src/fx_partition_offset_calculate.c **** /*                                                                        */ 
 109:Middlewares/ST/filex/common/src/fx_partition_offset_calculate.c **** /*     _fx_utility_partition_get            Actual partition parsing      */ 
 110:Middlewares/ST/filex/common/src/fx_partition_offset_calculate.c **** /*                                            routine                     */ 
 111:Middlewares/ST/filex/common/src/fx_partition_offset_calculate.c **** /*                                                                        */ 
 112:Middlewares/ST/filex/common/src/fx_partition_offset_calculate.c **** /*  CALLED BY                                                             */ 
 113:Middlewares/ST/filex/common/src/fx_partition_offset_calculate.c **** /*                                                                        */ 
 114:Middlewares/ST/filex/common/src/fx_partition_offset_calculate.c **** /*    Application Driver                                                  */ 
 115:Middlewares/ST/filex/common/src/fx_partition_offset_calculate.c **** /*                                                                        */ 
 116:Middlewares/ST/filex/common/src/fx_partition_offset_calculate.c **** /*  RELEASE HISTORY                                                       */ 
 117:Middlewares/ST/filex/common/src/fx_partition_offset_calculate.c **** /*                                                                        */ 
 118:Middlewares/ST/filex/common/src/fx_partition_offset_calculate.c **** /*    DATE              NAME                      DESCRIPTION             */
 119:Middlewares/ST/filex/common/src/fx_partition_offset_calculate.c **** /*                                                                        */
 120:Middlewares/ST/filex/common/src/fx_partition_offset_calculate.c **** /*  05-19-2020     William E. Lamie         Initial Version 6.0           */
 121:Middlewares/ST/filex/common/src/fx_partition_offset_calculate.c **** /*  09-30-2020     William E. Lamie         Modified comment(s),          */
 122:Middlewares/ST/filex/common/src/fx_partition_offset_calculate.c **** /*                                            resulting in version 6.1    */
 123:Middlewares/ST/filex/common/src/fx_partition_offset_calculate.c **** /*  04-02-2021     William E. Lamie         Modified comment(s),          */
 124:Middlewares/ST/filex/common/src/fx_partition_offset_calculate.c **** /*                                            ignored signature check for */
 125:Middlewares/ST/filex/common/src/fx_partition_offset_calculate.c **** /*                                            no partition situation,     */
 126:Middlewares/ST/filex/common/src/fx_partition_offset_calculate.c **** /*                                            resulting in version 6.1.6  */
 127:Middlewares/ST/filex/common/src/fx_partition_offset_calculate.c **** /*                                                                        */
 128:Middlewares/ST/filex/common/src/fx_partition_offset_calculate.c **** /**************************************************************************/
 129:Middlewares/ST/filex/common/src/fx_partition_offset_calculate.c **** UINT  _fx_partition_offset_calculate(void  *partition_sector, UINT partition,
 130:Middlewares/ST/filex/common/src/fx_partition_offset_calculate.c ****                                      ULONG *partition_start, ULONG *partition_size)
 131:Middlewares/ST/filex/common/src/fx_partition_offset_calculate.c **** {
 132:Middlewares/ST/filex/common/src/fx_partition_offset_calculate.c ****     
 133:Middlewares/ST/filex/common/src/fx_partition_offset_calculate.c **** FX_MEDIA_PARTITION  partition_table[4];
 134:Middlewares/ST/filex/common/src/fx_partition_offset_calculate.c **** UINT                count;
 135:Middlewares/ST/filex/common/src/fx_partition_offset_calculate.c **** ULONG64             total_sectors;
 136:Middlewares/ST/filex/common/src/fx_partition_offset_calculate.c **** UCHAR               *partition_sector_ptr;
 137:Middlewares/ST/filex/common/src/fx_partition_offset_calculate.c **** 
 138:Middlewares/ST/filex/common/src/fx_partition_offset_calculate.c **** 
 139:Middlewares/ST/filex/common/src/fx_partition_offset_calculate.c ****     /* Setup working pointer and initialize count.  */
 140:Middlewares/ST/filex/common/src/fx_partition_offset_calculate.c ****     partition_sector_ptr =  partition_sector;
 141:Middlewares/ST/filex/common/src/fx_partition_offset_calculate.c ****     count =  0;
 142:Middlewares/ST/filex/common/src/fx_partition_offset_calculate.c **** 
 143:Middlewares/ST/filex/common/src/fx_partition_offset_calculate.c ****     /* Check for a real boot sector instead of a partition table.  */
ARM GAS  C:\Users\HP\AppData\Local\Temp\ccuZUZuW.s 			page 4


 144:Middlewares/ST/filex/common/src/fx_partition_offset_calculate.c ****     if ((partition_sector_ptr[0] == 0xe9) || ((partition_sector_ptr[0] == 0xeb) && (partition_secto
 145:Middlewares/ST/filex/common/src/fx_partition_offset_calculate.c ****     {
 146:Middlewares/ST/filex/common/src/fx_partition_offset_calculate.c ****     
 147:Middlewares/ST/filex/common/src/fx_partition_offset_calculate.c ****         /* Yes, a real boot sector could be present.  */  
 148:Middlewares/ST/filex/common/src/fx_partition_offset_calculate.c **** 
 149:Middlewares/ST/filex/common/src/fx_partition_offset_calculate.c ****         /* See if there are good values for sectors per FAT.  */
 150:Middlewares/ST/filex/common/src/fx_partition_offset_calculate.c ****         if (partition_sector_ptr[0x16] || partition_sector_ptr[0x17] || partition_sector_ptr[0x24] 
 151:Middlewares/ST/filex/common/src/fx_partition_offset_calculate.c ****         {
 152:Middlewares/ST/filex/common/src/fx_partition_offset_calculate.c **** 
 153:Middlewares/ST/filex/common/src/fx_partition_offset_calculate.c ****             /* There are values for sectors per FAT.  */
 154:Middlewares/ST/filex/common/src/fx_partition_offset_calculate.c **** 
 155:Middlewares/ST/filex/common/src/fx_partition_offset_calculate.c ****             /* Determine if there is a total sector count.  */
 156:Middlewares/ST/filex/common/src/fx_partition_offset_calculate.c ****             total_sectors =  0;
 157:Middlewares/ST/filex/common/src/fx_partition_offset_calculate.c **** 
 158:Middlewares/ST/filex/common/src/fx_partition_offset_calculate.c ****             if (partition_sector_ptr[0x13] || partition_sector_ptr[0x14])
 159:Middlewares/ST/filex/common/src/fx_partition_offset_calculate.c ****             {
 160:Middlewares/ST/filex/common/src/fx_partition_offset_calculate.c **** 
 161:Middlewares/ST/filex/common/src/fx_partition_offset_calculate.c ****                 /* Calculate the total sectors, FAT12/16.  */
 162:Middlewares/ST/filex/common/src/fx_partition_offset_calculate.c ****                 total_sectors =  (((ULONG) partition_sector_ptr[0x14]) << 8) | ((ULONG) partition_s
 163:Middlewares/ST/filex/common/src/fx_partition_offset_calculate.c ****             }
 164:Middlewares/ST/filex/common/src/fx_partition_offset_calculate.c ****             else if (partition_sector_ptr[0x20] || partition_sector_ptr[0x21] || partition_sector_p
 165:Middlewares/ST/filex/common/src/fx_partition_offset_calculate.c ****             {
 166:Middlewares/ST/filex/common/src/fx_partition_offset_calculate.c **** 
 167:Middlewares/ST/filex/common/src/fx_partition_offset_calculate.c ****                 /* Calculate the total sectors, FAT32.  */
 168:Middlewares/ST/filex/common/src/fx_partition_offset_calculate.c ****                 total_sectors =  (((ULONG) partition_sector_ptr[0x23]) << 24) | 
 169:Middlewares/ST/filex/common/src/fx_partition_offset_calculate.c ****                                  (((ULONG) partition_sector_ptr[0x22]) << 16) |
 170:Middlewares/ST/filex/common/src/fx_partition_offset_calculate.c ****                                  (((ULONG) partition_sector_ptr[0x21]) << 8)  |
 171:Middlewares/ST/filex/common/src/fx_partition_offset_calculate.c ****                                  ((ULONG) partition_sector_ptr[0x20]);
 172:Middlewares/ST/filex/common/src/fx_partition_offset_calculate.c ****             }       
 173:Middlewares/ST/filex/common/src/fx_partition_offset_calculate.c **** 
 174:Middlewares/ST/filex/common/src/fx_partition_offset_calculate.c ****             /* Determine if there is a total sector count.  */
 175:Middlewares/ST/filex/common/src/fx_partition_offset_calculate.c ****             if (total_sectors)
 176:Middlewares/ST/filex/common/src/fx_partition_offset_calculate.c ****             {
 177:Middlewares/ST/filex/common/src/fx_partition_offset_calculate.c **** 
 178:Middlewares/ST/filex/common/src/fx_partition_offset_calculate.c ****                 if (partition_start != FX_NULL)
 179:Middlewares/ST/filex/common/src/fx_partition_offset_calculate.c ****                 {
 180:Middlewares/ST/filex/common/src/fx_partition_offset_calculate.c ****                     /* Return an offset of 0, size of boot record, and a successful status.  */
 181:Middlewares/ST/filex/common/src/fx_partition_offset_calculate.c ****                     *partition_start =  0;
 182:Middlewares/ST/filex/common/src/fx_partition_offset_calculate.c ****                 }
 183:Middlewares/ST/filex/common/src/fx_partition_offset_calculate.c **** 
 184:Middlewares/ST/filex/common/src/fx_partition_offset_calculate.c ****                 /* Determine if the total sectors is required.  */
 185:Middlewares/ST/filex/common/src/fx_partition_offset_calculate.c ****                 if (partition_size != FX_NULL)
 186:Middlewares/ST/filex/common/src/fx_partition_offset_calculate.c ****                 {
 187:Middlewares/ST/filex/common/src/fx_partition_offset_calculate.c **** 
 188:Middlewares/ST/filex/common/src/fx_partition_offset_calculate.c ****                     /* Return the total sectors.  */
 189:Middlewares/ST/filex/common/src/fx_partition_offset_calculate.c ****                     *partition_size =  (ULONG)(total_sectors & 0xFFFFFFFF);
 190:Middlewares/ST/filex/common/src/fx_partition_offset_calculate.c ****                 }
 191:Middlewares/ST/filex/common/src/fx_partition_offset_calculate.c **** 
 192:Middlewares/ST/filex/common/src/fx_partition_offset_calculate.c ****                 /* Return success!  */
 193:Middlewares/ST/filex/common/src/fx_partition_offset_calculate.c ****                 return(FX_SUCCESS);
 194:Middlewares/ST/filex/common/src/fx_partition_offset_calculate.c ****             }
 195:Middlewares/ST/filex/common/src/fx_partition_offset_calculate.c ****         }
 196:Middlewares/ST/filex/common/src/fx_partition_offset_calculate.c **** #ifdef FX_ENABLE_EXFAT
 197:Middlewares/ST/filex/common/src/fx_partition_offset_calculate.c ****         /* See if there are good values for sectors per exFAT.  */
 198:Middlewares/ST/filex/common/src/fx_partition_offset_calculate.c ****         else if (partition_sector_ptr[0x0b] == 0 && partition_sector_ptr[0x0c] == 0)
 199:Middlewares/ST/filex/common/src/fx_partition_offset_calculate.c ****         {
 200:Middlewares/ST/filex/common/src/fx_partition_offset_calculate.c ****             /* There are values for sectors per exFAT.  */
ARM GAS  C:\Users\HP\AppData\Local\Temp\ccuZUZuW.s 			page 5


 201:Middlewares/ST/filex/common/src/fx_partition_offset_calculate.c **** 
 202:Middlewares/ST/filex/common/src/fx_partition_offset_calculate.c ****             /* Calculate the total sectors.  */
 203:Middlewares/ST/filex/common/src/fx_partition_offset_calculate.c ****             total_sectors = _fx_utility_64_unsigned_read(&partition_sector_ptr[FX_EF_VOLUME_LENGTH]
 204:Middlewares/ST/filex/common/src/fx_partition_offset_calculate.c **** 
 205:Middlewares/ST/filex/common/src/fx_partition_offset_calculate.c ****             /* Determine if there is a total sector count.  */
 206:Middlewares/ST/filex/common/src/fx_partition_offset_calculate.c ****             if (total_sectors)
 207:Middlewares/ST/filex/common/src/fx_partition_offset_calculate.c ****             {
 208:Middlewares/ST/filex/common/src/fx_partition_offset_calculate.c **** 
 209:Middlewares/ST/filex/common/src/fx_partition_offset_calculate.c ****                 if (partition_start != FX_NULL)
 210:Middlewares/ST/filex/common/src/fx_partition_offset_calculate.c ****                 {
 211:Middlewares/ST/filex/common/src/fx_partition_offset_calculate.c ****                     /* Return an offset of 0, size of boot record, and a successful status.  */
 212:Middlewares/ST/filex/common/src/fx_partition_offset_calculate.c ****                     *partition_start =  0;
 213:Middlewares/ST/filex/common/src/fx_partition_offset_calculate.c ****                 }
 214:Middlewares/ST/filex/common/src/fx_partition_offset_calculate.c **** 
 215:Middlewares/ST/filex/common/src/fx_partition_offset_calculate.c ****                 /* Determine if the total sectors is required.  */
 216:Middlewares/ST/filex/common/src/fx_partition_offset_calculate.c ****                 if (partition_size != FX_NULL)
 217:Middlewares/ST/filex/common/src/fx_partition_offset_calculate.c ****                 {
 218:Middlewares/ST/filex/common/src/fx_partition_offset_calculate.c **** 
 219:Middlewares/ST/filex/common/src/fx_partition_offset_calculate.c ****                     if (total_sectors > 0xFFFFFFFF)
 220:Middlewares/ST/filex/common/src/fx_partition_offset_calculate.c ****                     {
 221:Middlewares/ST/filex/common/src/fx_partition_offset_calculate.c **** 
 222:Middlewares/ST/filex/common/src/fx_partition_offset_calculate.c ****                         /* Overflow. Just return not found. */
 223:Middlewares/ST/filex/common/src/fx_partition_offset_calculate.c ****                         return(FX_NOT_FOUND);
 224:Middlewares/ST/filex/common/src/fx_partition_offset_calculate.c ****                     }
 225:Middlewares/ST/filex/common/src/fx_partition_offset_calculate.c **** 
 226:Middlewares/ST/filex/common/src/fx_partition_offset_calculate.c ****                     /* Return the total sectors.  */
 227:Middlewares/ST/filex/common/src/fx_partition_offset_calculate.c ****                     *partition_size =  (ULONG)(total_sectors & 0xFFFFFFFF);
 228:Middlewares/ST/filex/common/src/fx_partition_offset_calculate.c ****                 }
 229:Middlewares/ST/filex/common/src/fx_partition_offset_calculate.c **** 
 230:Middlewares/ST/filex/common/src/fx_partition_offset_calculate.c ****                 /* Return success!  */
 231:Middlewares/ST/filex/common/src/fx_partition_offset_calculate.c ****                 return(FX_SUCCESS);
 232:Middlewares/ST/filex/common/src/fx_partition_offset_calculate.c ****             }
 233:Middlewares/ST/filex/common/src/fx_partition_offset_calculate.c ****         }
 234:Middlewares/ST/filex/common/src/fx_partition_offset_calculate.c **** #endif /* FX_ENABLE_EXFAT */
 235:Middlewares/ST/filex/common/src/fx_partition_offset_calculate.c ****     }
 236:Middlewares/ST/filex/common/src/fx_partition_offset_calculate.c **** 
 237:Middlewares/ST/filex/common/src/fx_partition_offset_calculate.c ****     /* Check signature to make sure the buffer is valid.  */
 238:Middlewares/ST/filex/common/src/fx_partition_offset_calculate.c ****     if ((partition_sector_ptr[510] != 0x55) || (partition_sector_ptr[511] != 0xAA))
 239:Middlewares/ST/filex/common/src/fx_partition_offset_calculate.c ****     {
 240:Middlewares/ST/filex/common/src/fx_partition_offset_calculate.c **** 
 241:Middlewares/ST/filex/common/src/fx_partition_offset_calculate.c ****         /* Invalid, return an error.  */
 242:Middlewares/ST/filex/common/src/fx_partition_offset_calculate.c ****         return(FX_NOT_FOUND);
 243:Middlewares/ST/filex/common/src/fx_partition_offset_calculate.c ****     }
 244:Middlewares/ST/filex/common/src/fx_partition_offset_calculate.c ****     
 245:Middlewares/ST/filex/common/src/fx_partition_offset_calculate.c ****     /* Not bootable, look for specific partition.  */
 246:Middlewares/ST/filex/common/src/fx_partition_offset_calculate.c ****     _fx_utility_partition_get(partition_table, &count, 0, partition_sector_ptr);
 247:Middlewares/ST/filex/common/src/fx_partition_offset_calculate.c **** 
 248:Middlewares/ST/filex/common/src/fx_partition_offset_calculate.c ****     /* Determine if return value is valid.  */
 249:Middlewares/ST/filex/common/src/fx_partition_offset_calculate.c ****     if (partition >= count)
 250:Middlewares/ST/filex/common/src/fx_partition_offset_calculate.c ****     {
 251:Middlewares/ST/filex/common/src/fx_partition_offset_calculate.c **** 
 252:Middlewares/ST/filex/common/src/fx_partition_offset_calculate.c ****         /* No, return an error.  */
 253:Middlewares/ST/filex/common/src/fx_partition_offset_calculate.c ****         return(FX_NOT_FOUND);
 254:Middlewares/ST/filex/common/src/fx_partition_offset_calculate.c ****     }
 255:Middlewares/ST/filex/common/src/fx_partition_offset_calculate.c **** 
 256:Middlewares/ST/filex/common/src/fx_partition_offset_calculate.c ****     /* Return the partition starting sector, if non-NULL.  */
 257:Middlewares/ST/filex/common/src/fx_partition_offset_calculate.c ****     if (partition_start != FX_NULL)
ARM GAS  C:\Users\HP\AppData\Local\Temp\ccuZUZuW.s 			page 6


 258:Middlewares/ST/filex/common/src/fx_partition_offset_calculate.c ****     {
 259:Middlewares/ST/filex/common/src/fx_partition_offset_calculate.c ****         *partition_start =  partition_table[partition].fx_media_part_start;
 260:Middlewares/ST/filex/common/src/fx_partition_offset_calculate.c ****     }
 261:Middlewares/ST/filex/common/src/fx_partition_offset_calculate.c **** 
 262:Middlewares/ST/filex/common/src/fx_partition_offset_calculate.c ****     /* Return the partition size, if non-NULL.  */
 263:Middlewares/ST/filex/common/src/fx_partition_offset_calculate.c ****     if (partition_size != FX_NULL)
 264:Middlewares/ST/filex/common/src/fx_partition_offset_calculate.c ****     {
 265:Middlewares/ST/filex/common/src/fx_partition_offset_calculate.c ****         *partition_size =  partition_table[partition].fx_media_part_size;
 266:Middlewares/ST/filex/common/src/fx_partition_offset_calculate.c ****     }
 267:Middlewares/ST/filex/common/src/fx_partition_offset_calculate.c **** 
 268:Middlewares/ST/filex/common/src/fx_partition_offset_calculate.c ****     /* Return successful completion.  */
 269:Middlewares/ST/filex/common/src/fx_partition_offset_calculate.c ****     return(FX_SUCCESS);
 270:Middlewares/ST/filex/common/src/fx_partition_offset_calculate.c **** }
 271:Middlewares/ST/filex/common/src/fx_partition_offset_calculate.c **** 
 272:Middlewares/ST/filex/common/src/fx_partition_offset_calculate.c **** 
 273:Middlewares/ST/filex/common/src/fx_partition_offset_calculate.c **** /**************************************************************************/ 
 274:Middlewares/ST/filex/common/src/fx_partition_offset_calculate.c **** /*                                                                        */ 
 275:Middlewares/ST/filex/common/src/fx_partition_offset_calculate.c **** /*  FUNCTION                                               RELEASE        */ 
 276:Middlewares/ST/filex/common/src/fx_partition_offset_calculate.c **** /*                                                                        */ 
 277:Middlewares/ST/filex/common/src/fx_partition_offset_calculate.c **** /*    _fx_utility_partition_get                           PORTABLE C      */ 
 278:Middlewares/ST/filex/common/src/fx_partition_offset_calculate.c **** /*                                                           6.1.6        */
 279:Middlewares/ST/filex/common/src/fx_partition_offset_calculate.c **** /*  AUTHOR                                                                */
 280:Middlewares/ST/filex/common/src/fx_partition_offset_calculate.c **** /*                                                                        */
 281:Middlewares/ST/filex/common/src/fx_partition_offset_calculate.c **** /*    William E. Lamie, Microsoft Corporation                             */
 282:Middlewares/ST/filex/common/src/fx_partition_offset_calculate.c **** /*                                                                        */
 283:Middlewares/ST/filex/common/src/fx_partition_offset_calculate.c **** /*  DESCRIPTION                                                           */
 284:Middlewares/ST/filex/common/src/fx_partition_offset_calculate.c **** /*                                                                        */ 
 285:Middlewares/ST/filex/common/src/fx_partition_offset_calculate.c **** /*    This function parses the partition sector and completes the         */ 
 286:Middlewares/ST/filex/common/src/fx_partition_offset_calculate.c **** /*    supplied partition entry structure.                                 */ 
 287:Middlewares/ST/filex/common/src/fx_partition_offset_calculate.c **** /*                                                                        */ 
 288:Middlewares/ST/filex/common/src/fx_partition_offset_calculate.c **** /*  INPUT                                                                 */ 
 289:Middlewares/ST/filex/common/src/fx_partition_offset_calculate.c **** /*                                                                        */ 
 290:Middlewares/ST/filex/common/src/fx_partition_offset_calculate.c **** /*    partition_table                       Pointer to partition table    */ 
 291:Middlewares/ST/filex/common/src/fx_partition_offset_calculate.c **** /*    count                                 Number of partitions found    */ 
 292:Middlewares/ST/filex/common/src/fx_partition_offset_calculate.c **** /*    sector                                Base sector                   */ 
 293:Middlewares/ST/filex/common/src/fx_partition_offset_calculate.c **** /*    sector_buffer                         Buffer containing partition   */ 
 294:Middlewares/ST/filex/common/src/fx_partition_offset_calculate.c **** /*                                            table                       */ 
 295:Middlewares/ST/filex/common/src/fx_partition_offset_calculate.c **** /*                                                                        */ 
 296:Middlewares/ST/filex/common/src/fx_partition_offset_calculate.c **** /*  OUTPUT                                                                */ 
 297:Middlewares/ST/filex/common/src/fx_partition_offset_calculate.c **** /*                                                                        */ 
 298:Middlewares/ST/filex/common/src/fx_partition_offset_calculate.c **** /*    return status                                                       */ 
 299:Middlewares/ST/filex/common/src/fx_partition_offset_calculate.c **** /*                                                                        */ 
 300:Middlewares/ST/filex/common/src/fx_partition_offset_calculate.c **** /*  CALLS                                                                 */ 
 301:Middlewares/ST/filex/common/src/fx_partition_offset_calculate.c **** /*                                                                        */ 
 302:Middlewares/ST/filex/common/src/fx_partition_offset_calculate.c **** /*    None                                                                */ 
 303:Middlewares/ST/filex/common/src/fx_partition_offset_calculate.c **** /*                                                                        */ 
 304:Middlewares/ST/filex/common/src/fx_partition_offset_calculate.c **** /*  CALLED BY                                                             */ 
 305:Middlewares/ST/filex/common/src/fx_partition_offset_calculate.c **** /*                                                                        */ 
 306:Middlewares/ST/filex/common/src/fx_partition_offset_calculate.c **** /*    _fx_partition_offset_calculate        Calculate partition offset    */ 
 307:Middlewares/ST/filex/common/src/fx_partition_offset_calculate.c **** /*                                                                        */ 
 308:Middlewares/ST/filex/common/src/fx_partition_offset_calculate.c **** /*  RELEASE HISTORY                                                       */ 
 309:Middlewares/ST/filex/common/src/fx_partition_offset_calculate.c **** /*                                                                        */ 
 310:Middlewares/ST/filex/common/src/fx_partition_offset_calculate.c **** /*    DATE              NAME                      DESCRIPTION             */
 311:Middlewares/ST/filex/common/src/fx_partition_offset_calculate.c **** /*                                                                        */
 312:Middlewares/ST/filex/common/src/fx_partition_offset_calculate.c **** /*  05-19-2020     William E. Lamie         Initial Version 6.0           */
 313:Middlewares/ST/filex/common/src/fx_partition_offset_calculate.c **** /*  09-30-2020     William E. Lamie         Modified comment(s),          */
 314:Middlewares/ST/filex/common/src/fx_partition_offset_calculate.c **** /*                                            resulting in version 6.1    */
ARM GAS  C:\Users\HP\AppData\Local\Temp\ccuZUZuW.s 			page 7


 315:Middlewares/ST/filex/common/src/fx_partition_offset_calculate.c **** /*  04-02-2021     William E. Lamie         Modified comment(s),          */
 316:Middlewares/ST/filex/common/src/fx_partition_offset_calculate.c **** /*                                            resulting in version 6.1.6  */
 317:Middlewares/ST/filex/common/src/fx_partition_offset_calculate.c **** /*                                                                        */
 318:Middlewares/ST/filex/common/src/fx_partition_offset_calculate.c **** /**************************************************************************/
 319:Middlewares/ST/filex/common/src/fx_partition_offset_calculate.c **** UINT  _fx_utility_partition_get(FX_MEDIA_PARTITION *partition_table, 
 320:Middlewares/ST/filex/common/src/fx_partition_offset_calculate.c ****                                 UINT *count, ULONG sector, UCHAR *sector_buffer)
 321:Middlewares/ST/filex/common/src/fx_partition_offset_calculate.c **** {
  30              		.loc 1 321 1 view -0
  31              		.cfi_startproc
  32              		@ args = 0, pretend = 0, frame = 0
  33              		@ frame_needed = 0, uses_anonymous_args = 0
  34              		@ link register save eliminated.
 322:Middlewares/ST/filex/common/src/fx_partition_offset_calculate.c **** 
 323:Middlewares/ST/filex/common/src/fx_partition_offset_calculate.c **** UINT    i;
  35              		.loc 1 323 1 view .LVU1
 324:Middlewares/ST/filex/common/src/fx_partition_offset_calculate.c **** ULONG   base_sector, value;
  36              		.loc 1 324 1 view .LVU2
 325:Middlewares/ST/filex/common/src/fx_partition_offset_calculate.c **** 
 326:Middlewares/ST/filex/common/src/fx_partition_offset_calculate.c ****     /* This parameter has not been supported yet. */
 327:Middlewares/ST/filex/common/src/fx_partition_offset_calculate.c ****     FX_PARAMETER_NOT_USED(sector); 
  37              		.loc 1 327 5 view .LVU3
 328:Middlewares/ST/filex/common/src/fx_partition_offset_calculate.c **** 
 329:Middlewares/ST/filex/common/src/fx_partition_offset_calculate.c ****     /* Initialize base sector.  */
 330:Middlewares/ST/filex/common/src/fx_partition_offset_calculate.c ****     base_sector =  0;
  38              		.loc 1 330 5 view .LVU4
 331:Middlewares/ST/filex/common/src/fx_partition_offset_calculate.c **** 
 332:Middlewares/ST/filex/common/src/fx_partition_offset_calculate.c ****     for(i = 446; i <= 494; i+=16)
  39              		.loc 1 332 5 view .LVU5
  40              		.loc 1 332 11 is_stmt 0 view .LVU6
  41 0000 4FF4DF72 		mov	r2, #446
  42              	.LVL1:
  43              		.loc 1 332 18 is_stmt 1 view .LVU7
  44              		.loc 1 332 5 is_stmt 0 view .LVU8
  45 0004 B2F5F77F 		cmp	r2, #494
  46 0008 3ED8     		bhi	.L10
 321:Middlewares/ST/filex/common/src/fx_partition_offset_calculate.c **** 
  47              		.loc 1 321 1 view .LVU9
  48 000a 30B4     		push	{r4, r5}
  49              	.LCFI0:
  50              		.cfi_def_cfa_offset 8
  51              		.cfi_offset 4, -8
  52              		.cfi_offset 5, -4
  53 000c 2CE0     		b	.L5
  54              	.L3:
 333:Middlewares/ST/filex/common/src/fx_partition_offset_calculate.c ****     {
 334:Middlewares/ST/filex/common/src/fx_partition_offset_calculate.c ****         if (sector_buffer[i + 4] == 0) /* no partition entry here */
 335:Middlewares/ST/filex/common/src/fx_partition_offset_calculate.c ****         {
 336:Middlewares/ST/filex/common/src/fx_partition_offset_calculate.c **** 
 337:Middlewares/ST/filex/common/src/fx_partition_offset_calculate.c ****             partition_table[*count].fx_media_part_start = 0;
 338:Middlewares/ST/filex/common/src/fx_partition_offset_calculate.c ****             partition_table[*count].fx_media_part_size  = 0;
 339:Middlewares/ST/filex/common/src/fx_partition_offset_calculate.c ****         }
 340:Middlewares/ST/filex/common/src/fx_partition_offset_calculate.c ****         else
 341:Middlewares/ST/filex/common/src/fx_partition_offset_calculate.c ****         {
 342:Middlewares/ST/filex/common/src/fx_partition_offset_calculate.c **** 
 343:Middlewares/ST/filex/common/src/fx_partition_offset_calculate.c ****             value =  (ULONG) sector_buffer[i + 8]; /* little endian start value */
  55              		.loc 1 343 13 is_stmt 1 view .LVU10
  56              		.loc 1 343 43 is_stmt 0 view .LVU11
ARM GAS  C:\Users\HP\AppData\Local\Temp\ccuZUZuW.s 			page 8


  57 000e 03EB020C 		add	ip, r3, r2
  58 0012 9CF80840 		ldrb	r4, [ip, #8]	@ zero_extendqisi2
  59              	.LVL2:
 344:Middlewares/ST/filex/common/src/fx_partition_offset_calculate.c ****             value =  (((ULONG) sector_buffer[i + 9]) << 8) | value;
  60              		.loc 1 344 13 is_stmt 1 view .LVU12
  61              		.loc 1 344 45 is_stmt 0 view .LVU13
  62 0016 9CF80950 		ldrb	r5, [ip, #9]	@ zero_extendqisi2
  63              		.loc 1 344 19 view .LVU14
  64 001a 44EA0524 		orr	r4, r4, r5, lsl #8
  65              	.LVL3:
 345:Middlewares/ST/filex/common/src/fx_partition_offset_calculate.c ****             value =  (((ULONG) sector_buffer[i + 10]) << 16) | value;
  66              		.loc 1 345 13 is_stmt 1 view .LVU15
  67              		.loc 1 345 45 is_stmt 0 view .LVU16
  68 001e 9CF80A50 		ldrb	r5, [ip, #10]	@ zero_extendqisi2
  69              		.loc 1 345 19 view .LVU17
  70 0022 44EA0544 		orr	r4, r4, r5, lsl #16
  71              	.LVL4:
 346:Middlewares/ST/filex/common/src/fx_partition_offset_calculate.c ****             value =  (((ULONG) sector_buffer[i + 11]) << 24) | value;
  72              		.loc 1 346 13 is_stmt 1 view .LVU18
  73              		.loc 1 346 45 is_stmt 0 view .LVU19
  74 0026 9CF80B50 		ldrb	r5, [ip, #11]	@ zero_extendqisi2
  75              		.loc 1 346 19 view .LVU20
  76 002a 44EA0564 		orr	r4, r4, r5, lsl #24
  77              	.LVL5:
 347:Middlewares/ST/filex/common/src/fx_partition_offset_calculate.c ****             partition_table[*count].fx_media_part_start = value + base_sector;
  78              		.loc 1 347 13 is_stmt 1 view .LVU21
  79              		.loc 1 347 29 is_stmt 0 view .LVU22
  80 002e 0D68     		ldr	r5, [r1]
  81              		.loc 1 347 57 view .LVU23
  82 0030 40F83540 		str	r4, [r0, r5, lsl #3]
 348:Middlewares/ST/filex/common/src/fx_partition_offset_calculate.c **** 
 349:Middlewares/ST/filex/common/src/fx_partition_offset_calculate.c ****             value =  (ULONG) sector_buffer[i + 12]; /* little endian size value */
  83              		.loc 1 349 13 is_stmt 1 view .LVU24
  84              		.loc 1 349 43 is_stmt 0 view .LVU25
  85 0034 9CF80C40 		ldrb	r4, [ip, #12]	@ zero_extendqisi2
  86              	.LVL6:
 350:Middlewares/ST/filex/common/src/fx_partition_offset_calculate.c ****             value =  (((ULONG) sector_buffer[i + 13]) << 8) | value;
  87              		.loc 1 350 13 is_stmt 1 view .LVU26
  88              		.loc 1 350 45 is_stmt 0 view .LVU27
  89 0038 9CF80D50 		ldrb	r5, [ip, #13]	@ zero_extendqisi2
  90              		.loc 1 350 19 view .LVU28
  91 003c 44EA0524 		orr	r4, r4, r5, lsl #8
  92              	.LVL7:
 351:Middlewares/ST/filex/common/src/fx_partition_offset_calculate.c ****             value =  (((ULONG) sector_buffer[i + 14]) << 16) | value;
  93              		.loc 1 351 13 is_stmt 1 view .LVU29
  94              		.loc 1 351 45 is_stmt 0 view .LVU30
  95 0040 9CF80E50 		ldrb	r5, [ip, #14]	@ zero_extendqisi2
  96              		.loc 1 351 19 view .LVU31
  97 0044 44EA0544 		orr	r4, r4, r5, lsl #16
  98              	.LVL8:
 352:Middlewares/ST/filex/common/src/fx_partition_offset_calculate.c ****             value =  (((ULONG) sector_buffer[i + 15]) << 24) | value;
  99              		.loc 1 352 13 is_stmt 1 view .LVU32
 100              		.loc 1 352 45 is_stmt 0 view .LVU33
 101 0048 9CF80F50 		ldrb	r5, [ip, #15]	@ zero_extendqisi2
 102              		.loc 1 352 19 view .LVU34
 103 004c 44EA0564 		orr	r4, r4, r5, lsl #24
 104              	.LVL9:
ARM GAS  C:\Users\HP\AppData\Local\Temp\ccuZUZuW.s 			page 9


 353:Middlewares/ST/filex/common/src/fx_partition_offset_calculate.c ****             partition_table[*count].fx_media_part_size = value;
 105              		.loc 1 353 13 is_stmt 1 view .LVU35
 106              		.loc 1 353 28 is_stmt 0 view .LVU36
 107 0050 0D68     		ldr	r5, [r1]
 108 0052 00EBC50C 		add	ip, r0, r5, lsl #3
 109              		.loc 1 353 56 view .LVU37
 110 0056 CCF80440 		str	r4, [ip, #4]
 111              	.LVL10:
 112              	.L4:
 354:Middlewares/ST/filex/common/src/fx_partition_offset_calculate.c ****         }
 355:Middlewares/ST/filex/common/src/fx_partition_offset_calculate.c **** 
 356:Middlewares/ST/filex/common/src/fx_partition_offset_calculate.c ****         (*count)++;
 113              		.loc 1 356 9 is_stmt 1 discriminator 2 view .LVU38
 114              		.loc 1 356 10 is_stmt 0 discriminator 2 view .LVU39
 115 005a 0C68     		ldr	r4, [r1]
 116              		.loc 1 356 17 discriminator 2 view .LVU40
 117 005c 0134     		adds	r4, r4, #1
 118 005e 0C60     		str	r4, [r1]
 332:Middlewares/ST/filex/common/src/fx_partition_offset_calculate.c ****     {
 119              		.loc 1 332 28 is_stmt 1 discriminator 2 view .LVU41
 332:Middlewares/ST/filex/common/src/fx_partition_offset_calculate.c ****     {
 120              		.loc 1 332 29 is_stmt 0 discriminator 2 view .LVU42
 121 0060 1032     		adds	r2, r2, #16
 122              	.LVL11:
 332:Middlewares/ST/filex/common/src/fx_partition_offset_calculate.c ****     {
 123              		.loc 1 332 18 is_stmt 1 discriminator 2 view .LVU43
 332:Middlewares/ST/filex/common/src/fx_partition_offset_calculate.c ****     {
 124              		.loc 1 332 5 is_stmt 0 discriminator 2 view .LVU44
 125 0062 B2F5F77F 		cmp	r2, #494
 126 0066 0CD8     		bhi	.L11
 127              	.L5:
 334:Middlewares/ST/filex/common/src/fx_partition_offset_calculate.c ****         {
 128              		.loc 1 334 9 is_stmt 1 view .LVU45
 334:Middlewares/ST/filex/common/src/fx_partition_offset_calculate.c ****         {
 129              		.loc 1 334 26 is_stmt 0 view .LVU46
 130 0068 9C18     		adds	r4, r3, r2
 131 006a 2479     		ldrb	r4, [r4, #4]	@ zero_extendqisi2
 334:Middlewares/ST/filex/common/src/fx_partition_offset_calculate.c ****         {
 132              		.loc 1 334 12 view .LVU47
 133 006c 002C     		cmp	r4, #0
 134 006e CED1     		bne	.L3
 337:Middlewares/ST/filex/common/src/fx_partition_offset_calculate.c ****             partition_table[*count].fx_media_part_size  = 0;
 135              		.loc 1 337 13 is_stmt 1 view .LVU48
 337:Middlewares/ST/filex/common/src/fx_partition_offset_calculate.c ****             partition_table[*count].fx_media_part_size  = 0;
 136              		.loc 1 337 29 is_stmt 0 view .LVU49
 137 0070 0C68     		ldr	r4, [r1]
 337:Middlewares/ST/filex/common/src/fx_partition_offset_calculate.c ****             partition_table[*count].fx_media_part_size  = 0;
 138              		.loc 1 337 57 view .LVU50
 139 0072 0025     		movs	r5, #0
 140 0074 40F83450 		str	r5, [r0, r4, lsl #3]
 338:Middlewares/ST/filex/common/src/fx_partition_offset_calculate.c ****         }
 141              		.loc 1 338 13 is_stmt 1 view .LVU51
 338:Middlewares/ST/filex/common/src/fx_partition_offset_calculate.c ****         }
 142              		.loc 1 338 29 is_stmt 0 view .LVU52
 143 0078 0C68     		ldr	r4, [r1]
 338:Middlewares/ST/filex/common/src/fx_partition_offset_calculate.c ****         }
 144              		.loc 1 338 28 view .LVU53
ARM GAS  C:\Users\HP\AppData\Local\Temp\ccuZUZuW.s 			page 10


 145 007a 00EBC404 		add	r4, r0, r4, lsl #3
 338:Middlewares/ST/filex/common/src/fx_partition_offset_calculate.c ****         }
 146              		.loc 1 338 57 view .LVU54
 147 007e 6560     		str	r5, [r4, #4]
 148 0080 EBE7     		b	.L4
 149              	.L11:
 357:Middlewares/ST/filex/common/src/fx_partition_offset_calculate.c ****     }
 358:Middlewares/ST/filex/common/src/fx_partition_offset_calculate.c **** 
 359:Middlewares/ST/filex/common/src/fx_partition_offset_calculate.c ****     /* Return success.  */
 360:Middlewares/ST/filex/common/src/fx_partition_offset_calculate.c ****     return(FX_SUCCESS);
 150              		.loc 1 360 5 is_stmt 1 view .LVU55
 361:Middlewares/ST/filex/common/src/fx_partition_offset_calculate.c **** }
 151              		.loc 1 361 1 is_stmt 0 view .LVU56
 152 0082 0020     		movs	r0, #0
 153              	.LVL12:
 154              		.loc 1 361 1 view .LVU57
 155 0084 30BC     		pop	{r4, r5}
 156              	.LCFI1:
 157              		.cfi_restore 5
 158              		.cfi_restore 4
 159              		.cfi_def_cfa_offset 0
 160 0086 7047     		bx	lr
 161              	.LVL13:
 162              	.L10:
 360:Middlewares/ST/filex/common/src/fx_partition_offset_calculate.c **** }
 163              		.loc 1 360 5 is_stmt 1 view .LVU58
 164              		.loc 1 361 1 is_stmt 0 view .LVU59
 165 0088 0020     		movs	r0, #0
 166              	.LVL14:
 167              		.loc 1 361 1 view .LVU60
 168 008a 7047     		bx	lr
 169              		.cfi_endproc
 170              	.LFE9:
 172              		.section	.text._fx_partition_offset_calculate,"ax",%progbits
 173              		.align	1
 174              		.global	_fx_partition_offset_calculate
 175              		.syntax unified
 176              		.thumb
 177              		.thumb_func
 179              	_fx_partition_offset_calculate:
 180              	.LVL15:
 181              	.LFB8:
 131:Middlewares/ST/filex/common/src/fx_partition_offset_calculate.c ****     
 182              		.loc 1 131 1 is_stmt 1 view -0
 183              		.cfi_startproc
 184              		@ args = 0, pretend = 0, frame = 40
 185              		@ frame_needed = 0, uses_anonymous_args = 0
 131:Middlewares/ST/filex/common/src/fx_partition_offset_calculate.c ****     
 186              		.loc 1 131 1 is_stmt 0 view .LVU62
 187 0000 70B5     		push	{r4, r5, r6, lr}
 188              	.LCFI2:
 189              		.cfi_def_cfa_offset 16
 190              		.cfi_offset 4, -16
 191              		.cfi_offset 5, -12
 192              		.cfi_offset 6, -8
 193              		.cfi_offset 14, -4
 194 0002 8AB0     		sub	sp, sp, #40
ARM GAS  C:\Users\HP\AppData\Local\Temp\ccuZUZuW.s 			page 11


 195              	.LCFI3:
 196              		.cfi_def_cfa_offset 56
 197 0004 0C46     		mov	r4, r1
 198 0006 1646     		mov	r6, r2
 199 0008 1D46     		mov	r5, r3
 133:Middlewares/ST/filex/common/src/fx_partition_offset_calculate.c **** UINT                count;
 200              		.loc 1 133 1 is_stmt 1 view .LVU63
 134:Middlewares/ST/filex/common/src/fx_partition_offset_calculate.c **** ULONG64             total_sectors;
 201              		.loc 1 134 1 view .LVU64
 135:Middlewares/ST/filex/common/src/fx_partition_offset_calculate.c **** UCHAR               *partition_sector_ptr;
 202              		.loc 1 135 1 view .LVU65
 136:Middlewares/ST/filex/common/src/fx_partition_offset_calculate.c **** 
 203              		.loc 1 136 1 view .LVU66
 140:Middlewares/ST/filex/common/src/fx_partition_offset_calculate.c ****     count =  0;
 204              		.loc 1 140 5 view .LVU67
 205              	.LVL16:
 141:Middlewares/ST/filex/common/src/fx_partition_offset_calculate.c **** 
 206              		.loc 1 141 5 view .LVU68
 141:Middlewares/ST/filex/common/src/fx_partition_offset_calculate.c **** 
 207              		.loc 1 141 11 is_stmt 0 view .LVU69
 208 000a 0023     		movs	r3, #0
 209              	.LVL17:
 141:Middlewares/ST/filex/common/src/fx_partition_offset_calculate.c **** 
 210              		.loc 1 141 11 view .LVU70
 211 000c 0193     		str	r3, [sp, #4]
 144:Middlewares/ST/filex/common/src/fx_partition_offset_calculate.c ****     {
 212              		.loc 1 144 5 is_stmt 1 view .LVU71
 144:Middlewares/ST/filex/common/src/fx_partition_offset_calculate.c ****     {
 213              		.loc 1 144 30 is_stmt 0 view .LVU72
 214 000e 0378     		ldrb	r3, [r0]	@ zero_extendqisi2
 144:Middlewares/ST/filex/common/src/fx_partition_offset_calculate.c ****     {
 215              		.loc 1 144 8 view .LVU73
 216 0010 E92B     		cmp	r3, #233
 217 0012 0ED0     		beq	.L13
 144:Middlewares/ST/filex/common/src/fx_partition_offset_calculate.c ****     {
 218              		.loc 1 144 43 discriminator 1 view .LVU74
 219 0014 EB2B     		cmp	r3, #235
 220 0016 09D0     		beq	.L29
 221              	.LVL18:
 222              	.L14:
 238:Middlewares/ST/filex/common/src/fx_partition_offset_calculate.c ****     {
 223              		.loc 1 238 5 is_stmt 1 view .LVU75
 238:Middlewares/ST/filex/common/src/fx_partition_offset_calculate.c ****     {
 224              		.loc 1 238 30 is_stmt 0 view .LVU76
 225 0018 90F8FE31 		ldrb	r3, [r0, #510]	@ zero_extendqisi2
 238:Middlewares/ST/filex/common/src/fx_partition_offset_calculate.c ****     {
 226              		.loc 1 238 8 view .LVU77
 227 001c 552B     		cmp	r3, #85
 228 001e 5ED1     		bne	.L24
 238:Middlewares/ST/filex/common/src/fx_partition_offset_calculate.c ****     {
 229              		.loc 1 238 69 discriminator 1 view .LVU78
 230 0020 90F8FF31 		ldrb	r3, [r0, #511]	@ zero_extendqisi2
 238:Middlewares/ST/filex/common/src/fx_partition_offset_calculate.c ****     {
 231              		.loc 1 238 45 discriminator 1 view .LVU79
 232 0024 AA2B     		cmp	r3, #170
 233 0026 41D0     		beq	.L30
 242:Middlewares/ST/filex/common/src/fx_partition_offset_calculate.c ****     }
ARM GAS  C:\Users\HP\AppData\Local\Temp\ccuZUZuW.s 			page 12


 234              		.loc 1 242 15 view .LVU80
 235 0028 0420     		movs	r0, #4
 236              	.LVL19:
 242:Middlewares/ST/filex/common/src/fx_partition_offset_calculate.c ****     }
 237              		.loc 1 242 15 view .LVU81
 238 002a 59E0     		b	.L12
 239              	.LVL20:
 240              	.L29:
 144:Middlewares/ST/filex/common/src/fx_partition_offset_calculate.c ****     {
 241              		.loc 1 144 105 discriminator 2 view .LVU82
 242 002c 8378     		ldrb	r3, [r0, #2]	@ zero_extendqisi2
 144:Middlewares/ST/filex/common/src/fx_partition_offset_calculate.c ****     {
 243              		.loc 1 144 81 discriminator 2 view .LVU83
 244 002e 902B     		cmp	r3, #144
 245 0030 F2D1     		bne	.L14
 246              	.L13:
 150:Middlewares/ST/filex/common/src/fx_partition_offset_calculate.c ****         {
 247              		.loc 1 150 9 is_stmt 1 view .LVU84
 150:Middlewares/ST/filex/common/src/fx_partition_offset_calculate.c ****         {
 248              		.loc 1 150 33 is_stmt 0 view .LVU85
 249 0032 837D     		ldrb	r3, [r0, #22]	@ zero_extendqisi2
 150:Middlewares/ST/filex/common/src/fx_partition_offset_calculate.c ****         {
 250              		.loc 1 150 12 view .LVU86
 251 0034 73B9     		cbnz	r3, .L15
 150:Middlewares/ST/filex/common/src/fx_partition_offset_calculate.c ****         {
 252              		.loc 1 150 63 discriminator 1 view .LVU87
 253 0036 C37D     		ldrb	r3, [r0, #23]	@ zero_extendqisi2
 150:Middlewares/ST/filex/common/src/fx_partition_offset_calculate.c ****         {
 254              		.loc 1 150 40 discriminator 1 view .LVU88
 255 0038 63B9     		cbnz	r3, .L15
 150:Middlewares/ST/filex/common/src/fx_partition_offset_calculate.c ****         {
 256              		.loc 1 150 93 discriminator 2 view .LVU89
 257 003a 90F82430 		ldrb	r3, [r0, #36]	@ zero_extendqisi2
 150:Middlewares/ST/filex/common/src/fx_partition_offset_calculate.c ****         {
 258              		.loc 1 150 70 discriminator 2 view .LVU90
 259 003e 4BB9     		cbnz	r3, .L15
 150:Middlewares/ST/filex/common/src/fx_partition_offset_calculate.c ****         {
 260              		.loc 1 150 123 discriminator 3 view .LVU91
 261 0040 90F82530 		ldrb	r3, [r0, #37]	@ zero_extendqisi2
 150:Middlewares/ST/filex/common/src/fx_partition_offset_calculate.c ****         {
 262              		.loc 1 150 100 discriminator 3 view .LVU92
 263 0044 33B9     		cbnz	r3, .L15
 150:Middlewares/ST/filex/common/src/fx_partition_offset_calculate.c ****         {
 264              		.loc 1 150 153 discriminator 4 view .LVU93
 265 0046 90F82630 		ldrb	r3, [r0, #38]	@ zero_extendqisi2
 150:Middlewares/ST/filex/common/src/fx_partition_offset_calculate.c ****         {
 266              		.loc 1 150 130 discriminator 4 view .LVU94
 267 004a 1BB9     		cbnz	r3, .L15
 150:Middlewares/ST/filex/common/src/fx_partition_offset_calculate.c ****         {
 268              		.loc 1 150 183 discriminator 5 view .LVU95
 269 004c 90F82730 		ldrb	r3, [r0, #39]	@ zero_extendqisi2
 150:Middlewares/ST/filex/common/src/fx_partition_offset_calculate.c ****         {
 270              		.loc 1 150 160 discriminator 5 view .LVU96
 271 0050 002B     		cmp	r3, #0
 272 0052 E1D0     		beq	.L14
 273              	.L15:
 156:Middlewares/ST/filex/common/src/fx_partition_offset_calculate.c **** 
ARM GAS  C:\Users\HP\AppData\Local\Temp\ccuZUZuW.s 			page 13


 274              		.loc 1 156 13 is_stmt 1 view .LVU97
 275              	.LVL21:
 158:Middlewares/ST/filex/common/src/fx_partition_offset_calculate.c ****             {
 276              		.loc 1 158 13 view .LVU98
 158:Middlewares/ST/filex/common/src/fx_partition_offset_calculate.c ****             {
 277              		.loc 1 158 37 is_stmt 0 view .LVU99
 278 0054 C37C     		ldrb	r3, [r0, #19]	@ zero_extendqisi2
 158:Middlewares/ST/filex/common/src/fx_partition_offset_calculate.c ****             {
 279              		.loc 1 158 16 view .LVU100
 280 0056 0BB9     		cbnz	r3, .L16
 158:Middlewares/ST/filex/common/src/fx_partition_offset_calculate.c ****             {
 281              		.loc 1 158 67 discriminator 1 view .LVU101
 282 0058 027D     		ldrb	r2, [r0, #20]	@ zero_extendqisi2
 283              	.LVL22:
 158:Middlewares/ST/filex/common/src/fx_partition_offset_calculate.c ****             {
 284              		.loc 1 158 44 discriminator 1 view .LVU102
 285 005a 62B1     		cbz	r2, .L17
 286              	.L16:
 162:Middlewares/ST/filex/common/src/fx_partition_offset_calculate.c ****             }
 287              		.loc 1 162 17 is_stmt 1 view .LVU103
 162:Middlewares/ST/filex/common/src/fx_partition_offset_calculate.c ****             }
 288              		.loc 1 162 64 is_stmt 0 view .LVU104
 289 005c 027D     		ldrb	r2, [r0, #20]	@ zero_extendqisi2
 162:Middlewares/ST/filex/common/src/fx_partition_offset_calculate.c ****             }
 290              		.loc 1 162 31 view .LVU105
 291 005e 43EA0223 		orr	r3, r3, r2, lsl #8
 292 0062 0022     		movs	r2, #0
 293              	.LVL23:
 294              	.L18:
 175:Middlewares/ST/filex/common/src/fx_partition_offset_calculate.c ****             {
 295              		.loc 1 175 13 is_stmt 1 view .LVU106
 175:Middlewares/ST/filex/common/src/fx_partition_offset_calculate.c ****             {
 296              		.loc 1 175 16 is_stmt 0 view .LVU107
 297 0064 1A43     		orrs	r2, r3, r2
 298              	.LVL24:
 175:Middlewares/ST/filex/common/src/fx_partition_offset_calculate.c ****             {
 299              		.loc 1 175 16 view .LVU108
 300 0066 D7D0     		beq	.L14
 178:Middlewares/ST/filex/common/src/fx_partition_offset_calculate.c ****                 {
 301              		.loc 1 178 17 is_stmt 1 view .LVU109
 178:Middlewares/ST/filex/common/src/fx_partition_offset_calculate.c ****                 {
 302              		.loc 1 178 20 is_stmt 0 view .LVU110
 303 0068 0EB1     		cbz	r6, .L20
 181:Middlewares/ST/filex/common/src/fx_partition_offset_calculate.c ****                 }
 304              		.loc 1 181 21 is_stmt 1 view .LVU111
 181:Middlewares/ST/filex/common/src/fx_partition_offset_calculate.c ****                 }
 305              		.loc 1 181 38 is_stmt 0 view .LVU112
 306 006a 0022     		movs	r2, #0
 307 006c 3260     		str	r2, [r6]
 308              	.LVL25:
 309              	.L20:
 185:Middlewares/ST/filex/common/src/fx_partition_offset_calculate.c ****                 {
 310              		.loc 1 185 17 is_stmt 1 view .LVU113
 185:Middlewares/ST/filex/common/src/fx_partition_offset_calculate.c ****                 {
 311              		.loc 1 185 20 is_stmt 0 view .LVU114
 312 006e 05B1     		cbz	r5, .L21
 189:Middlewares/ST/filex/common/src/fx_partition_offset_calculate.c ****                 }
ARM GAS  C:\Users\HP\AppData\Local\Temp\ccuZUZuW.s 			page 14


 313              		.loc 1 189 21 is_stmt 1 view .LVU115
 189:Middlewares/ST/filex/common/src/fx_partition_offset_calculate.c ****                 }
 314              		.loc 1 189 37 is_stmt 0 view .LVU116
 315 0070 2B60     		str	r3, [r5]
 316              	.L21:
 193:Middlewares/ST/filex/common/src/fx_partition_offset_calculate.c ****             }
 317              		.loc 1 193 17 is_stmt 1 view .LVU117
 193:Middlewares/ST/filex/common/src/fx_partition_offset_calculate.c ****             }
 318              		.loc 1 193 23 is_stmt 0 view .LVU118
 319 0072 0020     		movs	r0, #0
 320              	.LVL26:
 193:Middlewares/ST/filex/common/src/fx_partition_offset_calculate.c ****             }
 321              		.loc 1 193 23 view .LVU119
 322 0074 34E0     		b	.L12
 323              	.LVL27:
 324              	.L17:
 164:Middlewares/ST/filex/common/src/fx_partition_offset_calculate.c ****             {
 325              		.loc 1 164 18 is_stmt 1 view .LVU120
 164:Middlewares/ST/filex/common/src/fx_partition_offset_calculate.c ****             {
 326              		.loc 1 164 42 is_stmt 0 view .LVU121
 327 0076 90F82020 		ldrb	r2, [r0, #32]	@ zero_extendqisi2
 164:Middlewares/ST/filex/common/src/fx_partition_offset_calculate.c ****             {
 328              		.loc 1 164 21 view .LVU122
 329 007a 4AB9     		cbnz	r2, .L19
 164:Middlewares/ST/filex/common/src/fx_partition_offset_calculate.c ****             {
 330              		.loc 1 164 72 discriminator 1 view .LVU123
 331 007c 90F82130 		ldrb	r3, [r0, #33]	@ zero_extendqisi2
 164:Middlewares/ST/filex/common/src/fx_partition_offset_calculate.c ****             {
 332              		.loc 1 164 49 discriminator 1 view .LVU124
 333 0080 33B9     		cbnz	r3, .L19
 164:Middlewares/ST/filex/common/src/fx_partition_offset_calculate.c ****             {
 334              		.loc 1 164 102 discriminator 2 view .LVU125
 335 0082 90F82230 		ldrb	r3, [r0, #34]	@ zero_extendqisi2
 164:Middlewares/ST/filex/common/src/fx_partition_offset_calculate.c ****             {
 336              		.loc 1 164 79 discriminator 2 view .LVU126
 337 0086 1BB9     		cbnz	r3, .L19
 164:Middlewares/ST/filex/common/src/fx_partition_offset_calculate.c ****             {
 338              		.loc 1 164 132 discriminator 3 view .LVU127
 339 0088 90F82330 		ldrb	r3, [r0, #35]	@ zero_extendqisi2
 164:Middlewares/ST/filex/common/src/fx_partition_offset_calculate.c ****             {
 340              		.loc 1 164 109 discriminator 3 view .LVU128
 341 008c 002B     		cmp	r3, #0
 342 008e C3D0     		beq	.L14
 343              	.L19:
 168:Middlewares/ST/filex/common/src/fx_partition_offset_calculate.c ****                                  (((ULONG) partition_sector_ptr[0x22]) << 16) |
 344              		.loc 1 168 17 is_stmt 1 view .LVU129
 168:Middlewares/ST/filex/common/src/fx_partition_offset_calculate.c ****                                  (((ULONG) partition_sector_ptr[0x22]) << 16) |
 345              		.loc 1 168 64 is_stmt 0 view .LVU130
 346 0090 90F82310 		ldrb	r1, [r0, #35]	@ zero_extendqisi2
 347              	.LVL28:
 169:Middlewares/ST/filex/common/src/fx_partition_offset_calculate.c ****                                  (((ULONG) partition_sector_ptr[0x21]) << 8)  |
 348              		.loc 1 169 64 view .LVU131
 349 0094 90F82230 		ldrb	r3, [r0, #34]	@ zero_extendqisi2
 169:Middlewares/ST/filex/common/src/fx_partition_offset_calculate.c ****                                  (((ULONG) partition_sector_ptr[0x21]) << 8)  |
 350              		.loc 1 169 72 view .LVU132
 351 0098 1B04     		lsls	r3, r3, #16
 168:Middlewares/ST/filex/common/src/fx_partition_offset_calculate.c ****                                  (((ULONG) partition_sector_ptr[0x22]) << 16) |
ARM GAS  C:\Users\HP\AppData\Local\Temp\ccuZUZuW.s 			page 15


 352              		.loc 1 168 79 view .LVU133
 353 009a 43EA0163 		orr	r3, r3, r1, lsl #24
 170:Middlewares/ST/filex/common/src/fx_partition_offset_calculate.c ****                                  ((ULONG) partition_sector_ptr[0x20]);
 354              		.loc 1 170 64 view .LVU134
 355 009e 90F82110 		ldrb	r1, [r0, #33]	@ zero_extendqisi2
 169:Middlewares/ST/filex/common/src/fx_partition_offset_calculate.c ****                                  (((ULONG) partition_sector_ptr[0x21]) << 8)  |
 356              		.loc 1 169 79 view .LVU135
 357 00a2 43EA0123 		orr	r3, r3, r1, lsl #8
 168:Middlewares/ST/filex/common/src/fx_partition_offset_calculate.c ****                                  (((ULONG) partition_sector_ptr[0x22]) << 16) |
 358              		.loc 1 168 31 view .LVU136
 359 00a6 1343     		orrs	r3, r3, r2
 360 00a8 0022     		movs	r2, #0
 361              	.LVL29:
 168:Middlewares/ST/filex/common/src/fx_partition_offset_calculate.c ****                                  (((ULONG) partition_sector_ptr[0x22]) << 16) |
 362              		.loc 1 168 31 view .LVU137
 363 00aa DBE7     		b	.L18
 364              	.LVL30:
 365              	.L30:
 246:Middlewares/ST/filex/common/src/fx_partition_offset_calculate.c **** 
 366              		.loc 1 246 5 is_stmt 1 view .LVU138
 367 00ac 0346     		mov	r3, r0
 368 00ae 0022     		movs	r2, #0
 369 00b0 01A9     		add	r1, sp, #4
 370 00b2 02A8     		add	r0, sp, #8
 371              	.LVL31:
 246:Middlewares/ST/filex/common/src/fx_partition_offset_calculate.c **** 
 372              		.loc 1 246 5 is_stmt 0 view .LVU139
 373 00b4 FFF7FEFF 		bl	_fx_utility_partition_get
 374              	.LVL32:
 249:Middlewares/ST/filex/common/src/fx_partition_offset_calculate.c ****     {
 375              		.loc 1 249 5 is_stmt 1 view .LVU140
 249:Middlewares/ST/filex/common/src/fx_partition_offset_calculate.c ****     {
 376              		.loc 1 249 19 is_stmt 0 view .LVU141
 377 00b8 019B     		ldr	r3, [sp, #4]
 249:Middlewares/ST/filex/common/src/fx_partition_offset_calculate.c ****     {
 378              		.loc 1 249 8 view .LVU142
 379 00ba A342     		cmp	r3, r4
 380 00bc 12D9     		bls	.L26
 257:Middlewares/ST/filex/common/src/fx_partition_offset_calculate.c ****     {
 381              		.loc 1 257 5 is_stmt 1 view .LVU143
 257:Middlewares/ST/filex/common/src/fx_partition_offset_calculate.c ****     {
 382              		.loc 1 257 8 is_stmt 0 view .LVU144
 383 00be 2EB1     		cbz	r6, .L23
 259:Middlewares/ST/filex/common/src/fx_partition_offset_calculate.c ****     }
 384              		.loc 1 259 9 is_stmt 1 view .LVU145
 259:Middlewares/ST/filex/common/src/fx_partition_offset_calculate.c ****     }
 385              		.loc 1 259 55 is_stmt 0 view .LVU146
 386 00c0 0AAB     		add	r3, sp, #40
 387 00c2 03EBC403 		add	r3, r3, r4, lsl #3
 388 00c6 53F8203C 		ldr	r3, [r3, #-32]
 259:Middlewares/ST/filex/common/src/fx_partition_offset_calculate.c ****     }
 389              		.loc 1 259 26 view .LVU147
 390 00ca 3360     		str	r3, [r6]
 391              	.L23:
 263:Middlewares/ST/filex/common/src/fx_partition_offset_calculate.c ****     {
 392              		.loc 1 263 5 is_stmt 1 view .LVU148
 263:Middlewares/ST/filex/common/src/fx_partition_offset_calculate.c ****     {
ARM GAS  C:\Users\HP\AppData\Local\Temp\ccuZUZuW.s 			page 16


 393              		.loc 1 263 8 is_stmt 0 view .LVU149
 394 00cc 65B1     		cbz	r5, .L27
 265:Middlewares/ST/filex/common/src/fx_partition_offset_calculate.c ****     }
 395              		.loc 1 265 9 is_stmt 1 view .LVU150
 265:Middlewares/ST/filex/common/src/fx_partition_offset_calculate.c ****     }
 396              		.loc 1 265 54 is_stmt 0 view .LVU151
 397 00ce 0AAB     		add	r3, sp, #40
 398 00d0 03EBC404 		add	r4, r3, r4, lsl #3
 399              	.LVL33:
 265:Middlewares/ST/filex/common/src/fx_partition_offset_calculate.c ****     }
 400              		.loc 1 265 54 view .LVU152
 401 00d4 54F81C3C 		ldr	r3, [r4, #-28]
 265:Middlewares/ST/filex/common/src/fx_partition_offset_calculate.c ****     }
 402              		.loc 1 265 25 view .LVU153
 403 00d8 2B60     		str	r3, [r5]
 269:Middlewares/ST/filex/common/src/fx_partition_offset_calculate.c **** }
 404              		.loc 1 269 11 view .LVU154
 405 00da 0020     		movs	r0, #0
 406 00dc 00E0     		b	.L12
 407              	.LVL34:
 408              	.L24:
 242:Middlewares/ST/filex/common/src/fx_partition_offset_calculate.c ****     }
 409              		.loc 1 242 15 view .LVU155
 410 00de 0420     		movs	r0, #4
 411              	.LVL35:
 412              	.L12:
 270:Middlewares/ST/filex/common/src/fx_partition_offset_calculate.c **** 
 413              		.loc 1 270 1 view .LVU156
 414 00e0 0AB0     		add	sp, sp, #40
 415              	.LCFI4:
 416              		.cfi_remember_state
 417              		.cfi_def_cfa_offset 16
 418              		@ sp needed
 419 00e2 70BD     		pop	{r4, r5, r6, pc}
 420              	.LVL36:
 421              	.L26:
 422              	.LCFI5:
 423              		.cfi_restore_state
 253:Middlewares/ST/filex/common/src/fx_partition_offset_calculate.c ****     }
 424              		.loc 1 253 15 view .LVU157
 425 00e4 0420     		movs	r0, #4
 426 00e6 FBE7     		b	.L12
 427              	.L27:
 269:Middlewares/ST/filex/common/src/fx_partition_offset_calculate.c **** }
 428              		.loc 1 269 11 view .LVU158
 429 00e8 0020     		movs	r0, #0
 430 00ea F9E7     		b	.L12
 431              		.cfi_endproc
 432              	.LFE8:
 434              		.section	.text._fx_partition_offset_calculate_extended,"ax",%progbits
 435              		.align	1
 436              		.global	_fx_partition_offset_calculate_extended
 437              		.syntax unified
 438              		.thumb
 439              		.thumb_func
 441              	_fx_partition_offset_calculate_extended:
 442              	.LVL37:
ARM GAS  C:\Users\HP\AppData\Local\Temp\ccuZUZuW.s 			page 17


 443              	.LFB10:
 362:Middlewares/ST/filex/common/src/fx_partition_offset_calculate.c **** 
 363:Middlewares/ST/filex/common/src/fx_partition_offset_calculate.c **** /**************************************************************************/ 
 364:Middlewares/ST/filex/common/src/fx_partition_offset_calculate.c **** /*                                                                        */ 
 365:Middlewares/ST/filex/common/src/fx_partition_offset_calculate.c **** /*  FUNCTION                                               RELEASE        */ 
 366:Middlewares/ST/filex/common/src/fx_partition_offset_calculate.c **** /*                                                                        */ 
 367:Middlewares/ST/filex/common/src/fx_partition_offset_calculate.c **** /*    _fx_partition_offset_calculate_extended             PORTABLE C      */ 
 368:Middlewares/ST/filex/common/src/fx_partition_offset_calculate.c **** /*                                                           6.2.0        */
 369:Middlewares/ST/filex/common/src/fx_partition_offset_calculate.c **** /*  AUTHOR                                                                */
 370:Middlewares/ST/filex/common/src/fx_partition_offset_calculate.c **** /*                                                                        */
 371:Middlewares/ST/filex/common/src/fx_partition_offset_calculate.c **** /*    Xiuwen Cai, Microsoft Corporation                                   */
 372:Middlewares/ST/filex/common/src/fx_partition_offset_calculate.c **** /*                                                                        */
 373:Middlewares/ST/filex/common/src/fx_partition_offset_calculate.c **** /*  DESCRIPTION                                                           */
 374:Middlewares/ST/filex/common/src/fx_partition_offset_calculate.c **** /*                                                                        */ 
 375:Middlewares/ST/filex/common/src/fx_partition_offset_calculate.c **** /*    This function calculates the sector offset to the specified         */ 
 376:Middlewares/ST/filex/common/src/fx_partition_offset_calculate.c **** /*    partition.  The buffer containing the partition table is also       */ 
 377:Middlewares/ST/filex/common/src/fx_partition_offset_calculate.c **** /*    supplied to this function.  If the buffer supplied is a boot        */ 
 378:Middlewares/ST/filex/common/src/fx_partition_offset_calculate.c **** /*    record (which could be the case in non-partition systems), this     */ 
 379:Middlewares/ST/filex/common/src/fx_partition_offset_calculate.c **** /*    function returns an offset of zero, the total sectors, and a        */ 
 380:Middlewares/ST/filex/common/src/fx_partition_offset_calculate.c **** /*    successful status indicating that the buffer supplied is the boot   */ 
 381:Middlewares/ST/filex/common/src/fx_partition_offset_calculate.c **** /*    record.  Otherwise, if a partition is found, this function returns  */ 
 382:Middlewares/ST/filex/common/src/fx_partition_offset_calculate.c **** /*    the sector offset to its boot record along with a successful        */ 
 383:Middlewares/ST/filex/common/src/fx_partition_offset_calculate.c **** /*    status. If the specified partition is not found or the buffer is    */ 
 384:Middlewares/ST/filex/common/src/fx_partition_offset_calculate.c **** /*    not a partition table or boot record, this function returns an      */ 
 385:Middlewares/ST/filex/common/src/fx_partition_offset_calculate.c **** /*    error.                                                              */ 
 386:Middlewares/ST/filex/common/src/fx_partition_offset_calculate.c **** /*                                                                        */ 
 387:Middlewares/ST/filex/common/src/fx_partition_offset_calculate.c **** /*    Note: Empty partitions have a FX_NOT_FOUND return code.             */
 388:Middlewares/ST/filex/common/src/fx_partition_offset_calculate.c **** /*      Use partition index 0 to 3 for primary partition and index 4 to   */
 389:Middlewares/ST/filex/common/src/fx_partition_offset_calculate.c **** /*      FX_MAX_PARTITION_COUNT for extended partition.                    */
 390:Middlewares/ST/filex/common/src/fx_partition_offset_calculate.c **** /*                                                                        */ 
 391:Middlewares/ST/filex/common/src/fx_partition_offset_calculate.c **** /*  INPUT                                                                 */ 
 392:Middlewares/ST/filex/common/src/fx_partition_offset_calculate.c **** /*                                                                        */ 
 393:Middlewares/ST/filex/common/src/fx_partition_offset_calculate.c **** /*    media_ptr                             Media control block pointer   */
 394:Middlewares/ST/filex/common/src/fx_partition_offset_calculate.c **** /*    partition_sector                      Pointer to buffer containing  */ 
 395:Middlewares/ST/filex/common/src/fx_partition_offset_calculate.c **** /*                                            either the partition table  */ 
 396:Middlewares/ST/filex/common/src/fx_partition_offset_calculate.c **** /*                                            or the boot sector          */ 
 397:Middlewares/ST/filex/common/src/fx_partition_offset_calculate.c **** /*    partition                             Desired partition             */ 
 398:Middlewares/ST/filex/common/src/fx_partition_offset_calculate.c **** /*    partition_start                       Return partition start        */ 
 399:Middlewares/ST/filex/common/src/fx_partition_offset_calculate.c **** /*    partition_size                        Return partition size         */ 
 400:Middlewares/ST/filex/common/src/fx_partition_offset_calculate.c **** /*                                                                        */ 
 401:Middlewares/ST/filex/common/src/fx_partition_offset_calculate.c **** /*  OUTPUT                                                                */ 
 402:Middlewares/ST/filex/common/src/fx_partition_offset_calculate.c **** /*                                                                        */ 
 403:Middlewares/ST/filex/common/src/fx_partition_offset_calculate.c **** /*    return status                                                       */ 
 404:Middlewares/ST/filex/common/src/fx_partition_offset_calculate.c **** /*                                                                        */ 
 405:Middlewares/ST/filex/common/src/fx_partition_offset_calculate.c **** /*  CALLS                                                                 */ 
 406:Middlewares/ST/filex/common/src/fx_partition_offset_calculate.c **** /*                                                                        */ 
 407:Middlewares/ST/filex/common/src/fx_partition_offset_calculate.c **** /*    _fx_utility_16_unsigned_read          Read a USHORT from memory     */
 408:Middlewares/ST/filex/common/src/fx_partition_offset_calculate.c **** /*    _fx_utility_32_unsigned_read          Read a ULONG from memory      */
 409:Middlewares/ST/filex/common/src/fx_partition_offset_calculate.c **** /*    _fx_utility_64_unsigned_read          Read a ULONG64 from memory    */
 410:Middlewares/ST/filex/common/src/fx_partition_offset_calculate.c **** /*    Media driver                                                        */
 411:Middlewares/ST/filex/common/src/fx_partition_offset_calculate.c **** /*                                                                        */ 
 412:Middlewares/ST/filex/common/src/fx_partition_offset_calculate.c **** /*  CALLED BY                                                             */ 
 413:Middlewares/ST/filex/common/src/fx_partition_offset_calculate.c **** /*                                                                        */ 
 414:Middlewares/ST/filex/common/src/fx_partition_offset_calculate.c **** /*    Application Driver                                                  */ 
 415:Middlewares/ST/filex/common/src/fx_partition_offset_calculate.c **** /*                                                                        */ 
 416:Middlewares/ST/filex/common/src/fx_partition_offset_calculate.c **** /*  RELEASE HISTORY                                                       */ 
 417:Middlewares/ST/filex/common/src/fx_partition_offset_calculate.c **** /*                                                                        */ 
ARM GAS  C:\Users\HP\AppData\Local\Temp\ccuZUZuW.s 			page 18


 418:Middlewares/ST/filex/common/src/fx_partition_offset_calculate.c **** /*    DATE              NAME                      DESCRIPTION             */
 419:Middlewares/ST/filex/common/src/fx_partition_offset_calculate.c **** /*                                                                        */
 420:Middlewares/ST/filex/common/src/fx_partition_offset_calculate.c **** /*  10-31-2022     Xiuwen Cai               Initial Version 6.2.0        */
 421:Middlewares/ST/filex/common/src/fx_partition_offset_calculate.c **** /*                                                                        */
 422:Middlewares/ST/filex/common/src/fx_partition_offset_calculate.c **** /**************************************************************************/
 423:Middlewares/ST/filex/common/src/fx_partition_offset_calculate.c **** UINT  _fx_partition_offset_calculate_extended(FX_MEDIA *media_ptr, void  *partition_sector, UINT pa
 424:Middlewares/ST/filex/common/src/fx_partition_offset_calculate.c ****                                      ULONG *partition_start, ULONG *partition_size)
 425:Middlewares/ST/filex/common/src/fx_partition_offset_calculate.c **** {
 444              		.loc 1 425 1 is_stmt 1 view -0
 445              		.cfi_startproc
 446              		@ args = 4, pretend = 0, frame = 0
 447              		@ frame_needed = 0, uses_anonymous_args = 0
 448              		.loc 1 425 1 is_stmt 0 view .LVU160
 449 0000 2DE9F84F 		push	{r3, r4, r5, r6, r7, r8, r9, r10, fp, lr}
 450              	.LCFI6:
 451              		.cfi_def_cfa_offset 40
 452              		.cfi_offset 3, -40
 453              		.cfi_offset 4, -36
 454              		.cfi_offset 5, -32
 455              		.cfi_offset 6, -28
 456              		.cfi_offset 7, -24
 457              		.cfi_offset 8, -20
 458              		.cfi_offset 9, -16
 459              		.cfi_offset 10, -12
 460              		.cfi_offset 11, -8
 461              		.cfi_offset 14, -4
 462 0004 0446     		mov	r4, r0
 463 0006 0D46     		mov	r5, r1
 464 0008 1646     		mov	r6, r2
 465 000a 9A46     		mov	r10, r3
 426:Middlewares/ST/filex/common/src/fx_partition_offset_calculate.c ****     
 427:Middlewares/ST/filex/common/src/fx_partition_offset_calculate.c **** ULONG64             total_sectors;
 466              		.loc 1 427 1 is_stmt 1 view .LVU161
 428:Middlewares/ST/filex/common/src/fx_partition_offset_calculate.c **** UCHAR               *partition_sector_ptr;
 467              		.loc 1 428 1 view .LVU162
 429:Middlewares/ST/filex/common/src/fx_partition_offset_calculate.c **** UCHAR               partition_type;
 468              		.loc 1 429 1 view .LVU163
 430:Middlewares/ST/filex/common/src/fx_partition_offset_calculate.c **** UINT                i;
 469              		.loc 1 430 1 view .LVU164
 431:Middlewares/ST/filex/common/src/fx_partition_offset_calculate.c **** ULONG               base_sector;
 470              		.loc 1 431 1 view .LVU165
 432:Middlewares/ST/filex/common/src/fx_partition_offset_calculate.c **** ULONG               base_sector_extended;
 471              		.loc 1 432 1 view .LVU166
 433:Middlewares/ST/filex/common/src/fx_partition_offset_calculate.c **** 
 434:Middlewares/ST/filex/common/src/fx_partition_offset_calculate.c **** 
 435:Middlewares/ST/filex/common/src/fx_partition_offset_calculate.c ****     /* Setup working pointer.  */
 436:Middlewares/ST/filex/common/src/fx_partition_offset_calculate.c ****     partition_sector_ptr =  partition_sector;
 472              		.loc 1 436 5 view .LVU167
 473              	.LVL38:
 437:Middlewares/ST/filex/common/src/fx_partition_offset_calculate.c **** 
 438:Middlewares/ST/filex/common/src/fx_partition_offset_calculate.c ****     /* Check for a real boot sector instead of a partition table.  */
 439:Middlewares/ST/filex/common/src/fx_partition_offset_calculate.c ****     if ((partition_sector_ptr[0] == 0xe9) || ((partition_sector_ptr[0] == 0xeb) && (partition_secto
 474              		.loc 1 439 5 view .LVU168
 475              		.loc 1 439 30 is_stmt 0 view .LVU169
 476 000c 0B78     		ldrb	r3, [r1]	@ zero_extendqisi2
 477              	.LVL39:
 478              		.loc 1 439 8 view .LVU170
ARM GAS  C:\Users\HP\AppData\Local\Temp\ccuZUZuW.s 			page 19


 479 000e E92B     		cmp	r3, #233
 480 0010 2CD0     		beq	.L32
 481              		.loc 1 439 43 discriminator 1 view .LVU171
 482 0012 EB2B     		cmp	r3, #235
 483 0014 27D0     		beq	.L64
 484              	.LVL40:
 485              	.L33:
 440:Middlewares/ST/filex/common/src/fx_partition_offset_calculate.c ****     {
 441:Middlewares/ST/filex/common/src/fx_partition_offset_calculate.c ****     
 442:Middlewares/ST/filex/common/src/fx_partition_offset_calculate.c ****         /* Yes, a real boot sector could be present.  */  
 443:Middlewares/ST/filex/common/src/fx_partition_offset_calculate.c **** 
 444:Middlewares/ST/filex/common/src/fx_partition_offset_calculate.c ****         /* See if there are good values for sectors per FAT.  */
 445:Middlewares/ST/filex/common/src/fx_partition_offset_calculate.c ****         if (partition_sector_ptr[0x16] || partition_sector_ptr[0x17] || partition_sector_ptr[0x24] 
 446:Middlewares/ST/filex/common/src/fx_partition_offset_calculate.c ****         {
 447:Middlewares/ST/filex/common/src/fx_partition_offset_calculate.c **** 
 448:Middlewares/ST/filex/common/src/fx_partition_offset_calculate.c ****             /* There are values for sectors per FAT.  */
 449:Middlewares/ST/filex/common/src/fx_partition_offset_calculate.c **** 
 450:Middlewares/ST/filex/common/src/fx_partition_offset_calculate.c ****             /* Get the total sectors, FAT12/16.  */
 451:Middlewares/ST/filex/common/src/fx_partition_offset_calculate.c ****             total_sectors =  _fx_utility_16_unsigned_read(&partition_sector_ptr[FX_SECTORS]);
 452:Middlewares/ST/filex/common/src/fx_partition_offset_calculate.c **** 
 453:Middlewares/ST/filex/common/src/fx_partition_offset_calculate.c ****             if (total_sectors == 0)
 454:Middlewares/ST/filex/common/src/fx_partition_offset_calculate.c ****             {
 455:Middlewares/ST/filex/common/src/fx_partition_offset_calculate.c **** 
 456:Middlewares/ST/filex/common/src/fx_partition_offset_calculate.c ****                 /* Get the total sectors, FAT32.  */
 457:Middlewares/ST/filex/common/src/fx_partition_offset_calculate.c ****                 total_sectors = _fx_utility_32_unsigned_read(&partition_sector_ptr[FX_HUGE_SECTORS]
 458:Middlewares/ST/filex/common/src/fx_partition_offset_calculate.c ****             }       
 459:Middlewares/ST/filex/common/src/fx_partition_offset_calculate.c **** 
 460:Middlewares/ST/filex/common/src/fx_partition_offset_calculate.c ****             /* Determine if there is a total sector count.  */
 461:Middlewares/ST/filex/common/src/fx_partition_offset_calculate.c ****             if (total_sectors)
 462:Middlewares/ST/filex/common/src/fx_partition_offset_calculate.c ****             {
 463:Middlewares/ST/filex/common/src/fx_partition_offset_calculate.c **** 
 464:Middlewares/ST/filex/common/src/fx_partition_offset_calculate.c ****                 if (partition_start != FX_NULL)
 465:Middlewares/ST/filex/common/src/fx_partition_offset_calculate.c ****                 {
 466:Middlewares/ST/filex/common/src/fx_partition_offset_calculate.c ****                     /* Return an offset of 0, size of boot record, and a successful status.  */
 467:Middlewares/ST/filex/common/src/fx_partition_offset_calculate.c ****                     *partition_start =  0;
 468:Middlewares/ST/filex/common/src/fx_partition_offset_calculate.c ****                 }
 469:Middlewares/ST/filex/common/src/fx_partition_offset_calculate.c **** 
 470:Middlewares/ST/filex/common/src/fx_partition_offset_calculate.c ****                 /* Determine if the total sectors is required.  */
 471:Middlewares/ST/filex/common/src/fx_partition_offset_calculate.c ****                 if (partition_size != FX_NULL)
 472:Middlewares/ST/filex/common/src/fx_partition_offset_calculate.c ****                 {
 473:Middlewares/ST/filex/common/src/fx_partition_offset_calculate.c **** 
 474:Middlewares/ST/filex/common/src/fx_partition_offset_calculate.c ****                     /* Return the total sectors.  */
 475:Middlewares/ST/filex/common/src/fx_partition_offset_calculate.c ****                     *partition_size =  (ULONG)(total_sectors & 0xFFFFFFFF);
 476:Middlewares/ST/filex/common/src/fx_partition_offset_calculate.c ****                 }
 477:Middlewares/ST/filex/common/src/fx_partition_offset_calculate.c **** 
 478:Middlewares/ST/filex/common/src/fx_partition_offset_calculate.c ****                 /* Return success!  */
 479:Middlewares/ST/filex/common/src/fx_partition_offset_calculate.c ****                 return(FX_SUCCESS);
 480:Middlewares/ST/filex/common/src/fx_partition_offset_calculate.c ****             }
 481:Middlewares/ST/filex/common/src/fx_partition_offset_calculate.c ****         }
 482:Middlewares/ST/filex/common/src/fx_partition_offset_calculate.c **** #ifdef FX_ENABLE_EXFAT
 483:Middlewares/ST/filex/common/src/fx_partition_offset_calculate.c ****         /* See if there are good values for sectors per exFAT.  */
 484:Middlewares/ST/filex/common/src/fx_partition_offset_calculate.c ****         else if (partition_sector_ptr[0x0b] == 0 && partition_sector_ptr[0x0c] == 0)
 485:Middlewares/ST/filex/common/src/fx_partition_offset_calculate.c ****         {
 486:Middlewares/ST/filex/common/src/fx_partition_offset_calculate.c ****             /* There are values for sectors per exFAT.  */
 487:Middlewares/ST/filex/common/src/fx_partition_offset_calculate.c **** 
 488:Middlewares/ST/filex/common/src/fx_partition_offset_calculate.c ****             /* Calculate the total sectors.  */
 489:Middlewares/ST/filex/common/src/fx_partition_offset_calculate.c ****             total_sectors = _fx_utility_64_unsigned_read(&partition_sector_ptr[FX_EF_VOLUME_LENGTH]
ARM GAS  C:\Users\HP\AppData\Local\Temp\ccuZUZuW.s 			page 20


 490:Middlewares/ST/filex/common/src/fx_partition_offset_calculate.c **** 
 491:Middlewares/ST/filex/common/src/fx_partition_offset_calculate.c ****             /* Determine if there is a total sector count.  */
 492:Middlewares/ST/filex/common/src/fx_partition_offset_calculate.c ****             if (total_sectors)
 493:Middlewares/ST/filex/common/src/fx_partition_offset_calculate.c ****             {
 494:Middlewares/ST/filex/common/src/fx_partition_offset_calculate.c **** 
 495:Middlewares/ST/filex/common/src/fx_partition_offset_calculate.c ****                 if (partition_start != FX_NULL)
 496:Middlewares/ST/filex/common/src/fx_partition_offset_calculate.c ****                 {
 497:Middlewares/ST/filex/common/src/fx_partition_offset_calculate.c ****                     /* Return an offset of 0, size of boot record, and a successful status.  */
 498:Middlewares/ST/filex/common/src/fx_partition_offset_calculate.c ****                     *partition_start =  0;
 499:Middlewares/ST/filex/common/src/fx_partition_offset_calculate.c ****                 }
 500:Middlewares/ST/filex/common/src/fx_partition_offset_calculate.c **** 
 501:Middlewares/ST/filex/common/src/fx_partition_offset_calculate.c ****                 /* Determine if the total sectors is required.  */
 502:Middlewares/ST/filex/common/src/fx_partition_offset_calculate.c ****                 if (partition_size != FX_NULL)
 503:Middlewares/ST/filex/common/src/fx_partition_offset_calculate.c ****                 {
 504:Middlewares/ST/filex/common/src/fx_partition_offset_calculate.c **** 
 505:Middlewares/ST/filex/common/src/fx_partition_offset_calculate.c ****                     if (total_sectors > 0xFFFFFFFF)
 506:Middlewares/ST/filex/common/src/fx_partition_offset_calculate.c ****                     {
 507:Middlewares/ST/filex/common/src/fx_partition_offset_calculate.c **** 
 508:Middlewares/ST/filex/common/src/fx_partition_offset_calculate.c ****                         /* Overflow. Just return not found. */
 509:Middlewares/ST/filex/common/src/fx_partition_offset_calculate.c ****                         return(FX_NOT_FOUND);
 510:Middlewares/ST/filex/common/src/fx_partition_offset_calculate.c ****                     }
 511:Middlewares/ST/filex/common/src/fx_partition_offset_calculate.c **** 
 512:Middlewares/ST/filex/common/src/fx_partition_offset_calculate.c ****                     /* Return the total sectors.  */
 513:Middlewares/ST/filex/common/src/fx_partition_offset_calculate.c ****                     *partition_size =  (ULONG)(total_sectors & 0xFFFFFFFF);
 514:Middlewares/ST/filex/common/src/fx_partition_offset_calculate.c ****                 }
 515:Middlewares/ST/filex/common/src/fx_partition_offset_calculate.c **** 
 516:Middlewares/ST/filex/common/src/fx_partition_offset_calculate.c ****                 /* Return success!  */
 517:Middlewares/ST/filex/common/src/fx_partition_offset_calculate.c ****                 return(FX_SUCCESS);
 518:Middlewares/ST/filex/common/src/fx_partition_offset_calculate.c ****             }
 519:Middlewares/ST/filex/common/src/fx_partition_offset_calculate.c ****         }
 520:Middlewares/ST/filex/common/src/fx_partition_offset_calculate.c **** #endif /* FX_ENABLE_EXFAT */
 521:Middlewares/ST/filex/common/src/fx_partition_offset_calculate.c ****     }
 522:Middlewares/ST/filex/common/src/fx_partition_offset_calculate.c **** 
 523:Middlewares/ST/filex/common/src/fx_partition_offset_calculate.c ****     /* Check signature to make sure the buffer is valid.  */
 524:Middlewares/ST/filex/common/src/fx_partition_offset_calculate.c ****     if ((partition_sector_ptr[510] != FX_SIG_BYTE_1) || (partition_sector_ptr[511] != FX_SIG_BYTE_2
 486              		.loc 1 524 5 is_stmt 1 view .LVU172
 487              		.loc 1 524 30 is_stmt 0 view .LVU173
 488 0016 95F8FE31 		ldrb	r3, [r5, #510]	@ zero_extendqisi2
 489              		.loc 1 524 8 view .LVU174
 490 001a 552B     		cmp	r3, #85
 491 001c 40F0BD80 		bne	.L53
 492              		.loc 1 524 78 discriminator 1 view .LVU175
 493 0020 95F8FF31 		ldrb	r3, [r5, #511]	@ zero_extendqisi2
 494              		.loc 1 524 54 discriminator 1 view .LVU176
 495 0024 AA2B     		cmp	r3, #170
 496 0026 40F0BC80 		bne	.L54
 525:Middlewares/ST/filex/common/src/fx_partition_offset_calculate.c ****     {
 526:Middlewares/ST/filex/common/src/fx_partition_offset_calculate.c **** 
 527:Middlewares/ST/filex/common/src/fx_partition_offset_calculate.c ****         /* Invalid, return an error.  */
 528:Middlewares/ST/filex/common/src/fx_partition_offset_calculate.c ****         return(FX_NOT_FOUND);
 529:Middlewares/ST/filex/common/src/fx_partition_offset_calculate.c ****     }
 530:Middlewares/ST/filex/common/src/fx_partition_offset_calculate.c ****     
 531:Middlewares/ST/filex/common/src/fx_partition_offset_calculate.c ****     /* Not bootable, look for specific partition.  */
 532:Middlewares/ST/filex/common/src/fx_partition_offset_calculate.c **** 
 533:Middlewares/ST/filex/common/src/fx_partition_offset_calculate.c ****     /* Check if primary partitions are addressed.  */
 534:Middlewares/ST/filex/common/src/fx_partition_offset_calculate.c ****     if (partition < 4)
 497              		.loc 1 534 5 is_stmt 1 view .LVU177
ARM GAS  C:\Users\HP\AppData\Local\Temp\ccuZUZuW.s 			page 21


 498              		.loc 1 534 8 is_stmt 0 view .LVU178
 499 002a 032E     		cmp	r6, #3
 500 002c 4AD8     		bhi	.L39
 535:Middlewares/ST/filex/common/src/fx_partition_offset_calculate.c ****     {
 536:Middlewares/ST/filex/common/src/fx_partition_offset_calculate.c **** 
 537:Middlewares/ST/filex/common/src/fx_partition_offset_calculate.c ****         /* Get partition type.  */
 538:Middlewares/ST/filex/common/src/fx_partition_offset_calculate.c ****         partition_type =  partition_sector_ptr[FX_PARTITION_TABLE_OFFSET + partition * FX_PARTITION
 501              		.loc 1 538 9 is_stmt 1 view .LVU179
 502              		.loc 1 538 86 is_stmt 0 view .LVU180
 503 002e 3601     		lsls	r6, r6, #4
 504              	.LVL41:
 505              		.loc 1 538 47 view .LVU181
 506 0030 06F5E173 		add	r3, r6, #450
 507              		.loc 1 538 24 view .LVU182
 508 0034 EB5C     		ldrb	r3, [r5, r3]	@ zero_extendqisi2
 509              	.LVL42:
 539:Middlewares/ST/filex/common/src/fx_partition_offset_calculate.c **** 
 540:Middlewares/ST/filex/common/src/fx_partition_offset_calculate.c ****         /* Check if there is a vaild partition.  */
 541:Middlewares/ST/filex/common/src/fx_partition_offset_calculate.c ****         if (partition_type != FX_PARTITION_TYPE_FREE)
 510              		.loc 1 541 9 is_stmt 1 view .LVU183
 511              		.loc 1 541 12 is_stmt 0 view .LVU184
 512 0036 002B     		cmp	r3, #0
 513 0038 00F0B580 		beq	.L55
 542:Middlewares/ST/filex/common/src/fx_partition_offset_calculate.c ****         {
 543:Middlewares/ST/filex/common/src/fx_partition_offset_calculate.c **** 
 544:Middlewares/ST/filex/common/src/fx_partition_offset_calculate.c ****             /* Return the partition starting sector, if non-NULL.  */
 545:Middlewares/ST/filex/common/src/fx_partition_offset_calculate.c ****             if (partition_start != FX_NULL)
 514              		.loc 1 545 13 is_stmt 1 view .LVU185
 515              		.loc 1 545 16 is_stmt 0 view .LVU186
 516 003c BAF1000F 		cmp	r10, #0
 517 0040 06D0     		beq	.L40
 546:Middlewares/ST/filex/common/src/fx_partition_offset_calculate.c ****             {
 547:Middlewares/ST/filex/common/src/fx_partition_offset_calculate.c ****                 *partition_start = _fx_utility_32_unsigned_read(&partition_sector_ptr[FX_PARTITION_
 518              		.loc 1 547 17 is_stmt 1 view .LVU187
 519              		.loc 1 547 86 is_stmt 0 view .LVU188
 520 0042 06F5E370 		add	r0, r6, #454
 521              		.loc 1 547 36 view .LVU189
 522 0046 2844     		add	r0, r0, r5
 523 0048 FFF7FEFF 		bl	_fx_utility_32_unsigned_read
 524              	.LVL43:
 525              		.loc 1 547 34 view .LVU190
 526 004c CAF80000 		str	r0, [r10]
 527              	.L40:
 548:Middlewares/ST/filex/common/src/fx_partition_offset_calculate.c ****             }
 549:Middlewares/ST/filex/common/src/fx_partition_offset_calculate.c **** 
 550:Middlewares/ST/filex/common/src/fx_partition_offset_calculate.c ****             /* Return the partition size, if non-NULL.  */
 551:Middlewares/ST/filex/common/src/fx_partition_offset_calculate.c ****             if (partition_size != FX_NULL)
 528              		.loc 1 551 13 is_stmt 1 view .LVU191
 529              		.loc 1 551 16 is_stmt 0 view .LVU192
 530 0050 0A9B     		ldr	r3, [sp, #40]
 531 0052 33B1     		cbz	r3, .L41
 552:Middlewares/ST/filex/common/src/fx_partition_offset_calculate.c ****             {
 553:Middlewares/ST/filex/common/src/fx_partition_offset_calculate.c ****                 *partition_size =  _fx_utility_32_unsigned_read(&partition_sector_ptr[FX_PARTITION_
 532              		.loc 1 553 17 is_stmt 1 view .LVU193
 533              		.loc 1 553 86 is_stmt 0 view .LVU194
 534 0054 06F5E576 		add	r6, r6, #458
 535              		.loc 1 553 36 view .LVU195
ARM GAS  C:\Users\HP\AppData\Local\Temp\ccuZUZuW.s 			page 22


 536 0058 A819     		adds	r0, r5, r6
 537 005a FFF7FEFF 		bl	_fx_utility_32_unsigned_read
 538              	.LVL44:
 539              		.loc 1 553 33 view .LVU196
 540 005e 0A9B     		ldr	r3, [sp, #40]
 541 0060 1860     		str	r0, [r3]
 542              	.L41:
 554:Middlewares/ST/filex/common/src/fx_partition_offset_calculate.c ****             }
 555:Middlewares/ST/filex/common/src/fx_partition_offset_calculate.c **** 
 556:Middlewares/ST/filex/common/src/fx_partition_offset_calculate.c ****             /* Return success!  */
 557:Middlewares/ST/filex/common/src/fx_partition_offset_calculate.c ****             return(FX_SUCCESS);
 543              		.loc 1 557 13 is_stmt 1 view .LVU197
 544              		.loc 1 557 19 is_stmt 0 view .LVU198
 545 0062 0027     		movs	r7, #0
 546 0064 9AE0     		b	.L31
 547              	.LVL45:
 548              	.L64:
 439:Middlewares/ST/filex/common/src/fx_partition_offset_calculate.c ****     {
 549              		.loc 1 439 105 discriminator 2 view .LVU199
 550 0066 8B78     		ldrb	r3, [r1, #2]	@ zero_extendqisi2
 439:Middlewares/ST/filex/common/src/fx_partition_offset_calculate.c ****     {
 551              		.loc 1 439 81 discriminator 2 view .LVU200
 552 0068 902B     		cmp	r3, #144
 553 006a D4D1     		bne	.L33
 554              	.L32:
 445:Middlewares/ST/filex/common/src/fx_partition_offset_calculate.c ****         {
 555              		.loc 1 445 9 is_stmt 1 view .LVU201
 445:Middlewares/ST/filex/common/src/fx_partition_offset_calculate.c ****         {
 556              		.loc 1 445 33 is_stmt 0 view .LVU202
 557 006c AB7D     		ldrb	r3, [r5, #22]	@ zero_extendqisi2
 445:Middlewares/ST/filex/common/src/fx_partition_offset_calculate.c ****         {
 558              		.loc 1 445 12 view .LVU203
 559 006e 73B9     		cbnz	r3, .L34
 445:Middlewares/ST/filex/common/src/fx_partition_offset_calculate.c ****         {
 560              		.loc 1 445 63 discriminator 1 view .LVU204
 561 0070 EB7D     		ldrb	r3, [r5, #23]	@ zero_extendqisi2
 445:Middlewares/ST/filex/common/src/fx_partition_offset_calculate.c ****         {
 562              		.loc 1 445 40 discriminator 1 view .LVU205
 563 0072 63B9     		cbnz	r3, .L34
 445:Middlewares/ST/filex/common/src/fx_partition_offset_calculate.c ****         {
 564              		.loc 1 445 93 discriminator 2 view .LVU206
 565 0074 95F82430 		ldrb	r3, [r5, #36]	@ zero_extendqisi2
 445:Middlewares/ST/filex/common/src/fx_partition_offset_calculate.c ****         {
 566              		.loc 1 445 70 discriminator 2 view .LVU207
 567 0078 4BB9     		cbnz	r3, .L34
 445:Middlewares/ST/filex/common/src/fx_partition_offset_calculate.c ****         {
 568              		.loc 1 445 123 discriminator 3 view .LVU208
 569 007a 95F82530 		ldrb	r3, [r5, #37]	@ zero_extendqisi2
 445:Middlewares/ST/filex/common/src/fx_partition_offset_calculate.c ****         {
 570              		.loc 1 445 100 discriminator 3 view .LVU209
 571 007e 33B9     		cbnz	r3, .L34
 445:Middlewares/ST/filex/common/src/fx_partition_offset_calculate.c ****         {
 572              		.loc 1 445 153 discriminator 4 view .LVU210
 573 0080 95F82630 		ldrb	r3, [r5, #38]	@ zero_extendqisi2
 445:Middlewares/ST/filex/common/src/fx_partition_offset_calculate.c ****         {
 574              		.loc 1 445 130 discriminator 4 view .LVU211
 575 0084 1BB9     		cbnz	r3, .L34
ARM GAS  C:\Users\HP\AppData\Local\Temp\ccuZUZuW.s 			page 23


 445:Middlewares/ST/filex/common/src/fx_partition_offset_calculate.c ****         {
 576              		.loc 1 445 183 discriminator 5 view .LVU212
 577 0086 95F82730 		ldrb	r3, [r5, #39]	@ zero_extendqisi2
 445:Middlewares/ST/filex/common/src/fx_partition_offset_calculate.c ****         {
 578              		.loc 1 445 160 discriminator 5 view .LVU213
 579 008a 002B     		cmp	r3, #0
 580 008c C3D0     		beq	.L33
 581              	.L34:
 451:Middlewares/ST/filex/common/src/fx_partition_offset_calculate.c **** 
 582              		.loc 1 451 13 is_stmt 1 view .LVU214
 451:Middlewares/ST/filex/common/src/fx_partition_offset_calculate.c **** 
 583              		.loc 1 451 30 is_stmt 0 view .LVU215
 584 008e 05F11300 		add	r0, r5, #19
 585              	.LVL46:
 451:Middlewares/ST/filex/common/src/fx_partition_offset_calculate.c **** 
 586              		.loc 1 451 30 view .LVU216
 587 0092 FFF7FEFF 		bl	_fx_utility_16_unsigned_read
 588              	.LVL47:
 451:Middlewares/ST/filex/common/src/fx_partition_offset_calculate.c **** 
 589              		.loc 1 451 27 view .LVU217
 590 0096 0346     		mov	r3, r0
 591 0098 0022     		movs	r2, #0
 592              	.LVL48:
 453:Middlewares/ST/filex/common/src/fx_partition_offset_calculate.c ****             {
 593              		.loc 1 453 13 is_stmt 1 view .LVU218
 453:Middlewares/ST/filex/common/src/fx_partition_offset_calculate.c ****             {
 594              		.loc 1 453 16 is_stmt 0 view .LVU219
 595 009a 60B1     		cbz	r0, .L65
 596              	.LVL49:
 597              	.L35:
 461:Middlewares/ST/filex/common/src/fx_partition_offset_calculate.c ****             {
 598              		.loc 1 461 13 is_stmt 1 view .LVU220
 461:Middlewares/ST/filex/common/src/fx_partition_offset_calculate.c ****             {
 599              		.loc 1 461 16 is_stmt 0 view .LVU221
 600 009c 1A43     		orrs	r2, r3, r2
 601              	.LVL50:
 461:Middlewares/ST/filex/common/src/fx_partition_offset_calculate.c ****             {
 602              		.loc 1 461 16 view .LVU222
 603 009e BAD0     		beq	.L33
 464:Middlewares/ST/filex/common/src/fx_partition_offset_calculate.c ****                 {
 604              		.loc 1 464 17 is_stmt 1 view .LVU223
 464:Middlewares/ST/filex/common/src/fx_partition_offset_calculate.c ****                 {
 605              		.loc 1 464 20 is_stmt 0 view .LVU224
 606 00a0 BAF1000F 		cmp	r10, #0
 607 00a4 02D0     		beq	.L36
 467:Middlewares/ST/filex/common/src/fx_partition_offset_calculate.c ****                 }
 608              		.loc 1 467 21 is_stmt 1 view .LVU225
 467:Middlewares/ST/filex/common/src/fx_partition_offset_calculate.c ****                 }
 609              		.loc 1 467 38 is_stmt 0 view .LVU226
 610 00a6 0022     		movs	r2, #0
 611 00a8 CAF80020 		str	r2, [r10]
 612              	.L36:
 471:Middlewares/ST/filex/common/src/fx_partition_offset_calculate.c ****                 {
 613              		.loc 1 471 17 is_stmt 1 view .LVU227
 471:Middlewares/ST/filex/common/src/fx_partition_offset_calculate.c ****                 {
 614              		.loc 1 471 20 is_stmt 0 view .LVU228
 615 00ac 0A9A     		ldr	r2, [sp, #40]
ARM GAS  C:\Users\HP\AppData\Local\Temp\ccuZUZuW.s 			page 24


 616 00ae 02B1     		cbz	r2, .L37
 475:Middlewares/ST/filex/common/src/fx_partition_offset_calculate.c ****                 }
 617              		.loc 1 475 21 is_stmt 1 view .LVU229
 475:Middlewares/ST/filex/common/src/fx_partition_offset_calculate.c ****                 }
 618              		.loc 1 475 37 is_stmt 0 view .LVU230
 619 00b0 1360     		str	r3, [r2]
 620              	.L37:
 479:Middlewares/ST/filex/common/src/fx_partition_offset_calculate.c ****             }
 621              		.loc 1 479 17 is_stmt 1 view .LVU231
 479:Middlewares/ST/filex/common/src/fx_partition_offset_calculate.c ****             }
 622              		.loc 1 479 23 is_stmt 0 view .LVU232
 623 00b2 0027     		movs	r7, #0
 624 00b4 72E0     		b	.L31
 625              	.LVL51:
 626              	.L65:
 457:Middlewares/ST/filex/common/src/fx_partition_offset_calculate.c ****             }       
 627              		.loc 1 457 17 is_stmt 1 view .LVU233
 457:Middlewares/ST/filex/common/src/fx_partition_offset_calculate.c ****             }       
 628              		.loc 1 457 33 is_stmt 0 view .LVU234
 629 00b6 05F12000 		add	r0, r5, #32
 630              	.LVL52:
 457:Middlewares/ST/filex/common/src/fx_partition_offset_calculate.c ****             }       
 631              		.loc 1 457 33 view .LVU235
 632 00ba FFF7FEFF 		bl	_fx_utility_32_unsigned_read
 633              	.LVL53:
 457:Middlewares/ST/filex/common/src/fx_partition_offset_calculate.c ****             }       
 634              		.loc 1 457 31 view .LVU236
 635 00be 0346     		mov	r3, r0
 636 00c0 0022     		movs	r2, #0
 637              	.LVL54:
 457:Middlewares/ST/filex/common/src/fx_partition_offset_calculate.c ****             }       
 638              		.loc 1 457 31 view .LVU237
 639 00c2 EBE7     		b	.L35
 640              	.LVL55:
 641              	.L39:
 558:Middlewares/ST/filex/common/src/fx_partition_offset_calculate.c ****         }
 559:Middlewares/ST/filex/common/src/fx_partition_offset_calculate.c ****         else
 560:Middlewares/ST/filex/common/src/fx_partition_offset_calculate.c ****         {
 561:Middlewares/ST/filex/common/src/fx_partition_offset_calculate.c **** 
 562:Middlewares/ST/filex/common/src/fx_partition_offset_calculate.c ****             /* Not partition here.  */
 563:Middlewares/ST/filex/common/src/fx_partition_offset_calculate.c ****             return(FX_NOT_FOUND);            
 564:Middlewares/ST/filex/common/src/fx_partition_offset_calculate.c ****         }
 565:Middlewares/ST/filex/common/src/fx_partition_offset_calculate.c ****     }
 566:Middlewares/ST/filex/common/src/fx_partition_offset_calculate.c **** 
 567:Middlewares/ST/filex/common/src/fx_partition_offset_calculate.c ****     /* Check for invalid parameter.  */
 568:Middlewares/ST/filex/common/src/fx_partition_offset_calculate.c ****     if (partition > FX_MAX_PARTITION_COUNT)
 642              		.loc 1 568 5 is_stmt 1 view .LVU238
 643              		.loc 1 568 8 is_stmt 0 view .LVU239
 644 00c4 102E     		cmp	r6, #16
 645 00c6 70D8     		bhi	.L56
 569:Middlewares/ST/filex/common/src/fx_partition_offset_calculate.c ****     {
 570:Middlewares/ST/filex/common/src/fx_partition_offset_calculate.c **** 
 571:Middlewares/ST/filex/common/src/fx_partition_offset_calculate.c ****         /* Return error.  */
 572:Middlewares/ST/filex/common/src/fx_partition_offset_calculate.c ****         return(FX_NOT_FOUND);     
 573:Middlewares/ST/filex/common/src/fx_partition_offset_calculate.c ****     }
 574:Middlewares/ST/filex/common/src/fx_partition_offset_calculate.c **** 
 575:Middlewares/ST/filex/common/src/fx_partition_offset_calculate.c ****     base_sector = 0;
ARM GAS  C:\Users\HP\AppData\Local\Temp\ccuZUZuW.s 			page 25


 576:Middlewares/ST/filex/common/src/fx_partition_offset_calculate.c **** 
 577:Middlewares/ST/filex/common/src/fx_partition_offset_calculate.c ****     /* Loop to find the extended partition table.  */
 578:Middlewares/ST/filex/common/src/fx_partition_offset_calculate.c ****     for(i = FX_PARTITION_TABLE_OFFSET; i <= FX_PARTITION_TABLE_OFFSET + 3 * FX_PARTITION_ENTRY_SIZE
 646              		.loc 1 578 11 view .LVU240
 647 00c8 4FF4DF70 		mov	r0, #446
 648 00cc 00E0     		b	.L42
 649              	.LVL56:
 650              	.L44:
 651              		.loc 1 578 102 is_stmt 1 discriminator 2 view .LVU241
 652              		.loc 1 578 104 is_stmt 0 discriminator 2 view .LVU242
 653 00ce 1030     		adds	r0, r0, #16
 654              	.LVL57:
 655              	.L42:
 656              		.loc 1 578 40 is_stmt 1 discriminator 1 view .LVU243
 657              		.loc 1 578 5 is_stmt 0 discriminator 1 view .LVU244
 658 00d0 B0F5F77F 		cmp	r0, #494
 659 00d4 0BD8     		bhi	.L66
 579:Middlewares/ST/filex/common/src/fx_partition_offset_calculate.c ****     {
 580:Middlewares/ST/filex/common/src/fx_partition_offset_calculate.c **** 
 581:Middlewares/ST/filex/common/src/fx_partition_offset_calculate.c ****         /* Get partition type.  */
 582:Middlewares/ST/filex/common/src/fx_partition_offset_calculate.c ****         partition_type =  partition_sector_ptr[i + FX_PARTITION_TYPE_OFFSET];
 660              		.loc 1 582 9 is_stmt 1 view .LVU245
 661              		.loc 1 582 47 is_stmt 0 view .LVU246
 662 00d6 031D     		adds	r3, r0, #4
 663              		.loc 1 582 24 view .LVU247
 664 00d8 EB5C     		ldrb	r3, [r5, r3]	@ zero_extendqisi2
 665              	.LVL58:
 583:Middlewares/ST/filex/common/src/fx_partition_offset_calculate.c ****         if (partition_type == FX_PARTITION_TYPE_EXTENDED || partition_type == FX_PARTITION_TYPE_EXT
 666              		.loc 1 583 9 is_stmt 1 view .LVU248
 667              		.loc 1 583 12 is_stmt 0 view .LVU249
 668 00da 052B     		cmp	r3, #5
 669 00dc 01D0     		beq	.L43
 670              		.loc 1 583 58 discriminator 1 view .LVU250
 671 00de 0F2B     		cmp	r3, #15
 672 00e0 F5D1     		bne	.L44
 673              	.L43:
 584:Middlewares/ST/filex/common/src/fx_partition_offset_calculate.c ****         {
 585:Middlewares/ST/filex/common/src/fx_partition_offset_calculate.c ****             base_sector =  _fx_utility_32_unsigned_read(&partition_sector_ptr[i + FX_PARTITION_LBA_
 674              		.loc 1 585 13 is_stmt 1 view .LVU251
 675              		.loc 1 585 78 is_stmt 0 view .LVU252
 676 00e2 0830     		adds	r0, r0, #8
 677              	.LVL59:
 678              		.loc 1 585 28 view .LVU253
 679 00e4 2844     		add	r0, r0, r5
 680              	.LVL60:
 681              		.loc 1 585 28 view .LVU254
 682 00e6 FFF7FEFF 		bl	_fx_utility_32_unsigned_read
 683              	.LVL61:
 684              		.loc 1 585 28 view .LVU255
 685 00ea 8346     		mov	fp, r0
 686              	.LVL62:
 586:Middlewares/ST/filex/common/src/fx_partition_offset_calculate.c ****             break;
 687              		.loc 1 586 13 is_stmt 1 view .LVU256
 688 00ec 01E0     		b	.L45
 689              	.LVL63:
 690              	.L66:
 575:Middlewares/ST/filex/common/src/fx_partition_offset_calculate.c **** 
ARM GAS  C:\Users\HP\AppData\Local\Temp\ccuZUZuW.s 			page 26


 691              		.loc 1 575 17 is_stmt 0 view .LVU257
 692 00ee 4FF0000B 		mov	fp, #0
 693              	.LVL64:
 694              	.L45:
 587:Middlewares/ST/filex/common/src/fx_partition_offset_calculate.c ****         }
 588:Middlewares/ST/filex/common/src/fx_partition_offset_calculate.c ****     }
 589:Middlewares/ST/filex/common/src/fx_partition_offset_calculate.c **** 
 590:Middlewares/ST/filex/common/src/fx_partition_offset_calculate.c ****     if (base_sector == 0)
 695              		.loc 1 590 5 is_stmt 1 view .LVU258
 696              		.loc 1 590 8 is_stmt 0 view .LVU259
 697 00f2 BBF1000F 		cmp	fp, #0
 698 00f6 5AD0     		beq	.L57
 699 00f8 D946     		mov	r9, fp
 591:Middlewares/ST/filex/common/src/fx_partition_offset_calculate.c ****     {
 592:Middlewares/ST/filex/common/src/fx_partition_offset_calculate.c **** 
 593:Middlewares/ST/filex/common/src/fx_partition_offset_calculate.c ****         /* No extended partition.  */
 594:Middlewares/ST/filex/common/src/fx_partition_offset_calculate.c ****         return(FX_NOT_FOUND);        
 595:Middlewares/ST/filex/common/src/fx_partition_offset_calculate.c ****     }
 596:Middlewares/ST/filex/common/src/fx_partition_offset_calculate.c ****     
 597:Middlewares/ST/filex/common/src/fx_partition_offset_calculate.c ****     base_sector_extended = base_sector;
 598:Middlewares/ST/filex/common/src/fx_partition_offset_calculate.c **** 
 599:Middlewares/ST/filex/common/src/fx_partition_offset_calculate.c ****     for (i = 4; i <= partition; i++)
 700              		.loc 1 599 12 view .LVU260
 701 00fa 4FF00408 		mov	r8, #4
 702 00fe 1FE0     		b	.L47
 703              	.LVL65:
 704              	.L68:
 600:Middlewares/ST/filex/common/src/fx_partition_offset_calculate.c ****     {
 601:Middlewares/ST/filex/common/src/fx_partition_offset_calculate.c **** 
 602:Middlewares/ST/filex/common/src/fx_partition_offset_calculate.c ****         /* Read the partition sector from the device.  Build the read sector
 603:Middlewares/ST/filex/common/src/fx_partition_offset_calculate.c ****             command.  */
 604:Middlewares/ST/filex/common/src/fx_partition_offset_calculate.c ****         media_ptr -> fx_media_driver_request =          FX_DRIVER_READ;
 605:Middlewares/ST/filex/common/src/fx_partition_offset_calculate.c ****         media_ptr -> fx_media_driver_status =           FX_IO_ERROR;
 606:Middlewares/ST/filex/common/src/fx_partition_offset_calculate.c ****         media_ptr -> fx_media_driver_buffer =           partition_sector_ptr;
 607:Middlewares/ST/filex/common/src/fx_partition_offset_calculate.c ****         media_ptr -> fx_media_driver_logical_sector =   base_sector;
 608:Middlewares/ST/filex/common/src/fx_partition_offset_calculate.c ****         media_ptr -> fx_media_driver_sectors =          1;
 609:Middlewares/ST/filex/common/src/fx_partition_offset_calculate.c ****         media_ptr -> fx_media_driver_sector_type =      FX_UNKNOWN_SECTOR;
 610:Middlewares/ST/filex/common/src/fx_partition_offset_calculate.c ****         media_ptr -> fx_media_hidden_sectors =          0;
 611:Middlewares/ST/filex/common/src/fx_partition_offset_calculate.c **** 
 612:Middlewares/ST/filex/common/src/fx_partition_offset_calculate.c ****         /* Invoke the driver to read the sector.  */
 613:Middlewares/ST/filex/common/src/fx_partition_offset_calculate.c ****         (media_ptr -> fx_media_driver_entry) (media_ptr);
 614:Middlewares/ST/filex/common/src/fx_partition_offset_calculate.c **** 
 615:Middlewares/ST/filex/common/src/fx_partition_offset_calculate.c ****         /* Determine if the sector was read correctly. */
 616:Middlewares/ST/filex/common/src/fx_partition_offset_calculate.c ****         if (media_ptr -> fx_media_driver_status != FX_SUCCESS)
 617:Middlewares/ST/filex/common/src/fx_partition_offset_calculate.c ****         {
 618:Middlewares/ST/filex/common/src/fx_partition_offset_calculate.c **** 
 619:Middlewares/ST/filex/common/src/fx_partition_offset_calculate.c ****             /* Return error.  */
 620:Middlewares/ST/filex/common/src/fx_partition_offset_calculate.c ****             return(FX_IO_ERROR);
 621:Middlewares/ST/filex/common/src/fx_partition_offset_calculate.c ****         }
 622:Middlewares/ST/filex/common/src/fx_partition_offset_calculate.c **** 
 623:Middlewares/ST/filex/common/src/fx_partition_offset_calculate.c ****         /* Check signature to make sure the sector is valid.  */
 624:Middlewares/ST/filex/common/src/fx_partition_offset_calculate.c ****         if ((partition_sector_ptr[510] != FX_SIG_BYTE_1) || (partition_sector_ptr[511] != FX_SIG_BY
 625:Middlewares/ST/filex/common/src/fx_partition_offset_calculate.c ****         {
 626:Middlewares/ST/filex/common/src/fx_partition_offset_calculate.c **** 
 627:Middlewares/ST/filex/common/src/fx_partition_offset_calculate.c ****             /* Invalid, return an error.  */
 628:Middlewares/ST/filex/common/src/fx_partition_offset_calculate.c ****             return(FX_NOT_FOUND);
 629:Middlewares/ST/filex/common/src/fx_partition_offset_calculate.c ****         }
ARM GAS  C:\Users\HP\AppData\Local\Temp\ccuZUZuW.s 			page 27


 630:Middlewares/ST/filex/common/src/fx_partition_offset_calculate.c **** 
 631:Middlewares/ST/filex/common/src/fx_partition_offset_calculate.c ****         /* Determine if this is the desired partition.  */
 632:Middlewares/ST/filex/common/src/fx_partition_offset_calculate.c ****         if (i == partition)
 633:Middlewares/ST/filex/common/src/fx_partition_offset_calculate.c ****         {
 634:Middlewares/ST/filex/common/src/fx_partition_offset_calculate.c **** 
 635:Middlewares/ST/filex/common/src/fx_partition_offset_calculate.c ****             /* Get partition type.  */
 636:Middlewares/ST/filex/common/src/fx_partition_offset_calculate.c ****             partition_type =  partition_sector_ptr[FX_PARTITION_TABLE_OFFSET + FX_PARTITION_TYPE_OF
 705              		.loc 1 636 13 is_stmt 1 view .LVU261
 706              		.loc 1 636 28 is_stmt 0 view .LVU262
 707 0100 95F8C231 		ldrb	r3, [r5, #450]	@ zero_extendqisi2
 708              	.LVL66:
 637:Middlewares/ST/filex/common/src/fx_partition_offset_calculate.c ****             if (partition_type != FX_PARTITION_TYPE_FREE)
 709              		.loc 1 637 13 is_stmt 1 view .LVU263
 710              		.loc 1 637 16 is_stmt 0 view .LVU264
 711 0104 002B     		cmp	r3, #0
 712 0106 5AD0     		beq	.L61
 638:Middlewares/ST/filex/common/src/fx_partition_offset_calculate.c ****             {
 639:Middlewares/ST/filex/common/src/fx_partition_offset_calculate.c **** 
 640:Middlewares/ST/filex/common/src/fx_partition_offset_calculate.c ****                 /* Return the partition starting sector, if non-NULL.  */
 641:Middlewares/ST/filex/common/src/fx_partition_offset_calculate.c ****                 if (partition_start != FX_NULL)
 713              		.loc 1 641 17 is_stmt 1 view .LVU265
 714              		.loc 1 641 20 is_stmt 0 view .LVU266
 715 0108 BAF1000F 		cmp	r10, #0
 716 010c 06D0     		beq	.L49
 642:Middlewares/ST/filex/common/src/fx_partition_offset_calculate.c ****                 {
 643:Middlewares/ST/filex/common/src/fx_partition_offset_calculate.c ****                     *partition_start = _fx_utility_32_unsigned_read(&partition_sector_ptr[FX_PARTIT
 717              		.loc 1 643 21 is_stmt 1 view .LVU267
 718              		.loc 1 643 40 is_stmt 0 view .LVU268
 719 010e 05F5E370 		add	r0, r5, #454
 720 0112 FFF7FEFF 		bl	_fx_utility_32_unsigned_read
 721              	.LVL67:
 722              		.loc 1 643 145 view .LVU269
 723 0116 4844     		add	r0, r0, r9
 724              		.loc 1 643 38 view .LVU270
 725 0118 CAF80000 		str	r0, [r10]
 726              	.L49:
 644:Middlewares/ST/filex/common/src/fx_partition_offset_calculate.c ****                 }
 645:Middlewares/ST/filex/common/src/fx_partition_offset_calculate.c **** 
 646:Middlewares/ST/filex/common/src/fx_partition_offset_calculate.c ****                 /* Return the partition size, if non-NULL.  */
 647:Middlewares/ST/filex/common/src/fx_partition_offset_calculate.c ****                 if (partition_size != FX_NULL)
 727              		.loc 1 647 17 is_stmt 1 view .LVU271
 728              		.loc 1 647 20 is_stmt 0 view .LVU272
 729 011c 0A9B     		ldr	r3, [sp, #40]
 730 011e 002B     		cmp	r3, #0
 731 0120 3CD0     		beq	.L31
 648:Middlewares/ST/filex/common/src/fx_partition_offset_calculate.c ****                 {
 649:Middlewares/ST/filex/common/src/fx_partition_offset_calculate.c ****                     *partition_size =  _fx_utility_32_unsigned_read(&partition_sector_ptr[FX_PARTIT
 732              		.loc 1 649 21 is_stmt 1 view .LVU273
 733              		.loc 1 649 40 is_stmt 0 view .LVU274
 734 0122 05F5E570 		add	r0, r5, #458
 735 0126 FFF7FEFF 		bl	_fx_utility_32_unsigned_read
 736              	.LVL68:
 737              		.loc 1 649 37 view .LVU275
 738 012a 0A9B     		ldr	r3, [sp, #40]
 739 012c 1860     		str	r0, [r3]
 650:Middlewares/ST/filex/common/src/fx_partition_offset_calculate.c ****                 }
 651:Middlewares/ST/filex/common/src/fx_partition_offset_calculate.c **** 
ARM GAS  C:\Users\HP\AppData\Local\Temp\ccuZUZuW.s 			page 28


 652:Middlewares/ST/filex/common/src/fx_partition_offset_calculate.c ****                 /* Return success!  */
 653:Middlewares/ST/filex/common/src/fx_partition_offset_calculate.c ****                 return(FX_SUCCESS);
 740              		.loc 1 653 17 is_stmt 1 view .LVU276
 741              		.loc 1 653 23 is_stmt 0 view .LVU277
 742 012e 35E0     		b	.L31
 743              	.LVL69:
 744              	.L51:
 654:Middlewares/ST/filex/common/src/fx_partition_offset_calculate.c ****             }
 655:Middlewares/ST/filex/common/src/fx_partition_offset_calculate.c ****             else
 656:Middlewares/ST/filex/common/src/fx_partition_offset_calculate.c ****             {
 657:Middlewares/ST/filex/common/src/fx_partition_offset_calculate.c ****                 /* Not partition here.  */
 658:Middlewares/ST/filex/common/src/fx_partition_offset_calculate.c ****                 return(FX_NOT_FOUND);            
 659:Middlewares/ST/filex/common/src/fx_partition_offset_calculate.c ****             }
 660:Middlewares/ST/filex/common/src/fx_partition_offset_calculate.c ****         }
 661:Middlewares/ST/filex/common/src/fx_partition_offset_calculate.c ****         else
 662:Middlewares/ST/filex/common/src/fx_partition_offset_calculate.c ****         {
 663:Middlewares/ST/filex/common/src/fx_partition_offset_calculate.c **** 
 664:Middlewares/ST/filex/common/src/fx_partition_offset_calculate.c ****             /* Get partition type.  */
 665:Middlewares/ST/filex/common/src/fx_partition_offset_calculate.c ****             partition_type =  partition_sector_ptr[FX_PARTITION_TABLE_OFFSET + FX_PARTITION_ENTRY_S
 666:Middlewares/ST/filex/common/src/fx_partition_offset_calculate.c ****             if (partition_type == FX_PARTITION_TYPE_EXTENDED || partition_type == FX_PARTITION_TYPE
 667:Middlewares/ST/filex/common/src/fx_partition_offset_calculate.c ****             {
 668:Middlewares/ST/filex/common/src/fx_partition_offset_calculate.c **** 
 669:Middlewares/ST/filex/common/src/fx_partition_offset_calculate.c ****                 /* Update sector number for next partition table.  */
 670:Middlewares/ST/filex/common/src/fx_partition_offset_calculate.c ****                 base_sector =  _fx_utility_32_unsigned_read(&partition_sector_ptr[FX_PARTITION_TABL
 745              		.loc 1 670 17 is_stmt 1 discriminator 2 view .LVU278
 746              		.loc 1 670 32 is_stmt 0 discriminator 2 view .LVU279
 747 0130 05F5EB70 		add	r0, r5, #470
 748 0134 FFF7FEFF 		bl	_fx_utility_32_unsigned_read
 749              	.LVL70:
 750              		.loc 1 670 29 discriminator 2 view .LVU280
 751 0138 00EB0B09 		add	r9, r0, fp
 752              	.LVL71:
 599:Middlewares/ST/filex/common/src/fx_partition_offset_calculate.c ****     {
 753              		.loc 1 599 33 is_stmt 1 discriminator 2 view .LVU281
 599:Middlewares/ST/filex/common/src/fx_partition_offset_calculate.c ****     {
 754              		.loc 1 599 34 is_stmt 0 discriminator 2 view .LVU282
 755 013c 08F10108 		add	r8, r8, #1
 756              	.LVL72:
 757              	.L47:
 599:Middlewares/ST/filex/common/src/fx_partition_offset_calculate.c ****     {
 758              		.loc 1 599 17 is_stmt 1 discriminator 1 view .LVU283
 599:Middlewares/ST/filex/common/src/fx_partition_offset_calculate.c ****     {
 759              		.loc 1 599 5 is_stmt 0 discriminator 1 view .LVU284
 760 0140 B045     		cmp	r8, r6
 761 0142 28D8     		bhi	.L67
 604:Middlewares/ST/filex/common/src/fx_partition_offset_calculate.c ****         media_ptr -> fx_media_driver_status =           FX_IO_ERROR;
 762              		.loc 1 604 9 is_stmt 1 view .LVU285
 604:Middlewares/ST/filex/common/src/fx_partition_offset_calculate.c ****         media_ptr -> fx_media_driver_status =           FX_IO_ERROR;
 763              		.loc 1 604 46 is_stmt 0 view .LVU286
 764 0144 0023     		movs	r3, #0
 765 0146 C4F88830 		str	r3, [r4, #136]
 605:Middlewares/ST/filex/common/src/fx_partition_offset_calculate.c ****         media_ptr -> fx_media_driver_buffer =           partition_sector_ptr;
 766              		.loc 1 605 9 is_stmt 1 view .LVU287
 605:Middlewares/ST/filex/common/src/fx_partition_offset_calculate.c ****         media_ptr -> fx_media_driver_buffer =           partition_sector_ptr;
 767              		.loc 1 605 45 is_stmt 0 view .LVU288
 768 014a 9022     		movs	r2, #144
 769 014c C4F88C20 		str	r2, [r4, #140]
ARM GAS  C:\Users\HP\AppData\Local\Temp\ccuZUZuW.s 			page 29


 606:Middlewares/ST/filex/common/src/fx_partition_offset_calculate.c ****         media_ptr -> fx_media_driver_logical_sector =   base_sector;
 770              		.loc 1 606 9 is_stmt 1 view .LVU289
 606:Middlewares/ST/filex/common/src/fx_partition_offset_calculate.c ****         media_ptr -> fx_media_driver_logical_sector =   base_sector;
 771              		.loc 1 606 45 is_stmt 0 view .LVU290
 772 0150 C4F89050 		str	r5, [r4, #144]
 607:Middlewares/ST/filex/common/src/fx_partition_offset_calculate.c ****         media_ptr -> fx_media_driver_sectors =          1;
 773              		.loc 1 607 9 is_stmt 1 view .LVU291
 607:Middlewares/ST/filex/common/src/fx_partition_offset_calculate.c ****         media_ptr -> fx_media_driver_sectors =          1;
 774              		.loc 1 607 53 is_stmt 0 view .LVU292
 775 0154 C4F89490 		str	r9, [r4, #148]
 608:Middlewares/ST/filex/common/src/fx_partition_offset_calculate.c ****         media_ptr -> fx_media_driver_sector_type =      FX_UNKNOWN_SECTOR;
 776              		.loc 1 608 9 is_stmt 1 view .LVU293
 608:Middlewares/ST/filex/common/src/fx_partition_offset_calculate.c ****         media_ptr -> fx_media_driver_sector_type =      FX_UNKNOWN_SECTOR;
 777              		.loc 1 608 46 is_stmt 0 view .LVU294
 778 0158 0122     		movs	r2, #1
 779 015a C4F89820 		str	r2, [r4, #152]
 609:Middlewares/ST/filex/common/src/fx_partition_offset_calculate.c ****         media_ptr -> fx_media_hidden_sectors =          0;
 780              		.loc 1 609 9 is_stmt 1 view .LVU295
 609:Middlewares/ST/filex/common/src/fx_partition_offset_calculate.c ****         media_ptr -> fx_media_hidden_sectors =          0;
 781              		.loc 1 609 50 is_stmt 0 view .LVU296
 782 015e C4F8B830 		str	r3, [r4, #184]
 610:Middlewares/ST/filex/common/src/fx_partition_offset_calculate.c **** 
 783              		.loc 1 610 9 is_stmt 1 view .LVU297
 610:Middlewares/ST/filex/common/src/fx_partition_offset_calculate.c **** 
 784              		.loc 1 610 46 is_stmt 0 view .LVU298
 785 0162 2367     		str	r3, [r4, #112]
 613:Middlewares/ST/filex/common/src/fx_partition_offset_calculate.c **** 
 786              		.loc 1 613 9 is_stmt 1 view .LVU299
 613:Middlewares/ST/filex/common/src/fx_partition_offset_calculate.c **** 
 787              		.loc 1 613 20 is_stmt 0 view .LVU300
 788 0164 D4F8BC30 		ldr	r3, [r4, #188]
 789 0168 2046     		mov	r0, r4
 790 016a 9847     		blx	r3
 791              	.LVL73:
 616:Middlewares/ST/filex/common/src/fx_partition_offset_calculate.c ****         {
 792              		.loc 1 616 9 is_stmt 1 view .LVU301
 616:Middlewares/ST/filex/common/src/fx_partition_offset_calculate.c ****         {
 793              		.loc 1 616 23 is_stmt 0 view .LVU302
 794 016c D4F88C70 		ldr	r7, [r4, #140]
 616:Middlewares/ST/filex/common/src/fx_partition_offset_calculate.c ****         {
 795              		.loc 1 616 12 view .LVU303
 796 0170 FFB9     		cbnz	r7, .L58
 624:Middlewares/ST/filex/common/src/fx_partition_offset_calculate.c ****         {
 797              		.loc 1 624 9 is_stmt 1 view .LVU304
 624:Middlewares/ST/filex/common/src/fx_partition_offset_calculate.c ****         {
 798              		.loc 1 624 34 is_stmt 0 view .LVU305
 799 0172 95F8FE31 		ldrb	r3, [r5, #510]	@ zero_extendqisi2
 624:Middlewares/ST/filex/common/src/fx_partition_offset_calculate.c ****         {
 800              		.loc 1 624 12 view .LVU306
 801 0176 552B     		cmp	r3, #85
 802 0178 1DD1     		bne	.L59
 624:Middlewares/ST/filex/common/src/fx_partition_offset_calculate.c ****         {
 803              		.loc 1 624 82 discriminator 1 view .LVU307
 804 017a 95F8FF31 		ldrb	r3, [r5, #511]	@ zero_extendqisi2
 624:Middlewares/ST/filex/common/src/fx_partition_offset_calculate.c ****         {
 805              		.loc 1 624 58 discriminator 1 view .LVU308
 806 017e AA2B     		cmp	r3, #170
ARM GAS  C:\Users\HP\AppData\Local\Temp\ccuZUZuW.s 			page 30


 807 0180 1BD1     		bne	.L60
 632:Middlewares/ST/filex/common/src/fx_partition_offset_calculate.c ****         {
 808              		.loc 1 632 9 is_stmt 1 view .LVU309
 632:Middlewares/ST/filex/common/src/fx_partition_offset_calculate.c ****         {
 809              		.loc 1 632 12 is_stmt 0 view .LVU310
 810 0182 B045     		cmp	r8, r6
 811 0184 BCD0     		beq	.L68
 665:Middlewares/ST/filex/common/src/fx_partition_offset_calculate.c ****             if (partition_type == FX_PARTITION_TYPE_EXTENDED || partition_type == FX_PARTITION_TYPE
 812              		.loc 1 665 13 is_stmt 1 view .LVU311
 665:Middlewares/ST/filex/common/src/fx_partition_offset_calculate.c ****             if (partition_type == FX_PARTITION_TYPE_EXTENDED || partition_type == FX_PARTITION_TYPE
 813              		.loc 1 665 28 is_stmt 0 view .LVU312
 814 0186 95F8D231 		ldrb	r3, [r5, #466]	@ zero_extendqisi2
 815              	.LVL74:
 666:Middlewares/ST/filex/common/src/fx_partition_offset_calculate.c ****             {
 816              		.loc 1 666 13 is_stmt 1 view .LVU313
 666:Middlewares/ST/filex/common/src/fx_partition_offset_calculate.c ****             {
 817              		.loc 1 666 16 is_stmt 0 view .LVU314
 818 018a 052B     		cmp	r3, #5
 819 018c D0D0     		beq	.L51
 666:Middlewares/ST/filex/common/src/fx_partition_offset_calculate.c ****             {
 820              		.loc 1 666 62 discriminator 1 view .LVU315
 821 018e 0F2B     		cmp	r3, #15
 822 0190 CED0     		beq	.L51
 671:Middlewares/ST/filex/common/src/fx_partition_offset_calculate.c ****             }
 672:Middlewares/ST/filex/common/src/fx_partition_offset_calculate.c ****             else
 673:Middlewares/ST/filex/common/src/fx_partition_offset_calculate.c ****             {
 674:Middlewares/ST/filex/common/src/fx_partition_offset_calculate.c ****                 /* No valid partition, get out of the loop.  */
 675:Middlewares/ST/filex/common/src/fx_partition_offset_calculate.c ****                 break;
 676:Middlewares/ST/filex/common/src/fx_partition_offset_calculate.c ****             }
 677:Middlewares/ST/filex/common/src/fx_partition_offset_calculate.c ****         }
 678:Middlewares/ST/filex/common/src/fx_partition_offset_calculate.c **** 
 679:Middlewares/ST/filex/common/src/fx_partition_offset_calculate.c ****     }
 680:Middlewares/ST/filex/common/src/fx_partition_offset_calculate.c **** 
 681:Middlewares/ST/filex/common/src/fx_partition_offset_calculate.c ****     /* Return error.  */
 682:Middlewares/ST/filex/common/src/fx_partition_offset_calculate.c ****     return(FX_NOT_FOUND);    
 823              		.loc 1 682 11 view .LVU316
 824 0192 0427     		movs	r7, #4
 825 0194 02E0     		b	.L31
 826              	.LVL75:
 827              	.L67:
 828              		.loc 1 682 11 view .LVU317
 829 0196 0427     		movs	r7, #4
 830 0198 00E0     		b	.L31
 831              	.LVL76:
 832              	.L53:
 528:Middlewares/ST/filex/common/src/fx_partition_offset_calculate.c ****     }
 833              		.loc 1 528 15 view .LVU318
 834 019a 0427     		movs	r7, #4
 835              	.LVL77:
 836              	.L31:
 683:Middlewares/ST/filex/common/src/fx_partition_offset_calculate.c **** }...
 837              		.loc 1 683 1 view .LVU319
 838 019c 3846     		mov	r0, r7
 839 019e BDE8F88F 		pop	{r3, r4, r5, r6, r7, r8, r9, r10, fp, pc}
 840              	.LVL78:
 841              	.L54:
 528:Middlewares/ST/filex/common/src/fx_partition_offset_calculate.c ****     }
ARM GAS  C:\Users\HP\AppData\Local\Temp\ccuZUZuW.s 			page 31


 842              		.loc 1 528 15 view .LVU320
 843 01a2 0427     		movs	r7, #4
 844 01a4 FAE7     		b	.L31
 845              	.LVL79:
 846              	.L55:
 563:Middlewares/ST/filex/common/src/fx_partition_offset_calculate.c ****             return(FX_NOT_FOUND);            
 847              		.loc 1 563 19 view .LVU321
 848 01a6 0427     		movs	r7, #4
 849 01a8 F8E7     		b	.L31
 850              	.LVL80:
 851              	.L56:
 572:Middlewares/ST/filex/common/src/fx_partition_offset_calculate.c ****         return(FX_NOT_FOUND);     
 852              		.loc 1 572 15 view .LVU322
 853 01aa 0427     		movs	r7, #4
 854 01ac F6E7     		b	.L31
 855              	.LVL81:
 856              	.L57:
 594:Middlewares/ST/filex/common/src/fx_partition_offset_calculate.c ****         return(FX_NOT_FOUND);        
 857              		.loc 1 594 15 view .LVU323
 858 01ae 0427     		movs	r7, #4
 859 01b0 F4E7     		b	.L31
 860              	.LVL82:
 861              	.L58:
 620:Middlewares/ST/filex/common/src/fx_partition_offset_calculate.c ****             return(FX_IO_ERROR);
 862              		.loc 1 620 19 view .LVU324
 863 01b2 9027     		movs	r7, #144
 864 01b4 F2E7     		b	.L31
 865              	.L59:
 628:Middlewares/ST/filex/common/src/fx_partition_offset_calculate.c ****             return(FX_NOT_FOUND);
 866              		.loc 1 628 19 view .LVU325
 867 01b6 0427     		movs	r7, #4
 868 01b8 F0E7     		b	.L31
 869              	.L60:
 870 01ba 0427     		movs	r7, #4
 871 01bc EEE7     		b	.L31
 872              	.LVL83:
 873              	.L61:
 658:Middlewares/ST/filex/common/src/fx_partition_offset_calculate.c ****                 return(FX_NOT_FOUND);            
 874              		.loc 1 658 23 view .LVU326
 875 01be 0427     		movs	r7, #4
 876 01c0 ECE7     		b	.L31
 877              		.cfi_endproc
 878              	.LFE10:
 880              		.text
 881              	.Letext0:
 882              		.file 2 "Middlewares/ST/threadx/ports/cortex_m4/gnu/inc/tx_port.h"
 883              		.file 3 "Middlewares/ST/threadx/common/inc/tx_api.h"
 884              		.file 4 "Middlewares/ST/filex/common/inc/fx_api.h"
 885              		.file 5 "Middlewares/ST/filex/common/inc/fx_utility.h"
ARM GAS  C:\Users\HP\AppData\Local\Temp\ccuZUZuW.s 			page 32

