ARM GAS  C:\Users\HP\AppData\Local\Temp\ccgzU9tk.s 			page 1


   1              		.cpu cortex-m4
   2              		.arch armv7e-m
   3              		.fpu fpv4-sp-d16
   4              		.eabi_attribute 27, 1
   5              		.eabi_attribute 28, 1
   6              		.eabi_attribute 20, 1
   7              		.eabi_attribute 21, 1
   8              		.eabi_attribute 23, 3
   9              		.eabi_attribute 24, 1
  10              		.eabi_attribute 25, 1
  11              		.eabi_attribute 26, 1
  12              		.eabi_attribute 30, 1
  13              		.eabi_attribute 34, 1
  14              		.eabi_attribute 18, 4
  15              		.file	"fx_system_timer_entry.c"
  16              		.text
  17              	.Ltext0:
  18              		.cfi_sections	.debug_frame
  19              		.section	.text._fx_system_timer_entry,"ax",%progbits
  20              		.align	1
  21              		.global	_fx_system_timer_entry
  22              		.syntax unified
  23              		.thumb
  24              		.thumb_func
  26              	_fx_system_timer_entry:
  27              	.LVL0:
  28              	.LFB8:
  29              		.file 1 "Middlewares/ST/filex/common/src/fx_system_timer_entry.c"
   1:Middlewares/ST/filex/common/src/fx_system_timer_entry.c **** /**************************************************************************/
   2:Middlewares/ST/filex/common/src/fx_system_timer_entry.c **** /*                                                                        */
   3:Middlewares/ST/filex/common/src/fx_system_timer_entry.c **** /*       Copyright (c) Microsoft Corporation. All rights reserved.        */
   4:Middlewares/ST/filex/common/src/fx_system_timer_entry.c **** /*                                                                        */
   5:Middlewares/ST/filex/common/src/fx_system_timer_entry.c **** /*       This software is licensed under the Microsoft Software License   */
   6:Middlewares/ST/filex/common/src/fx_system_timer_entry.c **** /*       Terms for Microsoft Azure RTOS. Full text of the license can be  */
   7:Middlewares/ST/filex/common/src/fx_system_timer_entry.c **** /*       found in the LICENSE file at https://aka.ms/AzureRTOS_EULA       */
   8:Middlewares/ST/filex/common/src/fx_system_timer_entry.c **** /*       and in the root directory of this software.                      */
   9:Middlewares/ST/filex/common/src/fx_system_timer_entry.c **** /*                                                                        */
  10:Middlewares/ST/filex/common/src/fx_system_timer_entry.c **** /**************************************************************************/
  11:Middlewares/ST/filex/common/src/fx_system_timer_entry.c **** 
  12:Middlewares/ST/filex/common/src/fx_system_timer_entry.c **** 
  13:Middlewares/ST/filex/common/src/fx_system_timer_entry.c **** /**************************************************************************/
  14:Middlewares/ST/filex/common/src/fx_system_timer_entry.c **** /**************************************************************************/
  15:Middlewares/ST/filex/common/src/fx_system_timer_entry.c **** /**                                                                       */
  16:Middlewares/ST/filex/common/src/fx_system_timer_entry.c **** /** FileX Component                                                       */
  17:Middlewares/ST/filex/common/src/fx_system_timer_entry.c **** /**                                                                       */
  18:Middlewares/ST/filex/common/src/fx_system_timer_entry.c **** /**   System                                                              */
  19:Middlewares/ST/filex/common/src/fx_system_timer_entry.c **** /**                                                                       */
  20:Middlewares/ST/filex/common/src/fx_system_timer_entry.c **** /**************************************************************************/
  21:Middlewares/ST/filex/common/src/fx_system_timer_entry.c **** /**************************************************************************/
  22:Middlewares/ST/filex/common/src/fx_system_timer_entry.c **** 
  23:Middlewares/ST/filex/common/src/fx_system_timer_entry.c **** #define FX_SOURCE_CODE
  24:Middlewares/ST/filex/common/src/fx_system_timer_entry.c **** 
  25:Middlewares/ST/filex/common/src/fx_system_timer_entry.c **** 
  26:Middlewares/ST/filex/common/src/fx_system_timer_entry.c **** /* Include necessary system files.  */
  27:Middlewares/ST/filex/common/src/fx_system_timer_entry.c **** 
  28:Middlewares/ST/filex/common/src/fx_system_timer_entry.c **** #include "fx_api.h"
  29:Middlewares/ST/filex/common/src/fx_system_timer_entry.c **** #include "fx_system.h"
ARM GAS  C:\Users\HP\AppData\Local\Temp\ccgzU9tk.s 			page 2


  30:Middlewares/ST/filex/common/src/fx_system_timer_entry.c **** 
  31:Middlewares/ST/filex/common/src/fx_system_timer_entry.c **** 
  32:Middlewares/ST/filex/common/src/fx_system_timer_entry.c **** /**************************************************************************/
  33:Middlewares/ST/filex/common/src/fx_system_timer_entry.c **** /*                                                                        */
  34:Middlewares/ST/filex/common/src/fx_system_timer_entry.c **** /*  FUNCTION                                               RELEASE        */
  35:Middlewares/ST/filex/common/src/fx_system_timer_entry.c **** /*                                                                        */
  36:Middlewares/ST/filex/common/src/fx_system_timer_entry.c **** /*    _fx_system_timer_entry                              PORTABLE C      */
  37:Middlewares/ST/filex/common/src/fx_system_timer_entry.c **** /*                                                           6.1          */
  38:Middlewares/ST/filex/common/src/fx_system_timer_entry.c **** /*  AUTHOR                                                                */
  39:Middlewares/ST/filex/common/src/fx_system_timer_entry.c **** /*                                                                        */
  40:Middlewares/ST/filex/common/src/fx_system_timer_entry.c **** /*    William E. Lamie, Microsoft Corporation                             */
  41:Middlewares/ST/filex/common/src/fx_system_timer_entry.c **** /*                                                                        */
  42:Middlewares/ST/filex/common/src/fx_system_timer_entry.c **** /*  DESCRIPTION                                                           */
  43:Middlewares/ST/filex/common/src/fx_system_timer_entry.c **** /*                                                                        */
  44:Middlewares/ST/filex/common/src/fx_system_timer_entry.c **** /*    This function is FileX system timer function.  It is called at the  */
  45:Middlewares/ST/filex/common/src/fx_system_timer_entry.c **** /*    rate specified by FX_UPDATE_RATE_IN_SECONDS and is responsible for  */
  46:Middlewares/ST/filex/common/src/fx_system_timer_entry.c **** /*    maintaining both the system date and time.                          */
  47:Middlewares/ST/filex/common/src/fx_system_timer_entry.c **** /*                                                                        */
  48:Middlewares/ST/filex/common/src/fx_system_timer_entry.c **** /*  INPUT                                                                 */
  49:Middlewares/ST/filex/common/src/fx_system_timer_entry.c **** /*                                                                        */
  50:Middlewares/ST/filex/common/src/fx_system_timer_entry.c **** /*    id                                    Not used                      */
  51:Middlewares/ST/filex/common/src/fx_system_timer_entry.c **** /*                                                                        */
  52:Middlewares/ST/filex/common/src/fx_system_timer_entry.c **** /*  OUTPUT                                                                */
  53:Middlewares/ST/filex/common/src/fx_system_timer_entry.c **** /*                                                                        */
  54:Middlewares/ST/filex/common/src/fx_system_timer_entry.c **** /*    None                                                                */
  55:Middlewares/ST/filex/common/src/fx_system_timer_entry.c **** /*                                                                        */
  56:Middlewares/ST/filex/common/src/fx_system_timer_entry.c **** /*  CALLS                                                                 */
  57:Middlewares/ST/filex/common/src/fx_system_timer_entry.c **** /*                                                                        */
  58:Middlewares/ST/filex/common/src/fx_system_timer_entry.c **** /*    None                                                                */
  59:Middlewares/ST/filex/common/src/fx_system_timer_entry.c **** /*                                                                        */
  60:Middlewares/ST/filex/common/src/fx_system_timer_entry.c **** /*  CALLED BY                                                             */
  61:Middlewares/ST/filex/common/src/fx_system_timer_entry.c **** /*                                                                        */
  62:Middlewares/ST/filex/common/src/fx_system_timer_entry.c **** /*    Application Initialization                                          */
  63:Middlewares/ST/filex/common/src/fx_system_timer_entry.c **** /*                                                                        */
  64:Middlewares/ST/filex/common/src/fx_system_timer_entry.c **** /*  RELEASE HISTORY                                                       */
  65:Middlewares/ST/filex/common/src/fx_system_timer_entry.c **** /*                                                                        */
  66:Middlewares/ST/filex/common/src/fx_system_timer_entry.c **** /*    DATE              NAME                      DESCRIPTION             */
  67:Middlewares/ST/filex/common/src/fx_system_timer_entry.c **** /*                                                                        */
  68:Middlewares/ST/filex/common/src/fx_system_timer_entry.c **** /*  05-19-2020     William E. Lamie         Initial Version 6.0           */
  69:Middlewares/ST/filex/common/src/fx_system_timer_entry.c **** /*  09-30-2020     William E. Lamie         Modified comment(s),          */
  70:Middlewares/ST/filex/common/src/fx_system_timer_entry.c **** /*                                            resulting in version 6.1    */
  71:Middlewares/ST/filex/common/src/fx_system_timer_entry.c **** /*                                                                        */
  72:Middlewares/ST/filex/common/src/fx_system_timer_entry.c **** /**************************************************************************/
  73:Middlewares/ST/filex/common/src/fx_system_timer_entry.c **** VOID    _fx_system_timer_entry(ULONG id)
  74:Middlewares/ST/filex/common/src/fx_system_timer_entry.c **** {
  30              		.loc 1 74 1 view -0
  31              		.cfi_startproc
  32              		@ args = 0, pretend = 0, frame = 0
  33              		@ frame_needed = 0, uses_anonymous_args = 0
  75:Middlewares/ST/filex/common/src/fx_system_timer_entry.c **** 
  76:Middlewares/ST/filex/common/src/fx_system_timer_entry.c **** UINT second;
  34              		.loc 1 76 1 view .LVU1
  77:Middlewares/ST/filex/common/src/fx_system_timer_entry.c **** UINT minute;
  35              		.loc 1 77 1 view .LVU2
  78:Middlewares/ST/filex/common/src/fx_system_timer_entry.c **** UINT hour;
  36              		.loc 1 78 1 view .LVU3
  79:Middlewares/ST/filex/common/src/fx_system_timer_entry.c **** UINT day;
ARM GAS  C:\Users\HP\AppData\Local\Temp\ccgzU9tk.s 			page 3


  37              		.loc 1 79 1 view .LVU4
  80:Middlewares/ST/filex/common/src/fx_system_timer_entry.c **** UINT month;
  38              		.loc 1 80 1 view .LVU5
  81:Middlewares/ST/filex/common/src/fx_system_timer_entry.c **** UINT year;
  39              		.loc 1 81 1 view .LVU6
  82:Middlewares/ST/filex/common/src/fx_system_timer_entry.c **** 
  83:Middlewares/ST/filex/common/src/fx_system_timer_entry.c **** 
  84:Middlewares/ST/filex/common/src/fx_system_timer_entry.c ****     /* Determine if the ID is valid.  */
  85:Middlewares/ST/filex/common/src/fx_system_timer_entry.c ****     if (id == FX_TIMER_ID)
  40              		.loc 1 85 5 view .LVU7
  41              		.loc 1 85 8 is_stmt 0 view .LVU8
  42 0000 6A4B     		ldr	r3, .L35
  43 0002 9842     		cmp	r0, r3
  44 0004 00D0     		beq	.L34
  45 0006 7047     		bx	lr
  46              	.L34:
  74:Middlewares/ST/filex/common/src/fx_system_timer_entry.c **** 
  47              		.loc 1 74 1 view .LVU9
  48 0008 70B5     		push	{r4, r5, r6, lr}
  49              	.LCFI0:
  50              		.cfi_def_cfa_offset 16
  51              		.cfi_offset 4, -16
  52              		.cfi_offset 5, -12
  53              		.cfi_offset 6, -8
  54              		.cfi_offset 14, -4
  86:Middlewares/ST/filex/common/src/fx_system_timer_entry.c ****     {
  87:Middlewares/ST/filex/common/src/fx_system_timer_entry.c **** 
  88:Middlewares/ST/filex/common/src/fx_system_timer_entry.c ****         /* Break the current date time into separate fields for easier work!  */
  89:Middlewares/ST/filex/common/src/fx_system_timer_entry.c ****         second =  (_fx_system_time & FX_SECOND_MASK) * 2;
  55              		.loc 1 89 9 is_stmt 1 view .LVU10
  56              		.loc 1 89 36 is_stmt 0 view .LVU11
  57 000a 694B     		ldr	r3, .L35+4
  58 000c 1968     		ldr	r1, [r3]
  59 000e 01F01F02 		and	r2, r1, #31
  60              		.loc 1 89 16 view .LVU12
  61 0012 5200     		lsls	r2, r2, #1
  62              	.LVL1:
  90:Middlewares/ST/filex/common/src/fx_system_timer_entry.c ****         minute =  (_fx_system_time >> FX_MINUTE_SHIFT) & FX_MINUTE_MASK;
  63              		.loc 1 90 9 is_stmt 1 view .LVU13
  64              		.loc 1 90 16 is_stmt 0 view .LVU14
  65 0014 C1F34513 		ubfx	r3, r1, #5, #6
  66              	.LVL2:
  91:Middlewares/ST/filex/common/src/fx_system_timer_entry.c ****         hour =    (_fx_system_time >> FX_HOUR_SHIFT) & FX_HOUR_MASK;
  67              		.loc 1 91 9 is_stmt 1 view .LVU15
  68              		.loc 1 91 14 is_stmt 0 view .LVU16
  69 0018 C1F3C42C 		ubfx	ip, r1, #11, #5
  70              	.LVL3:
  92:Middlewares/ST/filex/common/src/fx_system_timer_entry.c ****         day =     _fx_system_date & FX_DAY_MASK;
  71              		.loc 1 92 9 is_stmt 1 view .LVU17
  72              		.loc 1 92 35 is_stmt 0 view .LVU18
  73 001c 6549     		ldr	r1, .L35+8
  74 001e 0868     		ldr	r0, [r1]
  75              	.LVL4:
  76              		.loc 1 92 13 view .LVU19
  77 0020 00F01F05 		and	r5, r0, #31
  78              	.LVL5:
  93:Middlewares/ST/filex/common/src/fx_system_timer_entry.c ****         month =   (_fx_system_date >> FX_MONTH_SHIFT) & FX_MONTH_MASK;
ARM GAS  C:\Users\HP\AppData\Local\Temp\ccgzU9tk.s 			page 4


  79              		.loc 1 93 9 is_stmt 1 view .LVU20
  80              		.loc 1 93 15 is_stmt 0 view .LVU21
  81 0024 C0F34311 		ubfx	r1, r0, #5, #4
  82              	.LVL6:
  94:Middlewares/ST/filex/common/src/fx_system_timer_entry.c ****         year =    ((_fx_system_date >> FX_YEAR_SHIFT) & FX_YEAR_MASK) + FX_BASE_YEAR;
  83              		.loc 1 94 9 is_stmt 1 view .LVU22
  84              		.loc 1 94 55 is_stmt 0 view .LVU23
  85 0028 C0F34620 		ubfx	r0, r0, #9, #7
  86              		.loc 1 94 14 view .LVU24
  87 002c 00F2BC7E 		addw	lr, r0, #1980
  88              	.LVL7:
  95:Middlewares/ST/filex/common/src/fx_system_timer_entry.c **** 
  96:Middlewares/ST/filex/common/src/fx_system_timer_entry.c ****         /* Now apply the "second" update.  */
  97:Middlewares/ST/filex/common/src/fx_system_timer_entry.c ****         second =  second + FX_UPDATE_RATE_IN_SECONDS;
  89              		.loc 1 97 9 is_stmt 1 view .LVU25
  90              		.loc 1 97 16 is_stmt 0 view .LVU26
  91 0030 0A32     		adds	r2, r2, #10
  92              	.LVL8:
  98:Middlewares/ST/filex/common/src/fx_system_timer_entry.c **** 
  99:Middlewares/ST/filex/common/src/fx_system_timer_entry.c ****         /* Determine if we need to adjust the minute field.  */
 100:Middlewares/ST/filex/common/src/fx_system_timer_entry.c ****         if (second > FX_MAXIMUM_SECOND)
  93              		.loc 1 100 9 is_stmt 1 view .LVU27
  94              		.loc 1 100 12 is_stmt 0 view .LVU28
  95 0032 3B2A     		cmp	r2, #59
  96 0034 2AD9     		bls	.L3
 101:Middlewares/ST/filex/common/src/fx_system_timer_entry.c ****         {
 102:Middlewares/ST/filex/common/src/fx_system_timer_entry.c **** 
 103:Middlewares/ST/filex/common/src/fx_system_timer_entry.c ****             /* Yes, we need to adjust the minute field.  */
 104:Middlewares/ST/filex/common/src/fx_system_timer_entry.c ****             minute =  minute + second / 60;
  97              		.loc 1 104 13 is_stmt 1 view .LVU29
  98              		.loc 1 104 39 is_stmt 0 view .LVU30
  99 0036 604E     		ldr	r6, .L35+12
 100 0038 A6FB0246 		umull	r4, r6, r6, r2
 101 003c 7409     		lsrs	r4, r6, #5
 102              		.loc 1 104 20 view .LVU31
 103 003e 03EB5613 		add	r3, r3, r6, lsr #5
 104              	.LVL9:
 105:Middlewares/ST/filex/common/src/fx_system_timer_entry.c ****             second =  second % 60;
 105              		.loc 1 105 13 is_stmt 1 view .LVU32
 106              		.loc 1 105 20 is_stmt 0 view .LVU33
 107 0042 C4EB0414 		rsb	r4, r4, r4, lsl #4
 108 0046 A2EB8402 		sub	r2, r2, r4, lsl #2
 109              	.LVL10:
 106:Middlewares/ST/filex/common/src/fx_system_timer_entry.c **** 
 107:Middlewares/ST/filex/common/src/fx_system_timer_entry.c ****             /* Determine if we need to adjust the hour field.  */
 108:Middlewares/ST/filex/common/src/fx_system_timer_entry.c ****             if (minute > FX_MAXIMUM_MINUTE)
 110              		.loc 1 108 13 is_stmt 1 view .LVU34
 111              		.loc 1 108 16 is_stmt 0 view .LVU35
 112 004a 3B2B     		cmp	r3, #59
 113 004c 1ED9     		bls	.L3
 109:Middlewares/ST/filex/common/src/fx_system_timer_entry.c ****             {
 110:Middlewares/ST/filex/common/src/fx_system_timer_entry.c **** 
 111:Middlewares/ST/filex/common/src/fx_system_timer_entry.c ****                 /* Yes, we need to adjust the hour field.  */
 112:Middlewares/ST/filex/common/src/fx_system_timer_entry.c ****                 hour =    hour + minute / 60;
 114              		.loc 1 112 17 is_stmt 1 view .LVU36
 115              		.loc 1 112 41 is_stmt 0 view .LVU37
 116 004e 5A4E     		ldr	r6, .L35+12
ARM GAS  C:\Users\HP\AppData\Local\Temp\ccgzU9tk.s 			page 5


 117 0050 A6FB0346 		umull	r4, r6, r6, r3
 118 0054 7409     		lsrs	r4, r6, #5
 119              		.loc 1 112 22 view .LVU38
 120 0056 0CEB561C 		add	ip, ip, r6, lsr #5
 121              	.LVL11:
 113:Middlewares/ST/filex/common/src/fx_system_timer_entry.c ****                 minute =  minute % 60;
 122              		.loc 1 113 17 is_stmt 1 view .LVU39
 123              		.loc 1 113 24 is_stmt 0 view .LVU40
 124 005a C4EB0414 		rsb	r4, r4, r4, lsl #4
 125 005e A3EB8403 		sub	r3, r3, r4, lsl #2
 126              	.LVL12:
 114:Middlewares/ST/filex/common/src/fx_system_timer_entry.c **** 
 115:Middlewares/ST/filex/common/src/fx_system_timer_entry.c ****                 /* Determine if we need to adjust the day field.  */
 116:Middlewares/ST/filex/common/src/fx_system_timer_entry.c ****                 if (hour > FX_MAXIMUM_HOUR)
 127              		.loc 1 116 17 is_stmt 1 view .LVU41
 128              		.loc 1 116 20 is_stmt 0 view .LVU42
 129 0062 BCF1170F 		cmp	ip, #23
 130 0066 11D9     		bls	.L3
 117:Middlewares/ST/filex/common/src/fx_system_timer_entry.c ****                 {
 118:Middlewares/ST/filex/common/src/fx_system_timer_entry.c **** 
 119:Middlewares/ST/filex/common/src/fx_system_timer_entry.c ****                     /* Yes, we need to adjust the day field.  */
 120:Middlewares/ST/filex/common/src/fx_system_timer_entry.c ****                     hour =  0;
 131              		.loc 1 120 21 is_stmt 1 view .LVU43
 132              	.LVL13:
 121:Middlewares/ST/filex/common/src/fx_system_timer_entry.c ****                     day++;
 133              		.loc 1 121 21 view .LVU44
 134              		.loc 1 121 24 is_stmt 0 view .LVU45
 135 0068 0135     		adds	r5, r5, #1
 136              	.LVL14:
 122:Middlewares/ST/filex/common/src/fx_system_timer_entry.c **** 
 123:Middlewares/ST/filex/common/src/fx_system_timer_entry.c ****                     /* Determine if we need to adjust the month field.  */
 124:Middlewares/ST/filex/common/src/fx_system_timer_entry.c ****                     switch (month)
 137              		.loc 1 124 21 is_stmt 1 view .LVU46
 138 006a 4C1E     		subs	r4, r1, #1
 139 006c 0B2C     		cmp	r4, #11
 140 006e 1CD8     		bhi	.L1
 141 0070 DFE804F0 		tbb	[pc, r4]
 142              	.L5:
 143 0074 06       		.byte	(.L16-.L5)/2
 144 0075 1C       		.byte	(.L15-.L5)/2
 145 0076 2B       		.byte	(.L14-.L5)/2
 146 0077 32       		.byte	(.L13-.L5)/2
 147 0078 39       		.byte	(.L12-.L5)/2
 148 0079 40       		.byte	(.L11-.L5)/2
 149 007a 47       		.byte	(.L10-.L5)/2
 150 007b 4E       		.byte	(.L9-.L5)/2
 151 007c 55       		.byte	(.L8-.L5)/2
 152 007d 5C       		.byte	(.L7-.L5)/2
 153 007e 63       		.byte	(.L6-.L5)/2
 154 007f 6A       		.byte	(.L4-.L5)/2
 155              		.p2align 1
 156              	.L16:
 125:Middlewares/ST/filex/common/src/fx_system_timer_entry.c ****                     {
 126:Middlewares/ST/filex/common/src/fx_system_timer_entry.c **** 
 127:Middlewares/ST/filex/common/src/fx_system_timer_entry.c ****                     case 1:                 /* January  */
 128:Middlewares/ST/filex/common/src/fx_system_timer_entry.c ****                     {
 129:Middlewares/ST/filex/common/src/fx_system_timer_entry.c **** 
ARM GAS  C:\Users\HP\AppData\Local\Temp\ccgzU9tk.s 			page 6


 130:Middlewares/ST/filex/common/src/fx_system_timer_entry.c ****                         /* Check for end of the month.  */
 131:Middlewares/ST/filex/common/src/fx_system_timer_entry.c ****                         if (day > 31)
 157              		.loc 1 131 25 view .LVU47
 158              		.loc 1 131 28 is_stmt 0 view .LVU48
 159 0080 1F2D     		cmp	r5, #31
 160 0082 6ED9     		bls	.L18
 132:Middlewares/ST/filex/common/src/fx_system_timer_entry.c ****                         {
 133:Middlewares/ST/filex/common/src/fx_system_timer_entry.c **** 
 134:Middlewares/ST/filex/common/src/fx_system_timer_entry.c ****                             /* Move to next month.  */
 135:Middlewares/ST/filex/common/src/fx_system_timer_entry.c ****                             day = 1;
 161              		.loc 1 135 29 is_stmt 1 view .LVU49
 162              	.LVL15:
 136:Middlewares/ST/filex/common/src/fx_system_timer_entry.c ****                             month++;
 163              		.loc 1 136 29 view .LVU50
 135:Middlewares/ST/filex/common/src/fx_system_timer_entry.c ****                             month++;
 164              		.loc 1 135 33 is_stmt 0 view .LVU51
 165 0084 0D46     		mov	r5, r1
 166              		.loc 1 136 34 view .LVU52
 167 0086 0131     		adds	r1, r1, #1
 168              	.LVL16:
 120:Middlewares/ST/filex/common/src/fx_system_timer_entry.c ****                     day++;
 169              		.loc 1 120 26 view .LVU53
 170 0088 4FF0000C 		mov	ip, #0
 171              	.LVL17:
 172              	.L3:
 137:Middlewares/ST/filex/common/src/fx_system_timer_entry.c ****                         }
 138:Middlewares/ST/filex/common/src/fx_system_timer_entry.c ****                         break;
 139:Middlewares/ST/filex/common/src/fx_system_timer_entry.c ****                     }
 140:Middlewares/ST/filex/common/src/fx_system_timer_entry.c **** 
 141:Middlewares/ST/filex/common/src/fx_system_timer_entry.c ****                     case 2:                 /* February  */
 142:Middlewares/ST/filex/common/src/fx_system_timer_entry.c ****                     {
 143:Middlewares/ST/filex/common/src/fx_system_timer_entry.c **** 
 144:Middlewares/ST/filex/common/src/fx_system_timer_entry.c ****                         /* Check for leap year.  We don't need to check for leap
 145:Middlewares/ST/filex/common/src/fx_system_timer_entry.c ****                            century her (century years divisible by 400) since 2000
 146:Middlewares/ST/filex/common/src/fx_system_timer_entry.c ****                            is and this FAT format only supports years to 2107. */
 147:Middlewares/ST/filex/common/src/fx_system_timer_entry.c ****                         if ((year % 4) == 0)
 148:Middlewares/ST/filex/common/src/fx_system_timer_entry.c ****                         {
 149:Middlewares/ST/filex/common/src/fx_system_timer_entry.c **** 
 150:Middlewares/ST/filex/common/src/fx_system_timer_entry.c ****                             /* Leap year in February... check for 29 days
 151:Middlewares/ST/filex/common/src/fx_system_timer_entry.c ****                                instead of 28.  */
 152:Middlewares/ST/filex/common/src/fx_system_timer_entry.c ****                             if (day > 29)
 153:Middlewares/ST/filex/common/src/fx_system_timer_entry.c ****                             {
 154:Middlewares/ST/filex/common/src/fx_system_timer_entry.c **** 
 155:Middlewares/ST/filex/common/src/fx_system_timer_entry.c ****                                 /* Adjust the month.  */
 156:Middlewares/ST/filex/common/src/fx_system_timer_entry.c ****                                 day =  1;
 157:Middlewares/ST/filex/common/src/fx_system_timer_entry.c ****                                 month++;
 158:Middlewares/ST/filex/common/src/fx_system_timer_entry.c ****                             }
 159:Middlewares/ST/filex/common/src/fx_system_timer_entry.c ****                         }
 160:Middlewares/ST/filex/common/src/fx_system_timer_entry.c ****                         else
 161:Middlewares/ST/filex/common/src/fx_system_timer_entry.c ****                         {
 162:Middlewares/ST/filex/common/src/fx_system_timer_entry.c **** 
 163:Middlewares/ST/filex/common/src/fx_system_timer_entry.c ****                             if (day > 28)
 164:Middlewares/ST/filex/common/src/fx_system_timer_entry.c ****                             {
 165:Middlewares/ST/filex/common/src/fx_system_timer_entry.c **** 
 166:Middlewares/ST/filex/common/src/fx_system_timer_entry.c ****                                 /* Adjust the month.  */
 167:Middlewares/ST/filex/common/src/fx_system_timer_entry.c ****                                 day = 1;
 168:Middlewares/ST/filex/common/src/fx_system_timer_entry.c ****                                 month++;
ARM GAS  C:\Users\HP\AppData\Local\Temp\ccgzU9tk.s 			page 7


 169:Middlewares/ST/filex/common/src/fx_system_timer_entry.c ****                             }
 170:Middlewares/ST/filex/common/src/fx_system_timer_entry.c ****                         }
 171:Middlewares/ST/filex/common/src/fx_system_timer_entry.c ****                         break;
 172:Middlewares/ST/filex/common/src/fx_system_timer_entry.c ****                     }
 173:Middlewares/ST/filex/common/src/fx_system_timer_entry.c **** 
 174:Middlewares/ST/filex/common/src/fx_system_timer_entry.c ****                     case 3:                 /* March  */
 175:Middlewares/ST/filex/common/src/fx_system_timer_entry.c ****                     {
 176:Middlewares/ST/filex/common/src/fx_system_timer_entry.c **** 
 177:Middlewares/ST/filex/common/src/fx_system_timer_entry.c ****                         /* Check for end of the month.  */
 178:Middlewares/ST/filex/common/src/fx_system_timer_entry.c ****                         if (day > 31)
 179:Middlewares/ST/filex/common/src/fx_system_timer_entry.c ****                         {
 180:Middlewares/ST/filex/common/src/fx_system_timer_entry.c **** 
 181:Middlewares/ST/filex/common/src/fx_system_timer_entry.c ****                             /* Move to next month.  */
 182:Middlewares/ST/filex/common/src/fx_system_timer_entry.c ****                             day = 1;
 183:Middlewares/ST/filex/common/src/fx_system_timer_entry.c ****                             month++;
 184:Middlewares/ST/filex/common/src/fx_system_timer_entry.c ****                         }
 185:Middlewares/ST/filex/common/src/fx_system_timer_entry.c ****                         break;
 186:Middlewares/ST/filex/common/src/fx_system_timer_entry.c ****                     }
 187:Middlewares/ST/filex/common/src/fx_system_timer_entry.c **** 
 188:Middlewares/ST/filex/common/src/fx_system_timer_entry.c ****                     case 4:                 /* April  */
 189:Middlewares/ST/filex/common/src/fx_system_timer_entry.c ****                     {
 190:Middlewares/ST/filex/common/src/fx_system_timer_entry.c **** 
 191:Middlewares/ST/filex/common/src/fx_system_timer_entry.c ****                         /* Check for end of the month.  */
 192:Middlewares/ST/filex/common/src/fx_system_timer_entry.c ****                         if (day > 30)
 193:Middlewares/ST/filex/common/src/fx_system_timer_entry.c ****                         {
 194:Middlewares/ST/filex/common/src/fx_system_timer_entry.c **** 
 195:Middlewares/ST/filex/common/src/fx_system_timer_entry.c ****                             /* Move to next month.  */
 196:Middlewares/ST/filex/common/src/fx_system_timer_entry.c ****                             day = 1;
 197:Middlewares/ST/filex/common/src/fx_system_timer_entry.c ****                             month++;
 198:Middlewares/ST/filex/common/src/fx_system_timer_entry.c ****                         }
 199:Middlewares/ST/filex/common/src/fx_system_timer_entry.c ****                         break;
 200:Middlewares/ST/filex/common/src/fx_system_timer_entry.c ****                     }
 201:Middlewares/ST/filex/common/src/fx_system_timer_entry.c **** 
 202:Middlewares/ST/filex/common/src/fx_system_timer_entry.c ****                     case 5:                 /* May  */
 203:Middlewares/ST/filex/common/src/fx_system_timer_entry.c ****                     {
 204:Middlewares/ST/filex/common/src/fx_system_timer_entry.c **** 
 205:Middlewares/ST/filex/common/src/fx_system_timer_entry.c ****                         /* Check for end of the month.  */
 206:Middlewares/ST/filex/common/src/fx_system_timer_entry.c ****                         if (day > 31)
 207:Middlewares/ST/filex/common/src/fx_system_timer_entry.c ****                         {
 208:Middlewares/ST/filex/common/src/fx_system_timer_entry.c **** 
 209:Middlewares/ST/filex/common/src/fx_system_timer_entry.c ****                             /* Move to next month.  */
 210:Middlewares/ST/filex/common/src/fx_system_timer_entry.c ****                             day = 1;
 211:Middlewares/ST/filex/common/src/fx_system_timer_entry.c ****                             month++;
 212:Middlewares/ST/filex/common/src/fx_system_timer_entry.c ****                         }
 213:Middlewares/ST/filex/common/src/fx_system_timer_entry.c ****                         break;
 214:Middlewares/ST/filex/common/src/fx_system_timer_entry.c ****                     }
 215:Middlewares/ST/filex/common/src/fx_system_timer_entry.c **** 
 216:Middlewares/ST/filex/common/src/fx_system_timer_entry.c ****                     case 6:                 /* June */
 217:Middlewares/ST/filex/common/src/fx_system_timer_entry.c ****                     {
 218:Middlewares/ST/filex/common/src/fx_system_timer_entry.c **** 
 219:Middlewares/ST/filex/common/src/fx_system_timer_entry.c ****                         /* Check for end of the month.  */
 220:Middlewares/ST/filex/common/src/fx_system_timer_entry.c ****                         if (day > 30)
 221:Middlewares/ST/filex/common/src/fx_system_timer_entry.c ****                         {
 222:Middlewares/ST/filex/common/src/fx_system_timer_entry.c **** 
 223:Middlewares/ST/filex/common/src/fx_system_timer_entry.c ****                             /* Move to next month.  */
 224:Middlewares/ST/filex/common/src/fx_system_timer_entry.c ****                             day = 1;
 225:Middlewares/ST/filex/common/src/fx_system_timer_entry.c ****                             month++;
ARM GAS  C:\Users\HP\AppData\Local\Temp\ccgzU9tk.s 			page 8


 226:Middlewares/ST/filex/common/src/fx_system_timer_entry.c ****                         }
 227:Middlewares/ST/filex/common/src/fx_system_timer_entry.c ****                         break;
 228:Middlewares/ST/filex/common/src/fx_system_timer_entry.c ****                     }
 229:Middlewares/ST/filex/common/src/fx_system_timer_entry.c **** 
 230:Middlewares/ST/filex/common/src/fx_system_timer_entry.c ****                     case 7:                 /* July */
 231:Middlewares/ST/filex/common/src/fx_system_timer_entry.c ****                     {
 232:Middlewares/ST/filex/common/src/fx_system_timer_entry.c **** 
 233:Middlewares/ST/filex/common/src/fx_system_timer_entry.c ****                         /* Check for end of the month.  */
 234:Middlewares/ST/filex/common/src/fx_system_timer_entry.c ****                         if (day > 31)
 235:Middlewares/ST/filex/common/src/fx_system_timer_entry.c ****                         {
 236:Middlewares/ST/filex/common/src/fx_system_timer_entry.c **** 
 237:Middlewares/ST/filex/common/src/fx_system_timer_entry.c ****                             /* Move to next month.  */
 238:Middlewares/ST/filex/common/src/fx_system_timer_entry.c ****                             day = 1;
 239:Middlewares/ST/filex/common/src/fx_system_timer_entry.c ****                             month++;
 240:Middlewares/ST/filex/common/src/fx_system_timer_entry.c ****                         }
 241:Middlewares/ST/filex/common/src/fx_system_timer_entry.c ****                         break;
 242:Middlewares/ST/filex/common/src/fx_system_timer_entry.c ****                     }
 243:Middlewares/ST/filex/common/src/fx_system_timer_entry.c **** 
 244:Middlewares/ST/filex/common/src/fx_system_timer_entry.c ****                     case 8:                 /* August */
 245:Middlewares/ST/filex/common/src/fx_system_timer_entry.c ****                     {
 246:Middlewares/ST/filex/common/src/fx_system_timer_entry.c **** 
 247:Middlewares/ST/filex/common/src/fx_system_timer_entry.c ****                         /* Check for end of the month.  */
 248:Middlewares/ST/filex/common/src/fx_system_timer_entry.c ****                         if (day > 31)
 249:Middlewares/ST/filex/common/src/fx_system_timer_entry.c ****                         {
 250:Middlewares/ST/filex/common/src/fx_system_timer_entry.c **** 
 251:Middlewares/ST/filex/common/src/fx_system_timer_entry.c ****                             /* Move to next month.  */
 252:Middlewares/ST/filex/common/src/fx_system_timer_entry.c ****                             day = 1;
 253:Middlewares/ST/filex/common/src/fx_system_timer_entry.c ****                             month++;
 254:Middlewares/ST/filex/common/src/fx_system_timer_entry.c ****                         }
 255:Middlewares/ST/filex/common/src/fx_system_timer_entry.c ****                         break;
 256:Middlewares/ST/filex/common/src/fx_system_timer_entry.c ****                     }
 257:Middlewares/ST/filex/common/src/fx_system_timer_entry.c **** 
 258:Middlewares/ST/filex/common/src/fx_system_timer_entry.c ****                     case 9:                 /* September */
 259:Middlewares/ST/filex/common/src/fx_system_timer_entry.c ****                     {
 260:Middlewares/ST/filex/common/src/fx_system_timer_entry.c **** 
 261:Middlewares/ST/filex/common/src/fx_system_timer_entry.c ****                         /* Check for end of the month.  */
 262:Middlewares/ST/filex/common/src/fx_system_timer_entry.c ****                         if (day > 30)
 263:Middlewares/ST/filex/common/src/fx_system_timer_entry.c ****                         {
 264:Middlewares/ST/filex/common/src/fx_system_timer_entry.c **** 
 265:Middlewares/ST/filex/common/src/fx_system_timer_entry.c ****                             /* Move to next month.  */
 266:Middlewares/ST/filex/common/src/fx_system_timer_entry.c ****                             day = 1;
 267:Middlewares/ST/filex/common/src/fx_system_timer_entry.c ****                             month++;
 268:Middlewares/ST/filex/common/src/fx_system_timer_entry.c ****                         }
 269:Middlewares/ST/filex/common/src/fx_system_timer_entry.c ****                         break;
 270:Middlewares/ST/filex/common/src/fx_system_timer_entry.c ****                     }
 271:Middlewares/ST/filex/common/src/fx_system_timer_entry.c **** 
 272:Middlewares/ST/filex/common/src/fx_system_timer_entry.c ****                     case 10:                /* October */
 273:Middlewares/ST/filex/common/src/fx_system_timer_entry.c ****                     {
 274:Middlewares/ST/filex/common/src/fx_system_timer_entry.c **** 
 275:Middlewares/ST/filex/common/src/fx_system_timer_entry.c ****                         /* Check for end of the month.  */
 276:Middlewares/ST/filex/common/src/fx_system_timer_entry.c ****                         if (day > 31)
 277:Middlewares/ST/filex/common/src/fx_system_timer_entry.c ****                         {
 278:Middlewares/ST/filex/common/src/fx_system_timer_entry.c **** 
 279:Middlewares/ST/filex/common/src/fx_system_timer_entry.c ****                             /* Move to next month.  */
 280:Middlewares/ST/filex/common/src/fx_system_timer_entry.c ****                             day = 1;
 281:Middlewares/ST/filex/common/src/fx_system_timer_entry.c ****                             month++;
 282:Middlewares/ST/filex/common/src/fx_system_timer_entry.c ****                         }
ARM GAS  C:\Users\HP\AppData\Local\Temp\ccgzU9tk.s 			page 9


 283:Middlewares/ST/filex/common/src/fx_system_timer_entry.c ****                         break;
 284:Middlewares/ST/filex/common/src/fx_system_timer_entry.c ****                     }
 285:Middlewares/ST/filex/common/src/fx_system_timer_entry.c **** 
 286:Middlewares/ST/filex/common/src/fx_system_timer_entry.c ****                     case 11:                /* November */
 287:Middlewares/ST/filex/common/src/fx_system_timer_entry.c ****                     {
 288:Middlewares/ST/filex/common/src/fx_system_timer_entry.c **** 
 289:Middlewares/ST/filex/common/src/fx_system_timer_entry.c ****                         /* Check for end of the month.  */
 290:Middlewares/ST/filex/common/src/fx_system_timer_entry.c ****                         if (day > 30)
 291:Middlewares/ST/filex/common/src/fx_system_timer_entry.c ****                         {
 292:Middlewares/ST/filex/common/src/fx_system_timer_entry.c **** 
 293:Middlewares/ST/filex/common/src/fx_system_timer_entry.c ****                             /* Move to next month.  */
 294:Middlewares/ST/filex/common/src/fx_system_timer_entry.c ****                             day = 1;
 295:Middlewares/ST/filex/common/src/fx_system_timer_entry.c ****                             month++;
 296:Middlewares/ST/filex/common/src/fx_system_timer_entry.c ****                         }
 297:Middlewares/ST/filex/common/src/fx_system_timer_entry.c ****                         break;
 298:Middlewares/ST/filex/common/src/fx_system_timer_entry.c ****                     }
 299:Middlewares/ST/filex/common/src/fx_system_timer_entry.c **** 
 300:Middlewares/ST/filex/common/src/fx_system_timer_entry.c ****                     case 12:                /* December */
 301:Middlewares/ST/filex/common/src/fx_system_timer_entry.c ****                     {
 302:Middlewares/ST/filex/common/src/fx_system_timer_entry.c **** 
 303:Middlewares/ST/filex/common/src/fx_system_timer_entry.c ****                         /* Check for end of the month.  */
 304:Middlewares/ST/filex/common/src/fx_system_timer_entry.c ****                         if (day > 31)
 305:Middlewares/ST/filex/common/src/fx_system_timer_entry.c ****                         {
 306:Middlewares/ST/filex/common/src/fx_system_timer_entry.c **** 
 307:Middlewares/ST/filex/common/src/fx_system_timer_entry.c ****                             /* Move to next month.  */
 308:Middlewares/ST/filex/common/src/fx_system_timer_entry.c ****                             day = 1;
 309:Middlewares/ST/filex/common/src/fx_system_timer_entry.c ****                             month = 1;
 310:Middlewares/ST/filex/common/src/fx_system_timer_entry.c **** 
 311:Middlewares/ST/filex/common/src/fx_system_timer_entry.c ****                             /* Also move to next year.  */
 312:Middlewares/ST/filex/common/src/fx_system_timer_entry.c ****                             year++;
 313:Middlewares/ST/filex/common/src/fx_system_timer_entry.c **** 
 314:Middlewares/ST/filex/common/src/fx_system_timer_entry.c ****                             /* Check for a year that exceeds the representation
 315:Middlewares/ST/filex/common/src/fx_system_timer_entry.c ****                                in this format.  */
 316:Middlewares/ST/filex/common/src/fx_system_timer_entry.c ****                             if (year > FX_MAXIMUM_YEAR)
 317:Middlewares/ST/filex/common/src/fx_system_timer_entry.c ****                             {
 318:Middlewares/ST/filex/common/src/fx_system_timer_entry.c ****                                 return;
 319:Middlewares/ST/filex/common/src/fx_system_timer_entry.c ****                             }
 320:Middlewares/ST/filex/common/src/fx_system_timer_entry.c ****                         }
 321:Middlewares/ST/filex/common/src/fx_system_timer_entry.c ****                         break;
 322:Middlewares/ST/filex/common/src/fx_system_timer_entry.c ****                     }
 323:Middlewares/ST/filex/common/src/fx_system_timer_entry.c **** 
 324:Middlewares/ST/filex/common/src/fx_system_timer_entry.c ****                     default:                /* Invalid month!  */
 325:Middlewares/ST/filex/common/src/fx_system_timer_entry.c **** 
 326:Middlewares/ST/filex/common/src/fx_system_timer_entry.c ****                         return;             /* Skip updating date/time!  */
 327:Middlewares/ST/filex/common/src/fx_system_timer_entry.c ****                     }
 328:Middlewares/ST/filex/common/src/fx_system_timer_entry.c ****                 }
 329:Middlewares/ST/filex/common/src/fx_system_timer_entry.c ****             }
 330:Middlewares/ST/filex/common/src/fx_system_timer_entry.c ****         }
 331:Middlewares/ST/filex/common/src/fx_system_timer_entry.c **** 
 332:Middlewares/ST/filex/common/src/fx_system_timer_entry.c ****         /* Now apply the new setting to the internal representation.  */
 333:Middlewares/ST/filex/common/src/fx_system_timer_entry.c **** 
 334:Middlewares/ST/filex/common/src/fx_system_timer_entry.c ****         /* Set the system date.  */
 335:Middlewares/ST/filex/common/src/fx_system_timer_entry.c ****         _fx_system_date =  ((year - FX_BASE_YEAR) << FX_YEAR_SHIFT) |
 173              		.loc 1 335 9 is_stmt 1 view .LVU54
 174              		.loc 1 335 35 is_stmt 0 view .LVU55
 175 008c AEF2BC7E 		subw	lr, lr, #1980
 176              	.LVL18:
ARM GAS  C:\Users\HP\AppData\Local\Temp\ccgzU9tk.s 			page 10


 336:Middlewares/ST/filex/common/src/fx_system_timer_entry.c ****                             (month << FX_MONTH_SHIFT) | day;
 177              		.loc 1 336 36 view .LVU56
 178 0090 4901     		lsls	r1, r1, #5
 179              	.LVL19:
 335:Middlewares/ST/filex/common/src/fx_system_timer_entry.c ****                             (month << FX_MONTH_SHIFT) | day;
 180              		.loc 1 335 69 view .LVU57
 181 0092 41EA4E21 		orr	r1, r1, lr, lsl #9
 182              		.loc 1 336 55 view .LVU58
 183 0096 2943     		orrs	r1, r1, r5
 335:Middlewares/ST/filex/common/src/fx_system_timer_entry.c ****                             (month << FX_MONTH_SHIFT) | day;
 184              		.loc 1 335 25 view .LVU59
 185 0098 4648     		ldr	r0, .L35+8
 186 009a 0160     		str	r1, [r0]
 337:Middlewares/ST/filex/common/src/fx_system_timer_entry.c **** 
 338:Middlewares/ST/filex/common/src/fx_system_timer_entry.c ****         /* Set the new system time.  */
 339:Middlewares/ST/filex/common/src/fx_system_timer_entry.c ****         _fx_system_time  =  (hour << FX_HOUR_SHIFT) |
 187              		.loc 1 339 9 is_stmt 1 view .LVU60
 340:Middlewares/ST/filex/common/src/fx_system_timer_entry.c ****                             (minute << FX_MINUTE_SHIFT) | (second / 2);
 188              		.loc 1 340 37 is_stmt 0 view .LVU61
 189 009c 5B01     		lsls	r3, r3, #5
 190              	.LVL20:
 339:Middlewares/ST/filex/common/src/fx_system_timer_entry.c ****                             (minute << FX_MINUTE_SHIFT) | (second / 2);
 191              		.loc 1 339 53 view .LVU62
 192 009e 43EACC23 		orr	r3, r3, ip, lsl #11
 193              		.loc 1 340 57 view .LVU63
 194 00a2 43EA5203 		orr	r3, r3, r2, lsr #1
 339:Middlewares/ST/filex/common/src/fx_system_timer_entry.c ****                             (minute << FX_MINUTE_SHIFT) | (second / 2);
 195              		.loc 1 339 26 view .LVU64
 196 00a6 424A     		ldr	r2, .L35+4
 197              	.LVL21:
 339:Middlewares/ST/filex/common/src/fx_system_timer_entry.c ****                             (minute << FX_MINUTE_SHIFT) | (second / 2);
 198              		.loc 1 339 26 view .LVU65
 199 00a8 1360     		str	r3, [r2]
 200              	.LVL22:
 201              	.L1:
 341:Middlewares/ST/filex/common/src/fx_system_timer_entry.c ****     }
 342:Middlewares/ST/filex/common/src/fx_system_timer_entry.c **** }
 202              		.loc 1 342 1 view .LVU66
 203 00aa 70BD     		pop	{r4, r5, r6, pc}
 204              	.LVL23:
 205              	.L15:
 147:Middlewares/ST/filex/common/src/fx_system_timer_entry.c ****                         {
 206              		.loc 1 147 25 is_stmt 1 view .LVU67
 147:Middlewares/ST/filex/common/src/fx_system_timer_entry.c ****                         {
 207              		.loc 1 147 28 is_stmt 0 view .LVU68
 208 00ac 1EF0030C 		ands	ip, lr, #3
 209 00b0 04D1     		bne	.L17
 152:Middlewares/ST/filex/common/src/fx_system_timer_entry.c ****                             {
 210              		.loc 1 152 29 is_stmt 1 view .LVU69
 152:Middlewares/ST/filex/common/src/fx_system_timer_entry.c ****                             {
 211              		.loc 1 152 32 is_stmt 0 view .LVU70
 212 00b2 1D2D     		cmp	r5, #29
 213 00b4 EAD9     		bls	.L3
 156:Middlewares/ST/filex/common/src/fx_system_timer_entry.c ****                                 month++;
 214              		.loc 1 156 33 is_stmt 1 view .LVU71
 215              	.LVL24:
 157:Middlewares/ST/filex/common/src/fx_system_timer_entry.c ****                             }
ARM GAS  C:\Users\HP\AppData\Local\Temp\ccgzU9tk.s 			page 11


 216              		.loc 1 157 33 view .LVU72
 157:Middlewares/ST/filex/common/src/fx_system_timer_entry.c ****                             }
 217              		.loc 1 157 38 is_stmt 0 view .LVU73
 218 00b6 0131     		adds	r1, r1, #1
 219              	.LVL25:
 156:Middlewares/ST/filex/common/src/fx_system_timer_entry.c ****                                 month++;
 220              		.loc 1 156 37 view .LVU74
 221 00b8 0125     		movs	r5, #1
 222 00ba E7E7     		b	.L3
 223              	.LVL26:
 224              	.L17:
 163:Middlewares/ST/filex/common/src/fx_system_timer_entry.c ****                             {
 225              		.loc 1 163 29 is_stmt 1 view .LVU75
 163:Middlewares/ST/filex/common/src/fx_system_timer_entry.c ****                             {
 226              		.loc 1 163 32 is_stmt 0 view .LVU76
 227 00bc 1C2D     		cmp	r5, #28
 228 00be 53D9     		bls	.L19
 167:Middlewares/ST/filex/common/src/fx_system_timer_entry.c ****                                 month++;
 229              		.loc 1 167 33 is_stmt 1 view .LVU77
 230              	.LVL27:
 168:Middlewares/ST/filex/common/src/fx_system_timer_entry.c ****                             }
 231              		.loc 1 168 33 view .LVU78
 168:Middlewares/ST/filex/common/src/fx_system_timer_entry.c ****                             }
 232              		.loc 1 168 38 is_stmt 0 view .LVU79
 233 00c0 0131     		adds	r1, r1, #1
 234              	.LVL28:
 167:Middlewares/ST/filex/common/src/fx_system_timer_entry.c ****                                 month++;
 235              		.loc 1 167 37 view .LVU80
 236 00c2 0125     		movs	r5, #1
 120:Middlewares/ST/filex/common/src/fx_system_timer_entry.c ****                     day++;
 237              		.loc 1 120 26 view .LVU81
 238 00c4 4FF0000C 		mov	ip, #0
 239 00c8 E0E7     		b	.L3
 240              	.LVL29:
 241              	.L14:
 178:Middlewares/ST/filex/common/src/fx_system_timer_entry.c ****                         {
 242              		.loc 1 178 25 is_stmt 1 view .LVU82
 178:Middlewares/ST/filex/common/src/fx_system_timer_entry.c ****                         {
 243              		.loc 1 178 28 is_stmt 0 view .LVU83
 244 00ca 1F2D     		cmp	r5, #31
 245 00cc 4FD9     		bls	.L20
 182:Middlewares/ST/filex/common/src/fx_system_timer_entry.c ****                             month++;
 246              		.loc 1 182 29 is_stmt 1 view .LVU84
 247              	.LVL30:
 183:Middlewares/ST/filex/common/src/fx_system_timer_entry.c ****                         }
 248              		.loc 1 183 29 view .LVU85
 183:Middlewares/ST/filex/common/src/fx_system_timer_entry.c ****                         }
 249              		.loc 1 183 34 is_stmt 0 view .LVU86
 250 00ce 0131     		adds	r1, r1, #1
 251              	.LVL31:
 182:Middlewares/ST/filex/common/src/fx_system_timer_entry.c ****                             month++;
 252              		.loc 1 182 33 view .LVU87
 253 00d0 0125     		movs	r5, #1
 120:Middlewares/ST/filex/common/src/fx_system_timer_entry.c ****                     day++;
 254              		.loc 1 120 26 view .LVU88
 255 00d2 4FF0000C 		mov	ip, #0
 256 00d6 D9E7     		b	.L3
ARM GAS  C:\Users\HP\AppData\Local\Temp\ccgzU9tk.s 			page 12


 257              	.LVL32:
 258              	.L13:
 192:Middlewares/ST/filex/common/src/fx_system_timer_entry.c ****                         {
 259              		.loc 1 192 25 is_stmt 1 view .LVU89
 192:Middlewares/ST/filex/common/src/fx_system_timer_entry.c ****                         {
 260              		.loc 1 192 28 is_stmt 0 view .LVU90
 261 00d8 1E2D     		cmp	r5, #30
 262 00da 4BD9     		bls	.L21
 196:Middlewares/ST/filex/common/src/fx_system_timer_entry.c ****                             month++;
 263              		.loc 1 196 29 is_stmt 1 view .LVU91
 264              	.LVL33:
 197:Middlewares/ST/filex/common/src/fx_system_timer_entry.c ****                         }
 265              		.loc 1 197 29 view .LVU92
 197:Middlewares/ST/filex/common/src/fx_system_timer_entry.c ****                         }
 266              		.loc 1 197 34 is_stmt 0 view .LVU93
 267 00dc 0131     		adds	r1, r1, #1
 268              	.LVL34:
 196:Middlewares/ST/filex/common/src/fx_system_timer_entry.c ****                             month++;
 269              		.loc 1 196 33 view .LVU94
 270 00de 0125     		movs	r5, #1
 120:Middlewares/ST/filex/common/src/fx_system_timer_entry.c ****                     day++;
 271              		.loc 1 120 26 view .LVU95
 272 00e0 4FF0000C 		mov	ip, #0
 273 00e4 D2E7     		b	.L3
 274              	.LVL35:
 275              	.L12:
 206:Middlewares/ST/filex/common/src/fx_system_timer_entry.c ****                         {
 276              		.loc 1 206 25 is_stmt 1 view .LVU96
 206:Middlewares/ST/filex/common/src/fx_system_timer_entry.c ****                         {
 277              		.loc 1 206 28 is_stmt 0 view .LVU97
 278 00e6 1F2D     		cmp	r5, #31
 279 00e8 47D9     		bls	.L22
 210:Middlewares/ST/filex/common/src/fx_system_timer_entry.c ****                             month++;
 280              		.loc 1 210 29 is_stmt 1 view .LVU98
 281              	.LVL36:
 211:Middlewares/ST/filex/common/src/fx_system_timer_entry.c ****                         }
 282              		.loc 1 211 29 view .LVU99
 211:Middlewares/ST/filex/common/src/fx_system_timer_entry.c ****                         }
 283              		.loc 1 211 34 is_stmt 0 view .LVU100
 284 00ea 0131     		adds	r1, r1, #1
 285              	.LVL37:
 210:Middlewares/ST/filex/common/src/fx_system_timer_entry.c ****                             month++;
 286              		.loc 1 210 33 view .LVU101
 287 00ec 0125     		movs	r5, #1
 120:Middlewares/ST/filex/common/src/fx_system_timer_entry.c ****                     day++;
 288              		.loc 1 120 26 view .LVU102
 289 00ee 4FF0000C 		mov	ip, #0
 290 00f2 CBE7     		b	.L3
 291              	.LVL38:
 292              	.L11:
 220:Middlewares/ST/filex/common/src/fx_system_timer_entry.c ****                         {
 293              		.loc 1 220 25 is_stmt 1 view .LVU103
 220:Middlewares/ST/filex/common/src/fx_system_timer_entry.c ****                         {
 294              		.loc 1 220 28 is_stmt 0 view .LVU104
 295 00f4 1E2D     		cmp	r5, #30
 296 00f6 43D9     		bls	.L23
 224:Middlewares/ST/filex/common/src/fx_system_timer_entry.c ****                             month++;
ARM GAS  C:\Users\HP\AppData\Local\Temp\ccgzU9tk.s 			page 13


 297              		.loc 1 224 29 is_stmt 1 view .LVU105
 298              	.LVL39:
 225:Middlewares/ST/filex/common/src/fx_system_timer_entry.c ****                         }
 299              		.loc 1 225 29 view .LVU106
 225:Middlewares/ST/filex/common/src/fx_system_timer_entry.c ****                         }
 300              		.loc 1 225 34 is_stmt 0 view .LVU107
 301 00f8 0131     		adds	r1, r1, #1
 302              	.LVL40:
 224:Middlewares/ST/filex/common/src/fx_system_timer_entry.c ****                             month++;
 303              		.loc 1 224 33 view .LVU108
 304 00fa 0125     		movs	r5, #1
 120:Middlewares/ST/filex/common/src/fx_system_timer_entry.c ****                     day++;
 305              		.loc 1 120 26 view .LVU109
 306 00fc 4FF0000C 		mov	ip, #0
 307 0100 C4E7     		b	.L3
 308              	.LVL41:
 309              	.L10:
 234:Middlewares/ST/filex/common/src/fx_system_timer_entry.c ****                         {
 310              		.loc 1 234 25 is_stmt 1 view .LVU110
 234:Middlewares/ST/filex/common/src/fx_system_timer_entry.c ****                         {
 311              		.loc 1 234 28 is_stmt 0 view .LVU111
 312 0102 1F2D     		cmp	r5, #31
 313 0104 3FD9     		bls	.L24
 238:Middlewares/ST/filex/common/src/fx_system_timer_entry.c ****                             month++;
 314              		.loc 1 238 29 is_stmt 1 view .LVU112
 315              	.LVL42:
 239:Middlewares/ST/filex/common/src/fx_system_timer_entry.c ****                         }
 316              		.loc 1 239 29 view .LVU113
 239:Middlewares/ST/filex/common/src/fx_system_timer_entry.c ****                         }
 317              		.loc 1 239 34 is_stmt 0 view .LVU114
 318 0106 0131     		adds	r1, r1, #1
 319              	.LVL43:
 238:Middlewares/ST/filex/common/src/fx_system_timer_entry.c ****                             month++;
 320              		.loc 1 238 33 view .LVU115
 321 0108 0125     		movs	r5, #1
 120:Middlewares/ST/filex/common/src/fx_system_timer_entry.c ****                     day++;
 322              		.loc 1 120 26 view .LVU116
 323 010a 4FF0000C 		mov	ip, #0
 324 010e BDE7     		b	.L3
 325              	.LVL44:
 326              	.L9:
 248:Middlewares/ST/filex/common/src/fx_system_timer_entry.c ****                         {
 327              		.loc 1 248 25 is_stmt 1 view .LVU117
 248:Middlewares/ST/filex/common/src/fx_system_timer_entry.c ****                         {
 328              		.loc 1 248 28 is_stmt 0 view .LVU118
 329 0110 1F2D     		cmp	r5, #31
 330 0112 3BD9     		bls	.L25
 252:Middlewares/ST/filex/common/src/fx_system_timer_entry.c ****                             month++;
 331              		.loc 1 252 29 is_stmt 1 view .LVU119
 332              	.LVL45:
 253:Middlewares/ST/filex/common/src/fx_system_timer_entry.c ****                         }
 333              		.loc 1 253 29 view .LVU120
 253:Middlewares/ST/filex/common/src/fx_system_timer_entry.c ****                         }
 334              		.loc 1 253 34 is_stmt 0 view .LVU121
 335 0114 0131     		adds	r1, r1, #1
 336              	.LVL46:
 252:Middlewares/ST/filex/common/src/fx_system_timer_entry.c ****                             month++;
ARM GAS  C:\Users\HP\AppData\Local\Temp\ccgzU9tk.s 			page 14


 337              		.loc 1 252 33 view .LVU122
 338 0116 0125     		movs	r5, #1
 120:Middlewares/ST/filex/common/src/fx_system_timer_entry.c ****                     day++;
 339              		.loc 1 120 26 view .LVU123
 340 0118 4FF0000C 		mov	ip, #0
 341 011c B6E7     		b	.L3
 342              	.LVL47:
 343              	.L8:
 262:Middlewares/ST/filex/common/src/fx_system_timer_entry.c ****                         {
 344              		.loc 1 262 25 is_stmt 1 view .LVU124
 262:Middlewares/ST/filex/common/src/fx_system_timer_entry.c ****                         {
 345              		.loc 1 262 28 is_stmt 0 view .LVU125
 346 011e 1E2D     		cmp	r5, #30
 347 0120 37D9     		bls	.L26
 266:Middlewares/ST/filex/common/src/fx_system_timer_entry.c ****                             month++;
 348              		.loc 1 266 29 is_stmt 1 view .LVU126
 349              	.LVL48:
 267:Middlewares/ST/filex/common/src/fx_system_timer_entry.c ****                         }
 350              		.loc 1 267 29 view .LVU127
 267:Middlewares/ST/filex/common/src/fx_system_timer_entry.c ****                         }
 351              		.loc 1 267 34 is_stmt 0 view .LVU128
 352 0122 0131     		adds	r1, r1, #1
 353              	.LVL49:
 266:Middlewares/ST/filex/common/src/fx_system_timer_entry.c ****                             month++;
 354              		.loc 1 266 33 view .LVU129
 355 0124 0125     		movs	r5, #1
 120:Middlewares/ST/filex/common/src/fx_system_timer_entry.c ****                     day++;
 356              		.loc 1 120 26 view .LVU130
 357 0126 4FF0000C 		mov	ip, #0
 358 012a AFE7     		b	.L3
 359              	.LVL50:
 360              	.L7:
 276:Middlewares/ST/filex/common/src/fx_system_timer_entry.c ****                         {
 361              		.loc 1 276 25 is_stmt 1 view .LVU131
 276:Middlewares/ST/filex/common/src/fx_system_timer_entry.c ****                         {
 362              		.loc 1 276 28 is_stmt 0 view .LVU132
 363 012c 1F2D     		cmp	r5, #31
 364 012e 33D9     		bls	.L27
 280:Middlewares/ST/filex/common/src/fx_system_timer_entry.c ****                             month++;
 365              		.loc 1 280 29 is_stmt 1 view .LVU133
 366              	.LVL51:
 281:Middlewares/ST/filex/common/src/fx_system_timer_entry.c ****                         }
 367              		.loc 1 281 29 view .LVU134
 281:Middlewares/ST/filex/common/src/fx_system_timer_entry.c ****                         }
 368              		.loc 1 281 34 is_stmt 0 view .LVU135
 369 0130 0131     		adds	r1, r1, #1
 370              	.LVL52:
 280:Middlewares/ST/filex/common/src/fx_system_timer_entry.c ****                             month++;
 371              		.loc 1 280 33 view .LVU136
 372 0132 0125     		movs	r5, #1
 120:Middlewares/ST/filex/common/src/fx_system_timer_entry.c ****                     day++;
 373              		.loc 1 120 26 view .LVU137
 374 0134 4FF0000C 		mov	ip, #0
 375 0138 A8E7     		b	.L3
 376              	.LVL53:
 377              	.L6:
 290:Middlewares/ST/filex/common/src/fx_system_timer_entry.c ****                         {
ARM GAS  C:\Users\HP\AppData\Local\Temp\ccgzU9tk.s 			page 15


 378              		.loc 1 290 25 is_stmt 1 view .LVU138
 290:Middlewares/ST/filex/common/src/fx_system_timer_entry.c ****                         {
 379              		.loc 1 290 28 is_stmt 0 view .LVU139
 380 013a 1E2D     		cmp	r5, #30
 381 013c 2FD9     		bls	.L28
 294:Middlewares/ST/filex/common/src/fx_system_timer_entry.c ****                             month++;
 382              		.loc 1 294 29 is_stmt 1 view .LVU140
 383              	.LVL54:
 295:Middlewares/ST/filex/common/src/fx_system_timer_entry.c ****                         }
 384              		.loc 1 295 29 view .LVU141
 295:Middlewares/ST/filex/common/src/fx_system_timer_entry.c ****                         }
 385              		.loc 1 295 34 is_stmt 0 view .LVU142
 386 013e 0131     		adds	r1, r1, #1
 387              	.LVL55:
 294:Middlewares/ST/filex/common/src/fx_system_timer_entry.c ****                             month++;
 388              		.loc 1 294 33 view .LVU143
 389 0140 0125     		movs	r5, #1
 120:Middlewares/ST/filex/common/src/fx_system_timer_entry.c ****                     day++;
 390              		.loc 1 120 26 view .LVU144
 391 0142 4FF0000C 		mov	ip, #0
 392 0146 A1E7     		b	.L3
 393              	.LVL56:
 394              	.L4:
 304:Middlewares/ST/filex/common/src/fx_system_timer_entry.c ****                         {
 395              		.loc 1 304 25 is_stmt 1 view .LVU145
 304:Middlewares/ST/filex/common/src/fx_system_timer_entry.c ****                         {
 396              		.loc 1 304 28 is_stmt 0 view .LVU146
 397 0148 1F2D     		cmp	r5, #31
 398 014a 2BD9     		bls	.L29
 308:Middlewares/ST/filex/common/src/fx_system_timer_entry.c ****                             month = 1;
 399              		.loc 1 308 29 is_stmt 1 view .LVU147
 400              	.LVL57:
 309:Middlewares/ST/filex/common/src/fx_system_timer_entry.c **** 
 401              		.loc 1 309 29 view .LVU148
 312:Middlewares/ST/filex/common/src/fx_system_timer_entry.c **** 
 402              		.loc 1 312 29 view .LVU149
 312:Middlewares/ST/filex/common/src/fx_system_timer_entry.c **** 
 403              		.loc 1 312 33 is_stmt 0 view .LVU150
 404 014c 00F2BD7E 		addw	lr, r0, #1981
 405              	.LVL58:
 316:Middlewares/ST/filex/common/src/fx_system_timer_entry.c ****                             {
 406              		.loc 1 316 29 is_stmt 1 view .LVU151
 316:Middlewares/ST/filex/common/src/fx_system_timer_entry.c ****                             {
 407              		.loc 1 316 32 is_stmt 0 view .LVU152
 408 0150 40F63B01 		movw	r1, #2107
 409 0154 8E45     		cmp	lr, r1
 410 0156 A8D8     		bhi	.L1
 309:Middlewares/ST/filex/common/src/fx_system_timer_entry.c **** 
 411              		.loc 1 309 35 view .LVU153
 412 0158 0121     		movs	r1, #1
 308:Middlewares/ST/filex/common/src/fx_system_timer_entry.c ****                             month = 1;
 413              		.loc 1 308 33 view .LVU154
 414 015a 0D46     		mov	r5, r1
 120:Middlewares/ST/filex/common/src/fx_system_timer_entry.c ****                     day++;
 415              		.loc 1 120 26 view .LVU155
 416 015c 4FF0000C 		mov	ip, #0
 417 0160 94E7     		b	.L3
ARM GAS  C:\Users\HP\AppData\Local\Temp\ccgzU9tk.s 			page 16


 418              	.LVL59:
 419              	.L18:
 120:Middlewares/ST/filex/common/src/fx_system_timer_entry.c ****                     day++;
 420              		.loc 1 120 26 view .LVU156
 421 0162 4FF0000C 		mov	ip, #0
 422 0166 91E7     		b	.L3
 423              	.L19:
 120:Middlewares/ST/filex/common/src/fx_system_timer_entry.c ****                     day++;
 424              		.loc 1 120 26 view .LVU157
 425 0168 4FF0000C 		mov	ip, #0
 426 016c 8EE7     		b	.L3
 427              	.L20:
 120:Middlewares/ST/filex/common/src/fx_system_timer_entry.c ****                     day++;
 428              		.loc 1 120 26 view .LVU158
 429 016e 4FF0000C 		mov	ip, #0
 430 0172 8BE7     		b	.L3
 431              	.L21:
 120:Middlewares/ST/filex/common/src/fx_system_timer_entry.c ****                     day++;
 432              		.loc 1 120 26 view .LVU159
 433 0174 4FF0000C 		mov	ip, #0
 434 0178 88E7     		b	.L3
 435              	.L22:
 120:Middlewares/ST/filex/common/src/fx_system_timer_entry.c ****                     day++;
 436              		.loc 1 120 26 view .LVU160
 437 017a 4FF0000C 		mov	ip, #0
 438 017e 85E7     		b	.L3
 439              	.L23:
 120:Middlewares/ST/filex/common/src/fx_system_timer_entry.c ****                     day++;
 440              		.loc 1 120 26 view .LVU161
 441 0180 4FF0000C 		mov	ip, #0
 442 0184 82E7     		b	.L3
 443              	.L24:
 120:Middlewares/ST/filex/common/src/fx_system_timer_entry.c ****                     day++;
 444              		.loc 1 120 26 view .LVU162
 445 0186 4FF0000C 		mov	ip, #0
 446 018a 7FE7     		b	.L3
 447              	.L25:
 120:Middlewares/ST/filex/common/src/fx_system_timer_entry.c ****                     day++;
 448              		.loc 1 120 26 view .LVU163
 449 018c 4FF0000C 		mov	ip, #0
 450 0190 7CE7     		b	.L3
 451              	.L26:
 120:Middlewares/ST/filex/common/src/fx_system_timer_entry.c ****                     day++;
 452              		.loc 1 120 26 view .LVU164
 453 0192 4FF0000C 		mov	ip, #0
 454 0196 79E7     		b	.L3
 455              	.L27:
 120:Middlewares/ST/filex/common/src/fx_system_timer_entry.c ****                     day++;
 456              		.loc 1 120 26 view .LVU165
 457 0198 4FF0000C 		mov	ip, #0
 458 019c 76E7     		b	.L3
 459              	.L28:
 120:Middlewares/ST/filex/common/src/fx_system_timer_entry.c ****                     day++;
 460              		.loc 1 120 26 view .LVU166
 461 019e 4FF0000C 		mov	ip, #0
 462 01a2 73E7     		b	.L3
 463              	.L29:
ARM GAS  C:\Users\HP\AppData\Local\Temp\ccgzU9tk.s 			page 17


 120:Middlewares/ST/filex/common/src/fx_system_timer_entry.c ****                     day++;
 464              		.loc 1 120 26 view .LVU167
 465 01a4 4FF0000C 		mov	ip, #0
 466 01a8 70E7     		b	.L3
 467              	.L36:
 468 01aa 00BF     		.align	2
 469              	.L35:
 470 01ac 59535846 		.word	1180193625
 471 01b0 00000000 		.word	_fx_system_time
 472 01b4 00000000 		.word	_fx_system_date
 473 01b8 89888888 		.word	-2004318071
 474              		.cfi_endproc
 475              	.LFE8:
 477              		.text
 478              	.Letext0:
 479              		.file 2 "Middlewares/ST/threadx/ports/cortex_m4/gnu/inc/tx_port.h"
 480              		.file 3 "Middlewares/ST/filex/common/inc/fx_system.h"
ARM GAS  C:\Users\HP\AppData\Local\Temp\ccgzU9tk.s 			page 18

