ARM GAS  C:\Users\HP\AppData\Local\Temp\ccV3tneb.s 			page 1


   1              		.cpu cortex-m4
   2              		.arch armv7e-m
   3              		.fpu fpv4-sp-d16
   4              		.eabi_attribute 27, 1
   5              		.eabi_attribute 28, 1
   6              		.eabi_attribute 20, 1
   7              		.eabi_attribute 21, 1
   8              		.eabi_attribute 23, 3
   9              		.eabi_attribute 24, 1
  10              		.eabi_attribute 25, 1
  11              		.eabi_attribute 26, 1
  12              		.eabi_attribute 30, 1
  13              		.eabi_attribute 34, 1
  14              		.eabi_attribute 18, 4
  15              		.file	"fx_utility_FAT_entry_read.c"
  16              		.text
  17              	.Ltext0:
  18              		.cfi_sections	.debug_frame
  19              		.section	.text._fx_utility_FAT_entry_read,"ax",%progbits
  20              		.align	1
  21              		.global	_fx_utility_FAT_entry_read
  22              		.syntax unified
  23              		.thumb
  24              		.thumb_func
  26              	_fx_utility_FAT_entry_read:
  27              	.LVL0:
  28              	.LFB8:
  29              		.file 1 "Middlewares/ST/filex/common/src/fx_utility_FAT_entry_read.c"
   1:Middlewares/ST/filex/common/src/fx_utility_FAT_entry_read.c **** /**************************************************************************/
   2:Middlewares/ST/filex/common/src/fx_utility_FAT_entry_read.c **** /*                                                                        */
   3:Middlewares/ST/filex/common/src/fx_utility_FAT_entry_read.c **** /*       Copyright (c) Microsoft Corporation. All rights reserved.        */
   4:Middlewares/ST/filex/common/src/fx_utility_FAT_entry_read.c **** /*                                                                        */
   5:Middlewares/ST/filex/common/src/fx_utility_FAT_entry_read.c **** /*       This software is licensed under the Microsoft Software License   */
   6:Middlewares/ST/filex/common/src/fx_utility_FAT_entry_read.c **** /*       Terms for Microsoft Azure RTOS. Full text of the license can be  */
   7:Middlewares/ST/filex/common/src/fx_utility_FAT_entry_read.c **** /*       found in the LICENSE file at https://aka.ms/AzureRTOS_EULA       */
   8:Middlewares/ST/filex/common/src/fx_utility_FAT_entry_read.c **** /*       and in the root directory of this software.                      */
   9:Middlewares/ST/filex/common/src/fx_utility_FAT_entry_read.c **** /*                                                                        */
  10:Middlewares/ST/filex/common/src/fx_utility_FAT_entry_read.c **** /**************************************************************************/
  11:Middlewares/ST/filex/common/src/fx_utility_FAT_entry_read.c **** 
  12:Middlewares/ST/filex/common/src/fx_utility_FAT_entry_read.c **** 
  13:Middlewares/ST/filex/common/src/fx_utility_FAT_entry_read.c **** /**************************************************************************/
  14:Middlewares/ST/filex/common/src/fx_utility_FAT_entry_read.c **** /**************************************************************************/
  15:Middlewares/ST/filex/common/src/fx_utility_FAT_entry_read.c **** /**                                                                       */
  16:Middlewares/ST/filex/common/src/fx_utility_FAT_entry_read.c **** /** FileX Component                                                       */
  17:Middlewares/ST/filex/common/src/fx_utility_FAT_entry_read.c **** /**                                                                       */
  18:Middlewares/ST/filex/common/src/fx_utility_FAT_entry_read.c **** /**   Utility                                                             */
  19:Middlewares/ST/filex/common/src/fx_utility_FAT_entry_read.c **** /**                                                                       */
  20:Middlewares/ST/filex/common/src/fx_utility_FAT_entry_read.c **** /**************************************************************************/
  21:Middlewares/ST/filex/common/src/fx_utility_FAT_entry_read.c **** /**************************************************************************/
  22:Middlewares/ST/filex/common/src/fx_utility_FAT_entry_read.c **** 
  23:Middlewares/ST/filex/common/src/fx_utility_FAT_entry_read.c **** #define FX_SOURCE_CODE
  24:Middlewares/ST/filex/common/src/fx_utility_FAT_entry_read.c **** 
  25:Middlewares/ST/filex/common/src/fx_utility_FAT_entry_read.c **** 
  26:Middlewares/ST/filex/common/src/fx_utility_FAT_entry_read.c **** /* Include necessary system files.  */
  27:Middlewares/ST/filex/common/src/fx_utility_FAT_entry_read.c **** 
  28:Middlewares/ST/filex/common/src/fx_utility_FAT_entry_read.c **** #include "fx_api.h"
  29:Middlewares/ST/filex/common/src/fx_utility_FAT_entry_read.c **** #include "fx_system.h"
ARM GAS  C:\Users\HP\AppData\Local\Temp\ccV3tneb.s 			page 2


  30:Middlewares/ST/filex/common/src/fx_utility_FAT_entry_read.c **** #include "fx_utility.h"
  31:Middlewares/ST/filex/common/src/fx_utility_FAT_entry_read.c **** #ifdef FX_ENABLE_FAULT_TOLERANT
  32:Middlewares/ST/filex/common/src/fx_utility_FAT_entry_read.c **** #include "fx_fault_tolerant.h"
  33:Middlewares/ST/filex/common/src/fx_utility_FAT_entry_read.c **** #endif /* FX_ENABLE_FAULT_TOLERANT */
  34:Middlewares/ST/filex/common/src/fx_utility_FAT_entry_read.c **** 
  35:Middlewares/ST/filex/common/src/fx_utility_FAT_entry_read.c **** 
  36:Middlewares/ST/filex/common/src/fx_utility_FAT_entry_read.c **** /**************************************************************************/
  37:Middlewares/ST/filex/common/src/fx_utility_FAT_entry_read.c **** /*                                                                        */
  38:Middlewares/ST/filex/common/src/fx_utility_FAT_entry_read.c **** /*  FUNCTION                                               RELEASE        */
  39:Middlewares/ST/filex/common/src/fx_utility_FAT_entry_read.c **** /*                                                                        */
  40:Middlewares/ST/filex/common/src/fx_utility_FAT_entry_read.c **** /*    _fx_utility_FAT_entry_read                          PORTABLE C      */
  41:Middlewares/ST/filex/common/src/fx_utility_FAT_entry_read.c **** /*                                                           6.2.0        */
  42:Middlewares/ST/filex/common/src/fx_utility_FAT_entry_read.c **** /*  AUTHOR                                                                */
  43:Middlewares/ST/filex/common/src/fx_utility_FAT_entry_read.c **** /*                                                                        */
  44:Middlewares/ST/filex/common/src/fx_utility_FAT_entry_read.c **** /*    William E. Lamie, Microsoft Corporation                             */
  45:Middlewares/ST/filex/common/src/fx_utility_FAT_entry_read.c **** /*                                                                        */
  46:Middlewares/ST/filex/common/src/fx_utility_FAT_entry_read.c **** /*  DESCRIPTION                                                           */
  47:Middlewares/ST/filex/common/src/fx_utility_FAT_entry_read.c **** /*                                                                        */
  48:Middlewares/ST/filex/common/src/fx_utility_FAT_entry_read.c **** /*    This function reads the supplied FAT entry from the first FAT of    */
  49:Middlewares/ST/filex/common/src/fx_utility_FAT_entry_read.c **** /*    the media.  12-bit, 16-bit, and 32-bit FAT reading is supported.    */
  50:Middlewares/ST/filex/common/src/fx_utility_FAT_entry_read.c **** /*                                                                        */
  51:Middlewares/ST/filex/common/src/fx_utility_FAT_entry_read.c **** /*  INPUT                                                                 */
  52:Middlewares/ST/filex/common/src/fx_utility_FAT_entry_read.c **** /*                                                                        */
  53:Middlewares/ST/filex/common/src/fx_utility_FAT_entry_read.c **** /*    media_ptr                             Media control block pointer   */
  54:Middlewares/ST/filex/common/src/fx_utility_FAT_entry_read.c **** /*    cluster                               Cluster entry number          */
  55:Middlewares/ST/filex/common/src/fx_utility_FAT_entry_read.c **** /*    entry_ptr                             Pointer to destination for    */
  56:Middlewares/ST/filex/common/src/fx_utility_FAT_entry_read.c **** /*                                            the FAT entry               */
  57:Middlewares/ST/filex/common/src/fx_utility_FAT_entry_read.c **** /*                                                                        */
  58:Middlewares/ST/filex/common/src/fx_utility_FAT_entry_read.c **** /*  OUTPUT                                                                */
  59:Middlewares/ST/filex/common/src/fx_utility_FAT_entry_read.c **** /*                                                                        */
  60:Middlewares/ST/filex/common/src/fx_utility_FAT_entry_read.c **** /*    return status                                                       */
  61:Middlewares/ST/filex/common/src/fx_utility_FAT_entry_read.c **** /*                                                                        */
  62:Middlewares/ST/filex/common/src/fx_utility_FAT_entry_read.c **** /*  CALLS                                                                 */
  63:Middlewares/ST/filex/common/src/fx_utility_FAT_entry_read.c **** /*                                                                        */
  64:Middlewares/ST/filex/common/src/fx_utility_FAT_entry_read.c **** /*    _fx_utility_16_unsigned_read          Read a UINT from FAT buffer   */
  65:Middlewares/ST/filex/common/src/fx_utility_FAT_entry_read.c **** /*    _fx_utility_32_unsigned_read          Read a ULONG form FAT buffer  */
  66:Middlewares/ST/filex/common/src/fx_utility_FAT_entry_read.c **** /*    _fx_utility_FAT_flush                 Flush FAT entry cache         */
  67:Middlewares/ST/filex/common/src/fx_utility_FAT_entry_read.c **** /*    _fx_utility_logical_sector_read       Read FAT sector into memory   */
  68:Middlewares/ST/filex/common/src/fx_utility_FAT_entry_read.c **** /*    _fx_fault_tolerant_read_FAT           Read FAT entry from log file  */
  69:Middlewares/ST/filex/common/src/fx_utility_FAT_entry_read.c **** /*                                                                        */
  70:Middlewares/ST/filex/common/src/fx_utility_FAT_entry_read.c **** /*  CALLED BY                                                             */
  71:Middlewares/ST/filex/common/src/fx_utility_FAT_entry_read.c **** /*                                                                        */
  72:Middlewares/ST/filex/common/src/fx_utility_FAT_entry_read.c **** /*    FileX System Functions                                              */
  73:Middlewares/ST/filex/common/src/fx_utility_FAT_entry_read.c **** /*                                                                        */
  74:Middlewares/ST/filex/common/src/fx_utility_FAT_entry_read.c **** /*  RELEASE HISTORY                                                       */
  75:Middlewares/ST/filex/common/src/fx_utility_FAT_entry_read.c **** /*                                                                        */
  76:Middlewares/ST/filex/common/src/fx_utility_FAT_entry_read.c **** /*    DATE              NAME                      DESCRIPTION             */
  77:Middlewares/ST/filex/common/src/fx_utility_FAT_entry_read.c **** /*                                                                        */
  78:Middlewares/ST/filex/common/src/fx_utility_FAT_entry_read.c **** /*  05-19-2020     William E. Lamie         Initial Version 6.0           */
  79:Middlewares/ST/filex/common/src/fx_utility_FAT_entry_read.c **** /*  09-30-2020     William E. Lamie         Modified comment(s), and      */
  80:Middlewares/ST/filex/common/src/fx_utility_FAT_entry_read.c **** /*                                            added conditional to        */
  81:Middlewares/ST/filex/common/src/fx_utility_FAT_entry_read.c **** /*                                            disable fat entry refresh,  */
  82:Middlewares/ST/filex/common/src/fx_utility_FAT_entry_read.c **** /*                                            resulting in version 6.1    */
  83:Middlewares/ST/filex/common/src/fx_utility_FAT_entry_read.c **** /*  10-31-2022     Tiejun Zhou              Modified comment(s), and      */
  84:Middlewares/ST/filex/common/src/fx_utility_FAT_entry_read.c **** /*                                            fixed compiler warning,     */
  85:Middlewares/ST/filex/common/src/fx_utility_FAT_entry_read.c **** /*                                            resulting in version 6.2.0  */
  86:Middlewares/ST/filex/common/src/fx_utility_FAT_entry_read.c **** /*                                                                        */
ARM GAS  C:\Users\HP\AppData\Local\Temp\ccV3tneb.s 			page 3


  87:Middlewares/ST/filex/common/src/fx_utility_FAT_entry_read.c **** /**************************************************************************/
  88:Middlewares/ST/filex/common/src/fx_utility_FAT_entry_read.c **** UINT  _fx_utility_FAT_entry_read(FX_MEDIA *media_ptr, ULONG cluster, ULONG *entry_ptr)
  89:Middlewares/ST/filex/common/src/fx_utility_FAT_entry_read.c **** {
  30              		.loc 1 89 1 view -0
  31              		.cfi_startproc
  32              		@ args = 0, pretend = 0, frame = 16
  33              		@ frame_needed = 0, uses_anonymous_args = 0
  34              		.loc 1 89 1 is_stmt 0 view .LVU1
  35 0000 2DE9F047 		push	{r4, r5, r6, r7, r8, r9, r10, lr}
  36              	.LCFI0:
  37              		.cfi_def_cfa_offset 32
  38              		.cfi_offset 4, -32
  39              		.cfi_offset 5, -28
  40              		.cfi_offset 6, -24
  41              		.cfi_offset 7, -20
  42              		.cfi_offset 8, -16
  43              		.cfi_offset 9, -12
  44              		.cfi_offset 10, -8
  45              		.cfi_offset 14, -4
  46 0004 88B0     		sub	sp, sp, #32
  47              	.LCFI1:
  48              		.cfi_def_cfa_offset 64
  49 0006 0446     		mov	r4, r0
  50 0008 9046     		mov	r8, r2
  90:Middlewares/ST/filex/common/src/fx_utility_FAT_entry_read.c **** 
  91:Middlewares/ST/filex/common/src/fx_utility_FAT_entry_read.c **** ULONG               FAT_sector;
  51              		.loc 1 91 1 is_stmt 1 view .LVU2
  92:Middlewares/ST/filex/common/src/fx_utility_FAT_entry_read.c **** ULONG               byte_offset, entry32;
  52              		.loc 1 92 1 view .LVU3
  93:Middlewares/ST/filex/common/src/fx_utility_FAT_entry_read.c **** UCHAR              *FAT_ptr;
  53              		.loc 1 93 1 view .LVU4
  94:Middlewares/ST/filex/common/src/fx_utility_FAT_entry_read.c **** UINT                entry, index;
  54              		.loc 1 94 1 view .LVU5
  95:Middlewares/ST/filex/common/src/fx_utility_FAT_entry_read.c **** UINT                status;
  55              		.loc 1 95 1 view .LVU6
  96:Middlewares/ST/filex/common/src/fx_utility_FAT_entry_read.c **** FX_FAT_CACHE_ENTRY *cache_entry_ptr;
  56              		.loc 1 96 1 view .LVU7
  97:Middlewares/ST/filex/common/src/fx_utility_FAT_entry_read.c **** #ifndef FX_DISABLE_FAT_ENTRY_REFRESH
  98:Middlewares/ST/filex/common/src/fx_utility_FAT_entry_read.c **** FX_FAT_CACHE_ENTRY  temp_cache_entry;
  57              		.loc 1 98 1 view .LVU8
  99:Middlewares/ST/filex/common/src/fx_utility_FAT_entry_read.c **** #endif /* FX_DISABLE_FAT_ENTRY_REFRESH */
 100:Middlewares/ST/filex/common/src/fx_utility_FAT_entry_read.c **** 
 101:Middlewares/ST/filex/common/src/fx_utility_FAT_entry_read.c **** 
 102:Middlewares/ST/filex/common/src/fx_utility_FAT_entry_read.c **** #ifdef FX_ENABLE_FAULT_TOLERANT
 103:Middlewares/ST/filex/common/src/fx_utility_FAT_entry_read.c ****     if (media_ptr -> fx_media_fault_tolerant_enabled &&
 104:Middlewares/ST/filex/common/src/fx_utility_FAT_entry_read.c ****         (media_ptr -> fx_media_fault_tolerant_state & FX_FAULT_TOLERANT_STATE_STARTED))
 105:Middlewares/ST/filex/common/src/fx_utility_FAT_entry_read.c ****     {
 106:Middlewares/ST/filex/common/src/fx_utility_FAT_entry_read.c **** 
 107:Middlewares/ST/filex/common/src/fx_utility_FAT_entry_read.c ****         /* Redirect this request to log file. */
 108:Middlewares/ST/filex/common/src/fx_utility_FAT_entry_read.c ****         status = _fx_fault_tolerant_read_FAT(media_ptr, cluster, entry_ptr, FX_FAULT_TOLERANT_FAT_L
 109:Middlewares/ST/filex/common/src/fx_utility_FAT_entry_read.c **** 
 110:Middlewares/ST/filex/common/src/fx_utility_FAT_entry_read.c ****         /* Return on success. */
 111:Middlewares/ST/filex/common/src/fx_utility_FAT_entry_read.c ****         if (status != FX_READ_CONTINUE)
 112:Middlewares/ST/filex/common/src/fx_utility_FAT_entry_read.c ****         {
 113:Middlewares/ST/filex/common/src/fx_utility_FAT_entry_read.c ****             return(status);
 114:Middlewares/ST/filex/common/src/fx_utility_FAT_entry_read.c ****         }
 115:Middlewares/ST/filex/common/src/fx_utility_FAT_entry_read.c ****     }
ARM GAS  C:\Users\HP\AppData\Local\Temp\ccV3tneb.s 			page 4


 116:Middlewares/ST/filex/common/src/fx_utility_FAT_entry_read.c **** #endif /* FX_ENABLE_FAULT_TOLERANT */
 117:Middlewares/ST/filex/common/src/fx_utility_FAT_entry_read.c **** 
 118:Middlewares/ST/filex/common/src/fx_utility_FAT_entry_read.c **** #ifndef FX_MEDIA_STATISTICS_DISABLE
 119:Middlewares/ST/filex/common/src/fx_utility_FAT_entry_read.c ****     /* Increment the number of FAT entry reads and cache hits.  */
 120:Middlewares/ST/filex/common/src/fx_utility_FAT_entry_read.c ****     media_ptr -> fx_media_fat_entry_reads++;
  58              		.loc 1 120 5 view .LVU9
  59              		.loc 1 120 15 is_stmt 0 view .LVU10
  60 000a D0F87831 		ldr	r3, [r0, #376]
  61              		.loc 1 120 42 view .LVU11
  62 000e 0133     		adds	r3, r3, #1
  63 0010 C0F87831 		str	r3, [r0, #376]
 121:Middlewares/ST/filex/common/src/fx_utility_FAT_entry_read.c ****     media_ptr -> fx_media_fat_entry_cache_read_hits++;
  64              		.loc 1 121 5 is_stmt 1 view .LVU12
  65              		.loc 1 121 15 is_stmt 0 view .LVU13
  66 0014 D0F88031 		ldr	r3, [r0, #384]
  67              		.loc 1 121 52 view .LVU14
  68 0018 0133     		adds	r3, r3, #1
  69 001a C0F88031 		str	r3, [r0, #384]
 122:Middlewares/ST/filex/common/src/fx_utility_FAT_entry_read.c **** #endif
 123:Middlewares/ST/filex/common/src/fx_utility_FAT_entry_read.c **** 
 124:Middlewares/ST/filex/common/src/fx_utility_FAT_entry_read.c ****     /* Extended port-specific processing macro, which is by default defined to white space.  */
 125:Middlewares/ST/filex/common/src/fx_utility_FAT_entry_read.c ****     FX_UTILITY_FAT_ENTRY_READ_EXTENSION
 126:Middlewares/ST/filex/common/src/fx_utility_FAT_entry_read.c **** 
 127:Middlewares/ST/filex/common/src/fx_utility_FAT_entry_read.c ****     /* Calculate the area of the cache for this FAT entry.  */
 128:Middlewares/ST/filex/common/src/fx_utility_FAT_entry_read.c ****     index =  (cluster & FX_FAT_CACHE_HASH_MASK) * FX_FAT_CACHE_DEPTH;
  70              		.loc 1 128 5 is_stmt 1 view .LVU15
  71              		.loc 1 128 23 is_stmt 0 view .LVU16
  72 001e 01F00302 		and	r2, r1, #3
  73              	.LVL1:
  74              		.loc 1 128 11 view .LVU17
  75 0022 9600     		lsls	r6, r2, #2
  76              	.LVL2:
 129:Middlewares/ST/filex/common/src/fx_utility_FAT_entry_read.c **** 
 130:Middlewares/ST/filex/common/src/fx_utility_FAT_entry_read.c ****     /* Build a pointer to the cache entry.  */
 131:Middlewares/ST/filex/common/src/fx_utility_FAT_entry_read.c ****     cache_entry_ptr =  &media_ptr -> fx_media_fat_cache[index];
  77              		.loc 1 131 5 is_stmt 1 view .LVU18
  78              		.loc 1 131 21 is_stmt 0 view .LVU19
  79 0024 D300     		lsls	r3, r2, #3
  80 0026 03EB8205 		add	r5, r3, r2, lsl #2
  81 002a AD00     		lsls	r5, r5, #2
  82 002c 05F5EB65 		add	r5, r5, #1880
  83 0030 0544     		add	r5, r5, r0
  84              	.LVL3:
 132:Middlewares/ST/filex/common/src/fx_utility_FAT_entry_read.c **** 
 133:Middlewares/ST/filex/common/src/fx_utility_FAT_entry_read.c **** #ifndef FX_DISABLE_FAT_ENTRY_REFRESH
 134:Middlewares/ST/filex/common/src/fx_utility_FAT_entry_read.c ****     /* Determine if the FAT entry is in the cache - assuming the depth of the FAT cache is
 135:Middlewares/ST/filex/common/src/fx_utility_FAT_entry_read.c ****        4 entries.  */
 136:Middlewares/ST/filex/common/src/fx_utility_FAT_entry_read.c ****     if ((cache_entry_ptr -> fx_fat_cache_entry_cluster) == cluster)
  85              		.loc 1 136 5 is_stmt 1 view .LVU20
  86              		.loc 1 136 26 is_stmt 0 view .LVU21
  87 0032 03EB8203 		add	r3, r3, r2, lsl #2
  88 0036 00EB8303 		add	r3, r0, r3, lsl #2
  89 003a D3F85837 		ldr	r3, [r3, #1880]
  90              		.loc 1 136 8 view .LVU22
  91 003e 8B42     		cmp	r3, r1
  92 0040 47D0     		beq	.L17
  93 0042 0F46     		mov	r7, r1
ARM GAS  C:\Users\HP\AppData\Local\Temp\ccV3tneb.s 			page 5


 137:Middlewares/ST/filex/common/src/fx_utility_FAT_entry_read.c ****     {
 138:Middlewares/ST/filex/common/src/fx_utility_FAT_entry_read.c **** 
 139:Middlewares/ST/filex/common/src/fx_utility_FAT_entry_read.c ****         /* Yes, return the cached value.  */
 140:Middlewares/ST/filex/common/src/fx_utility_FAT_entry_read.c ****         *entry_ptr =  cache_entry_ptr -> fx_fat_cache_entry_value;
 141:Middlewares/ST/filex/common/src/fx_utility_FAT_entry_read.c **** 
 142:Middlewares/ST/filex/common/src/fx_utility_FAT_entry_read.c ****         /* Don't move anything since we found the entry.  */
 143:Middlewares/ST/filex/common/src/fx_utility_FAT_entry_read.c **** 
 144:Middlewares/ST/filex/common/src/fx_utility_FAT_entry_read.c ****         /* Return a successful status.  */
 145:Middlewares/ST/filex/common/src/fx_utility_FAT_entry_read.c ****         return(FX_SUCCESS);
 146:Middlewares/ST/filex/common/src/fx_utility_FAT_entry_read.c ****     }
 147:Middlewares/ST/filex/common/src/fx_utility_FAT_entry_read.c ****     else if (((cache_entry_ptr + 1) -> fx_fat_cache_entry_cluster) == cluster)
  94              		.loc 1 147 10 is_stmt 1 view .LVU23
  95              		.loc 1 147 37 is_stmt 0 view .LVU24
  96 0044 EB68     		ldr	r3, [r5, #12]
  97              		.loc 1 147 13 view .LVU25
  98 0046 8B42     		cmp	r3, r1
  99 0048 4FD0     		beq	.L18
 148:Middlewares/ST/filex/common/src/fx_utility_FAT_entry_read.c ****     {
 149:Middlewares/ST/filex/common/src/fx_utility_FAT_entry_read.c **** 
 150:Middlewares/ST/filex/common/src/fx_utility_FAT_entry_read.c ****         /* Yes, return the cached value.  */
 151:Middlewares/ST/filex/common/src/fx_utility_FAT_entry_read.c ****         *entry_ptr =  (cache_entry_ptr + 1) -> fx_fat_cache_entry_value;
 152:Middlewares/ST/filex/common/src/fx_utility_FAT_entry_read.c **** 
 153:Middlewares/ST/filex/common/src/fx_utility_FAT_entry_read.c ****         /* Just swap the first and second entry.  */
 154:Middlewares/ST/filex/common/src/fx_utility_FAT_entry_read.c ****         temp_cache_entry =        *(cache_entry_ptr);
 155:Middlewares/ST/filex/common/src/fx_utility_FAT_entry_read.c ****         *(cache_entry_ptr) =      *(cache_entry_ptr + 1);
 156:Middlewares/ST/filex/common/src/fx_utility_FAT_entry_read.c ****         *(cache_entry_ptr + 1) =  temp_cache_entry;
 157:Middlewares/ST/filex/common/src/fx_utility_FAT_entry_read.c **** 
 158:Middlewares/ST/filex/common/src/fx_utility_FAT_entry_read.c ****         /* Return a successful status.  */
 159:Middlewares/ST/filex/common/src/fx_utility_FAT_entry_read.c ****         return(FX_SUCCESS);
 160:Middlewares/ST/filex/common/src/fx_utility_FAT_entry_read.c ****     }
 161:Middlewares/ST/filex/common/src/fx_utility_FAT_entry_read.c ****     else if (((cache_entry_ptr + 2) -> fx_fat_cache_entry_cluster) == cluster)
 100              		.loc 1 161 10 is_stmt 1 view .LVU26
 101              		.loc 1 161 37 is_stmt 0 view .LVU27
 102 004a AB69     		ldr	r3, [r5, #24]
 103              		.loc 1 161 13 view .LVU28
 104 004c 8B42     		cmp	r3, r1
 105 004e 65D0     		beq	.L19
 162:Middlewares/ST/filex/common/src/fx_utility_FAT_entry_read.c ****     {
 163:Middlewares/ST/filex/common/src/fx_utility_FAT_entry_read.c **** 
 164:Middlewares/ST/filex/common/src/fx_utility_FAT_entry_read.c ****         /* Yes, return the cached value.  */
 165:Middlewares/ST/filex/common/src/fx_utility_FAT_entry_read.c ****         *entry_ptr =  (cache_entry_ptr + 2) -> fx_fat_cache_entry_value;
 166:Middlewares/ST/filex/common/src/fx_utility_FAT_entry_read.c **** 
 167:Middlewares/ST/filex/common/src/fx_utility_FAT_entry_read.c ****         /* Move the third entry to the top and the first two entries down.  */
 168:Middlewares/ST/filex/common/src/fx_utility_FAT_entry_read.c ****         temp_cache_entry =        *(cache_entry_ptr);
 169:Middlewares/ST/filex/common/src/fx_utility_FAT_entry_read.c ****         *(cache_entry_ptr) =      *(cache_entry_ptr + 2);
 170:Middlewares/ST/filex/common/src/fx_utility_FAT_entry_read.c ****         *(cache_entry_ptr + 2) =  *(cache_entry_ptr + 1);
 171:Middlewares/ST/filex/common/src/fx_utility_FAT_entry_read.c ****         *(cache_entry_ptr + 1) =  temp_cache_entry;
 172:Middlewares/ST/filex/common/src/fx_utility_FAT_entry_read.c **** 
 173:Middlewares/ST/filex/common/src/fx_utility_FAT_entry_read.c ****         /* Return a successful status.  */
 174:Middlewares/ST/filex/common/src/fx_utility_FAT_entry_read.c ****         return(FX_SUCCESS);
 175:Middlewares/ST/filex/common/src/fx_utility_FAT_entry_read.c ****     }
 176:Middlewares/ST/filex/common/src/fx_utility_FAT_entry_read.c ****     else if (((cache_entry_ptr + 3) -> fx_fat_cache_entry_cluster) == cluster)
 106              		.loc 1 176 10 is_stmt 1 view .LVU29
 107              		.loc 1 176 37 is_stmt 0 view .LVU30
 108 0050 6B6A     		ldr	r3, [r5, #36]
 109              		.loc 1 176 13 view .LVU31
 110 0052 8B42     		cmp	r3, r1
ARM GAS  C:\Users\HP\AppData\Local\Temp\ccV3tneb.s 			page 6


 111 0054 00F08280 		beq	.L20
 177:Middlewares/ST/filex/common/src/fx_utility_FAT_entry_read.c ****     {
 178:Middlewares/ST/filex/common/src/fx_utility_FAT_entry_read.c **** 
 179:Middlewares/ST/filex/common/src/fx_utility_FAT_entry_read.c ****         /* Yes, return the cached value.  */
 180:Middlewares/ST/filex/common/src/fx_utility_FAT_entry_read.c ****         *entry_ptr =  (cache_entry_ptr + 3) -> fx_fat_cache_entry_value;
 181:Middlewares/ST/filex/common/src/fx_utility_FAT_entry_read.c **** 
 182:Middlewares/ST/filex/common/src/fx_utility_FAT_entry_read.c ****         /* Move the last entry to the top and the first three entries down.  */
 183:Middlewares/ST/filex/common/src/fx_utility_FAT_entry_read.c ****         temp_cache_entry =        *(cache_entry_ptr);
 184:Middlewares/ST/filex/common/src/fx_utility_FAT_entry_read.c ****         *(cache_entry_ptr) =      *(cache_entry_ptr + 3);
 185:Middlewares/ST/filex/common/src/fx_utility_FAT_entry_read.c ****         *(cache_entry_ptr + 3) =  *(cache_entry_ptr + 2);
 186:Middlewares/ST/filex/common/src/fx_utility_FAT_entry_read.c ****         *(cache_entry_ptr + 2) =  *(cache_entry_ptr + 1);
 187:Middlewares/ST/filex/common/src/fx_utility_FAT_entry_read.c ****         *(cache_entry_ptr + 1) =  temp_cache_entry;
 188:Middlewares/ST/filex/common/src/fx_utility_FAT_entry_read.c **** 
 189:Middlewares/ST/filex/common/src/fx_utility_FAT_entry_read.c ****         /* Return a successful status.  */
 190:Middlewares/ST/filex/common/src/fx_utility_FAT_entry_read.c ****         return(FX_SUCCESS);
 191:Middlewares/ST/filex/common/src/fx_utility_FAT_entry_read.c ****     }
 192:Middlewares/ST/filex/common/src/fx_utility_FAT_entry_read.c **** #else
 193:Middlewares/ST/filex/common/src/fx_utility_FAT_entry_read.c ****     for (UINT i = 0; i < 4; i++)
 194:Middlewares/ST/filex/common/src/fx_utility_FAT_entry_read.c ****     {
 195:Middlewares/ST/filex/common/src/fx_utility_FAT_entry_read.c ****         if (((cache_entry_ptr + i) -> fx_fat_cache_entry_cluster) == cluster)
 196:Middlewares/ST/filex/common/src/fx_utility_FAT_entry_read.c ****         {
 197:Middlewares/ST/filex/common/src/fx_utility_FAT_entry_read.c ****             *entry_ptr =  (cache_entry_ptr + i) -> fx_fat_cache_entry_value;
 198:Middlewares/ST/filex/common/src/fx_utility_FAT_entry_read.c **** 
 199:Middlewares/ST/filex/common/src/fx_utility_FAT_entry_read.c ****             /* Return a successful status.  */
 200:Middlewares/ST/filex/common/src/fx_utility_FAT_entry_read.c ****             return(FX_SUCCESS);
 201:Middlewares/ST/filex/common/src/fx_utility_FAT_entry_read.c ****         }
 202:Middlewares/ST/filex/common/src/fx_utility_FAT_entry_read.c ****     }
 203:Middlewares/ST/filex/common/src/fx_utility_FAT_entry_read.c **** #endif /* FX_DISABLE_FAT_ENTRY_REFRESH */
 204:Middlewares/ST/filex/common/src/fx_utility_FAT_entry_read.c **** 
 205:Middlewares/ST/filex/common/src/fx_utility_FAT_entry_read.c ****     /* Determine if the oldest entry was modified, i.e. whether or not it is
 206:Middlewares/ST/filex/common/src/fx_utility_FAT_entry_read.c ****        dirty.  */
 207:Middlewares/ST/filex/common/src/fx_utility_FAT_entry_read.c ****     if (media_ptr -> fx_media_fat_cache[index + 3].fx_fat_cache_entry_dirty)
 112              		.loc 1 207 5 is_stmt 1 view .LVU32
 113              		.loc 1 207 47 is_stmt 0 view .LVU33
 114 0058 F31C     		adds	r3, r6, #3
 115              		.loc 1 207 51 view .LVU34
 116 005a 03EB4303 		add	r3, r3, r3, lsl #1
 117 005e 00EB8303 		add	r3, r0, r3, lsl #2
 118 0062 D3F86037 		ldr	r3, [r3, #1888]
 119              		.loc 1 207 8 view .LVU35
 120 0066 002B     		cmp	r3, #0
 121 0068 40F09D80 		bne	.L21
 122              	.LVL4:
 123              	.L7:
 208:Middlewares/ST/filex/common/src/fx_utility_FAT_entry_read.c ****     {
 209:Middlewares/ST/filex/common/src/fx_utility_FAT_entry_read.c **** 
 210:Middlewares/ST/filex/common/src/fx_utility_FAT_entry_read.c ****         /* Yes, the entry is dirty and needs to be flushed out.  */
 211:Middlewares/ST/filex/common/src/fx_utility_FAT_entry_read.c ****         status = _fx_utility_FAT_flush(media_ptr);
 212:Middlewares/ST/filex/common/src/fx_utility_FAT_entry_read.c **** 
 213:Middlewares/ST/filex/common/src/fx_utility_FAT_entry_read.c ****         /* Check for completion status.  */
 214:Middlewares/ST/filex/common/src/fx_utility_FAT_entry_read.c ****         if (status != FX_SUCCESS)
 215:Middlewares/ST/filex/common/src/fx_utility_FAT_entry_read.c ****         {
 216:Middlewares/ST/filex/common/src/fx_utility_FAT_entry_read.c **** 
 217:Middlewares/ST/filex/common/src/fx_utility_FAT_entry_read.c ****             /* Return error status.  */
 218:Middlewares/ST/filex/common/src/fx_utility_FAT_entry_read.c ****             return(status);
 219:Middlewares/ST/filex/common/src/fx_utility_FAT_entry_read.c ****         }
 220:Middlewares/ST/filex/common/src/fx_utility_FAT_entry_read.c ****     }
ARM GAS  C:\Users\HP\AppData\Local\Temp\ccV3tneb.s 			page 7


 221:Middlewares/ST/filex/common/src/fx_utility_FAT_entry_read.c **** 
 222:Middlewares/ST/filex/common/src/fx_utility_FAT_entry_read.c ****     /* If we get here, the entry was not found in the FAT entry cache.  We need to
 223:Middlewares/ST/filex/common/src/fx_utility_FAT_entry_read.c ****        actually read the FAT entry.  */
 224:Middlewares/ST/filex/common/src/fx_utility_FAT_entry_read.c **** 
 225:Middlewares/ST/filex/common/src/fx_utility_FAT_entry_read.c **** #ifndef FX_MEDIA_STATISTICS_DISABLE
 226:Middlewares/ST/filex/common/src/fx_utility_FAT_entry_read.c **** 
 227:Middlewares/ST/filex/common/src/fx_utility_FAT_entry_read.c ****     /* Decrement the number of cache hits.  */
 228:Middlewares/ST/filex/common/src/fx_utility_FAT_entry_read.c ****     media_ptr -> fx_media_fat_entry_cache_read_hits--;
 124              		.loc 1 228 5 is_stmt 1 view .LVU36
 125              		.loc 1 228 15 is_stmt 0 view .LVU37
 126 006c D4F88031 		ldr	r3, [r4, #384]
 127              		.loc 1 228 52 view .LVU38
 128 0070 013B     		subs	r3, r3, #1
 129 0072 C4F88031 		str	r3, [r4, #384]
 229:Middlewares/ST/filex/common/src/fx_utility_FAT_entry_read.c **** 
 230:Middlewares/ST/filex/common/src/fx_utility_FAT_entry_read.c ****     /* Increment the number of cache misses.  */
 231:Middlewares/ST/filex/common/src/fx_utility_FAT_entry_read.c ****     media_ptr -> fx_media_fat_entry_cache_read_misses++;
 130              		.loc 1 231 5 is_stmt 1 view .LVU39
 131              		.loc 1 231 15 is_stmt 0 view .LVU40
 132 0076 D4F88431 		ldr	r3, [r4, #388]
 133              		.loc 1 231 54 view .LVU41
 134 007a 0133     		adds	r3, r3, #1
 135 007c C4F88431 		str	r3, [r4, #388]
 232:Middlewares/ST/filex/common/src/fx_utility_FAT_entry_read.c **** #endif
 233:Middlewares/ST/filex/common/src/fx_utility_FAT_entry_read.c **** 
 234:Middlewares/ST/filex/common/src/fx_utility_FAT_entry_read.c ****     /* Determine which type of FAT is present.  */
 235:Middlewares/ST/filex/common/src/fx_utility_FAT_entry_read.c ****     if (media_ptr -> fx_media_12_bit_FAT)
 136              		.loc 1 235 5 is_stmt 1 view .LVU42
 137              		.loc 1 235 19 is_stmt 0 view .LVU43
 138 0080 236E     		ldr	r3, [r4, #96]
 139              		.loc 1 235 8 view .LVU44
 140 0082 002B     		cmp	r3, #0
 141 0084 40F09580 		bne	.L22
 236:Middlewares/ST/filex/common/src/fx_utility_FAT_entry_read.c ****     {
 237:Middlewares/ST/filex/common/src/fx_utility_FAT_entry_read.c **** 
 238:Middlewares/ST/filex/common/src/fx_utility_FAT_entry_read.c ****         /* Calculate the byte offset to the cluster entry.  */
 239:Middlewares/ST/filex/common/src/fx_utility_FAT_entry_read.c ****         byte_offset =  (((ULONG)cluster << 1) + cluster) >> 1;
 240:Middlewares/ST/filex/common/src/fx_utility_FAT_entry_read.c **** 
 241:Middlewares/ST/filex/common/src/fx_utility_FAT_entry_read.c ****         /* Calculate the FAT sector the requested FAT entry resides in.  */
 242:Middlewares/ST/filex/common/src/fx_utility_FAT_entry_read.c ****         FAT_sector =  (byte_offset / media_ptr -> fx_media_bytes_per_sector) +
 243:Middlewares/ST/filex/common/src/fx_utility_FAT_entry_read.c ****             (ULONG)media_ptr -> fx_media_reserved_sectors;
 244:Middlewares/ST/filex/common/src/fx_utility_FAT_entry_read.c **** 
 245:Middlewares/ST/filex/common/src/fx_utility_FAT_entry_read.c ****         /* Read the sector in.  */
 246:Middlewares/ST/filex/common/src/fx_utility_FAT_entry_read.c ****         status =  _fx_utility_logical_sector_read(media_ptr, (ULONG64) FAT_sector,
 247:Middlewares/ST/filex/common/src/fx_utility_FAT_entry_read.c ****                                                   media_ptr -> fx_media_memory_buffer, ((ULONG) 1),
 248:Middlewares/ST/filex/common/src/fx_utility_FAT_entry_read.c **** 
 249:Middlewares/ST/filex/common/src/fx_utility_FAT_entry_read.c ****         /* Determine if an error occurred.  */
 250:Middlewares/ST/filex/common/src/fx_utility_FAT_entry_read.c ****         if (status != FX_SUCCESS)
 251:Middlewares/ST/filex/common/src/fx_utility_FAT_entry_read.c ****         {
 252:Middlewares/ST/filex/common/src/fx_utility_FAT_entry_read.c ****             /* Return the error status.  */
 253:Middlewares/ST/filex/common/src/fx_utility_FAT_entry_read.c ****             return(status);
 254:Middlewares/ST/filex/common/src/fx_utility_FAT_entry_read.c ****         }
 255:Middlewares/ST/filex/common/src/fx_utility_FAT_entry_read.c **** 
 256:Middlewares/ST/filex/common/src/fx_utility_FAT_entry_read.c ****         /* Now calculate the byte offset into this FAT sector.  */
 257:Middlewares/ST/filex/common/src/fx_utility_FAT_entry_read.c ****         byte_offset =  byte_offset -
 258:Middlewares/ST/filex/common/src/fx_utility_FAT_entry_read.c ****             ((FAT_sector - (ULONG)media_ptr -> fx_media_reserved_sectors) *
 259:Middlewares/ST/filex/common/src/fx_utility_FAT_entry_read.c ****              media_ptr -> fx_media_bytes_per_sector);
ARM GAS  C:\Users\HP\AppData\Local\Temp\ccV3tneb.s 			page 8


 260:Middlewares/ST/filex/common/src/fx_utility_FAT_entry_read.c **** 
 261:Middlewares/ST/filex/common/src/fx_utility_FAT_entry_read.c ****         /* Setup a pointer into the buffer.  */
 262:Middlewares/ST/filex/common/src/fx_utility_FAT_entry_read.c ****         FAT_ptr =  (UCHAR *)media_ptr -> fx_media_memory_buffer + (UINT)byte_offset;
 263:Middlewares/ST/filex/common/src/fx_utility_FAT_entry_read.c **** 
 264:Middlewares/ST/filex/common/src/fx_utility_FAT_entry_read.c ****         /* Determine if the cluster entry is odd or even.  */
 265:Middlewares/ST/filex/common/src/fx_utility_FAT_entry_read.c ****         if (cluster & 1)
 266:Middlewares/ST/filex/common/src/fx_utility_FAT_entry_read.c ****         {
 267:Middlewares/ST/filex/common/src/fx_utility_FAT_entry_read.c **** 
 268:Middlewares/ST/filex/common/src/fx_utility_FAT_entry_read.c ****             /* Odd cluster number.  */
 269:Middlewares/ST/filex/common/src/fx_utility_FAT_entry_read.c **** 
 270:Middlewares/ST/filex/common/src/fx_utility_FAT_entry_read.c ****             /* Pickup the lower nibble of the FAT entry.  */
 271:Middlewares/ST/filex/common/src/fx_utility_FAT_entry_read.c ****             entry =  (((UINT)*FAT_ptr) & 0xF0) >> 4;
 272:Middlewares/ST/filex/common/src/fx_utility_FAT_entry_read.c **** 
 273:Middlewares/ST/filex/common/src/fx_utility_FAT_entry_read.c ****             /* Move to the next byte of the FAT entry.  */
 274:Middlewares/ST/filex/common/src/fx_utility_FAT_entry_read.c ****             FAT_ptr++;
 275:Middlewares/ST/filex/common/src/fx_utility_FAT_entry_read.c **** 
 276:Middlewares/ST/filex/common/src/fx_utility_FAT_entry_read.c ****             /* Determine if we are now past the end of the FAT buffer in memory.  */
 277:Middlewares/ST/filex/common/src/fx_utility_FAT_entry_read.c ****             if (byte_offset == (ULONG)(media_ptr -> fx_media_bytes_per_sector - 1))
 278:Middlewares/ST/filex/common/src/fx_utility_FAT_entry_read.c ****             {
 279:Middlewares/ST/filex/common/src/fx_utility_FAT_entry_read.c **** 
 280:Middlewares/ST/filex/common/src/fx_utility_FAT_entry_read.c ****                 /* Yes, we need to read the next sector.  */
 281:Middlewares/ST/filex/common/src/fx_utility_FAT_entry_read.c ****                 FAT_sector++;
 282:Middlewares/ST/filex/common/src/fx_utility_FAT_entry_read.c ****                 status =  _fx_utility_logical_sector_read(media_ptr, (ULONG64) FAT_sector,
 283:Middlewares/ST/filex/common/src/fx_utility_FAT_entry_read.c ****                                                           media_ptr -> fx_media_memory_buffer, ((UL
 284:Middlewares/ST/filex/common/src/fx_utility_FAT_entry_read.c **** 
 285:Middlewares/ST/filex/common/src/fx_utility_FAT_entry_read.c ****                 /* Determine if an error occurred.  */
 286:Middlewares/ST/filex/common/src/fx_utility_FAT_entry_read.c ****                 if (status != FX_SUCCESS)
 287:Middlewares/ST/filex/common/src/fx_utility_FAT_entry_read.c ****                 {
 288:Middlewares/ST/filex/common/src/fx_utility_FAT_entry_read.c **** 
 289:Middlewares/ST/filex/common/src/fx_utility_FAT_entry_read.c ****                     /* Return the error status.  */
 290:Middlewares/ST/filex/common/src/fx_utility_FAT_entry_read.c ****                     return(status);
 291:Middlewares/ST/filex/common/src/fx_utility_FAT_entry_read.c ****                 }
 292:Middlewares/ST/filex/common/src/fx_utility_FAT_entry_read.c **** 
 293:Middlewares/ST/filex/common/src/fx_utility_FAT_entry_read.c ****                 /* Setup a pointer into the buffer.  */
 294:Middlewares/ST/filex/common/src/fx_utility_FAT_entry_read.c ****                 FAT_ptr =  (UCHAR *)media_ptr -> fx_media_memory_buffer;
 295:Middlewares/ST/filex/common/src/fx_utility_FAT_entry_read.c ****             }
 296:Middlewares/ST/filex/common/src/fx_utility_FAT_entry_read.c **** 
 297:Middlewares/ST/filex/common/src/fx_utility_FAT_entry_read.c ****             /* Pickup the upper 8 bits of the FAT entry.  */
 298:Middlewares/ST/filex/common/src/fx_utility_FAT_entry_read.c ****             entry =  entry | (((UINT)*FAT_ptr) << 4);
 299:Middlewares/ST/filex/common/src/fx_utility_FAT_entry_read.c ****         }
 300:Middlewares/ST/filex/common/src/fx_utility_FAT_entry_read.c ****         else
 301:Middlewares/ST/filex/common/src/fx_utility_FAT_entry_read.c ****         {
 302:Middlewares/ST/filex/common/src/fx_utility_FAT_entry_read.c **** 
 303:Middlewares/ST/filex/common/src/fx_utility_FAT_entry_read.c ****             /* Even cluster number.  */
 304:Middlewares/ST/filex/common/src/fx_utility_FAT_entry_read.c **** 
 305:Middlewares/ST/filex/common/src/fx_utility_FAT_entry_read.c ****             /* Pickup the lower byte of the FAT entry.  */
 306:Middlewares/ST/filex/common/src/fx_utility_FAT_entry_read.c ****             entry =  (UINT)(((UINT)*FAT_ptr) & 0xFF);
 307:Middlewares/ST/filex/common/src/fx_utility_FAT_entry_read.c **** 
 308:Middlewares/ST/filex/common/src/fx_utility_FAT_entry_read.c ****             /* Move to the next nibble of the FAT entry.  */
 309:Middlewares/ST/filex/common/src/fx_utility_FAT_entry_read.c ****             FAT_ptr++;
 310:Middlewares/ST/filex/common/src/fx_utility_FAT_entry_read.c **** 
 311:Middlewares/ST/filex/common/src/fx_utility_FAT_entry_read.c ****             /* Determine if we are now past the end of the FAT buffer in memory.  */
 312:Middlewares/ST/filex/common/src/fx_utility_FAT_entry_read.c ****             if (byte_offset == (ULONG)(media_ptr -> fx_media_bytes_per_sector - 1))
 313:Middlewares/ST/filex/common/src/fx_utility_FAT_entry_read.c ****             {
 314:Middlewares/ST/filex/common/src/fx_utility_FAT_entry_read.c **** 
 315:Middlewares/ST/filex/common/src/fx_utility_FAT_entry_read.c ****                 /* Yes, we need to read the next sector.  */
 316:Middlewares/ST/filex/common/src/fx_utility_FAT_entry_read.c ****                 FAT_sector++;
ARM GAS  C:\Users\HP\AppData\Local\Temp\ccV3tneb.s 			page 9


 317:Middlewares/ST/filex/common/src/fx_utility_FAT_entry_read.c ****                 status =  _fx_utility_logical_sector_read(media_ptr, (ULONG64) FAT_sector,
 318:Middlewares/ST/filex/common/src/fx_utility_FAT_entry_read.c ****                                                           media_ptr -> fx_media_memory_buffer, ((UL
 319:Middlewares/ST/filex/common/src/fx_utility_FAT_entry_read.c **** 
 320:Middlewares/ST/filex/common/src/fx_utility_FAT_entry_read.c ****                 /* Determine if an error occurred.  */
 321:Middlewares/ST/filex/common/src/fx_utility_FAT_entry_read.c ****                 if (status != FX_SUCCESS)
 322:Middlewares/ST/filex/common/src/fx_utility_FAT_entry_read.c ****                 {
 323:Middlewares/ST/filex/common/src/fx_utility_FAT_entry_read.c ****                     return(status);
 324:Middlewares/ST/filex/common/src/fx_utility_FAT_entry_read.c ****                 }
 325:Middlewares/ST/filex/common/src/fx_utility_FAT_entry_read.c **** 
 326:Middlewares/ST/filex/common/src/fx_utility_FAT_entry_read.c ****                 /* Setup a pointer into the buffer.  */
 327:Middlewares/ST/filex/common/src/fx_utility_FAT_entry_read.c ****                 FAT_ptr =  (UCHAR *)media_ptr -> fx_media_memory_buffer;
 328:Middlewares/ST/filex/common/src/fx_utility_FAT_entry_read.c ****             }
 329:Middlewares/ST/filex/common/src/fx_utility_FAT_entry_read.c **** 
 330:Middlewares/ST/filex/common/src/fx_utility_FAT_entry_read.c ****             /* Pickup the upper 4 bits of the FAT entry.  */
 331:Middlewares/ST/filex/common/src/fx_utility_FAT_entry_read.c ****             entry =  entry | ((((UINT)*FAT_ptr) & 0x0F) << 8);
 332:Middlewares/ST/filex/common/src/fx_utility_FAT_entry_read.c ****         }
 333:Middlewares/ST/filex/common/src/fx_utility_FAT_entry_read.c **** 
 334:Middlewares/ST/filex/common/src/fx_utility_FAT_entry_read.c ****         /* Determine if we need to do sign extension on the 12-bit eof value.  */
 335:Middlewares/ST/filex/common/src/fx_utility_FAT_entry_read.c ****         if (entry >= FX_MAX_12BIT_CLUST)
 336:Middlewares/ST/filex/common/src/fx_utility_FAT_entry_read.c ****         {
 337:Middlewares/ST/filex/common/src/fx_utility_FAT_entry_read.c **** 
 338:Middlewares/ST/filex/common/src/fx_utility_FAT_entry_read.c ****             /* Yes, we need to sign extend.  */
 339:Middlewares/ST/filex/common/src/fx_utility_FAT_entry_read.c ****             entry =  entry | FX_SIGN_EXTEND;
 340:Middlewares/ST/filex/common/src/fx_utility_FAT_entry_read.c ****         }
 341:Middlewares/ST/filex/common/src/fx_utility_FAT_entry_read.c **** 
 342:Middlewares/ST/filex/common/src/fx_utility_FAT_entry_read.c ****         *entry_ptr =  entry;
 343:Middlewares/ST/filex/common/src/fx_utility_FAT_entry_read.c ****     }
 344:Middlewares/ST/filex/common/src/fx_utility_FAT_entry_read.c **** 
 345:Middlewares/ST/filex/common/src/fx_utility_FAT_entry_read.c ****     /* Check for a 16-bit FAT.  */
 346:Middlewares/ST/filex/common/src/fx_utility_FAT_entry_read.c **** #ifdef FX_ENABLE_EXFAT
 347:Middlewares/ST/filex/common/src/fx_utility_FAT_entry_read.c ****     else if (FX_FAT16  == media_ptr -> fx_media_FAT_type)
 348:Middlewares/ST/filex/common/src/fx_utility_FAT_entry_read.c **** #else
 349:Middlewares/ST/filex/common/src/fx_utility_FAT_entry_read.c ****     else if (!media_ptr -> fx_media_32_bit_FAT)
 142              		.loc 1 349 10 is_stmt 1 view .LVU45
 143              		.loc 1 349 25 is_stmt 0 view .LVU46
 144 0088 636E     		ldr	r3, [r4, #100]
 145              		.loc 1 349 13 view .LVU47
 146 008a 002B     		cmp	r3, #0
 147 008c 40F01481 		bne	.L15
 350:Middlewares/ST/filex/common/src/fx_utility_FAT_entry_read.c **** #endif /* FX_ENABLE_EXFAT */
 351:Middlewares/ST/filex/common/src/fx_utility_FAT_entry_read.c ****     {
 352:Middlewares/ST/filex/common/src/fx_utility_FAT_entry_read.c **** 
 353:Middlewares/ST/filex/common/src/fx_utility_FAT_entry_read.c ****         /* 16-bit FAT is present.  */
 354:Middlewares/ST/filex/common/src/fx_utility_FAT_entry_read.c **** 
 355:Middlewares/ST/filex/common/src/fx_utility_FAT_entry_read.c ****         /* Calculate the byte offset to the cluster entry.  */
 356:Middlewares/ST/filex/common/src/fx_utility_FAT_entry_read.c ****         byte_offset =  (((ULONG)cluster) * 2);
 148              		.loc 1 356 9 is_stmt 1 view .LVU48
 149              		.loc 1 356 21 is_stmt 0 view .LVU49
 150 0090 4FEA470A 		lsl	r10, r7, #1
 151              	.LVL5:
 357:Middlewares/ST/filex/common/src/fx_utility_FAT_entry_read.c **** 
 358:Middlewares/ST/filex/common/src/fx_utility_FAT_entry_read.c ****         /* Calculate the FAT sector the requested FAT entry resides in.  */
 359:Middlewares/ST/filex/common/src/fx_utility_FAT_entry_read.c ****         FAT_sector =  (byte_offset / media_ptr -> fx_media_bytes_per_sector) +
 152              		.loc 1 359 9 is_stmt 1 view .LVU50
 153              		.loc 1 359 48 is_stmt 0 view .LVU51
 154 0094 A36A     		ldr	r3, [r4, #40]
 155              		.loc 1 359 36 view .LVU52
ARM GAS  C:\Users\HP\AppData\Local\Temp\ccV3tneb.s 			page 10


 156 0096 BAFBF3F3 		udiv	r3, r10, r3
 360:Middlewares/ST/filex/common/src/fx_utility_FAT_entry_read.c ****             (ULONG)media_ptr -> fx_media_reserved_sectors;
 157              		.loc 1 360 30 view .LVU53
 158 009a 626C     		ldr	r2, [r4, #68]
 359:Middlewares/ST/filex/common/src/fx_utility_FAT_entry_read.c ****             (ULONG)media_ptr -> fx_media_reserved_sectors;
 159              		.loc 1 359 20 view .LVU54
 160 009c 03EB0209 		add	r9, r3, r2
 161              	.LVL6:
 361:Middlewares/ST/filex/common/src/fx_utility_FAT_entry_read.c **** 
 362:Middlewares/ST/filex/common/src/fx_utility_FAT_entry_read.c ****         /* Read the FAT sector.  */
 363:Middlewares/ST/filex/common/src/fx_utility_FAT_entry_read.c ****         status =  _fx_utility_logical_sector_read(media_ptr, (ULONG64) FAT_sector,
 162              		.loc 1 363 9 is_stmt 1 view .LVU55
 364:Middlewares/ST/filex/common/src/fx_utility_FAT_entry_read.c ****                                                   media_ptr -> fx_media_memory_buffer, ((ULONG) 1),
 163              		.loc 1 364 61 is_stmt 0 view .LVU56
 164 00a0 A368     		ldr	r3, [r4, #8]
 363:Middlewares/ST/filex/common/src/fx_utility_FAT_entry_read.c ****                                                   media_ptr -> fx_media_memory_buffer, ((ULONG) 1),
 165              		.loc 1 363 19 view .LVU57
 166 00a2 0222     		movs	r2, #2
 167 00a4 0292     		str	r2, [sp, #8]
 168 00a6 0122     		movs	r2, #1
 169 00a8 0192     		str	r2, [sp, #4]
 170 00aa 0093     		str	r3, [sp]
 171 00ac 4A46     		mov	r2, r9
 172 00ae 0023     		movs	r3, #0
 173 00b0 2046     		mov	r0, r4
 174 00b2 FFF7FEFF 		bl	_fx_utility_logical_sector_read
 175              	.LVL7:
 365:Middlewares/ST/filex/common/src/fx_utility_FAT_entry_read.c **** 
 366:Middlewares/ST/filex/common/src/fx_utility_FAT_entry_read.c ****         /* Determine if an error occurred.  */
 367:Middlewares/ST/filex/common/src/fx_utility_FAT_entry_read.c ****         if (status != FX_SUCCESS)
 176              		.loc 1 367 9 is_stmt 1 view .LVU58
 177              		.loc 1 367 12 is_stmt 0 view .LVU59
 178 00b6 A8B9     		cbnz	r0, .L1
 368:Middlewares/ST/filex/common/src/fx_utility_FAT_entry_read.c ****         {
 369:Middlewares/ST/filex/common/src/fx_utility_FAT_entry_read.c **** 
 370:Middlewares/ST/filex/common/src/fx_utility_FAT_entry_read.c ****             /* Return the error code.  */
 371:Middlewares/ST/filex/common/src/fx_utility_FAT_entry_read.c ****             return(status);
 372:Middlewares/ST/filex/common/src/fx_utility_FAT_entry_read.c ****         }
 373:Middlewares/ST/filex/common/src/fx_utility_FAT_entry_read.c **** 
 374:Middlewares/ST/filex/common/src/fx_utility_FAT_entry_read.c ****         /* Now calculate the byte offset into this FAT sector.  */
 375:Middlewares/ST/filex/common/src/fx_utility_FAT_entry_read.c ****         byte_offset =  byte_offset -
 179              		.loc 1 375 9 is_stmt 1 view .LVU60
 376:Middlewares/ST/filex/common/src/fx_utility_FAT_entry_read.c ****             ((FAT_sector - (ULONG)media_ptr -> fx_media_reserved_sectors) *
 180              		.loc 1 376 45 is_stmt 0 view .LVU61
 181 00b8 606C     		ldr	r0, [r4, #68]
 182              	.LVL8:
 183              		.loc 1 376 26 view .LVU62
 184 00ba A9EB0009 		sub	r9, r9, r0
 185              	.LVL9:
 377:Middlewares/ST/filex/common/src/fx_utility_FAT_entry_read.c ****              media_ptr -> fx_media_bytes_per_sector);
 186              		.loc 1 377 24 view .LVU63
 187 00be A06A     		ldr	r0, [r4, #40]
 375:Middlewares/ST/filex/common/src/fx_utility_FAT_entry_read.c ****             ((FAT_sector - (ULONG)media_ptr -> fx_media_reserved_sectors) *
 188              		.loc 1 375 21 view .LVU64
 189 00c0 00FB19AA 		mls	r10, r0, r9, r10
 190              	.LVL10:
 378:Middlewares/ST/filex/common/src/fx_utility_FAT_entry_read.c **** 
ARM GAS  C:\Users\HP\AppData\Local\Temp\ccV3tneb.s 			page 11


 379:Middlewares/ST/filex/common/src/fx_utility_FAT_entry_read.c ****         /* Setup a pointer into the buffer.  */
 380:Middlewares/ST/filex/common/src/fx_utility_FAT_entry_read.c ****         FAT_ptr =  (UCHAR *)media_ptr -> fx_media_memory_buffer + (UINT)byte_offset;
 191              		.loc 1 380 9 is_stmt 1 view .LVU65
 192              		.loc 1 380 39 is_stmt 0 view .LVU66
 193 00c4 A068     		ldr	r0, [r4, #8]
 194              	.LVL11:
 381:Middlewares/ST/filex/common/src/fx_utility_FAT_entry_read.c **** 
 382:Middlewares/ST/filex/common/src/fx_utility_FAT_entry_read.c ****         /* Pickup the FAT entry.  */
 383:Middlewares/ST/filex/common/src/fx_utility_FAT_entry_read.c ****         entry =  _fx_utility_16_unsigned_read(FAT_ptr);
 195              		.loc 1 383 9 is_stmt 1 view .LVU67
 196              		.loc 1 383 18 is_stmt 0 view .LVU68
 197 00c6 5044     		add	r0, r0, r10
 198              	.LVL12:
 199              		.loc 1 383 18 view .LVU69
 200 00c8 FFF7FEFF 		bl	_fx_utility_16_unsigned_read
 201              	.LVL13:
 384:Middlewares/ST/filex/common/src/fx_utility_FAT_entry_read.c **** 
 385:Middlewares/ST/filex/common/src/fx_utility_FAT_entry_read.c ****         *entry_ptr =  entry;
 202              		.loc 1 385 9 is_stmt 1 view .LVU70
 203              		.loc 1 385 20 is_stmt 0 view .LVU71
 204 00cc C8F80000 		str	r0, [r8]
 205 00d0 A3E0     		b	.L14
 206              	.LVL14:
 207              	.L17:
 140:Middlewares/ST/filex/common/src/fx_utility_FAT_entry_read.c **** 
 208              		.loc 1 140 9 is_stmt 1 view .LVU72
 140:Middlewares/ST/filex/common/src/fx_utility_FAT_entry_read.c **** 
 209              		.loc 1 140 39 is_stmt 0 view .LVU73
 210 00d2 06EB4606 		add	r6, r6, r6, lsl #1
 211              	.LVL15:
 140:Middlewares/ST/filex/common/src/fx_utility_FAT_entry_read.c **** 
 212              		.loc 1 140 39 view .LVU74
 213 00d6 00EB8604 		add	r4, r0, r6, lsl #2
 214 00da D4F85C37 		ldr	r3, [r4, #1884]
 140:Middlewares/ST/filex/common/src/fx_utility_FAT_entry_read.c **** 
 215              		.loc 1 140 20 view .LVU75
 216 00de C8F80030 		str	r3, [r8]
 145:Middlewares/ST/filex/common/src/fx_utility_FAT_entry_read.c ****     }
 217              		.loc 1 145 9 is_stmt 1 view .LVU76
 145:Middlewares/ST/filex/common/src/fx_utility_FAT_entry_read.c ****     }
 218              		.loc 1 145 15 is_stmt 0 view .LVU77
 219 00e2 0020     		movs	r0, #0
 220              	.LVL16:
 221              	.L1:
 386:Middlewares/ST/filex/common/src/fx_utility_FAT_entry_read.c ****     }
 387:Middlewares/ST/filex/common/src/fx_utility_FAT_entry_read.c **** #ifdef FX_ENABLE_EXFAT
 388:Middlewares/ST/filex/common/src/fx_utility_FAT_entry_read.c ****     else if ((media_ptr -> fx_media_FAT_type == FX_FAT32) ||
 389:Middlewares/ST/filex/common/src/fx_utility_FAT_entry_read.c ****              (media_ptr -> fx_media_FAT_type == FX_exFAT))
 390:Middlewares/ST/filex/common/src/fx_utility_FAT_entry_read.c **** #else
 391:Middlewares/ST/filex/common/src/fx_utility_FAT_entry_read.c ****     else
 392:Middlewares/ST/filex/common/src/fx_utility_FAT_entry_read.c **** #endif /* FX_ENABLE_EXFAT */
 393:Middlewares/ST/filex/common/src/fx_utility_FAT_entry_read.c ****     {
 394:Middlewares/ST/filex/common/src/fx_utility_FAT_entry_read.c **** 
 395:Middlewares/ST/filex/common/src/fx_utility_FAT_entry_read.c ****         /* Otherwise, a 32 bit FAT present.  */
 396:Middlewares/ST/filex/common/src/fx_utility_FAT_entry_read.c ****         byte_offset =  (((ULONG)cluster) * 4);
 397:Middlewares/ST/filex/common/src/fx_utility_FAT_entry_read.c **** 
 398:Middlewares/ST/filex/common/src/fx_utility_FAT_entry_read.c ****         /* Calculate the FAT sector the requested FAT entry resides in.  */
ARM GAS  C:\Users\HP\AppData\Local\Temp\ccV3tneb.s 			page 12


 399:Middlewares/ST/filex/common/src/fx_utility_FAT_entry_read.c ****         FAT_sector =  (byte_offset / media_ptr -> fx_media_bytes_per_sector) +
 400:Middlewares/ST/filex/common/src/fx_utility_FAT_entry_read.c ****             (ULONG)media_ptr -> fx_media_reserved_sectors;
 401:Middlewares/ST/filex/common/src/fx_utility_FAT_entry_read.c **** 
 402:Middlewares/ST/filex/common/src/fx_utility_FAT_entry_read.c ****         /* Calculate the byte offset to the FAT entry.  */
 403:Middlewares/ST/filex/common/src/fx_utility_FAT_entry_read.c ****         byte_offset = (byte_offset % media_ptr -> fx_media_bytes_per_sector);
 404:Middlewares/ST/filex/common/src/fx_utility_FAT_entry_read.c **** 
 405:Middlewares/ST/filex/common/src/fx_utility_FAT_entry_read.c ****         /* Read the appropriate FAT sector.  */
 406:Middlewares/ST/filex/common/src/fx_utility_FAT_entry_read.c ****         status =  _fx_utility_logical_sector_read(media_ptr, (ULONG64) FAT_sector,
 407:Middlewares/ST/filex/common/src/fx_utility_FAT_entry_read.c ****                                                   media_ptr -> fx_media_memory_buffer, ((ULONG) 1),
 408:Middlewares/ST/filex/common/src/fx_utility_FAT_entry_read.c **** 
 409:Middlewares/ST/filex/common/src/fx_utility_FAT_entry_read.c ****         /* Determine if an error occurred.  */
 410:Middlewares/ST/filex/common/src/fx_utility_FAT_entry_read.c ****         if (status != FX_SUCCESS)
 411:Middlewares/ST/filex/common/src/fx_utility_FAT_entry_read.c ****         {
 412:Middlewares/ST/filex/common/src/fx_utility_FAT_entry_read.c **** 
 413:Middlewares/ST/filex/common/src/fx_utility_FAT_entry_read.c ****             /* Return the error code.  */
 414:Middlewares/ST/filex/common/src/fx_utility_FAT_entry_read.c ****             return(status);
 415:Middlewares/ST/filex/common/src/fx_utility_FAT_entry_read.c ****         }
 416:Middlewares/ST/filex/common/src/fx_utility_FAT_entry_read.c **** 
 417:Middlewares/ST/filex/common/src/fx_utility_FAT_entry_read.c ****         /* Setup a pointer into the buffer.  */
 418:Middlewares/ST/filex/common/src/fx_utility_FAT_entry_read.c ****         FAT_ptr =  (UCHAR *)media_ptr -> fx_media_memory_buffer + (ULONG)byte_offset;
 419:Middlewares/ST/filex/common/src/fx_utility_FAT_entry_read.c **** 
 420:Middlewares/ST/filex/common/src/fx_utility_FAT_entry_read.c ****         /* Pickup the FAT entry.  */
 421:Middlewares/ST/filex/common/src/fx_utility_FAT_entry_read.c ****         entry32 =  _fx_utility_32_unsigned_read(FAT_ptr);
 422:Middlewares/ST/filex/common/src/fx_utility_FAT_entry_read.c **** 
 423:Middlewares/ST/filex/common/src/fx_utility_FAT_entry_read.c **** #ifdef FX_ENABLE_EXFAT
 424:Middlewares/ST/filex/common/src/fx_utility_FAT_entry_read.c ****         /* FAT32 uses 28 bit cluster addressing but  exFAT uses 32 bit.  */
 425:Middlewares/ST/filex/common/src/fx_utility_FAT_entry_read.c ****         if (media_ptr -> fx_media_FAT_type == FX_FAT32)
 426:Middlewares/ST/filex/common/src/fx_utility_FAT_entry_read.c ****         {
 427:Middlewares/ST/filex/common/src/fx_utility_FAT_entry_read.c **** #endif /* FX_ENABLE_EXFAT */
 428:Middlewares/ST/filex/common/src/fx_utility_FAT_entry_read.c **** 
 429:Middlewares/ST/filex/common/src/fx_utility_FAT_entry_read.c ****             /* Clear upper nibble.  */
 430:Middlewares/ST/filex/common/src/fx_utility_FAT_entry_read.c ****             entry32 = entry32 & 0x0FFFFFFF;
 431:Middlewares/ST/filex/common/src/fx_utility_FAT_entry_read.c **** #ifdef FX_ENABLE_EXFAT
 432:Middlewares/ST/filex/common/src/fx_utility_FAT_entry_read.c ****         }
 433:Middlewares/ST/filex/common/src/fx_utility_FAT_entry_read.c **** #endif /* FX_ENABLE_EXFAT */
 434:Middlewares/ST/filex/common/src/fx_utility_FAT_entry_read.c **** 
 435:Middlewares/ST/filex/common/src/fx_utility_FAT_entry_read.c ****         *entry_ptr =  entry32;
 436:Middlewares/ST/filex/common/src/fx_utility_FAT_entry_read.c ****     }
 437:Middlewares/ST/filex/common/src/fx_utility_FAT_entry_read.c **** 
 438:Middlewares/ST/filex/common/src/fx_utility_FAT_entry_read.c ****     /* Move all the cache entries down so the oldest is at the bottom.  */
 439:Middlewares/ST/filex/common/src/fx_utility_FAT_entry_read.c ****     *(cache_entry_ptr + 3) =  *(cache_entry_ptr + 2);
 440:Middlewares/ST/filex/common/src/fx_utility_FAT_entry_read.c ****     *(cache_entry_ptr + 2) =  *(cache_entry_ptr + 1);
 441:Middlewares/ST/filex/common/src/fx_utility_FAT_entry_read.c ****     *(cache_entry_ptr + 1) =  *(cache_entry_ptr);
 442:Middlewares/ST/filex/common/src/fx_utility_FAT_entry_read.c **** 
 443:Middlewares/ST/filex/common/src/fx_utility_FAT_entry_read.c ****     /* Setup the new FAT entry in the cache.  */
 444:Middlewares/ST/filex/common/src/fx_utility_FAT_entry_read.c ****     cache_entry_ptr -> fx_fat_cache_entry_cluster =  cluster;
 445:Middlewares/ST/filex/common/src/fx_utility_FAT_entry_read.c ****     cache_entry_ptr -> fx_fat_cache_entry_value   =  *entry_ptr;
 446:Middlewares/ST/filex/common/src/fx_utility_FAT_entry_read.c **** 
 447:Middlewares/ST/filex/common/src/fx_utility_FAT_entry_read.c ****     /* Return success to the caller.  */
 448:Middlewares/ST/filex/common/src/fx_utility_FAT_entry_read.c ****     return(FX_SUCCESS);
 449:Middlewares/ST/filex/common/src/fx_utility_FAT_entry_read.c **** }
 222              		.loc 1 449 1 view .LVU78
 223 00e4 08B0     		add	sp, sp, #32
 224              	.LCFI2:
 225              		.cfi_remember_state
 226              		.cfi_def_cfa_offset 32
 227              		@ sp needed
ARM GAS  C:\Users\HP\AppData\Local\Temp\ccV3tneb.s 			page 13


 228 00e6 BDE8F087 		pop	{r4, r5, r6, r7, r8, r9, r10, pc}
 229              	.LVL17:
 230              	.L18:
 231              	.LCFI3:
 232              		.cfi_restore_state
 151:Middlewares/ST/filex/common/src/fx_utility_FAT_entry_read.c **** 
 233              		.loc 1 151 9 is_stmt 1 view .LVU79
 151:Middlewares/ST/filex/common/src/fx_utility_FAT_entry_read.c **** 
 234              		.loc 1 151 45 is_stmt 0 view .LVU80
 235 00ea 2B69     		ldr	r3, [r5, #16]
 151:Middlewares/ST/filex/common/src/fx_utility_FAT_entry_read.c **** 
 236              		.loc 1 151 20 view .LVU81
 237 00ec C8F80030 		str	r3, [r8]
 154:Middlewares/ST/filex/common/src/fx_utility_FAT_entry_read.c ****         *(cache_entry_ptr) =      *(cache_entry_ptr + 1);
 238              		.loc 1 154 9 is_stmt 1 view .LVU82
 154:Middlewares/ST/filex/common/src/fx_utility_FAT_entry_read.c ****         *(cache_entry_ptr) =      *(cache_entry_ptr + 1);
 239              		.loc 1 154 26 is_stmt 0 view .LVU83
 240 00f0 06EB4603 		add	r3, r6, r6, lsl #1
 241 00f4 00EB8303 		add	r3, r0, r3, lsl #2
 242 00f8 03F5EB63 		add	r3, r3, #1880
 243 00fc 05AF     		add	r7, sp, #20
 244 00fe 93E80700 		ldm	r3, {r0, r1, r2}
 245              	.LVL18:
 154:Middlewares/ST/filex/common/src/fx_utility_FAT_entry_read.c ****         *(cache_entry_ptr) =      *(cache_entry_ptr + 1);
 246              		.loc 1 154 26 view .LVU84
 247 0102 87E80700 		stm	r7, {r0, r1, r2}
 155:Middlewares/ST/filex/common/src/fx_utility_FAT_entry_read.c ****         *(cache_entry_ptr + 1) =  temp_cache_entry;
 248              		.loc 1 155 9 is_stmt 1 view .LVU85
 155:Middlewares/ST/filex/common/src/fx_utility_FAT_entry_read.c ****         *(cache_entry_ptr + 1) =  temp_cache_entry;
 249              		.loc 1 155 28 is_stmt 0 view .LVU86
 250 0106 0C35     		adds	r5, r5, #12
 251              	.LVL19:
 155:Middlewares/ST/filex/common/src/fx_utility_FAT_entry_read.c ****         *(cache_entry_ptr + 1) =  temp_cache_entry;
 252              		.loc 1 155 28 view .LVU87
 253 0108 95E80700 		ldm	r5, {r0, r1, r2}
 254 010c 83E80700 		stm	r3, {r0, r1, r2}
 156:Middlewares/ST/filex/common/src/fx_utility_FAT_entry_read.c **** 
 255              		.loc 1 156 9 is_stmt 1 view .LVU88
 156:Middlewares/ST/filex/common/src/fx_utility_FAT_entry_read.c **** 
 256              		.loc 1 156 32 is_stmt 0 view .LVU89
 257 0110 97E80700 		ldm	r7, {r0, r1, r2}
 258 0114 85E80700 		stm	r5, {r0, r1, r2}
 159:Middlewares/ST/filex/common/src/fx_utility_FAT_entry_read.c ****     }
 259              		.loc 1 159 9 is_stmt 1 view .LVU90
 159:Middlewares/ST/filex/common/src/fx_utility_FAT_entry_read.c ****     }
 260              		.loc 1 159 15 is_stmt 0 view .LVU91
 261 0118 0020     		movs	r0, #0
 262 011a E3E7     		b	.L1
 263              	.LVL20:
 264              	.L19:
 165:Middlewares/ST/filex/common/src/fx_utility_FAT_entry_read.c **** 
 265              		.loc 1 165 9 is_stmt 1 view .LVU92
 165:Middlewares/ST/filex/common/src/fx_utility_FAT_entry_read.c **** 
 266              		.loc 1 165 45 is_stmt 0 view .LVU93
 267 011c EB69     		ldr	r3, [r5, #28]
 165:Middlewares/ST/filex/common/src/fx_utility_FAT_entry_read.c **** 
 268              		.loc 1 165 20 view .LVU94
ARM GAS  C:\Users\HP\AppData\Local\Temp\ccV3tneb.s 			page 14


 269 011e C8F80030 		str	r3, [r8]
 168:Middlewares/ST/filex/common/src/fx_utility_FAT_entry_read.c ****         *(cache_entry_ptr) =      *(cache_entry_ptr + 2);
 270              		.loc 1 168 9 is_stmt 1 view .LVU95
 168:Middlewares/ST/filex/common/src/fx_utility_FAT_entry_read.c ****         *(cache_entry_ptr) =      *(cache_entry_ptr + 2);
 271              		.loc 1 168 26 is_stmt 0 view .LVU96
 272 0122 06EB4603 		add	r3, r6, r6, lsl #1
 273 0126 00EB8303 		add	r3, r0, r3, lsl #2
 274 012a 03F5EB63 		add	r3, r3, #1880
 275 012e 05AF     		add	r7, sp, #20
 276 0130 93E80700 		ldm	r3, {r0, r1, r2}
 277              	.LVL21:
 168:Middlewares/ST/filex/common/src/fx_utility_FAT_entry_read.c ****         *(cache_entry_ptr) =      *(cache_entry_ptr + 2);
 278              		.loc 1 168 26 view .LVU97
 279 0134 87E80700 		stm	r7, {r0, r1, r2}
 169:Middlewares/ST/filex/common/src/fx_utility_FAT_entry_read.c ****         *(cache_entry_ptr + 2) =  *(cache_entry_ptr + 1);
 280              		.loc 1 169 9 is_stmt 1 view .LVU98
 169:Middlewares/ST/filex/common/src/fx_utility_FAT_entry_read.c ****         *(cache_entry_ptr + 2) =  *(cache_entry_ptr + 1);
 281              		.loc 1 169 28 is_stmt 0 view .LVU99
 282 0138 1C46     		mov	r4, r3
 283              	.LVL22:
 169:Middlewares/ST/filex/common/src/fx_utility_FAT_entry_read.c ****         *(cache_entry_ptr + 2) =  *(cache_entry_ptr + 1);
 284              		.loc 1 169 28 view .LVU100
 285 013a 05F11803 		add	r3, r5, #24
 286 013e 93E80700 		ldm	r3, {r0, r1, r2}
 287 0142 84E80700 		stm	r4, {r0, r1, r2}
 170:Middlewares/ST/filex/common/src/fx_utility_FAT_entry_read.c ****         *(cache_entry_ptr + 1) =  temp_cache_entry;
 288              		.loc 1 170 9 is_stmt 1 view .LVU101
 170:Middlewares/ST/filex/common/src/fx_utility_FAT_entry_read.c ****         *(cache_entry_ptr + 1) =  temp_cache_entry;
 289              		.loc 1 170 32 is_stmt 0 view .LVU102
 290 0146 0C35     		adds	r5, r5, #12
 291              	.LVL23:
 170:Middlewares/ST/filex/common/src/fx_utility_FAT_entry_read.c ****         *(cache_entry_ptr + 1) =  temp_cache_entry;
 292              		.loc 1 170 32 view .LVU103
 293 0148 95E80700 		ldm	r5, {r0, r1, r2}
 294 014c 83E80700 		stm	r3, {r0, r1, r2}
 171:Middlewares/ST/filex/common/src/fx_utility_FAT_entry_read.c **** 
 295              		.loc 1 171 9 is_stmt 1 view .LVU104
 171:Middlewares/ST/filex/common/src/fx_utility_FAT_entry_read.c **** 
 296              		.loc 1 171 32 is_stmt 0 view .LVU105
 297 0150 97E80700 		ldm	r7, {r0, r1, r2}
 298 0154 85E80700 		stm	r5, {r0, r1, r2}
 174:Middlewares/ST/filex/common/src/fx_utility_FAT_entry_read.c ****     }
 299              		.loc 1 174 9 is_stmt 1 view .LVU106
 174:Middlewares/ST/filex/common/src/fx_utility_FAT_entry_read.c ****     }
 300              		.loc 1 174 15 is_stmt 0 view .LVU107
 301 0158 0020     		movs	r0, #0
 302 015a C3E7     		b	.L1
 303              	.LVL24:
 304              	.L20:
 180:Middlewares/ST/filex/common/src/fx_utility_FAT_entry_read.c **** 
 305              		.loc 1 180 9 is_stmt 1 view .LVU108
 180:Middlewares/ST/filex/common/src/fx_utility_FAT_entry_read.c **** 
 306              		.loc 1 180 45 is_stmt 0 view .LVU109
 307 015c AB6A     		ldr	r3, [r5, #40]
 180:Middlewares/ST/filex/common/src/fx_utility_FAT_entry_read.c **** 
 308              		.loc 1 180 20 view .LVU110
 309 015e C8F80030 		str	r3, [r8]
ARM GAS  C:\Users\HP\AppData\Local\Temp\ccV3tneb.s 			page 15


 183:Middlewares/ST/filex/common/src/fx_utility_FAT_entry_read.c ****         *(cache_entry_ptr) =      *(cache_entry_ptr + 3);
 310              		.loc 1 183 9 is_stmt 1 view .LVU111
 183:Middlewares/ST/filex/common/src/fx_utility_FAT_entry_read.c ****         *(cache_entry_ptr) =      *(cache_entry_ptr + 3);
 311              		.loc 1 183 26 is_stmt 0 view .LVU112
 312 0162 06EB4603 		add	r3, r6, r6, lsl #1
 313 0166 00EB8303 		add	r3, r0, r3, lsl #2
 314 016a 03F5EB63 		add	r3, r3, #1880
 315 016e 05AF     		add	r7, sp, #20
 316 0170 93E80700 		ldm	r3, {r0, r1, r2}
 317              	.LVL25:
 183:Middlewares/ST/filex/common/src/fx_utility_FAT_entry_read.c ****         *(cache_entry_ptr) =      *(cache_entry_ptr + 3);
 318              		.loc 1 183 26 view .LVU113
 319 0174 87E80700 		stm	r7, {r0, r1, r2}
 184:Middlewares/ST/filex/common/src/fx_utility_FAT_entry_read.c ****         *(cache_entry_ptr + 3) =  *(cache_entry_ptr + 2);
 320              		.loc 1 184 9 is_stmt 1 view .LVU114
 184:Middlewares/ST/filex/common/src/fx_utility_FAT_entry_read.c ****         *(cache_entry_ptr + 3) =  *(cache_entry_ptr + 2);
 321              		.loc 1 184 28 is_stmt 0 view .LVU115
 322 0178 05F12406 		add	r6, r5, #36
 323              	.LVL26:
 184:Middlewares/ST/filex/common/src/fx_utility_FAT_entry_read.c ****         *(cache_entry_ptr + 3) =  *(cache_entry_ptr + 2);
 324              		.loc 1 184 28 view .LVU116
 325 017c 96E80700 		ldm	r6, {r0, r1, r2}
 326 0180 83E80700 		stm	r3, {r0, r1, r2}
 185:Middlewares/ST/filex/common/src/fx_utility_FAT_entry_read.c ****         *(cache_entry_ptr + 2) =  *(cache_entry_ptr + 1);
 327              		.loc 1 185 9 is_stmt 1 view .LVU117
 185:Middlewares/ST/filex/common/src/fx_utility_FAT_entry_read.c ****         *(cache_entry_ptr + 2) =  *(cache_entry_ptr + 1);
 328              		.loc 1 185 32 is_stmt 0 view .LVU118
 329 0184 05F11803 		add	r3, r5, #24
 330 0188 93E80700 		ldm	r3, {r0, r1, r2}
 331 018c 86E80700 		stm	r6, {r0, r1, r2}
 186:Middlewares/ST/filex/common/src/fx_utility_FAT_entry_read.c ****         *(cache_entry_ptr + 1) =  temp_cache_entry;
 332              		.loc 1 186 9 is_stmt 1 view .LVU119
 186:Middlewares/ST/filex/common/src/fx_utility_FAT_entry_read.c ****         *(cache_entry_ptr + 1) =  temp_cache_entry;
 333              		.loc 1 186 32 is_stmt 0 view .LVU120
 334 0190 0C35     		adds	r5, r5, #12
 335              	.LVL27:
 186:Middlewares/ST/filex/common/src/fx_utility_FAT_entry_read.c ****         *(cache_entry_ptr + 1) =  temp_cache_entry;
 336              		.loc 1 186 32 view .LVU121
 337 0192 95E80700 		ldm	r5, {r0, r1, r2}
 338 0196 83E80700 		stm	r3, {r0, r1, r2}
 187:Middlewares/ST/filex/common/src/fx_utility_FAT_entry_read.c **** 
 339              		.loc 1 187 9 is_stmt 1 view .LVU122
 187:Middlewares/ST/filex/common/src/fx_utility_FAT_entry_read.c **** 
 340              		.loc 1 187 32 is_stmt 0 view .LVU123
 341 019a 97E80700 		ldm	r7, {r0, r1, r2}
 342 019e 85E80700 		stm	r5, {r0, r1, r2}
 190:Middlewares/ST/filex/common/src/fx_utility_FAT_entry_read.c ****     }
 343              		.loc 1 190 9 is_stmt 1 view .LVU124
 190:Middlewares/ST/filex/common/src/fx_utility_FAT_entry_read.c ****     }
 344              		.loc 1 190 15 is_stmt 0 view .LVU125
 345 01a2 0020     		movs	r0, #0
 346 01a4 9EE7     		b	.L1
 347              	.LVL28:
 348              	.L21:
 211:Middlewares/ST/filex/common/src/fx_utility_FAT_entry_read.c **** 
 349              		.loc 1 211 9 is_stmt 1 view .LVU126
 211:Middlewares/ST/filex/common/src/fx_utility_FAT_entry_read.c **** 
ARM GAS  C:\Users\HP\AppData\Local\Temp\ccV3tneb.s 			page 16


 350              		.loc 1 211 18 is_stmt 0 view .LVU127
 351 01a6 FFF7FEFF 		bl	_fx_utility_FAT_flush
 352              	.LVL29:
 214:Middlewares/ST/filex/common/src/fx_utility_FAT_entry_read.c ****         {
 353              		.loc 1 214 9 is_stmt 1 view .LVU128
 214:Middlewares/ST/filex/common/src/fx_utility_FAT_entry_read.c ****         {
 354              		.loc 1 214 12 is_stmt 0 view .LVU129
 355 01aa 0028     		cmp	r0, #0
 356 01ac 3FF45EAF 		beq	.L7
 357 01b0 98E7     		b	.L1
 358              	.LVL30:
 359              	.L22:
 239:Middlewares/ST/filex/common/src/fx_utility_FAT_entry_read.c **** 
 360              		.loc 1 239 9 is_stmt 1 view .LVU130
 239:Middlewares/ST/filex/common/src/fx_utility_FAT_entry_read.c **** 
 361              		.loc 1 239 47 is_stmt 0 view .LVU131
 362 01b2 07EB4703 		add	r3, r7, r7, lsl #1
 239:Middlewares/ST/filex/common/src/fx_utility_FAT_entry_read.c **** 
 363              		.loc 1 239 21 view .LVU132
 364 01b6 4FEA530A 		lsr	r10, r3, #1
 365              	.LVL31:
 242:Middlewares/ST/filex/common/src/fx_utility_FAT_entry_read.c ****             (ULONG)media_ptr -> fx_media_reserved_sectors;
 366              		.loc 1 242 9 is_stmt 1 view .LVU133
 242:Middlewares/ST/filex/common/src/fx_utility_FAT_entry_read.c ****             (ULONG)media_ptr -> fx_media_reserved_sectors;
 367              		.loc 1 242 48 is_stmt 0 view .LVU134
 368 01ba A36A     		ldr	r3, [r4, #40]
 242:Middlewares/ST/filex/common/src/fx_utility_FAT_entry_read.c ****             (ULONG)media_ptr -> fx_media_reserved_sectors;
 369              		.loc 1 242 36 view .LVU135
 370 01bc BAFBF3F3 		udiv	r3, r10, r3
 243:Middlewares/ST/filex/common/src/fx_utility_FAT_entry_read.c **** 
 371              		.loc 1 243 30 view .LVU136
 372 01c0 626C     		ldr	r2, [r4, #68]
 242:Middlewares/ST/filex/common/src/fx_utility_FAT_entry_read.c ****             (ULONG)media_ptr -> fx_media_reserved_sectors;
 373              		.loc 1 242 20 view .LVU137
 374 01c2 03EB0209 		add	r9, r3, r2
 375              	.LVL32:
 246:Middlewares/ST/filex/common/src/fx_utility_FAT_entry_read.c ****                                                   media_ptr -> fx_media_memory_buffer, ((ULONG) 1),
 376              		.loc 1 246 9 is_stmt 1 view .LVU138
 247:Middlewares/ST/filex/common/src/fx_utility_FAT_entry_read.c **** 
 377              		.loc 1 247 61 is_stmt 0 view .LVU139
 378 01c6 A368     		ldr	r3, [r4, #8]
 246:Middlewares/ST/filex/common/src/fx_utility_FAT_entry_read.c ****                                                   media_ptr -> fx_media_memory_buffer, ((ULONG) 1),
 379              		.loc 1 246 19 view .LVU140
 380 01c8 0222     		movs	r2, #2
 381 01ca 0292     		str	r2, [sp, #8]
 382 01cc 0122     		movs	r2, #1
 383 01ce 0192     		str	r2, [sp, #4]
 384 01d0 0093     		str	r3, [sp]
 385 01d2 4A46     		mov	r2, r9
 386 01d4 0023     		movs	r3, #0
 387 01d6 2046     		mov	r0, r4
 388 01d8 FFF7FEFF 		bl	_fx_utility_logical_sector_read
 389              	.LVL33:
 250:Middlewares/ST/filex/common/src/fx_utility_FAT_entry_read.c ****         {
 390              		.loc 1 250 9 is_stmt 1 view .LVU141
 250:Middlewares/ST/filex/common/src/fx_utility_FAT_entry_read.c ****         {
 391              		.loc 1 250 12 is_stmt 0 view .LVU142
ARM GAS  C:\Users\HP\AppData\Local\Temp\ccV3tneb.s 			page 17


 392 01dc 0028     		cmp	r0, #0
 393 01de 81D1     		bne	.L1
 257:Middlewares/ST/filex/common/src/fx_utility_FAT_entry_read.c ****             ((FAT_sector - (ULONG)media_ptr -> fx_media_reserved_sectors) *
 394              		.loc 1 257 9 is_stmt 1 view .LVU143
 258:Middlewares/ST/filex/common/src/fx_utility_FAT_entry_read.c ****              media_ptr -> fx_media_bytes_per_sector);
 395              		.loc 1 258 45 is_stmt 0 view .LVU144
 396 01e0 636C     		ldr	r3, [r4, #68]
 258:Middlewares/ST/filex/common/src/fx_utility_FAT_entry_read.c ****              media_ptr -> fx_media_bytes_per_sector);
 397              		.loc 1 258 26 view .LVU145
 398 01e2 A9EB0303 		sub	r3, r9, r3
 259:Middlewares/ST/filex/common/src/fx_utility_FAT_entry_read.c **** 
 399              		.loc 1 259 24 view .LVU146
 400 01e6 A16A     		ldr	r1, [r4, #40]
 257:Middlewares/ST/filex/common/src/fx_utility_FAT_entry_read.c ****             ((FAT_sector - (ULONG)media_ptr -> fx_media_reserved_sectors) *
 401              		.loc 1 257 21 view .LVU147
 402 01e8 01FB13A3 		mls	r3, r1, r3, r10
 403              	.LVL34:
 262:Middlewares/ST/filex/common/src/fx_utility_FAT_entry_read.c **** 
 404              		.loc 1 262 9 is_stmt 1 view .LVU148
 262:Middlewares/ST/filex/common/src/fx_utility_FAT_entry_read.c **** 
 405              		.loc 1 262 39 is_stmt 0 view .LVU149
 406 01ec A068     		ldr	r0, [r4, #8]
 407              	.LVL35:
 262:Middlewares/ST/filex/common/src/fx_utility_FAT_entry_read.c **** 
 408              		.loc 1 262 17 view .LVU150
 409 01ee C218     		adds	r2, r0, r3
 410              	.LVL36:
 265:Middlewares/ST/filex/common/src/fx_utility_FAT_entry_read.c ****         {
 411              		.loc 1 265 9 is_stmt 1 view .LVU151
 265:Middlewares/ST/filex/common/src/fx_utility_FAT_entry_read.c ****         {
 412              		.loc 1 265 12 is_stmt 0 view .LVU152
 413 01f0 17F0010F 		tst	r7, #1
 414 01f4 43D0     		beq	.L9
 271:Middlewares/ST/filex/common/src/fx_utility_FAT_entry_read.c **** 
 415              		.loc 1 271 13 is_stmt 1 view .LVU153
 271:Middlewares/ST/filex/common/src/fx_utility_FAT_entry_read.c **** 
 416              		.loc 1 271 30 is_stmt 0 view .LVU154
 417 01f6 10F803A0 		ldrb	r10, [r0, r3]	@ zero_extendqisi2
 271:Middlewares/ST/filex/common/src/fx_utility_FAT_entry_read.c **** 
 418              		.loc 1 271 48 view .LVU155
 419 01fa 4FEA1A1A 		lsr	r10, r10, #4
 420              	.LVL37:
 274:Middlewares/ST/filex/common/src/fx_utility_FAT_entry_read.c **** 
 421              		.loc 1 274 13 is_stmt 1 view .LVU156
 274:Middlewares/ST/filex/common/src/fx_utility_FAT_entry_read.c **** 
 422              		.loc 1 274 20 is_stmt 0 view .LVU157
 423 01fe 0132     		adds	r2, r2, #1
 424              	.LVL38:
 277:Middlewares/ST/filex/common/src/fx_utility_FAT_entry_read.c ****             {
 425              		.loc 1 277 13 is_stmt 1 view .LVU158
 277:Middlewares/ST/filex/common/src/fx_utility_FAT_entry_read.c ****             {
 426              		.loc 1 277 79 is_stmt 0 view .LVU159
 427 0200 0139     		subs	r1, r1, #1
 277:Middlewares/ST/filex/common/src/fx_utility_FAT_entry_read.c ****             {
 428              		.loc 1 277 16 view .LVU160
 429 0202 9942     		cmp	r1, r3
 430 0204 2BD0     		beq	.L23
ARM GAS  C:\Users\HP\AppData\Local\Temp\ccV3tneb.s 			page 18


 431              	.LVL39:
 432              	.L10:
 298:Middlewares/ST/filex/common/src/fx_utility_FAT_entry_read.c ****         }
 433              		.loc 1 298 13 is_stmt 1 view .LVU161
 298:Middlewares/ST/filex/common/src/fx_utility_FAT_entry_read.c ****         }
 434              		.loc 1 298 38 is_stmt 0 view .LVU162
 435 0206 1378     		ldrb	r3, [r2]	@ zero_extendqisi2
 298:Middlewares/ST/filex/common/src/fx_utility_FAT_entry_read.c ****         }
 436              		.loc 1 298 19 view .LVU163
 437 0208 4AEA0313 		orr	r3, r10, r3, lsl #4
 438              	.LVL40:
 439              	.L11:
 335:Middlewares/ST/filex/common/src/fx_utility_FAT_entry_read.c ****         {
 440              		.loc 1 335 9 is_stmt 1 view .LVU164
 335:Middlewares/ST/filex/common/src/fx_utility_FAT_entry_read.c ****         {
 441              		.loc 1 335 12 is_stmt 0 view .LVU165
 442 020c B3F57F6F 		cmp	r3, #4080
 443 0210 01D3     		bcc	.L13
 339:Middlewares/ST/filex/common/src/fx_utility_FAT_entry_read.c ****         }
 444              		.loc 1 339 13 is_stmt 1 view .LVU166
 339:Middlewares/ST/filex/common/src/fx_utility_FAT_entry_read.c ****         }
 445              		.loc 1 339 19 is_stmt 0 view .LVU167
 446 0212 43F47043 		orr	r3, r3, #61440
 447              	.LVL41:
 448              	.L13:
 342:Middlewares/ST/filex/common/src/fx_utility_FAT_entry_read.c ****     }
 449              		.loc 1 342 9 is_stmt 1 view .LVU168
 342:Middlewares/ST/filex/common/src/fx_utility_FAT_entry_read.c ****     }
 450              		.loc 1 342 20 is_stmt 0 view .LVU169
 451 0216 C8F80030 		str	r3, [r8]
 452              	.LVL42:
 453              	.L14:
 439:Middlewares/ST/filex/common/src/fx_utility_FAT_entry_read.c ****     *(cache_entry_ptr + 2) =  *(cache_entry_ptr + 1);
 454              		.loc 1 439 5 is_stmt 1 view .LVU170
 439:Middlewares/ST/filex/common/src/fx_utility_FAT_entry_read.c ****     *(cache_entry_ptr + 2) =  *(cache_entry_ptr + 1);
 455              		.loc 1 439 28 is_stmt 0 view .LVU171
 456 021a 05F1240C 		add	ip, r5, #36
 457 021e 05F11803 		add	r3, r5, #24
 458 0222 93E80700 		ldm	r3, {r0, r1, r2}
 459 0226 8CE80700 		stm	ip, {r0, r1, r2}
 440:Middlewares/ST/filex/common/src/fx_utility_FAT_entry_read.c ****     *(cache_entry_ptr + 1) =  *(cache_entry_ptr);
 460              		.loc 1 440 5 is_stmt 1 view .LVU172
 440:Middlewares/ST/filex/common/src/fx_utility_FAT_entry_read.c ****     *(cache_entry_ptr + 1) =  *(cache_entry_ptr);
 461              		.loc 1 440 28 is_stmt 0 view .LVU173
 462 022a 0C35     		adds	r5, r5, #12
 463              	.LVL43:
 440:Middlewares/ST/filex/common/src/fx_utility_FAT_entry_read.c ****     *(cache_entry_ptr + 1) =  *(cache_entry_ptr);
 464              		.loc 1 440 28 view .LVU174
 465 022c 95E80700 		ldm	r5, {r0, r1, r2}
 466 0230 83E80700 		stm	r3, {r0, r1, r2}
 441:Middlewares/ST/filex/common/src/fx_utility_FAT_entry_read.c **** 
 467              		.loc 1 441 5 is_stmt 1 view .LVU175
 441:Middlewares/ST/filex/common/src/fx_utility_FAT_entry_read.c **** 
 468              		.loc 1 441 28 is_stmt 0 view .LVU176
 469 0234 06EB4603 		add	r3, r6, r6, lsl #1
 470 0238 04EB8303 		add	r3, r4, r3, lsl #2
 471 023c 03F5EB62 		add	r2, r3, #1880
ARM GAS  C:\Users\HP\AppData\Local\Temp\ccV3tneb.s 			page 19


 472 0240 07CA     		ldm	r2, {r0, r1, r2}
 473 0242 85E80700 		stm	r5, {r0, r1, r2}
 444:Middlewares/ST/filex/common/src/fx_utility_FAT_entry_read.c ****     cache_entry_ptr -> fx_fat_cache_entry_value   =  *entry_ptr;
 474              		.loc 1 444 5 is_stmt 1 view .LVU177
 444:Middlewares/ST/filex/common/src/fx_utility_FAT_entry_read.c ****     cache_entry_ptr -> fx_fat_cache_entry_value   =  *entry_ptr;
 475              		.loc 1 444 51 is_stmt 0 view .LVU178
 476 0246 C3F85877 		str	r7, [r3, #1880]
 445:Middlewares/ST/filex/common/src/fx_utility_FAT_entry_read.c **** 
 477              		.loc 1 445 5 is_stmt 1 view .LVU179
 445:Middlewares/ST/filex/common/src/fx_utility_FAT_entry_read.c **** 
 478              		.loc 1 445 54 is_stmt 0 view .LVU180
 479 024a D8F80030 		ldr	r3, [r8]
 445:Middlewares/ST/filex/common/src/fx_utility_FAT_entry_read.c **** 
 480              		.loc 1 445 51 view .LVU181
 481 024e 06EB4606 		add	r6, r6, r6, lsl #1
 482              	.LVL44:
 445:Middlewares/ST/filex/common/src/fx_utility_FAT_entry_read.c **** 
 483              		.loc 1 445 51 view .LVU182
 484 0252 04EB8604 		add	r4, r4, r6, lsl #2
 485              	.LVL45:
 445:Middlewares/ST/filex/common/src/fx_utility_FAT_entry_read.c **** 
 486              		.loc 1 445 51 view .LVU183
 487 0256 C4F85C37 		str	r3, [r4, #1884]
 448:Middlewares/ST/filex/common/src/fx_utility_FAT_entry_read.c **** }
 488              		.loc 1 448 5 is_stmt 1 view .LVU184
 448:Middlewares/ST/filex/common/src/fx_utility_FAT_entry_read.c **** }
 489              		.loc 1 448 11 is_stmt 0 view .LVU185
 490 025a 0020     		movs	r0, #0
 491 025c 42E7     		b	.L1
 492              	.LVL46:
 493              	.L23:
 281:Middlewares/ST/filex/common/src/fx_utility_FAT_entry_read.c ****                 status =  _fx_utility_logical_sector_read(media_ptr, (ULONG64) FAT_sector,
 494              		.loc 1 281 17 is_stmt 1 view .LVU186
 282:Middlewares/ST/filex/common/src/fx_utility_FAT_entry_read.c ****                                                           media_ptr -> fx_media_memory_buffer, ((UL
 495              		.loc 1 282 17 view .LVU187
 282:Middlewares/ST/filex/common/src/fx_utility_FAT_entry_read.c ****                                                           media_ptr -> fx_media_memory_buffer, ((UL
 496              		.loc 1 282 27 is_stmt 0 view .LVU188
 497 025e 0223     		movs	r3, #2
 498              	.LVL47:
 282:Middlewares/ST/filex/common/src/fx_utility_FAT_entry_read.c ****                                                           media_ptr -> fx_media_memory_buffer, ((UL
 499              		.loc 1 282 27 view .LVU189
 500 0260 0293     		str	r3, [sp, #8]
 501              	.LVL48:
 282:Middlewares/ST/filex/common/src/fx_utility_FAT_entry_read.c ****                                                           media_ptr -> fx_media_memory_buffer, ((UL
 502              		.loc 1 282 27 view .LVU190
 503 0262 0123     		movs	r3, #1
 504 0264 0193     		str	r3, [sp, #4]
 505 0266 0090     		str	r0, [sp]
 506 0268 09EB0302 		add	r2, r9, r3
 507              	.LVL49:
 282:Middlewares/ST/filex/common/src/fx_utility_FAT_entry_read.c ****                                                           media_ptr -> fx_media_memory_buffer, ((UL
 508              		.loc 1 282 27 view .LVU191
 509 026c 0023     		movs	r3, #0
 510 026e 2046     		mov	r0, r4
 282:Middlewares/ST/filex/common/src/fx_utility_FAT_entry_read.c ****                                                           media_ptr -> fx_media_memory_buffer, ((UL
 511              		.loc 1 282 27 view .LVU192
 512 0270 FFF7FEFF 		bl	_fx_utility_logical_sector_read
ARM GAS  C:\Users\HP\AppData\Local\Temp\ccV3tneb.s 			page 20


 513              	.LVL50:
 286:Middlewares/ST/filex/common/src/fx_utility_FAT_entry_read.c ****                 {
 514              		.loc 1 286 17 is_stmt 1 view .LVU193
 286:Middlewares/ST/filex/common/src/fx_utility_FAT_entry_read.c ****                 {
 515              		.loc 1 286 20 is_stmt 0 view .LVU194
 516 0274 0028     		cmp	r0, #0
 517 0276 7FF435AF 		bne	.L1
 294:Middlewares/ST/filex/common/src/fx_utility_FAT_entry_read.c ****             }
 518              		.loc 1 294 17 is_stmt 1 view .LVU195
 294:Middlewares/ST/filex/common/src/fx_utility_FAT_entry_read.c ****             }
 519              		.loc 1 294 25 is_stmt 0 view .LVU196
 520 027a A268     		ldr	r2, [r4, #8]
 521              	.LVL51:
 294:Middlewares/ST/filex/common/src/fx_utility_FAT_entry_read.c ****             }
 522              		.loc 1 294 25 view .LVU197
 523 027c C3E7     		b	.L10
 524              	.LVL52:
 525              	.L9:
 306:Middlewares/ST/filex/common/src/fx_utility_FAT_entry_read.c **** 
 526              		.loc 1 306 13 is_stmt 1 view .LVU198
 306:Middlewares/ST/filex/common/src/fx_utility_FAT_entry_read.c **** 
 527              		.loc 1 306 36 is_stmt 0 view .LVU199
 528 027e 10F803A0 		ldrb	r10, [r0, r3]	@ zero_extendqisi2
 529              	.LVL53:
 309:Middlewares/ST/filex/common/src/fx_utility_FAT_entry_read.c **** 
 530              		.loc 1 309 13 is_stmt 1 view .LVU200
 309:Middlewares/ST/filex/common/src/fx_utility_FAT_entry_read.c **** 
 531              		.loc 1 309 20 is_stmt 0 view .LVU201
 532 0282 0132     		adds	r2, r2, #1
 533              	.LVL54:
 312:Middlewares/ST/filex/common/src/fx_utility_FAT_entry_read.c ****             {
 534              		.loc 1 312 13 is_stmt 1 view .LVU202
 312:Middlewares/ST/filex/common/src/fx_utility_FAT_entry_read.c ****             {
 535              		.loc 1 312 79 is_stmt 0 view .LVU203
 536 0284 0139     		subs	r1, r1, #1
 312:Middlewares/ST/filex/common/src/fx_utility_FAT_entry_read.c ****             {
 537              		.loc 1 312 16 view .LVU204
 538 0286 9942     		cmp	r1, r3
 539 0288 06D0     		beq	.L24
 540              	.LVL55:
 541              	.L12:
 331:Middlewares/ST/filex/common/src/fx_utility_FAT_entry_read.c ****         }
 542              		.loc 1 331 13 is_stmt 1 view .LVU205
 331:Middlewares/ST/filex/common/src/fx_utility_FAT_entry_read.c ****         }
 543              		.loc 1 331 39 is_stmt 0 view .LVU206
 544 028a 1378     		ldrb	r3, [r2]	@ zero_extendqisi2
 331:Middlewares/ST/filex/common/src/fx_utility_FAT_entry_read.c ****         }
 545              		.loc 1 331 57 view .LVU207
 546 028c 1B02     		lsls	r3, r3, #8
 547 028e 03F47063 		and	r3, r3, #3840
 331:Middlewares/ST/filex/common/src/fx_utility_FAT_entry_read.c ****         }
 548              		.loc 1 331 19 view .LVU208
 549 0292 43EA0A03 		orr	r3, r3, r10
 550              	.LVL56:
 331:Middlewares/ST/filex/common/src/fx_utility_FAT_entry_read.c ****         }
 551              		.loc 1 331 19 view .LVU209
 552 0296 B9E7     		b	.L11
ARM GAS  C:\Users\HP\AppData\Local\Temp\ccV3tneb.s 			page 21


 553              	.LVL57:
 554              	.L24:
 316:Middlewares/ST/filex/common/src/fx_utility_FAT_entry_read.c ****                 status =  _fx_utility_logical_sector_read(media_ptr, (ULONG64) FAT_sector,
 555              		.loc 1 316 17 is_stmt 1 view .LVU210
 317:Middlewares/ST/filex/common/src/fx_utility_FAT_entry_read.c ****                                                           media_ptr -> fx_media_memory_buffer, ((UL
 556              		.loc 1 317 17 view .LVU211
 317:Middlewares/ST/filex/common/src/fx_utility_FAT_entry_read.c ****                                                           media_ptr -> fx_media_memory_buffer, ((UL
 557              		.loc 1 317 27 is_stmt 0 view .LVU212
 558 0298 0223     		movs	r3, #2
 559              	.LVL58:
 317:Middlewares/ST/filex/common/src/fx_utility_FAT_entry_read.c ****                                                           media_ptr -> fx_media_memory_buffer, ((UL
 560              		.loc 1 317 27 view .LVU213
 561 029a 0293     		str	r3, [sp, #8]
 562              	.LVL59:
 317:Middlewares/ST/filex/common/src/fx_utility_FAT_entry_read.c ****                                                           media_ptr -> fx_media_memory_buffer, ((UL
 563              		.loc 1 317 27 view .LVU214
 564 029c 0123     		movs	r3, #1
 565 029e 0193     		str	r3, [sp, #4]
 566 02a0 0090     		str	r0, [sp]
 567 02a2 09EB0302 		add	r2, r9, r3
 568              	.LVL60:
 317:Middlewares/ST/filex/common/src/fx_utility_FAT_entry_read.c ****                                                           media_ptr -> fx_media_memory_buffer, ((UL
 569              		.loc 1 317 27 view .LVU215
 570 02a6 0023     		movs	r3, #0
 571 02a8 2046     		mov	r0, r4
 317:Middlewares/ST/filex/common/src/fx_utility_FAT_entry_read.c ****                                                           media_ptr -> fx_media_memory_buffer, ((UL
 572              		.loc 1 317 27 view .LVU216
 573 02aa FFF7FEFF 		bl	_fx_utility_logical_sector_read
 574              	.LVL61:
 321:Middlewares/ST/filex/common/src/fx_utility_FAT_entry_read.c ****                 {
 575              		.loc 1 321 17 is_stmt 1 view .LVU217
 321:Middlewares/ST/filex/common/src/fx_utility_FAT_entry_read.c ****                 {
 576              		.loc 1 321 20 is_stmt 0 view .LVU218
 577 02ae 0028     		cmp	r0, #0
 578 02b0 7FF418AF 		bne	.L1
 327:Middlewares/ST/filex/common/src/fx_utility_FAT_entry_read.c ****             }
 579              		.loc 1 327 17 is_stmt 1 view .LVU219
 327:Middlewares/ST/filex/common/src/fx_utility_FAT_entry_read.c ****             }
 580              		.loc 1 327 25 is_stmt 0 view .LVU220
 581 02b4 A268     		ldr	r2, [r4, #8]
 582              	.LVL62:
 327:Middlewares/ST/filex/common/src/fx_utility_FAT_entry_read.c ****             }
 583              		.loc 1 327 25 view .LVU221
 584 02b6 E8E7     		b	.L12
 585              	.LVL63:
 586              	.L15:
 396:Middlewares/ST/filex/common/src/fx_utility_FAT_entry_read.c **** 
 587              		.loc 1 396 9 is_stmt 1 view .LVU222
 396:Middlewares/ST/filex/common/src/fx_utility_FAT_entry_read.c **** 
 588              		.loc 1 396 21 is_stmt 0 view .LVU223
 589 02b8 BB00     		lsls	r3, r7, #2
 399:Middlewares/ST/filex/common/src/fx_utility_FAT_entry_read.c ****             (ULONG)media_ptr -> fx_media_reserved_sectors;
 590              		.loc 1 399 9 is_stmt 1 view .LVU224
 399:Middlewares/ST/filex/common/src/fx_utility_FAT_entry_read.c ****             (ULONG)media_ptr -> fx_media_reserved_sectors;
 591              		.loc 1 399 48 is_stmt 0 view .LVU225
 592 02ba A16A     		ldr	r1, [r4, #40]
 399:Middlewares/ST/filex/common/src/fx_utility_FAT_entry_read.c ****             (ULONG)media_ptr -> fx_media_reserved_sectors;
ARM GAS  C:\Users\HP\AppData\Local\Temp\ccV3tneb.s 			page 22


 593              		.loc 1 399 36 view .LVU226
 594 02bc B3FBF1F2 		udiv	r2, r3, r1
 400:Middlewares/ST/filex/common/src/fx_utility_FAT_entry_read.c **** 
 595              		.loc 1 400 30 view .LVU227
 596 02c0 606C     		ldr	r0, [r4, #68]
 597              	.LVL64:
 403:Middlewares/ST/filex/common/src/fx_utility_FAT_entry_read.c **** 
 598              		.loc 1 403 9 is_stmt 1 view .LVU228
 403:Middlewares/ST/filex/common/src/fx_utility_FAT_entry_read.c **** 
 599              		.loc 1 403 21 is_stmt 0 view .LVU229
 600 02c2 01FB1239 		mls	r9, r1, r2, r3
 601              	.LVL65:
 406:Middlewares/ST/filex/common/src/fx_utility_FAT_entry_read.c ****                                                   media_ptr -> fx_media_memory_buffer, ((ULONG) 1),
 602              		.loc 1 406 9 is_stmt 1 view .LVU230
 407:Middlewares/ST/filex/common/src/fx_utility_FAT_entry_read.c **** 
 603              		.loc 1 407 61 is_stmt 0 view .LVU231
 604 02c6 A368     		ldr	r3, [r4, #8]
 406:Middlewares/ST/filex/common/src/fx_utility_FAT_entry_read.c ****                                                   media_ptr -> fx_media_memory_buffer, ((ULONG) 1),
 605              		.loc 1 406 19 view .LVU232
 606 02c8 0221     		movs	r1, #2
 607 02ca 0291     		str	r1, [sp, #8]
 608 02cc 0121     		movs	r1, #1
 609 02ce 0191     		str	r1, [sp, #4]
 610 02d0 0093     		str	r3, [sp]
 611 02d2 0244     		add	r2, r2, r0
 612              	.LVL66:
 406:Middlewares/ST/filex/common/src/fx_utility_FAT_entry_read.c ****                                                   media_ptr -> fx_media_memory_buffer, ((ULONG) 1),
 613              		.loc 1 406 19 view .LVU233
 614 02d4 0023     		movs	r3, #0
 615 02d6 2046     		mov	r0, r4
 616 02d8 FFF7FEFF 		bl	_fx_utility_logical_sector_read
 617              	.LVL67:
 410:Middlewares/ST/filex/common/src/fx_utility_FAT_entry_read.c ****         {
 618              		.loc 1 410 9 is_stmt 1 view .LVU234
 410:Middlewares/ST/filex/common/src/fx_utility_FAT_entry_read.c ****         {
 619              		.loc 1 410 12 is_stmt 0 view .LVU235
 620 02dc 0028     		cmp	r0, #0
 621 02de 7FF401AF 		bne	.L1
 418:Middlewares/ST/filex/common/src/fx_utility_FAT_entry_read.c **** 
 622              		.loc 1 418 9 is_stmt 1 view .LVU236
 418:Middlewares/ST/filex/common/src/fx_utility_FAT_entry_read.c **** 
 623              		.loc 1 418 39 is_stmt 0 view .LVU237
 624 02e2 A068     		ldr	r0, [r4, #8]
 625              	.LVL68:
 421:Middlewares/ST/filex/common/src/fx_utility_FAT_entry_read.c **** 
 626              		.loc 1 421 9 is_stmt 1 view .LVU238
 421:Middlewares/ST/filex/common/src/fx_utility_FAT_entry_read.c **** 
 627              		.loc 1 421 20 is_stmt 0 view .LVU239
 628 02e4 4844     		add	r0, r0, r9
 629              	.LVL69:
 421:Middlewares/ST/filex/common/src/fx_utility_FAT_entry_read.c **** 
 630              		.loc 1 421 20 view .LVU240
 631 02e6 FFF7FEFF 		bl	_fx_utility_32_unsigned_read
 632              	.LVL70:
 430:Middlewares/ST/filex/common/src/fx_utility_FAT_entry_read.c **** #ifdef FX_ENABLE_EXFAT
 633              		.loc 1 430 13 is_stmt 1 view .LVU241
 430:Middlewares/ST/filex/common/src/fx_utility_FAT_entry_read.c **** #ifdef FX_ENABLE_EXFAT
ARM GAS  C:\Users\HP\AppData\Local\Temp\ccV3tneb.s 			page 23


 634              		.loc 1 430 21 is_stmt 0 view .LVU242
 635 02ea 20F07040 		bic	r0, r0, #-268435456
 636              	.LVL71:
 435:Middlewares/ST/filex/common/src/fx_utility_FAT_entry_read.c ****     }
 637              		.loc 1 435 9 is_stmt 1 view .LVU243
 435:Middlewares/ST/filex/common/src/fx_utility_FAT_entry_read.c ****     }
 638              		.loc 1 435 20 is_stmt 0 view .LVU244
 639 02ee C8F80000 		str	r0, [r8]
 640 02f2 92E7     		b	.L14
 641              		.cfi_endproc
 642              	.LFE8:
 644              		.text
 645              	.Letext0:
 646              		.file 2 "Middlewares/ST/threadx/ports/cortex_m4/gnu/inc/tx_port.h"
 647              		.file 3 "Middlewares/ST/threadx/common/inc/tx_api.h"
 648              		.file 4 "Middlewares/ST/filex/common/inc/fx_api.h"
 649              		.file 5 "Middlewares/ST/filex/common/inc/fx_utility.h"
ARM GAS  C:\Users\HP\AppData\Local\Temp\ccV3tneb.s 			page 24

