ARM GAS  C:\Users\HP\AppData\Local\Temp\ccH8TTuh.s 			page 1


   1              		.cpu cortex-m4
   2              		.arch armv7e-m
   3              		.fpu fpv4-sp-d16
   4              		.eabi_attribute 27, 1
   5              		.eabi_attribute 28, 1
   6              		.eabi_attribute 20, 1
   7              		.eabi_attribute 21, 1
   8              		.eabi_attribute 23, 3
   9              		.eabi_attribute 24, 1
  10              		.eabi_attribute 25, 1
  11              		.eabi_attribute 26, 1
  12              		.eabi_attribute 30, 1
  13              		.eabi_attribute 34, 1
  14              		.eabi_attribute 18, 4
  15              		.file	"fx_utility_64_unsigned_read.c"
  16              		.text
  17              	.Ltext0:
  18              		.cfi_sections	.debug_frame
  19              		.section	.text._fx_utility_64_unsigned_read,"ax",%progbits
  20              		.align	1
  21              		.global	_fx_utility_64_unsigned_read
  22              		.syntax unified
  23              		.thumb
  24              		.thumb_func
  26              	_fx_utility_64_unsigned_read:
  27              	.LVL0:
  28              	.LFB8:
  29              		.file 1 "Middlewares/ST/filex/common/src/fx_utility_64_unsigned_read.c"
   1:Middlewares/ST/filex/common/src/fx_utility_64_unsigned_read.c **** /**************************************************************************/
   2:Middlewares/ST/filex/common/src/fx_utility_64_unsigned_read.c **** /*                                                                        */
   3:Middlewares/ST/filex/common/src/fx_utility_64_unsigned_read.c **** /*       Copyright (c) Microsoft Corporation. All rights reserved.        */
   4:Middlewares/ST/filex/common/src/fx_utility_64_unsigned_read.c **** /*                                                                        */
   5:Middlewares/ST/filex/common/src/fx_utility_64_unsigned_read.c **** /*       This software is licensed under the Microsoft Software License   */
   6:Middlewares/ST/filex/common/src/fx_utility_64_unsigned_read.c **** /*       Terms for Microsoft Azure RTOS. Full text of the license can be  */
   7:Middlewares/ST/filex/common/src/fx_utility_64_unsigned_read.c **** /*       found in the LICENSE file at https://aka.ms/AzureRTOS_EULA       */
   8:Middlewares/ST/filex/common/src/fx_utility_64_unsigned_read.c **** /*       and in the root directory of this software.                      */
   9:Middlewares/ST/filex/common/src/fx_utility_64_unsigned_read.c **** /*                                                                        */
  10:Middlewares/ST/filex/common/src/fx_utility_64_unsigned_read.c **** /**************************************************************************/
  11:Middlewares/ST/filex/common/src/fx_utility_64_unsigned_read.c **** 
  12:Middlewares/ST/filex/common/src/fx_utility_64_unsigned_read.c **** 
  13:Middlewares/ST/filex/common/src/fx_utility_64_unsigned_read.c **** /**************************************************************************/
  14:Middlewares/ST/filex/common/src/fx_utility_64_unsigned_read.c **** /**************************************************************************/
  15:Middlewares/ST/filex/common/src/fx_utility_64_unsigned_read.c **** /**                                                                       */
  16:Middlewares/ST/filex/common/src/fx_utility_64_unsigned_read.c **** /** FileX Component                                                       */
  17:Middlewares/ST/filex/common/src/fx_utility_64_unsigned_read.c **** /**                                                                       */
  18:Middlewares/ST/filex/common/src/fx_utility_64_unsigned_read.c **** /**   Utility                                                             */
  19:Middlewares/ST/filex/common/src/fx_utility_64_unsigned_read.c **** /**                                                                       */
  20:Middlewares/ST/filex/common/src/fx_utility_64_unsigned_read.c **** /**************************************************************************/
  21:Middlewares/ST/filex/common/src/fx_utility_64_unsigned_read.c **** /**************************************************************************/
  22:Middlewares/ST/filex/common/src/fx_utility_64_unsigned_read.c **** 
  23:Middlewares/ST/filex/common/src/fx_utility_64_unsigned_read.c **** #define FX_SOURCE_CODE
  24:Middlewares/ST/filex/common/src/fx_utility_64_unsigned_read.c **** 
  25:Middlewares/ST/filex/common/src/fx_utility_64_unsigned_read.c **** 
  26:Middlewares/ST/filex/common/src/fx_utility_64_unsigned_read.c **** /* Include necessary system files.  */
  27:Middlewares/ST/filex/common/src/fx_utility_64_unsigned_read.c **** 
  28:Middlewares/ST/filex/common/src/fx_utility_64_unsigned_read.c **** #include "fx_api.h"
  29:Middlewares/ST/filex/common/src/fx_utility_64_unsigned_read.c **** #include "fx_system.h"
ARM GAS  C:\Users\HP\AppData\Local\Temp\ccH8TTuh.s 			page 2


  30:Middlewares/ST/filex/common/src/fx_utility_64_unsigned_read.c **** #include "fx_utility.h"
  31:Middlewares/ST/filex/common/src/fx_utility_64_unsigned_read.c **** 
  32:Middlewares/ST/filex/common/src/fx_utility_64_unsigned_read.c **** 
  33:Middlewares/ST/filex/common/src/fx_utility_64_unsigned_read.c **** /**************************************************************************/
  34:Middlewares/ST/filex/common/src/fx_utility_64_unsigned_read.c **** /*                                                                        */
  35:Middlewares/ST/filex/common/src/fx_utility_64_unsigned_read.c **** /*  FUNCTION                                               RELEASE        */
  36:Middlewares/ST/filex/common/src/fx_utility_64_unsigned_read.c **** /*                                                                        */
  37:Middlewares/ST/filex/common/src/fx_utility_64_unsigned_read.c **** /*    _fx_utility_64_unsigned_read                        PORTABLE C      */
  38:Middlewares/ST/filex/common/src/fx_utility_64_unsigned_read.c **** /*                                                           6.1          */
  39:Middlewares/ST/filex/common/src/fx_utility_64_unsigned_read.c **** /*  AUTHOR                                                                */
  40:Middlewares/ST/filex/common/src/fx_utility_64_unsigned_read.c **** /*                                                                        */
  41:Middlewares/ST/filex/common/src/fx_utility_64_unsigned_read.c **** /*    William E. Lamie, Microsoft Corporation                             */
  42:Middlewares/ST/filex/common/src/fx_utility_64_unsigned_read.c **** /*                                                                        */
  43:Middlewares/ST/filex/common/src/fx_utility_64_unsigned_read.c **** /*  DESCRIPTION                                                           */
  44:Middlewares/ST/filex/common/src/fx_utility_64_unsigned_read.c **** /*                                                                        */
  45:Middlewares/ST/filex/common/src/fx_utility_64_unsigned_read.c **** /*    This function reads (with endian awareness) a 64-bit unsigned data  */
  46:Middlewares/ST/filex/common/src/fx_utility_64_unsigned_read.c **** /*    from the specified source and returns the value to the caller.      */
  47:Middlewares/ST/filex/common/src/fx_utility_64_unsigned_read.c **** /*                                                                        */
  48:Middlewares/ST/filex/common/src/fx_utility_64_unsigned_read.c **** /*  INPUT                                                                 */
  49:Middlewares/ST/filex/common/src/fx_utility_64_unsigned_read.c **** /*                                                                        */
  50:Middlewares/ST/filex/common/src/fx_utility_64_unsigned_read.c **** /*    source_ptr                            Source memory pointer         */
  51:Middlewares/ST/filex/common/src/fx_utility_64_unsigned_read.c **** /*                                                                        */
  52:Middlewares/ST/filex/common/src/fx_utility_64_unsigned_read.c **** /*  OUTPUT                                                                */
  53:Middlewares/ST/filex/common/src/fx_utility_64_unsigned_read.c **** /*                                                                        */
  54:Middlewares/ST/filex/common/src/fx_utility_64_unsigned_read.c **** /*    ULONG64 value                                                       */
  55:Middlewares/ST/filex/common/src/fx_utility_64_unsigned_read.c **** /*                                                                        */
  56:Middlewares/ST/filex/common/src/fx_utility_64_unsigned_read.c **** /*  CALLS                                                                 */
  57:Middlewares/ST/filex/common/src/fx_utility_64_unsigned_read.c **** /*                                                                        */
  58:Middlewares/ST/filex/common/src/fx_utility_64_unsigned_read.c **** /*    None                                                                */
  59:Middlewares/ST/filex/common/src/fx_utility_64_unsigned_read.c **** /*                                                                        */
  60:Middlewares/ST/filex/common/src/fx_utility_64_unsigned_read.c **** /*  CALLED BY                                                             */
  61:Middlewares/ST/filex/common/src/fx_utility_64_unsigned_read.c **** /*                                                                        */
  62:Middlewares/ST/filex/common/src/fx_utility_64_unsigned_read.c **** /*    FileX System Functions                                              */
  63:Middlewares/ST/filex/common/src/fx_utility_64_unsigned_read.c **** /*                                                                        */
  64:Middlewares/ST/filex/common/src/fx_utility_64_unsigned_read.c **** /*  RELEASE HISTORY                                                       */
  65:Middlewares/ST/filex/common/src/fx_utility_64_unsigned_read.c **** /*                                                                        */
  66:Middlewares/ST/filex/common/src/fx_utility_64_unsigned_read.c **** /*    DATE              NAME                      DESCRIPTION             */
  67:Middlewares/ST/filex/common/src/fx_utility_64_unsigned_read.c **** /*                                                                        */
  68:Middlewares/ST/filex/common/src/fx_utility_64_unsigned_read.c **** /*  05-19-2020     William E. Lamie         Initial Version 6.0           */
  69:Middlewares/ST/filex/common/src/fx_utility_64_unsigned_read.c **** /*  09-30-2020     William E. Lamie         Modified comment(s),          */
  70:Middlewares/ST/filex/common/src/fx_utility_64_unsigned_read.c **** /*                                            resulting in version 6.1    */
  71:Middlewares/ST/filex/common/src/fx_utility_64_unsigned_read.c **** /*                                                                        */
  72:Middlewares/ST/filex/common/src/fx_utility_64_unsigned_read.c **** /**************************************************************************/
  73:Middlewares/ST/filex/common/src/fx_utility_64_unsigned_read.c **** ULONG64  _fx_utility_64_unsigned_read(UCHAR *source_ptr)
  74:Middlewares/ST/filex/common/src/fx_utility_64_unsigned_read.c **** {
  30              		.loc 1 74 1 view -0
  31              		.cfi_startproc
  32              		@ args = 0, pretend = 0, frame = 0
  33              		@ frame_needed = 0, uses_anonymous_args = 0
  34              		.loc 1 74 1 is_stmt 0 view .LVU1
  35 0000 38B5     		push	{r3, r4, r5, lr}
  36              	.LCFI0:
  37              		.cfi_def_cfa_offset 16
  38              		.cfi_offset 3, -16
  39              		.cfi_offset 4, -12
  40              		.cfi_offset 5, -8
  41              		.cfi_offset 14, -4
ARM GAS  C:\Users\HP\AppData\Local\Temp\ccH8TTuh.s 			page 3


  42 0002 0546     		mov	r5, r0
  75:Middlewares/ST/filex/common/src/fx_utility_64_unsigned_read.c **** 
  76:Middlewares/ST/filex/common/src/fx_utility_64_unsigned_read.c **** ULONG64 value;
  43              		.loc 1 76 1 is_stmt 1 view .LVU2
  77:Middlewares/ST/filex/common/src/fx_utility_64_unsigned_read.c **** ULONG   upper_portion;
  44              		.loc 1 77 1 view .LVU3
  78:Middlewares/ST/filex/common/src/fx_utility_64_unsigned_read.c **** ULONG   lower_portion;
  45              		.loc 1 78 1 view .LVU4
  79:Middlewares/ST/filex/common/src/fx_utility_64_unsigned_read.c **** 
  80:Middlewares/ST/filex/common/src/fx_utility_64_unsigned_read.c **** 
  81:Middlewares/ST/filex/common/src/fx_utility_64_unsigned_read.c ****     lower_portion = _fx_utility_32_unsigned_read(source_ptr);
  46              		.loc 1 81 5 view .LVU5
  47              		.loc 1 81 21 is_stmt 0 view .LVU6
  48 0004 FFF7FEFF 		bl	_fx_utility_32_unsigned_read
  49              	.LVL1:
  50              		.loc 1 81 21 view .LVU7
  51 0008 0446     		mov	r4, r0
  52              	.LVL2:
  82:Middlewares/ST/filex/common/src/fx_utility_64_unsigned_read.c ****     upper_portion = _fx_utility_32_unsigned_read(source_ptr + sizeof(ULONG));
  53              		.loc 1 82 5 is_stmt 1 view .LVU8
  54              		.loc 1 82 21 is_stmt 0 view .LVU9
  55 000a 281D     		adds	r0, r5, #4
  56              	.LVL3:
  57              		.loc 1 82 21 view .LVU10
  58 000c FFF7FEFF 		bl	_fx_utility_32_unsigned_read
  59              	.LVL4:
  60 0010 0146     		mov	r1, r0
  61              	.LVL5:
  83:Middlewares/ST/filex/common/src/fx_utility_64_unsigned_read.c **** 
  84:Middlewares/ST/filex/common/src/fx_utility_64_unsigned_read.c ****     value =  ((ULONG64)upper_portion) << 32;
  62              		.loc 1 84 5 is_stmt 1 view .LVU11
  85:Middlewares/ST/filex/common/src/fx_utility_64_unsigned_read.c ****     value |= (ULONG64)lower_portion;
  63              		.loc 1 85 5 view .LVU12
  86:Middlewares/ST/filex/common/src/fx_utility_64_unsigned_read.c **** 
  87:Middlewares/ST/filex/common/src/fx_utility_64_unsigned_read.c ****     /* Return 64-bit value to caller.  */
  88:Middlewares/ST/filex/common/src/fx_utility_64_unsigned_read.c ****     return(value);
  64              		.loc 1 88 5 view .LVU13
  89:Middlewares/ST/filex/common/src/fx_utility_64_unsigned_read.c **** }
  65              		.loc 1 89 1 is_stmt 0 view .LVU14
  66 0012 2046     		mov	r0, r4
  67              	.LVL6:
  68              		.loc 1 89 1 view .LVU15
  69 0014 38BD     		pop	{r3, r4, r5, pc}
  70              		.loc 1 89 1 view .LVU16
  71              		.cfi_endproc
  72              	.LFE8:
  74              		.text
  75              	.Letext0:
  76              		.file 2 "Middlewares/ST/threadx/ports/cortex_m4/gnu/inc/tx_port.h"
  77              		.file 3 "Middlewares/ST/filex/common/inc/fx_utility.h"
ARM GAS  C:\Users\HP\AppData\Local\Temp\ccH8TTuh.s 			page 4

