ARM GAS  C:\Users\HP\AppData\Local\Temp\ccCYjvw0.s 			page 1


   1              		.cpu cortex-m4
   2              		.arch armv7e-m
   3              		.fpu fpv4-sp-d16
   4              		.eabi_attribute 27, 1
   5              		.eabi_attribute 28, 1
   6              		.eabi_attribute 20, 1
   7              		.eabi_attribute 21, 1
   8              		.eabi_attribute 23, 3
   9              		.eabi_attribute 24, 1
  10              		.eabi_attribute 25, 1
  11              		.eabi_attribute 26, 1
  12              		.eabi_attribute 30, 1
  13              		.eabi_attribute 34, 1
  14              		.eabi_attribute 18, 4
  15              		.file	"fx_unicode_directory_entry_change.c"
  16              		.text
  17              	.Ltext0:
  18              		.cfi_sections	.debug_frame
  19              		.section	.text._fx_unicode_directory_entry_change,"ax",%progbits
  20              		.align	1
  21              		.global	_fx_unicode_directory_entry_change
  22              		.syntax unified
  23              		.thumb
  24              		.thumb_func
  26              	_fx_unicode_directory_entry_change:
  27              	.LVL0:
  28              	.LFB8:
  29              		.file 1 "Middlewares/ST/filex/common/src/fx_unicode_directory_entry_change.c"
   1:Middlewares/ST/filex/common/src/fx_unicode_directory_entry_change.c **** /**************************************************************************/
   2:Middlewares/ST/filex/common/src/fx_unicode_directory_entry_change.c **** /*                                                                        */
   3:Middlewares/ST/filex/common/src/fx_unicode_directory_entry_change.c **** /*       Copyright (c) Microsoft Corporation. All rights reserved.        */
   4:Middlewares/ST/filex/common/src/fx_unicode_directory_entry_change.c **** /*                                                                        */
   5:Middlewares/ST/filex/common/src/fx_unicode_directory_entry_change.c **** /*       This software is licensed under the Microsoft Software License   */
   6:Middlewares/ST/filex/common/src/fx_unicode_directory_entry_change.c **** /*       Terms for Microsoft Azure RTOS. Full text of the license can be  */
   7:Middlewares/ST/filex/common/src/fx_unicode_directory_entry_change.c **** /*       found in the LICENSE file at https://aka.ms/AzureRTOS_EULA       */
   8:Middlewares/ST/filex/common/src/fx_unicode_directory_entry_change.c **** /*       and in the root directory of this software.                      */
   9:Middlewares/ST/filex/common/src/fx_unicode_directory_entry_change.c **** /*                                                                        */
  10:Middlewares/ST/filex/common/src/fx_unicode_directory_entry_change.c **** /**************************************************************************/
  11:Middlewares/ST/filex/common/src/fx_unicode_directory_entry_change.c **** 
  12:Middlewares/ST/filex/common/src/fx_unicode_directory_entry_change.c **** 
  13:Middlewares/ST/filex/common/src/fx_unicode_directory_entry_change.c **** /**************************************************************************/
  14:Middlewares/ST/filex/common/src/fx_unicode_directory_entry_change.c **** /**************************************************************************/
  15:Middlewares/ST/filex/common/src/fx_unicode_directory_entry_change.c **** /**                                                                       */
  16:Middlewares/ST/filex/common/src/fx_unicode_directory_entry_change.c **** /** FileX Component                                                       */
  17:Middlewares/ST/filex/common/src/fx_unicode_directory_entry_change.c **** /**                                                                       */
  18:Middlewares/ST/filex/common/src/fx_unicode_directory_entry_change.c **** /**   Unicode                                                             */
  19:Middlewares/ST/filex/common/src/fx_unicode_directory_entry_change.c **** /**                                                                       */
  20:Middlewares/ST/filex/common/src/fx_unicode_directory_entry_change.c **** /**************************************************************************/
  21:Middlewares/ST/filex/common/src/fx_unicode_directory_entry_change.c **** /**************************************************************************/
  22:Middlewares/ST/filex/common/src/fx_unicode_directory_entry_change.c **** 
  23:Middlewares/ST/filex/common/src/fx_unicode_directory_entry_change.c **** #define FX_SOURCE_CODE
  24:Middlewares/ST/filex/common/src/fx_unicode_directory_entry_change.c **** 
  25:Middlewares/ST/filex/common/src/fx_unicode_directory_entry_change.c **** 
  26:Middlewares/ST/filex/common/src/fx_unicode_directory_entry_change.c **** /* Include necessary system files.  */
  27:Middlewares/ST/filex/common/src/fx_unicode_directory_entry_change.c **** 
  28:Middlewares/ST/filex/common/src/fx_unicode_directory_entry_change.c **** #include "fx_api.h"
  29:Middlewares/ST/filex/common/src/fx_unicode_directory_entry_change.c **** #include "fx_unicode.h"
ARM GAS  C:\Users\HP\AppData\Local\Temp\ccCYjvw0.s 			page 2


  30:Middlewares/ST/filex/common/src/fx_unicode_directory_entry_change.c **** #include "fx_utility.h"
  31:Middlewares/ST/filex/common/src/fx_unicode_directory_entry_change.c **** #ifdef FX_ENABLE_FAULT_TOLERANT
  32:Middlewares/ST/filex/common/src/fx_unicode_directory_entry_change.c **** #include "fx_fault_tolerant.h"
  33:Middlewares/ST/filex/common/src/fx_unicode_directory_entry_change.c **** #endif /* FX_ENABLE_FAULT_TOLERANT */
  34:Middlewares/ST/filex/common/src/fx_unicode_directory_entry_change.c **** 
  35:Middlewares/ST/filex/common/src/fx_unicode_directory_entry_change.c **** 
  36:Middlewares/ST/filex/common/src/fx_unicode_directory_entry_change.c **** /**************************************************************************/
  37:Middlewares/ST/filex/common/src/fx_unicode_directory_entry_change.c **** /*                                                                        */
  38:Middlewares/ST/filex/common/src/fx_unicode_directory_entry_change.c **** /*  FUNCTION                                               RELEASE        */
  39:Middlewares/ST/filex/common/src/fx_unicode_directory_entry_change.c **** /*                                                                        */
  40:Middlewares/ST/filex/common/src/fx_unicode_directory_entry_change.c **** /*    _fx_unicode_directory_entry_change                  PORTABLE C      */
  41:Middlewares/ST/filex/common/src/fx_unicode_directory_entry_change.c **** /*                                                           6.1          */
  42:Middlewares/ST/filex/common/src/fx_unicode_directory_entry_change.c **** /*  AUTHOR                                                                */
  43:Middlewares/ST/filex/common/src/fx_unicode_directory_entry_change.c **** /*                                                                        */
  44:Middlewares/ST/filex/common/src/fx_unicode_directory_entry_change.c **** /*    William E. Lamie, Microsoft Corporation                             */
  45:Middlewares/ST/filex/common/src/fx_unicode_directory_entry_change.c **** /*                                                                        */
  46:Middlewares/ST/filex/common/src/fx_unicode_directory_entry_change.c **** /*  DESCRIPTION                                                           */
  47:Middlewares/ST/filex/common/src/fx_unicode_directory_entry_change.c **** /*                                                                        */
  48:Middlewares/ST/filex/common/src/fx_unicode_directory_entry_change.c **** /*    This function changes the unicode name of a directory entry.        */
  49:Middlewares/ST/filex/common/src/fx_unicode_directory_entry_change.c **** /*                                                                        */
  50:Middlewares/ST/filex/common/src/fx_unicode_directory_entry_change.c **** /*  INPUT                                                                 */
  51:Middlewares/ST/filex/common/src/fx_unicode_directory_entry_change.c **** /*                                                                        */
  52:Middlewares/ST/filex/common/src/fx_unicode_directory_entry_change.c **** /*    media_ptr                             Pointer to media              */
  53:Middlewares/ST/filex/common/src/fx_unicode_directory_entry_change.c **** /*    entry_ptr                             Directory entry               */
  54:Middlewares/ST/filex/common/src/fx_unicode_directory_entry_change.c **** /*    unicode_name                          Destination unicode name      */
  55:Middlewares/ST/filex/common/src/fx_unicode_directory_entry_change.c **** /*    unicode_name_length                   Unicode name size             */
  56:Middlewares/ST/filex/common/src/fx_unicode_directory_entry_change.c **** /*                                                                        */
  57:Middlewares/ST/filex/common/src/fx_unicode_directory_entry_change.c **** /*  OUTPUT                                                                */
  58:Middlewares/ST/filex/common/src/fx_unicode_directory_entry_change.c **** /*                                                                        */
  59:Middlewares/ST/filex/common/src/fx_unicode_directory_entry_change.c **** /*    Completion Status                                                   */
  60:Middlewares/ST/filex/common/src/fx_unicode_directory_entry_change.c **** /*                                                                        */
  61:Middlewares/ST/filex/common/src/fx_unicode_directory_entry_change.c **** /*  CALLS                                                                 */
  62:Middlewares/ST/filex/common/src/fx_unicode_directory_entry_change.c **** /*                                                                        */
  63:Middlewares/ST/filex/common/src/fx_unicode_directory_entry_change.c **** /*    _fx_utility_FAT_entry_read            Read a FAT entry              */
  64:Middlewares/ST/filex/common/src/fx_unicode_directory_entry_change.c **** /*    _fx_utility_logical_sector_read       Read a logical sector         */
  65:Middlewares/ST/filex/common/src/fx_unicode_directory_entry_change.c **** /*    _fx_utility_logical_sector_write      Write a logical sector        */
  66:Middlewares/ST/filex/common/src/fx_unicode_directory_entry_change.c **** /*    _fx_fault_tolerant_add_dir_log        Add directory redo log        */
  67:Middlewares/ST/filex/common/src/fx_unicode_directory_entry_change.c **** /*                                                                        */
  68:Middlewares/ST/filex/common/src/fx_unicode_directory_entry_change.c **** /*  CALLED BY                                                             */
  69:Middlewares/ST/filex/common/src/fx_unicode_directory_entry_change.c **** /*                                                                        */
  70:Middlewares/ST/filex/common/src/fx_unicode_directory_entry_change.c **** /*    Unicode Utilities                                                   */
  71:Middlewares/ST/filex/common/src/fx_unicode_directory_entry_change.c **** /*                                                                        */
  72:Middlewares/ST/filex/common/src/fx_unicode_directory_entry_change.c **** /*  RELEASE HISTORY                                                       */
  73:Middlewares/ST/filex/common/src/fx_unicode_directory_entry_change.c **** /*                                                                        */
  74:Middlewares/ST/filex/common/src/fx_unicode_directory_entry_change.c **** /*    DATE              NAME                      DESCRIPTION             */
  75:Middlewares/ST/filex/common/src/fx_unicode_directory_entry_change.c **** /*                                                                        */
  76:Middlewares/ST/filex/common/src/fx_unicode_directory_entry_change.c **** /*  05-19-2020     William E. Lamie         Initial Version 6.0           */
  77:Middlewares/ST/filex/common/src/fx_unicode_directory_entry_change.c **** /*  09-30-2020     William E. Lamie         Modified comment(s),          */
  78:Middlewares/ST/filex/common/src/fx_unicode_directory_entry_change.c **** /*                                            resulting in version 6.1    */
  79:Middlewares/ST/filex/common/src/fx_unicode_directory_entry_change.c **** /*                                                                        */
  80:Middlewares/ST/filex/common/src/fx_unicode_directory_entry_change.c **** /**************************************************************************/
  81:Middlewares/ST/filex/common/src/fx_unicode_directory_entry_change.c **** UINT  _fx_unicode_directory_entry_change(FX_MEDIA *media_ptr, FX_DIR_ENTRY *entry_ptr, UCHAR *unico
  82:Middlewares/ST/filex/common/src/fx_unicode_directory_entry_change.c **** {
  30              		.loc 1 82 1 view -0
  31              		.cfi_startproc
  32              		@ args = 0, pretend = 0, frame = 32
  33              		@ frame_needed = 0, uses_anonymous_args = 0
ARM GAS  C:\Users\HP\AppData\Local\Temp\ccCYjvw0.s 			page 3


  34              		.loc 1 82 1 is_stmt 0 view .LVU1
  35 0000 2DE9F04F 		push	{r4, r5, r6, r7, r8, r9, r10, fp, lr}
  36              	.LCFI0:
  37              		.cfi_def_cfa_offset 36
  38              		.cfi_offset 4, -36
  39              		.cfi_offset 5, -32
  40              		.cfi_offset 6, -28
  41              		.cfi_offset 7, -24
  42              		.cfi_offset 8, -20
  43              		.cfi_offset 9, -16
  44              		.cfi_offset 10, -12
  45              		.cfi_offset 11, -8
  46              		.cfi_offset 14, -4
  47 0004 8DB0     		sub	sp, sp, #52
  48              	.LCFI1:
  49              		.cfi_def_cfa_offset 88
  50 0006 0546     		mov	r5, r0
  51 0008 0F46     		mov	r7, r1
  52 000a 9246     		mov	r10, r2
  53 000c 1C46     		mov	r4, r3
  83:Middlewares/ST/filex/common/src/fx_unicode_directory_entry_change.c **** 
  84:Middlewares/ST/filex/common/src/fx_unicode_directory_entry_change.c **** UCHAR *work_ptr, *sector_base_ptr;
  54              		.loc 1 84 1 is_stmt 1 view .LVU2
  85:Middlewares/ST/filex/common/src/fx_unicode_directory_entry_change.c **** UINT   status;
  55              		.loc 1 85 1 view .LVU3
  86:Middlewares/ST/filex/common/src/fx_unicode_directory_entry_change.c **** UINT   i, j, k, u, card, lfn_entries;
  56              		.loc 1 86 1 view .LVU4
  87:Middlewares/ST/filex/common/src/fx_unicode_directory_entry_change.c **** UCHAR  eof_marker;
  57              		.loc 1 87 1 view .LVU5
  88:Middlewares/ST/filex/common/src/fx_unicode_directory_entry_change.c **** ULONG  logical_sector, relative_sector;
  58              		.loc 1 88 1 view .LVU6
  89:Middlewares/ST/filex/common/src/fx_unicode_directory_entry_change.c **** ULONG  byte_offset;
  59              		.loc 1 89 1 view .LVU7
  90:Middlewares/ST/filex/common/src/fx_unicode_directory_entry_change.c **** ULONG  cluster, next_cluster;
  60              		.loc 1 90 1 view .LVU8
  91:Middlewares/ST/filex/common/src/fx_unicode_directory_entry_change.c **** 
  92:Middlewares/ST/filex/common/src/fx_unicode_directory_entry_change.c **** #ifdef FX_ENABLE_FAULT_TOLERANT
  93:Middlewares/ST/filex/common/src/fx_unicode_directory_entry_change.c **** UCHAR *changed_ptr;
  94:Middlewares/ST/filex/common/src/fx_unicode_directory_entry_change.c **** UINT   changed_size;
  95:Middlewares/ST/filex/common/src/fx_unicode_directory_entry_change.c **** ULONG  changed_offset;
  96:Middlewares/ST/filex/common/src/fx_unicode_directory_entry_change.c **** #endif /* FX_ENABLE_FAULT_TOLERANT */
  97:Middlewares/ST/filex/common/src/fx_unicode_directory_entry_change.c **** 
  98:Middlewares/ST/filex/common/src/fx_unicode_directory_entry_change.c **** 
  99:Middlewares/ST/filex/common/src/fx_unicode_directory_entry_change.c **** #ifndef FX_MEDIA_STATISTICS_DISABLE
 100:Middlewares/ST/filex/common/src/fx_unicode_directory_entry_change.c **** 
 101:Middlewares/ST/filex/common/src/fx_unicode_directory_entry_change.c ****     /* Increment the number of directory entry write requests.  */
 102:Middlewares/ST/filex/common/src/fx_unicode_directory_entry_change.c ****     media_ptr -> fx_media_directory_entry_writes++;
  61              		.loc 1 102 5 view .LVU9
  62              		.loc 1 102 15 is_stmt 0 view .LVU10
  63 000e D0F86C31 		ldr	r3, [r0, #364]
  64              	.LVL1:
  65              		.loc 1 102 49 view .LVU11
  66 0012 0133     		adds	r3, r3, #1
  67 0014 C0F86C31 		str	r3, [r0, #364]
 103:Middlewares/ST/filex/common/src/fx_unicode_directory_entry_change.c **** #endif
 104:Middlewares/ST/filex/common/src/fx_unicode_directory_entry_change.c **** 
 105:Middlewares/ST/filex/common/src/fx_unicode_directory_entry_change.c ****     /* Pickup the byte offset of the entry.  */
ARM GAS  C:\Users\HP\AppData\Local\Temp\ccCYjvw0.s 			page 4


 106:Middlewares/ST/filex/common/src/fx_unicode_directory_entry_change.c ****     byte_offset = entry_ptr -> fx_dir_entry_byte_offset;
  68              		.loc 1 106 5 is_stmt 1 view .LVU12
  69              		.loc 1 106 17 is_stmt 0 view .LVU13
  70 0018 8B6C     		ldr	r3, [r1, #72]
  71 001a 0993     		str	r3, [sp, #36]
  72              	.LVL2:
 107:Middlewares/ST/filex/common/src/fx_unicode_directory_entry_change.c **** 
 108:Middlewares/ST/filex/common/src/fx_unicode_directory_entry_change.c ****     /* Pickup the logical sector of the entry.  */
 109:Middlewares/ST/filex/common/src/fx_unicode_directory_entry_change.c ****     logical_sector = (ULONG)entry_ptr -> fx_dir_entry_log_sector;
  73              		.loc 1 109 5 is_stmt 1 view .LVU14
  74              		.loc 1 109 39 is_stmt 0 view .LVU15
  75 001c 0A6C     		ldr	r2, [r1, #64]
  76              	.LVL3:
  77              		.loc 1 109 39 view .LVU16
  78 001e 4B6C     		ldr	r3, [r1, #68]
  79              	.LVL4:
  80              		.loc 1 109 20 view .LVU17
  81 0020 9346     		mov	fp, r2
  82              	.LVL5:
 110:Middlewares/ST/filex/common/src/fx_unicode_directory_entry_change.c **** 
 111:Middlewares/ST/filex/common/src/fx_unicode_directory_entry_change.c ****     /* Figure out where what cluster we are in.  */
 112:Middlewares/ST/filex/common/src/fx_unicode_directory_entry_change.c ****     if (logical_sector >= (ULONG)(media_ptr -> fx_media_data_sector_start))
  83              		.loc 1 112 5 is_stmt 1 view .LVU18
  84              		.loc 1 112 45 is_stmt 0 view .LVU19
  85 0022 016D     		ldr	r1, [r0, #80]
  86              	.LVL6:
  87              		.loc 1 112 8 view .LVU20
  88 0024 9142     		cmp	r1, r2
  89 0026 27D8     		bhi	.L17
 113:Middlewares/ST/filex/common/src/fx_unicode_directory_entry_change.c ****     {
 114:Middlewares/ST/filex/common/src/fx_unicode_directory_entry_change.c **** 
 115:Middlewares/ST/filex/common/src/fx_unicode_directory_entry_change.c ****         /* Calculate the cluster that this logical sector is in.  */
 116:Middlewares/ST/filex/common/src/fx_unicode_directory_entry_change.c ****         cluster =  (logical_sector - media_ptr -> fx_media_data_sector_start) / (media_ptr -> fx_me
  90              		.loc 1 116 9 is_stmt 1 view .LVU21
  91              		.loc 1 116 36 is_stmt 0 view .LVU22
  92 0028 501A     		subs	r0, r2, r1
  93              	.LVL7:
  94              		.loc 1 116 92 view .LVU23
  95 002a D5F854C0 		ldr	ip, [r5, #84]
  96              		.loc 1 116 79 view .LVU24
  97 002e B0FBFCF0 		udiv	r0, r0, ip
  98              		.loc 1 116 17 view .LVU25
  99 0032 861C     		adds	r6, r0, #2
 100 0034 0896     		str	r6, [sp, #32]
 101              	.LVL8:
 117:Middlewares/ST/filex/common/src/fx_unicode_directory_entry_change.c **** 
 118:Middlewares/ST/filex/common/src/fx_unicode_directory_entry_change.c ****         /* Calculate the relative cluster.  */
 119:Middlewares/ST/filex/common/src/fx_unicode_directory_entry_change.c ****         relative_sector =  logical_sector -  (((ULONG)media_ptr -> fx_media_data_sector_start) +
 102              		.loc 1 119 9 is_stmt 1 view .LVU26
 103              		.loc 1 119 96 is_stmt 0 view .LVU27
 104 0036 00FB0C11 		mla	r1, r0, ip, r1
 105              		.loc 1 119 25 view .LVU28
 106 003a 511A     		subs	r1, r2, r1
 107 003c 0791     		str	r1, [sp, #28]
 108              	.LVL9:
 109              	.L2:
 120:Middlewares/ST/filex/common/src/fx_unicode_directory_entry_change.c ****                                               (((ULONG)cluster - FX_FAT_ENTRY_START) *
ARM GAS  C:\Users\HP\AppData\Local\Temp\ccCYjvw0.s 			page 5


 121:Middlewares/ST/filex/common/src/fx_unicode_directory_entry_change.c ****                                                ((ULONG)media_ptr -> fx_media_sectors_per_cluster)))
 122:Middlewares/ST/filex/common/src/fx_unicode_directory_entry_change.c ****     }
 123:Middlewares/ST/filex/common/src/fx_unicode_directory_entry_change.c ****     else
 124:Middlewares/ST/filex/common/src/fx_unicode_directory_entry_change.c ****     {
 125:Middlewares/ST/filex/common/src/fx_unicode_directory_entry_change.c **** 
 126:Middlewares/ST/filex/common/src/fx_unicode_directory_entry_change.c ****         /* Clear the cluster and the relative sector.  */
 127:Middlewares/ST/filex/common/src/fx_unicode_directory_entry_change.c ****         cluster =  0;
 128:Middlewares/ST/filex/common/src/fx_unicode_directory_entry_change.c ****         relative_sector =  0;
 129:Middlewares/ST/filex/common/src/fx_unicode_directory_entry_change.c ****     }
 130:Middlewares/ST/filex/common/src/fx_unicode_directory_entry_change.c **** 
 131:Middlewares/ST/filex/common/src/fx_unicode_directory_entry_change.c ****     /* Read the logical directory sector.  */
 132:Middlewares/ST/filex/common/src/fx_unicode_directory_entry_change.c ****     status =  _fx_utility_logical_sector_read(media_ptr, (ULONG64) entry_ptr -> fx_dir_entry_log_se
 110              		.loc 1 132 5 is_stmt 1 view .LVU29
 133:Middlewares/ST/filex/common/src/fx_unicode_directory_entry_change.c ****                                               media_ptr -> fx_media_memory_buffer, ((ULONG) 1), FX_
 111              		.loc 1 133 57 is_stmt 0 view .LVU30
 112 003e A968     		ldr	r1, [r5, #8]
 132:Middlewares/ST/filex/common/src/fx_unicode_directory_entry_change.c ****                                               media_ptr -> fx_media_memory_buffer, ((ULONG) 1), FX_
 113              		.loc 1 132 15 view .LVU31
 114 0040 0320     		movs	r0, #3
 115 0042 0290     		str	r0, [sp, #8]
 116              	.LVL10:
 132:Middlewares/ST/filex/common/src/fx_unicode_directory_entry_change.c ****                                               media_ptr -> fx_media_memory_buffer, ((ULONG) 1), FX_
 117              		.loc 1 132 15 view .LVU32
 118 0044 0120     		movs	r0, #1
 119 0046 0190     		str	r0, [sp, #4]
 120 0048 0091     		str	r1, [sp]
 121 004a 2846     		mov	r0, r5
 122 004c FFF7FEFF 		bl	_fx_utility_logical_sector_read
 123              	.LVL11:
 134:Middlewares/ST/filex/common/src/fx_unicode_directory_entry_change.c **** 
 135:Middlewares/ST/filex/common/src/fx_unicode_directory_entry_change.c ****     /* Determine if an error occurred.  */
 136:Middlewares/ST/filex/common/src/fx_unicode_directory_entry_change.c ****     if (status != FX_SUCCESS)
 124              		.loc 1 136 5 is_stmt 1 view .LVU33
 125              		.loc 1 136 8 is_stmt 0 view .LVU34
 126 0050 8146     		mov	r9, r0
 127 0052 0028     		cmp	r0, #0
 128 0054 40F0A180 		bne	.L1
 137:Middlewares/ST/filex/common/src/fx_unicode_directory_entry_change.c ****     {
 138:Middlewares/ST/filex/common/src/fx_unicode_directory_entry_change.c **** 
 139:Middlewares/ST/filex/common/src/fx_unicode_directory_entry_change.c ****         /* Return the error status.  */
 140:Middlewares/ST/filex/common/src/fx_unicode_directory_entry_change.c ****         return(status);
 141:Middlewares/ST/filex/common/src/fx_unicode_directory_entry_change.c ****     }
 142:Middlewares/ST/filex/common/src/fx_unicode_directory_entry_change.c **** 
 143:Middlewares/ST/filex/common/src/fx_unicode_directory_entry_change.c ****     /* Setup a pointer into the buffer.  */
 144:Middlewares/ST/filex/common/src/fx_unicode_directory_entry_change.c ****     sector_base_ptr = (UCHAR *)media_ptr -> fx_media_memory_buffer;
 129              		.loc 1 144 5 is_stmt 1 view .LVU35
 130              		.loc 1 144 21 is_stmt 0 view .LVU36
 131 0058 AA68     		ldr	r2, [r5, #8]
 132 005a 0692     		str	r2, [sp, #24]
 133              	.LVL12:
 145:Middlewares/ST/filex/common/src/fx_unicode_directory_entry_change.c ****     work_ptr =  sector_base_ptr + (UINT)entry_ptr -> fx_dir_entry_byte_offset;
 134              		.loc 1 145 5 is_stmt 1 view .LVU37
 135              		.loc 1 145 51 is_stmt 0 view .LVU38
 136 005c BB6C     		ldr	r3, [r7, #72]
 137              		.loc 1 145 14 view .LVU39
 138 005e D018     		adds	r0, r2, r3
 139              	.LVL13:
ARM GAS  C:\Users\HP\AppData\Local\Temp\ccCYjvw0.s 			page 6


 146:Middlewares/ST/filex/common/src/fx_unicode_directory_entry_change.c **** 
 147:Middlewares/ST/filex/common/src/fx_unicode_directory_entry_change.c ****     /* Initialize the unicode index.  */
 148:Middlewares/ST/filex/common/src/fx_unicode_directory_entry_change.c ****     u =  0;
 140              		.loc 1 148 5 is_stmt 1 view .LVU40
 149:Middlewares/ST/filex/common/src/fx_unicode_directory_entry_change.c **** 
 150:Middlewares/ST/filex/common/src/fx_unicode_directory_entry_change.c **** #ifdef FX_ENABLE_FAULT_TOLERANT
 151:Middlewares/ST/filex/common/src/fx_unicode_directory_entry_change.c ****     /* Initialize data for fault tolerant. */
 152:Middlewares/ST/filex/common/src/fx_unicode_directory_entry_change.c ****     changed_ptr = work_ptr;
 153:Middlewares/ST/filex/common/src/fx_unicode_directory_entry_change.c ****     changed_size = 0;
 154:Middlewares/ST/filex/common/src/fx_unicode_directory_entry_change.c ****     changed_offset = entry_ptr -> fx_dir_entry_byte_offset;
 155:Middlewares/ST/filex/common/src/fx_unicode_directory_entry_change.c **** #endif /* FX_ENABLE_FAULT_TOLERANT */
 156:Middlewares/ST/filex/common/src/fx_unicode_directory_entry_change.c **** 
 157:Middlewares/ST/filex/common/src/fx_unicode_directory_entry_change.c ****     /* Check for a valid long name.  */
 158:Middlewares/ST/filex/common/src/fx_unicode_directory_entry_change.c ****     if ((0x40 & (*work_ptr)))
 141              		.loc 1 158 5 view .LVU41
 142              		.loc 1 158 18 is_stmt 0 view .LVU42
 143 0060 D35C     		ldrb	r3, [r2, r3]	@ zero_extendqisi2
 144              		.loc 1 158 8 view .LVU43
 145 0062 13F0400F 		tst	r3, #64
 146 0066 00F09380 		beq	.L4
 159:Middlewares/ST/filex/common/src/fx_unicode_directory_entry_change.c ****     {
 160:Middlewares/ST/filex/common/src/fx_unicode_directory_entry_change.c **** 
 161:Middlewares/ST/filex/common/src/fx_unicode_directory_entry_change.c ****         /* Get the lower 5 bit containing the cardinality.  */
 162:Middlewares/ST/filex/common/src/fx_unicode_directory_entry_change.c ****         card = (*work_ptr & (UCHAR)0x1f);
 147              		.loc 1 162 9 is_stmt 1 view .LVU44
 148              		.loc 1 162 14 is_stmt 0 view .LVU45
 149 006a 03F01F03 		and	r3, r3, #31
 150 006e 0593     		str	r3, [sp, #20]
 151              	.LVL14:
 163:Middlewares/ST/filex/common/src/fx_unicode_directory_entry_change.c ****         lfn_entries =  card;
 152              		.loc 1 163 9 is_stmt 1 view .LVU46
 164:Middlewares/ST/filex/common/src/fx_unicode_directory_entry_change.c **** 
 165:Middlewares/ST/filex/common/src/fx_unicode_directory_entry_change.c ****         /* Loop through the file name.  */
 166:Middlewares/ST/filex/common/src/fx_unicode_directory_entry_change.c ****         for (j = 0; j < lfn_entries; j++)
 153              		.loc 1 166 9 view .LVU47
 162:Middlewares/ST/filex/common/src/fx_unicode_directory_entry_change.c ****         lfn_entries =  card;
 154              		.loc 1 162 14 is_stmt 0 view .LVU48
 155 0070 1F46     		mov	r7, r3
 156              	.LVL15:
 157              		.loc 1 166 16 view .LVU49
 158 0072 C846     		mov	r8, r9
 159 0074 099E     		ldr	r6, [sp, #36]
 160              		.loc 1 166 9 view .LVU50
 161 0076 3CE0     		b	.L5
 162              	.LVL16:
 163              	.L17:
 127:Middlewares/ST/filex/common/src/fx_unicode_directory_entry_change.c ****         relative_sector =  0;
 164              		.loc 1 127 17 view .LVU51
 165 0078 0021     		movs	r1, #0
 166 007a 0891     		str	r1, [sp, #32]
 128:Middlewares/ST/filex/common/src/fx_unicode_directory_entry_change.c ****     }
 167              		.loc 1 128 25 view .LVU52
 168 007c 0791     		str	r1, [sp, #28]
 169 007e DEE7     		b	.L2
 170              	.LVL17:
 171              	.L8:
 167:Middlewares/ST/filex/common/src/fx_unicode_directory_entry_change.c ****         {
ARM GAS  C:\Users\HP\AppData\Local\Temp\ccCYjvw0.s 			page 7


 168:Middlewares/ST/filex/common/src/fx_unicode_directory_entry_change.c **** 
 169:Middlewares/ST/filex/common/src/fx_unicode_directory_entry_change.c ****             /* Clear the eof marker.  */
 170:Middlewares/ST/filex/common/src/fx_unicode_directory_entry_change.c ****             eof_marker =  0;
 171:Middlewares/ST/filex/common/src/fx_unicode_directory_entry_change.c **** 
 172:Middlewares/ST/filex/common/src/fx_unicode_directory_entry_change.c ****             /* Loop through file name fields.  */
 173:Middlewares/ST/filex/common/src/fx_unicode_directory_entry_change.c ****             for (i = 1, k = (26 * (card - 1)) & 0xFFFFFFFF; i < FX_DIR_ENTRY_SIZE; i += 2)
 174:Middlewares/ST/filex/common/src/fx_unicode_directory_entry_change.c ****             {
 175:Middlewares/ST/filex/common/src/fx_unicode_directory_entry_change.c **** 
 176:Middlewares/ST/filex/common/src/fx_unicode_directory_entry_change.c ****                 /* Process relative to specific fields.  */
 177:Middlewares/ST/filex/common/src/fx_unicode_directory_entry_change.c ****                 if ((i == 11) || (i == 26))
 178:Middlewares/ST/filex/common/src/fx_unicode_directory_entry_change.c ****                 {
 179:Middlewares/ST/filex/common/src/fx_unicode_directory_entry_change.c ****                     continue;
 180:Middlewares/ST/filex/common/src/fx_unicode_directory_entry_change.c ****                 }
 181:Middlewares/ST/filex/common/src/fx_unicode_directory_entry_change.c **** 
 182:Middlewares/ST/filex/common/src/fx_unicode_directory_entry_change.c ****                 if (i == 13)
 183:Middlewares/ST/filex/common/src/fx_unicode_directory_entry_change.c ****                 {
 184:Middlewares/ST/filex/common/src/fx_unicode_directory_entry_change.c ****                     i = 12;
 185:Middlewares/ST/filex/common/src/fx_unicode_directory_entry_change.c ****                     continue;
 186:Middlewares/ST/filex/common/src/fx_unicode_directory_entry_change.c ****                 }
 187:Middlewares/ST/filex/common/src/fx_unicode_directory_entry_change.c **** 
 188:Middlewares/ST/filex/common/src/fx_unicode_directory_entry_change.c ****                 /* Determine if the EOF marker is present.  */
 189:Middlewares/ST/filex/common/src/fx_unicode_directory_entry_change.c ****                 if (eof_marker)
 190:Middlewares/ST/filex/common/src/fx_unicode_directory_entry_change.c ****                 {
 191:Middlewares/ST/filex/common/src/fx_unicode_directory_entry_change.c **** 
 192:Middlewares/ST/filex/common/src/fx_unicode_directory_entry_change.c ****                     work_ptr[i] = eof_marker;
 193:Middlewares/ST/filex/common/src/fx_unicode_directory_entry_change.c ****                     work_ptr[i + 1] = eof_marker;
 194:Middlewares/ST/filex/common/src/fx_unicode_directory_entry_change.c ****                 }
 195:Middlewares/ST/filex/common/src/fx_unicode_directory_entry_change.c ****                 else if (k < (unicode_name_length * 2))
 172              		.loc 1 195 22 is_stmt 1 view .LVU53
 173              		.loc 1 195 51 is_stmt 0 view .LVU54
 174 0080 4FEA440C 		lsl	ip, r4, #1
 175              		.loc 1 195 25 view .LVU55
 176 0084 B2EB440F 		cmp	r2, r4, lsl #1
 177 0088 1FD2     		bcs	.L10
 196:Middlewares/ST/filex/common/src/fx_unicode_directory_entry_change.c ****                 {
 197:Middlewares/ST/filex/common/src/fx_unicode_directory_entry_change.c **** 
 198:Middlewares/ST/filex/common/src/fx_unicode_directory_entry_change.c ****                     work_ptr[i] = unicode_name[k];
 178              		.loc 1 198 21 is_stmt 1 view .LVU56
 179              		.loc 1 198 47 is_stmt 0 view .LVU57
 180 008a 1AF802C0 		ldrb	ip, [r10, r2]	@ zero_extendqisi2
 181              		.loc 1 198 33 view .LVU58
 182 008e 00F803C0 		strb	ip, [r0, r3]
 199:Middlewares/ST/filex/common/src/fx_unicode_directory_entry_change.c ****                     work_ptr[i + 1] = unicode_name[k + 1];
 183              		.loc 1 199 21 is_stmt 1 view .LVU59
 184              		.loc 1 199 29 is_stmt 0 view .LVU60
 185 0092 03F1010C 		add	ip, r3, #1
 186              		.loc 1 199 51 view .LVU61
 187 0096 0AEB020E 		add	lr, r10, r2
 188 009a 9EF801E0 		ldrb	lr, [lr, #1]	@ zero_extendqisi2
 189              		.loc 1 199 37 view .LVU62
 190 009e 00F80CE0 		strb	lr, [r0, ip]
 200:Middlewares/ST/filex/common/src/fx_unicode_directory_entry_change.c ****                     u =  u + 2;
 191              		.loc 1 200 21 is_stmt 1 view .LVU63
 192              		.loc 1 200 23 is_stmt 0 view .LVU64
 193 00a2 09F10209 		add	r9, r9, #2
 194              	.LVL18:
 195              	.L9:
ARM GAS  C:\Users\HP\AppData\Local\Temp\ccCYjvw0.s 			page 8


 201:Middlewares/ST/filex/common/src/fx_unicode_directory_entry_change.c ****                 }
 202:Middlewares/ST/filex/common/src/fx_unicode_directory_entry_change.c ****                 else if (k == (unicode_name_length * 2))
 203:Middlewares/ST/filex/common/src/fx_unicode_directory_entry_change.c ****                 {
 204:Middlewares/ST/filex/common/src/fx_unicode_directory_entry_change.c **** 
 205:Middlewares/ST/filex/common/src/fx_unicode_directory_entry_change.c ****                     work_ptr[i] = 0;
 206:Middlewares/ST/filex/common/src/fx_unicode_directory_entry_change.c ****                     work_ptr[i + 1] =  0;
 207:Middlewares/ST/filex/common/src/fx_unicode_directory_entry_change.c **** 
 208:Middlewares/ST/filex/common/src/fx_unicode_directory_entry_change.c ****                     /* end of name, pad with 0xff.  */
 209:Middlewares/ST/filex/common/src/fx_unicode_directory_entry_change.c ****                     eof_marker =  (UCHAR)0xff;
 210:Middlewares/ST/filex/common/src/fx_unicode_directory_entry_change.c ****                 }
 211:Middlewares/ST/filex/common/src/fx_unicode_directory_entry_change.c **** 
 212:Middlewares/ST/filex/common/src/fx_unicode_directory_entry_change.c ****                 k =  k + 2;
 196              		.loc 1 212 17 is_stmt 1 view .LVU65
 197              		.loc 1 212 19 is_stmt 0 view .LVU66
 198 00a6 0232     		adds	r2, r2, #2
 199              	.LVL19:
 200              	.L7:
 173:Middlewares/ST/filex/common/src/fx_unicode_directory_entry_change.c ****             {
 201              		.loc 1 173 84 is_stmt 1 discriminator 2 view .LVU67
 173:Middlewares/ST/filex/common/src/fx_unicode_directory_entry_change.c ****             {
 202              		.loc 1 173 86 is_stmt 0 discriminator 2 view .LVU68
 203 00a8 0233     		adds	r3, r3, #2
 204              	.LVL20:
 205              	.L6:
 173:Middlewares/ST/filex/common/src/fx_unicode_directory_entry_change.c ****             {
 206              		.loc 1 173 61 is_stmt 1 discriminator 1 view .LVU69
 173:Middlewares/ST/filex/common/src/fx_unicode_directory_entry_change.c ****             {
 207              		.loc 1 173 13 is_stmt 0 discriminator 1 view .LVU70
 208 00aa 1F2B     		cmp	r3, #31
 209 00ac 19D8     		bhi	.L26
 177:Middlewares/ST/filex/common/src/fx_unicode_directory_entry_change.c ****                 {
 210              		.loc 1 177 17 is_stmt 1 view .LVU71
 177:Middlewares/ST/filex/common/src/fx_unicode_directory_entry_change.c ****                 {
 211              		.loc 1 177 20 is_stmt 0 view .LVU72
 212 00ae 0B2B     		cmp	r3, #11
 213 00b0 FAD0     		beq	.L7
 177:Middlewares/ST/filex/common/src/fx_unicode_directory_entry_change.c ****                 {
 214              		.loc 1 177 31 discriminator 1 view .LVU73
 215 00b2 1A2B     		cmp	r3, #26
 216 00b4 F8D0     		beq	.L7
 182:Middlewares/ST/filex/common/src/fx_unicode_directory_entry_change.c ****                 {
 217              		.loc 1 182 17 is_stmt 1 view .LVU74
 182:Middlewares/ST/filex/common/src/fx_unicode_directory_entry_change.c ****                 {
 218              		.loc 1 182 20 is_stmt 0 view .LVU75
 219 00b6 0D2B     		cmp	r3, #13
 220 00b8 11D0     		beq	.L18
 189:Middlewares/ST/filex/common/src/fx_unicode_directory_entry_change.c ****                 {
 221              		.loc 1 189 17 is_stmt 1 view .LVU76
 189:Middlewares/ST/filex/common/src/fx_unicode_directory_entry_change.c ****                 {
 222              		.loc 1 189 20 is_stmt 0 view .LVU77
 223 00ba 0029     		cmp	r1, #0
 224 00bc E0D0     		beq	.L8
 192:Middlewares/ST/filex/common/src/fx_unicode_directory_entry_change.c ****                     work_ptr[i + 1] = eof_marker;
 225              		.loc 1 192 21 is_stmt 1 view .LVU78
 192:Middlewares/ST/filex/common/src/fx_unicode_directory_entry_change.c ****                     work_ptr[i + 1] = eof_marker;
 226              		.loc 1 192 33 is_stmt 0 view .LVU79
 227 00be C154     		strb	r1, [r0, r3]
ARM GAS  C:\Users\HP\AppData\Local\Temp\ccCYjvw0.s 			page 9


 193:Middlewares/ST/filex/common/src/fx_unicode_directory_entry_change.c ****                 }
 228              		.loc 1 193 21 is_stmt 1 view .LVU80
 193:Middlewares/ST/filex/common/src/fx_unicode_directory_entry_change.c ****                 }
 229              		.loc 1 193 29 is_stmt 0 view .LVU81
 230 00c0 03F1010C 		add	ip, r3, #1
 193:Middlewares/ST/filex/common/src/fx_unicode_directory_entry_change.c ****                 }
 231              		.loc 1 193 37 view .LVU82
 232 00c4 00F80C10 		strb	r1, [r0, ip]
 233 00c8 EDE7     		b	.L9
 234              	.L10:
 202:Middlewares/ST/filex/common/src/fx_unicode_directory_entry_change.c ****                 {
 235              		.loc 1 202 22 is_stmt 1 view .LVU83
 202:Middlewares/ST/filex/common/src/fx_unicode_directory_entry_change.c ****                 {
 236              		.loc 1 202 25 is_stmt 0 view .LVU84
 237 00ca 9445     		cmp	ip, r2
 238 00cc EBD1     		bne	.L9
 205:Middlewares/ST/filex/common/src/fx_unicode_directory_entry_change.c ****                     work_ptr[i + 1] =  0;
 239              		.loc 1 205 21 is_stmt 1 view .LVU85
 205:Middlewares/ST/filex/common/src/fx_unicode_directory_entry_change.c ****                     work_ptr[i + 1] =  0;
 240              		.loc 1 205 33 is_stmt 0 view .LVU86
 241 00ce 0021     		movs	r1, #0
 242              	.LVL21:
 205:Middlewares/ST/filex/common/src/fx_unicode_directory_entry_change.c ****                     work_ptr[i + 1] =  0;
 243              		.loc 1 205 33 view .LVU87
 244 00d0 C154     		strb	r1, [r0, r3]
 206:Middlewares/ST/filex/common/src/fx_unicode_directory_entry_change.c **** 
 245              		.loc 1 206 21 is_stmt 1 view .LVU88
 206:Middlewares/ST/filex/common/src/fx_unicode_directory_entry_change.c **** 
 246              		.loc 1 206 29 is_stmt 0 view .LVU89
 247 00d2 03F1010C 		add	ip, r3, #1
 206:Middlewares/ST/filex/common/src/fx_unicode_directory_entry_change.c **** 
 248              		.loc 1 206 37 view .LVU90
 249 00d6 00F80C10 		strb	r1, [r0, ip]
 209:Middlewares/ST/filex/common/src/fx_unicode_directory_entry_change.c ****                 }
 250              		.loc 1 209 21 is_stmt 1 view .LVU91
 251              	.LVL22:
 209:Middlewares/ST/filex/common/src/fx_unicode_directory_entry_change.c ****                 }
 252              		.loc 1 209 32 is_stmt 0 view .LVU92
 253 00da FF21     		movs	r1, #255
 254 00dc E3E7     		b	.L9
 255              	.LVL23:
 256              	.L18:
 184:Middlewares/ST/filex/common/src/fx_unicode_directory_entry_change.c ****                     continue;
 257              		.loc 1 184 23 view .LVU93
 258 00de 0C23     		movs	r3, #12
 259              	.LVL24:
 184:Middlewares/ST/filex/common/src/fx_unicode_directory_entry_change.c ****                     continue;
 260              		.loc 1 184 23 view .LVU94
 261 00e0 E2E7     		b	.L7
 262              	.LVL25:
 263              	.L26:
 213:Middlewares/ST/filex/common/src/fx_unicode_directory_entry_change.c ****             }
 214:Middlewares/ST/filex/common/src/fx_unicode_directory_entry_change.c **** 
 215:Middlewares/ST/filex/common/src/fx_unicode_directory_entry_change.c ****             /* Decrement the card.  */
 216:Middlewares/ST/filex/common/src/fx_unicode_directory_entry_change.c ****             card--;
 264              		.loc 1 216 13 is_stmt 1 view .LVU95
 265              		.loc 1 216 17 is_stmt 0 view .LVU96
ARM GAS  C:\Users\HP\AppData\Local\Temp\ccCYjvw0.s 			page 10


 266 00e2 013F     		subs	r7, r7, #1
 267              	.LVL26:
 217:Middlewares/ST/filex/common/src/fx_unicode_directory_entry_change.c **** 
 218:Middlewares/ST/filex/common/src/fx_unicode_directory_entry_change.c ****             /* Setup pointers for the name write.  */
 219:Middlewares/ST/filex/common/src/fx_unicode_directory_entry_change.c ****             work_ptr += FX_DIR_ENTRY_SIZE;
 268              		.loc 1 219 13 is_stmt 1 view .LVU97
 269              		.loc 1 219 22 is_stmt 0 view .LVU98
 270 00e4 2030     		adds	r0, r0, #32
 271              	.LVL27:
 220:Middlewares/ST/filex/common/src/fx_unicode_directory_entry_change.c ****             byte_offset += FX_DIR_ENTRY_SIZE;
 272              		.loc 1 220 13 is_stmt 1 view .LVU99
 273              		.loc 1 220 25 is_stmt 0 view .LVU100
 274 00e6 2036     		adds	r6, r6, #32
 275              	.LVL28:
 221:Middlewares/ST/filex/common/src/fx_unicode_directory_entry_change.c **** 
 222:Middlewares/ST/filex/common/src/fx_unicode_directory_entry_change.c **** #ifdef FX_ENABLE_FAULT_TOLERANT
 223:Middlewares/ST/filex/common/src/fx_unicode_directory_entry_change.c ****             /* Update changed_size. */
 224:Middlewares/ST/filex/common/src/fx_unicode_directory_entry_change.c ****             changed_size += FX_DIR_ENTRY_SIZE;
 225:Middlewares/ST/filex/common/src/fx_unicode_directory_entry_change.c **** #endif /* FX_ENABLE_FAULT_TOLERANT */
 226:Middlewares/ST/filex/common/src/fx_unicode_directory_entry_change.c **** 
 227:Middlewares/ST/filex/common/src/fx_unicode_directory_entry_change.c ****             /* Determine if the write is within the current sector.   */
 228:Middlewares/ST/filex/common/src/fx_unicode_directory_entry_change.c ****             if (byte_offset >= media_ptr -> fx_media_bytes_per_sector)
 276              		.loc 1 228 13 is_stmt 1 view .LVU101
 277              		.loc 1 228 42 is_stmt 0 view .LVU102
 278 00e8 AB6A     		ldr	r3, [r5, #40]
 279              	.LVL29:
 280              		.loc 1 228 16 view .LVU103
 281 00ea B342     		cmp	r3, r6
 282 00ec 0BD9     		bls	.L27
 283              	.LVL30:
 284              	.L12:
 166:Middlewares/ST/filex/common/src/fx_unicode_directory_entry_change.c ****         {
 285              		.loc 1 166 38 is_stmt 1 discriminator 2 view .LVU104
 166:Middlewares/ST/filex/common/src/fx_unicode_directory_entry_change.c ****         {
 286              		.loc 1 166 39 is_stmt 0 discriminator 2 view .LVU105
 287 00ee 08F10108 		add	r8, r8, #1
 288              	.LVL31:
 289              	.L5:
 166:Middlewares/ST/filex/common/src/fx_unicode_directory_entry_change.c ****         {
 290              		.loc 1 166 21 is_stmt 1 discriminator 1 view .LVU106
 166:Middlewares/ST/filex/common/src/fx_unicode_directory_entry_change.c ****         {
 291              		.loc 1 166 9 is_stmt 0 discriminator 1 view .LVU107
 292 00f2 059B     		ldr	r3, [sp, #20]
 293 00f4 9845     		cmp	r8, r3
 294 00f6 4BD2     		bcs	.L4
 170:Middlewares/ST/filex/common/src/fx_unicode_directory_entry_change.c **** 
 295              		.loc 1 170 13 is_stmt 1 view .LVU108
 296              	.LVL32:
 173:Middlewares/ST/filex/common/src/fx_unicode_directory_entry_change.c ****             {
 297              		.loc 1 173 13 view .LVU109
 173:Middlewares/ST/filex/common/src/fx_unicode_directory_entry_change.c ****             {
 298              		.loc 1 173 47 is_stmt 0 view .LVU110
 299 00f8 1A22     		movs	r2, #26
 300 00fa 07FB02F2 		mul	r2, r7, r2
 173:Middlewares/ST/filex/common/src/fx_unicode_directory_entry_change.c ****             {
 301              		.loc 1 173 27 view .LVU111
 302 00fe 1A3A     		subs	r2, r2, #26
ARM GAS  C:\Users\HP\AppData\Local\Temp\ccCYjvw0.s 			page 11


 303              	.LVL33:
 170:Middlewares/ST/filex/common/src/fx_unicode_directory_entry_change.c **** 
 304              		.loc 1 170 24 view .LVU112
 305 0100 0021     		movs	r1, #0
 173:Middlewares/ST/filex/common/src/fx_unicode_directory_entry_change.c ****             {
 306              		.loc 1 173 20 view .LVU113
 307 0102 0123     		movs	r3, #1
 173:Middlewares/ST/filex/common/src/fx_unicode_directory_entry_change.c ****             {
 308              		.loc 1 173 13 view .LVU114
 309 0104 D1E7     		b	.L6
 310              	.LVL34:
 311              	.L27:
 229:Middlewares/ST/filex/common/src/fx_unicode_directory_entry_change.c ****             {
 230:Middlewares/ST/filex/common/src/fx_unicode_directory_entry_change.c **** #ifdef FX_ENABLE_FAULT_TOLERANT
 231:Middlewares/ST/filex/common/src/fx_unicode_directory_entry_change.c ****                 if (media_ptr -> fx_media_fault_tolerant_enabled)
 232:Middlewares/ST/filex/common/src/fx_unicode_directory_entry_change.c ****                 {
 233:Middlewares/ST/filex/common/src/fx_unicode_directory_entry_change.c **** 
 234:Middlewares/ST/filex/common/src/fx_unicode_directory_entry_change.c ****                     /* Redirect this request to log file. */
 235:Middlewares/ST/filex/common/src/fx_unicode_directory_entry_change.c ****                     status = _fx_fault_tolerant_add_dir_log(media_ptr, (ULONG64) logical_sector, ch
 236:Middlewares/ST/filex/common/src/fx_unicode_directory_entry_change.c ****                 }
 237:Middlewares/ST/filex/common/src/fx_unicode_directory_entry_change.c ****                 else
 238:Middlewares/ST/filex/common/src/fx_unicode_directory_entry_change.c ****                 {
 239:Middlewares/ST/filex/common/src/fx_unicode_directory_entry_change.c **** 
 240:Middlewares/ST/filex/common/src/fx_unicode_directory_entry_change.c ****                     /* Write the current sector out.  */
 241:Middlewares/ST/filex/common/src/fx_unicode_directory_entry_change.c ****                     status =  _fx_utility_logical_sector_write(media_ptr, (ULONG64) logical_sector,
 242:Middlewares/ST/filex/common/src/fx_unicode_directory_entry_change.c ****                                                                sector_base_ptr, ((ULONG) 1), FX_DIR
 243:Middlewares/ST/filex/common/src/fx_unicode_directory_entry_change.c ****                 }
 244:Middlewares/ST/filex/common/src/fx_unicode_directory_entry_change.c **** 
 245:Middlewares/ST/filex/common/src/fx_unicode_directory_entry_change.c **** 
 246:Middlewares/ST/filex/common/src/fx_unicode_directory_entry_change.c ****                 /* Determine if an error occurred.  */
 247:Middlewares/ST/filex/common/src/fx_unicode_directory_entry_change.c ****                 if (status != FX_SUCCESS)
 248:Middlewares/ST/filex/common/src/fx_unicode_directory_entry_change.c ****                 {
 249:Middlewares/ST/filex/common/src/fx_unicode_directory_entry_change.c **** 
 250:Middlewares/ST/filex/common/src/fx_unicode_directory_entry_change.c ****                     /* Return the error status.  */
 251:Middlewares/ST/filex/common/src/fx_unicode_directory_entry_change.c ****                     return(status);
 252:Middlewares/ST/filex/common/src/fx_unicode_directory_entry_change.c ****                 }
 253:Middlewares/ST/filex/common/src/fx_unicode_directory_entry_change.c **** #else /* FX_ENABLE_FAULT_TOLERANT */
 254:Middlewares/ST/filex/common/src/fx_unicode_directory_entry_change.c **** 
 255:Middlewares/ST/filex/common/src/fx_unicode_directory_entry_change.c ****                 /* Write the current sector out.  */
 256:Middlewares/ST/filex/common/src/fx_unicode_directory_entry_change.c ****                 /* Note: Since the sector is in the cache after a sector read, therefore _fx_utilit
 257:Middlewares/ST/filex/common/src/fx_unicode_directory_entry_change.c ****                    always returns success when FX_ENABLE_FAULT_TOLERANT is not defined.  In other w
 258:Middlewares/ST/filex/common/src/fx_unicode_directory_entry_change.c ****                    on the return value is needed only when FX_ENABLE_FAULT_TOLERANT is defined. */
 259:Middlewares/ST/filex/common/src/fx_unicode_directory_entry_change.c ****                 _fx_utility_logical_sector_write(media_ptr, (ULONG64) logical_sector,
 312              		.loc 1 259 17 is_stmt 1 view .LVU115
 313 0106 0323     		movs	r3, #3
 314 0108 0293     		str	r3, [sp, #8]
 315 010a 0123     		movs	r3, #1
 316 010c 0193     		str	r3, [sp, #4]
 317 010e 069B     		ldr	r3, [sp, #24]
 318 0110 0093     		str	r3, [sp]
 319 0112 5A46     		mov	r2, fp
 320              	.LVL35:
 321              		.loc 1 259 17 is_stmt 0 view .LVU116
 322 0114 0023     		movs	r3, #0
 323 0116 2846     		mov	r0, r5
 324              	.LVL36:
 325              		.loc 1 259 17 view .LVU117
ARM GAS  C:\Users\HP\AppData\Local\Temp\ccCYjvw0.s 			page 12


 326 0118 FFF7FEFF 		bl	_fx_utility_logical_sector_write
 327              	.LVL37:
 260:Middlewares/ST/filex/common/src/fx_unicode_directory_entry_change.c ****                                                  sector_base_ptr, ((ULONG) 1), FX_DIRECTORY_SECTOR)
 261:Middlewares/ST/filex/common/src/fx_unicode_directory_entry_change.c **** #endif /* FX_ENABLE_FAULT_TOLERANT */
 262:Middlewares/ST/filex/common/src/fx_unicode_directory_entry_change.c **** 
 263:Middlewares/ST/filex/common/src/fx_unicode_directory_entry_change.c ****                 /* Determine if we are in the root directory.  */
 264:Middlewares/ST/filex/common/src/fx_unicode_directory_entry_change.c ****                 if (logical_sector >= (ULONG)(media_ptr -> fx_media_data_sector_start))
 328              		.loc 1 264 17 is_stmt 1 view .LVU118
 329              		.loc 1 264 57 is_stmt 0 view .LVU119
 330 011c 2B6D     		ldr	r3, [r5, #80]
 331              		.loc 1 264 20 view .LVU120
 332 011e 5B45     		cmp	r3, fp
 333 0120 22D8     		bhi	.L13
 265:Middlewares/ST/filex/common/src/fx_unicode_directory_entry_change.c ****                 {
 266:Middlewares/ST/filex/common/src/fx_unicode_directory_entry_change.c **** 
 267:Middlewares/ST/filex/common/src/fx_unicode_directory_entry_change.c ****                     /* Determine the next sector of the directory entry.  */
 268:Middlewares/ST/filex/common/src/fx_unicode_directory_entry_change.c ****                     if (relative_sector < (media_ptr -> fx_media_sectors_per_cluster - 1))
 334              		.loc 1 268 21 is_stmt 1 view .LVU121
 335              		.loc 1 268 54 is_stmt 0 view .LVU122
 336 0122 6B6D     		ldr	r3, [r5, #84]
 337              		.loc 1 268 86 view .LVU123
 338 0124 013B     		subs	r3, r3, #1
 339              		.loc 1 268 24 view .LVU124
 340 0126 079A     		ldr	r2, [sp, #28]
 341 0128 9342     		cmp	r3, r2
 342 012a 04D9     		bls	.L14
 269:Middlewares/ST/filex/common/src/fx_unicode_directory_entry_change.c ****                     {
 270:Middlewares/ST/filex/common/src/fx_unicode_directory_entry_change.c **** 
 271:Middlewares/ST/filex/common/src/fx_unicode_directory_entry_change.c ****                         /* More sectors in this cluster.  */
 272:Middlewares/ST/filex/common/src/fx_unicode_directory_entry_change.c **** 
 273:Middlewares/ST/filex/common/src/fx_unicode_directory_entry_change.c ****                         /* Simply increment the logical sector.  */
 274:Middlewares/ST/filex/common/src/fx_unicode_directory_entry_change.c ****                         logical_sector++;
 343              		.loc 1 274 25 is_stmt 1 view .LVU125
 344              		.loc 1 274 39 is_stmt 0 view .LVU126
 345 012c 0BF1010B 		add	fp, fp, #1
 346              	.LVL38:
 275:Middlewares/ST/filex/common/src/fx_unicode_directory_entry_change.c **** 
 276:Middlewares/ST/filex/common/src/fx_unicode_directory_entry_change.c ****                         /* Increment the relative sector.  */
 277:Middlewares/ST/filex/common/src/fx_unicode_directory_entry_change.c ****                         relative_sector++;
 347              		.loc 1 277 25 is_stmt 1 view .LVU127
 348              		.loc 1 277 40 is_stmt 0 view .LVU128
 349 0130 0132     		adds	r2, r2, #1
 350 0132 0792     		str	r2, [sp, #28]
 351              	.LVL39:
 352              		.loc 1 277 40 view .LVU129
 353 0134 1CE0     		b	.L15
 354              	.LVL40:
 355              	.L14:
 278:Middlewares/ST/filex/common/src/fx_unicode_directory_entry_change.c ****                     }
 279:Middlewares/ST/filex/common/src/fx_unicode_directory_entry_change.c ****                     else
 280:Middlewares/ST/filex/common/src/fx_unicode_directory_entry_change.c ****                     {
 281:Middlewares/ST/filex/common/src/fx_unicode_directory_entry_change.c **** 
 282:Middlewares/ST/filex/common/src/fx_unicode_directory_entry_change.c ****                         /* We need to move to the next cluster.  */
 283:Middlewares/ST/filex/common/src/fx_unicode_directory_entry_change.c **** 
 284:Middlewares/ST/filex/common/src/fx_unicode_directory_entry_change.c ****                         /* Pickup the next cluster.  */
 285:Middlewares/ST/filex/common/src/fx_unicode_directory_entry_change.c ****                         status =  _fx_utility_FAT_entry_read(media_ptr, cluster, &next_cluster);
 356              		.loc 1 285 25 is_stmt 1 view .LVU130
ARM GAS  C:\Users\HP\AppData\Local\Temp\ccCYjvw0.s 			page 13


 357              		.loc 1 285 35 is_stmt 0 view .LVU131
 358 0136 0BAA     		add	r2, sp, #44
 359 0138 0899     		ldr	r1, [sp, #32]
 360 013a 2846     		mov	r0, r5
 361 013c FFF7FEFF 		bl	_fx_utility_FAT_entry_read
 362              	.LVL41:
 286:Middlewares/ST/filex/common/src/fx_unicode_directory_entry_change.c **** 
 287:Middlewares/ST/filex/common/src/fx_unicode_directory_entry_change.c ****                         /* Check for I/O error.  */
 288:Middlewares/ST/filex/common/src/fx_unicode_directory_entry_change.c ****                         if (status != FX_SUCCESS)
 363              		.loc 1 288 25 is_stmt 1 view .LVU132
 364              		.loc 1 288 28 is_stmt 0 view .LVU133
 365 0140 0790     		str	r0, [sp, #28]
 366              	.LVL42:
 367              		.loc 1 288 28 view .LVU134
 368 0142 0028     		cmp	r0, #0
 369 0144 3AD1     		bne	.L19
 289:Middlewares/ST/filex/common/src/fx_unicode_directory_entry_change.c ****                         {
 290:Middlewares/ST/filex/common/src/fx_unicode_directory_entry_change.c **** 
 291:Middlewares/ST/filex/common/src/fx_unicode_directory_entry_change.c ****                             /* Return error code.  */
 292:Middlewares/ST/filex/common/src/fx_unicode_directory_entry_change.c ****                             return(status);
 293:Middlewares/ST/filex/common/src/fx_unicode_directory_entry_change.c ****                         }
 294:Middlewares/ST/filex/common/src/fx_unicode_directory_entry_change.c **** 
 295:Middlewares/ST/filex/common/src/fx_unicode_directory_entry_change.c ****                         /* Copy next cluster to the current cluster.  */
 296:Middlewares/ST/filex/common/src/fx_unicode_directory_entry_change.c ****                         cluster =  next_cluster;
 370              		.loc 1 296 25 is_stmt 1 view .LVU135
 371              		.loc 1 296 33 is_stmt 0 view .LVU136
 372 0146 0B9A     		ldr	r2, [sp, #44]
 373 0148 0892     		str	r2, [sp, #32]
 374              	.LVL43:
 297:Middlewares/ST/filex/common/src/fx_unicode_directory_entry_change.c **** 
 298:Middlewares/ST/filex/common/src/fx_unicode_directory_entry_change.c ****                         /* Check the value of the new cluster - it must be a valid cluster number
 299:Middlewares/ST/filex/common/src/fx_unicode_directory_entry_change.c ****                            or something is really wrong!  */
 300:Middlewares/ST/filex/common/src/fx_unicode_directory_entry_change.c ****                         if ((cluster < FX_FAT_ENTRY_START) || (cluster > media_ptr -> fx_media_fat_
 375              		.loc 1 300 25 is_stmt 1 view .LVU137
 376              		.loc 1 300 28 is_stmt 0 view .LVU138
 377 014a 012A     		cmp	r2, #1
 378 014c 39D9     		bls	.L20
 379              		.loc 1 300 84 discriminator 1 view .LVU139
 380 014e 05F50053 		add	r3, r5, #8192
 381 0152 D3F8A834 		ldr	r3, [r3, #1192]
 382              		.loc 1 300 60 discriminator 1 view .LVU140
 383 0156 9342     		cmp	r3, r2
 384 0158 36D3     		bcc	.L21
 301:Middlewares/ST/filex/common/src/fx_unicode_directory_entry_change.c ****                         {
 302:Middlewares/ST/filex/common/src/fx_unicode_directory_entry_change.c **** 
 303:Middlewares/ST/filex/common/src/fx_unicode_directory_entry_change.c ****                             /* Send error message back to caller.  */
 304:Middlewares/ST/filex/common/src/fx_unicode_directory_entry_change.c ****                             return(FX_FILE_CORRUPT);
 305:Middlewares/ST/filex/common/src/fx_unicode_directory_entry_change.c ****                         }
 306:Middlewares/ST/filex/common/src/fx_unicode_directory_entry_change.c **** 
 307:Middlewares/ST/filex/common/src/fx_unicode_directory_entry_change.c ****                         /* Setup the relative sector (this is zero for subsequent cluster.  */
 308:Middlewares/ST/filex/common/src/fx_unicode_directory_entry_change.c ****                         relative_sector =  0;
 385              		.loc 1 308 25 is_stmt 1 view .LVU141
 386              	.LVL44:
 309:Middlewares/ST/filex/common/src/fx_unicode_directory_entry_change.c **** 
 310:Middlewares/ST/filex/common/src/fx_unicode_directory_entry_change.c ****                         /* Calculate the next logical sector.  */
 311:Middlewares/ST/filex/common/src/fx_unicode_directory_entry_change.c ****                         logical_sector =   ((ULONG)media_ptr -> fx_media_data_sector_start) +
 387              		.loc 1 311 25 view .LVU142
ARM GAS  C:\Users\HP\AppData\Local\Temp\ccCYjvw0.s 			page 14


 388              		.loc 1 311 62 is_stmt 0 view .LVU143
 389 015a 2B6D     		ldr	r3, [r5, #80]
 312:Middlewares/ST/filex/common/src/fx_unicode_directory_entry_change.c ****                             (((ULONG)cluster - FX_FAT_ENTRY_START) *
 390              		.loc 1 312 46 view .LVU144
 391 015c A2F1020B 		sub	fp, r2, #2
 392              	.LVL45:
 313:Middlewares/ST/filex/common/src/fx_unicode_directory_entry_change.c ****                              ((ULONG)media_ptr -> fx_media_sectors_per_cluster));
 393              		.loc 1 313 48 view .LVU145
 394 0160 6A6D     		ldr	r2, [r5, #84]
 395              	.LVL46:
 311:Middlewares/ST/filex/common/src/fx_unicode_directory_entry_change.c ****                             (((ULONG)cluster - FX_FAT_ENTRY_START) *
 396              		.loc 1 311 40 view .LVU146
 397 0162 02FB0B3B 		mla	fp, r2, fp, r3
 398              	.LVL47:
 311:Middlewares/ST/filex/common/src/fx_unicode_directory_entry_change.c ****                             (((ULONG)cluster - FX_FAT_ENTRY_START) *
 399              		.loc 1 311 40 view .LVU147
 400 0166 03E0     		b	.L15
 401              	.LVL48:
 402              	.L13:
 314:Middlewares/ST/filex/common/src/fx_unicode_directory_entry_change.c ****                     }
 315:Middlewares/ST/filex/common/src/fx_unicode_directory_entry_change.c ****                 }
 316:Middlewares/ST/filex/common/src/fx_unicode_directory_entry_change.c ****                 else
 317:Middlewares/ST/filex/common/src/fx_unicode_directory_entry_change.c ****                 {
 318:Middlewares/ST/filex/common/src/fx_unicode_directory_entry_change.c **** 
 319:Middlewares/ST/filex/common/src/fx_unicode_directory_entry_change.c ****                     /* Increment the logical sector.  */
 320:Middlewares/ST/filex/common/src/fx_unicode_directory_entry_change.c ****                     logical_sector++;
 403              		.loc 1 320 21 is_stmt 1 view .LVU148
 404              		.loc 1 320 35 is_stmt 0 view .LVU149
 405 0168 0BF1010B 		add	fp, fp, #1
 406              	.LVL49:
 321:Middlewares/ST/filex/common/src/fx_unicode_directory_entry_change.c **** 
 322:Middlewares/ST/filex/common/src/fx_unicode_directory_entry_change.c ****                     /* Determine if the logical sector is valid.  */
 323:Middlewares/ST/filex/common/src/fx_unicode_directory_entry_change.c ****                     if (logical_sector >= (ULONG)(media_ptr -> fx_media_data_sector_start))
 407              		.loc 1 323 21 is_stmt 1 view .LVU150
 408              		.loc 1 323 24 is_stmt 0 view .LVU151
 409 016c 5B45     		cmp	r3, fp
 410 016e 2ED9     		bls	.L22
 411              	.LVL50:
 412              	.L15:
 324:Middlewares/ST/filex/common/src/fx_unicode_directory_entry_change.c ****                     {
 325:Middlewares/ST/filex/common/src/fx_unicode_directory_entry_change.c **** 
 326:Middlewares/ST/filex/common/src/fx_unicode_directory_entry_change.c ****                         /* We have exceeded the root directory.  */
 327:Middlewares/ST/filex/common/src/fx_unicode_directory_entry_change.c **** 
 328:Middlewares/ST/filex/common/src/fx_unicode_directory_entry_change.c ****                         /* Send error message back to caller.  */
 329:Middlewares/ST/filex/common/src/fx_unicode_directory_entry_change.c ****                         return(FX_FILE_CORRUPT);
 330:Middlewares/ST/filex/common/src/fx_unicode_directory_entry_change.c ****                     }
 331:Middlewares/ST/filex/common/src/fx_unicode_directory_entry_change.c ****                 }
 332:Middlewares/ST/filex/common/src/fx_unicode_directory_entry_change.c **** 
 333:Middlewares/ST/filex/common/src/fx_unicode_directory_entry_change.c ****                 /* Read the next logical sector.  */
 334:Middlewares/ST/filex/common/src/fx_unicode_directory_entry_change.c ****                 status =  _fx_utility_logical_sector_read(media_ptr, (ULONG64) logical_sector,
 413              		.loc 1 334 17 is_stmt 1 view .LVU152
 335:Middlewares/ST/filex/common/src/fx_unicode_directory_entry_change.c ****                                                           media_ptr -> fx_media_memory_buffer, ((UL
 414              		.loc 1 335 69 is_stmt 0 view .LVU153
 415 0170 AB68     		ldr	r3, [r5, #8]
 334:Middlewares/ST/filex/common/src/fx_unicode_directory_entry_change.c ****                                                           media_ptr -> fx_media_memory_buffer, ((UL
 416              		.loc 1 334 27 view .LVU154
 417 0172 0322     		movs	r2, #3
ARM GAS  C:\Users\HP\AppData\Local\Temp\ccCYjvw0.s 			page 15


 418 0174 0292     		str	r2, [sp, #8]
 419 0176 0122     		movs	r2, #1
 420 0178 0192     		str	r2, [sp, #4]
 421 017a 0093     		str	r3, [sp]
 422 017c 5A46     		mov	r2, fp
 423 017e 0023     		movs	r3, #0
 424 0180 2846     		mov	r0, r5
 425 0182 FFF7FEFF 		bl	_fx_utility_logical_sector_read
 426              	.LVL51:
 336:Middlewares/ST/filex/common/src/fx_unicode_directory_entry_change.c **** 
 337:Middlewares/ST/filex/common/src/fx_unicode_directory_entry_change.c ****                 /* Determine if an error occurred.  */
 338:Middlewares/ST/filex/common/src/fx_unicode_directory_entry_change.c ****                 if (status != FX_SUCCESS)
 427              		.loc 1 338 17 is_stmt 1 view .LVU155
 428              		.loc 1 338 20 is_stmt 0 view .LVU156
 429 0186 0646     		mov	r6, r0
 430              	.LVL52:
 431              		.loc 1 338 20 view .LVU157
 432 0188 20BB     		cbnz	r0, .L23
 339:Middlewares/ST/filex/common/src/fx_unicode_directory_entry_change.c ****                 {
 340:Middlewares/ST/filex/common/src/fx_unicode_directory_entry_change.c **** 
 341:Middlewares/ST/filex/common/src/fx_unicode_directory_entry_change.c ****                     /* Return the error status.  */
 342:Middlewares/ST/filex/common/src/fx_unicode_directory_entry_change.c ****                     return(status);
 343:Middlewares/ST/filex/common/src/fx_unicode_directory_entry_change.c ****                 }
 344:Middlewares/ST/filex/common/src/fx_unicode_directory_entry_change.c **** 
 345:Middlewares/ST/filex/common/src/fx_unicode_directory_entry_change.c ****                 /* Move to the next sector buffer.  */
 346:Middlewares/ST/filex/common/src/fx_unicode_directory_entry_change.c ****                 sector_base_ptr = media_ptr -> fx_media_memory_buffer;
 433              		.loc 1 346 17 is_stmt 1 view .LVU158
 434              		.loc 1 346 33 is_stmt 0 view .LVU159
 435 018a A868     		ldr	r0, [r5, #8]
 436              	.LVL53:
 347:Middlewares/ST/filex/common/src/fx_unicode_directory_entry_change.c **** 
 348:Middlewares/ST/filex/common/src/fx_unicode_directory_entry_change.c ****                 /* Setup new buffer pointers.  */
 349:Middlewares/ST/filex/common/src/fx_unicode_directory_entry_change.c ****                 byte_offset =  0;
 437              		.loc 1 349 17 is_stmt 1 view .LVU160
 350:Middlewares/ST/filex/common/src/fx_unicode_directory_entry_change.c ****                 work_ptr = sector_base_ptr;
 438              		.loc 1 350 17 view .LVU161
 346:Middlewares/ST/filex/common/src/fx_unicode_directory_entry_change.c **** 
 439              		.loc 1 346 33 is_stmt 0 view .LVU162
 440 018c 0690     		str	r0, [sp, #24]
 441 018e AEE7     		b	.L12
 442              	.LVL54:
 443              	.L4:
 351:Middlewares/ST/filex/common/src/fx_unicode_directory_entry_change.c **** 
 352:Middlewares/ST/filex/common/src/fx_unicode_directory_entry_change.c **** #ifdef FX_ENABLE_FAULT_TOLERANT
 353:Middlewares/ST/filex/common/src/fx_unicode_directory_entry_change.c ****                 /* Initialize data for fault tolerant. */
 354:Middlewares/ST/filex/common/src/fx_unicode_directory_entry_change.c ****                 changed_ptr = work_ptr;
 355:Middlewares/ST/filex/common/src/fx_unicode_directory_entry_change.c ****                 changed_size = 0;
 356:Middlewares/ST/filex/common/src/fx_unicode_directory_entry_change.c ****                 changed_offset = 0;
 357:Middlewares/ST/filex/common/src/fx_unicode_directory_entry_change.c **** #endif /* FX_ENABLE_FAULT_TOLERANT */
 358:Middlewares/ST/filex/common/src/fx_unicode_directory_entry_change.c ****             }
 359:Middlewares/ST/filex/common/src/fx_unicode_directory_entry_change.c ****         }
 360:Middlewares/ST/filex/common/src/fx_unicode_directory_entry_change.c ****     }
 361:Middlewares/ST/filex/common/src/fx_unicode_directory_entry_change.c **** 
 362:Middlewares/ST/filex/common/src/fx_unicode_directory_entry_change.c ****     /* Check for an error!  */
 363:Middlewares/ST/filex/common/src/fx_unicode_directory_entry_change.c ****     if (u != (unicode_name_length * 2))
 444              		.loc 1 363 5 is_stmt 1 view .LVU163
 445              		.loc 1 363 8 is_stmt 0 view .LVU164
ARM GAS  C:\Users\HP\AppData\Local\Temp\ccCYjvw0.s 			page 16


 446 0190 B9EB440F 		cmp	r9, r4, lsl #1
 447 0194 05D0     		beq	.L28
 364:Middlewares/ST/filex/common/src/fx_unicode_directory_entry_change.c ****     {
 365:Middlewares/ST/filex/common/src/fx_unicode_directory_entry_change.c **** 
 366:Middlewares/ST/filex/common/src/fx_unicode_directory_entry_change.c ****         /* Return an error!  */
 367:Middlewares/ST/filex/common/src/fx_unicode_directory_entry_change.c ****         return(FX_FILE_CORRUPT);
 448              		.loc 1 367 15 view .LVU165
 449 0196 4FF00809 		mov	r9, #8
 450              	.LVL55:
 451              	.L1:
 368:Middlewares/ST/filex/common/src/fx_unicode_directory_entry_change.c ****     }
 369:Middlewares/ST/filex/common/src/fx_unicode_directory_entry_change.c **** 
 370:Middlewares/ST/filex/common/src/fx_unicode_directory_entry_change.c **** #ifdef FX_ENABLE_FAULT_TOLERANT
 371:Middlewares/ST/filex/common/src/fx_unicode_directory_entry_change.c ****     if (media_ptr -> fx_media_fault_tolerant_enabled)
 372:Middlewares/ST/filex/common/src/fx_unicode_directory_entry_change.c ****     {
 373:Middlewares/ST/filex/common/src/fx_unicode_directory_entry_change.c **** 
 374:Middlewares/ST/filex/common/src/fx_unicode_directory_entry_change.c ****         /* Redirect this request to log file. */
 375:Middlewares/ST/filex/common/src/fx_unicode_directory_entry_change.c ****         status = _fx_fault_tolerant_add_dir_log(media_ptr, (ULONG64) logical_sector, changed_offset
 376:Middlewares/ST/filex/common/src/fx_unicode_directory_entry_change.c ****     }
 377:Middlewares/ST/filex/common/src/fx_unicode_directory_entry_change.c ****     else
 378:Middlewares/ST/filex/common/src/fx_unicode_directory_entry_change.c ****     {
 379:Middlewares/ST/filex/common/src/fx_unicode_directory_entry_change.c **** #endif /* FX_ENABLE_FAULT_TOLERANT */
 380:Middlewares/ST/filex/common/src/fx_unicode_directory_entry_change.c **** 
 381:Middlewares/ST/filex/common/src/fx_unicode_directory_entry_change.c ****         /* Write the directory sector to the media.  */
 382:Middlewares/ST/filex/common/src/fx_unicode_directory_entry_change.c ****         status =  _fx_utility_logical_sector_write(media_ptr, (ULONG64) logical_sector,
 383:Middlewares/ST/filex/common/src/fx_unicode_directory_entry_change.c ****                                                    sector_base_ptr, ((ULONG) 1), FX_DIRECTORY_SECTO
 384:Middlewares/ST/filex/common/src/fx_unicode_directory_entry_change.c **** #ifdef FX_ENABLE_FAULT_TOLERANT
 385:Middlewares/ST/filex/common/src/fx_unicode_directory_entry_change.c ****     }
 386:Middlewares/ST/filex/common/src/fx_unicode_directory_entry_change.c **** #endif /* FX_ENABLE_FAULT_TOLERANT */
 387:Middlewares/ST/filex/common/src/fx_unicode_directory_entry_change.c ****     
 388:Middlewares/ST/filex/common/src/fx_unicode_directory_entry_change.c ****     return(status);
 389:Middlewares/ST/filex/common/src/fx_unicode_directory_entry_change.c **** }
 452              		.loc 1 389 1 view .LVU166
 453 019a 4846     		mov	r0, r9
 454 019c 0DB0     		add	sp, sp, #52
 455              	.LCFI2:
 456              		.cfi_remember_state
 457              		.cfi_def_cfa_offset 36
 458              		@ sp needed
 459 019e BDE8F08F 		pop	{r4, r5, r6, r7, r8, r9, r10, fp, pc}
 460              	.LVL56:
 461              	.L28:
 462              	.LCFI3:
 463              		.cfi_restore_state
 382:Middlewares/ST/filex/common/src/fx_unicode_directory_entry_change.c ****                                                    sector_base_ptr, ((ULONG) 1), FX_DIRECTORY_SECTO
 464              		.loc 1 382 9 is_stmt 1 view .LVU167
 382:Middlewares/ST/filex/common/src/fx_unicode_directory_entry_change.c ****                                                    sector_base_ptr, ((ULONG) 1), FX_DIRECTORY_SECTO
 465              		.loc 1 382 19 is_stmt 0 view .LVU168
 466 01a2 0323     		movs	r3, #3
 467 01a4 0293     		str	r3, [sp, #8]
 468 01a6 0123     		movs	r3, #1
 469 01a8 0193     		str	r3, [sp, #4]
 470 01aa 069B     		ldr	r3, [sp, #24]
 471 01ac 0093     		str	r3, [sp]
 472 01ae 5A46     		mov	r2, fp
 473 01b0 0023     		movs	r3, #0
 474 01b2 2846     		mov	r0, r5
ARM GAS  C:\Users\HP\AppData\Local\Temp\ccCYjvw0.s 			page 17


 475              	.LVL57:
 382:Middlewares/ST/filex/common/src/fx_unicode_directory_entry_change.c ****                                                    sector_base_ptr, ((ULONG) 1), FX_DIRECTORY_SECTO
 476              		.loc 1 382 19 view .LVU169
 477 01b4 FFF7FEFF 		bl	_fx_utility_logical_sector_write
 478              	.LVL58:
 479 01b8 8146     		mov	r9, r0
 480              	.LVL59:
 388:Middlewares/ST/filex/common/src/fx_unicode_directory_entry_change.c **** }
 481              		.loc 1 388 5 is_stmt 1 view .LVU170
 388:Middlewares/ST/filex/common/src/fx_unicode_directory_entry_change.c **** }
 482              		.loc 1 388 11 is_stmt 0 view .LVU171
 483 01ba EEE7     		b	.L1
 484              	.LVL60:
 485              	.L19:
 292:Middlewares/ST/filex/common/src/fx_unicode_directory_entry_change.c ****                         }
 486              		.loc 1 292 35 view .LVU172
 487 01bc DDF81C90 		ldr	r9, [sp, #28]
 488              	.LVL61:
 292:Middlewares/ST/filex/common/src/fx_unicode_directory_entry_change.c ****                         }
 489              		.loc 1 292 35 view .LVU173
 490 01c0 EBE7     		b	.L1
 491              	.LVL62:
 492              	.L20:
 304:Middlewares/ST/filex/common/src/fx_unicode_directory_entry_change.c ****                         }
 493              		.loc 1 304 35 view .LVU174
 494 01c2 4FF00809 		mov	r9, #8
 495              	.LVL63:
 304:Middlewares/ST/filex/common/src/fx_unicode_directory_entry_change.c ****                         }
 496              		.loc 1 304 35 view .LVU175
 497 01c6 E8E7     		b	.L1
 498              	.LVL64:
 499              	.L21:
 304:Middlewares/ST/filex/common/src/fx_unicode_directory_entry_change.c ****                         }
 500              		.loc 1 304 35 view .LVU176
 501 01c8 4FF00809 		mov	r9, #8
 502              	.LVL65:
 304:Middlewares/ST/filex/common/src/fx_unicode_directory_entry_change.c ****                         }
 503              		.loc 1 304 35 view .LVU177
 504 01cc E5E7     		b	.L1
 505              	.LVL66:
 506              	.L22:
 329:Middlewares/ST/filex/common/src/fx_unicode_directory_entry_change.c ****                     }
 507              		.loc 1 329 31 view .LVU178
 508 01ce 4FF00809 		mov	r9, #8
 509              	.LVL67:
 329:Middlewares/ST/filex/common/src/fx_unicode_directory_entry_change.c ****                     }
 510              		.loc 1 329 31 view .LVU179
 511 01d2 E2E7     		b	.L1
 512              	.LVL68:
 513              	.L23:
 342:Middlewares/ST/filex/common/src/fx_unicode_directory_entry_change.c ****                 }
 514              		.loc 1 342 27 view .LVU180
 515 01d4 8146     		mov	r9, r0
 516              	.LVL69:
 342:Middlewares/ST/filex/common/src/fx_unicode_directory_entry_change.c ****                 }
 517              		.loc 1 342 27 view .LVU181
 518 01d6 E0E7     		b	.L1
ARM GAS  C:\Users\HP\AppData\Local\Temp\ccCYjvw0.s 			page 18


 519              		.cfi_endproc
 520              	.LFE8:
 522              		.text
 523              	.Letext0:
 524              		.file 2 "Middlewares/ST/threadx/ports/cortex_m4/gnu/inc/tx_port.h"
 525              		.file 3 "Middlewares/ST/threadx/common/inc/tx_api.h"
 526              		.file 4 "Middlewares/ST/filex/common/inc/fx_api.h"
 527              		.file 5 "Middlewares/ST/filex/common/inc/fx_utility.h"
ARM GAS  C:\Users\HP\AppData\Local\Temp\ccCYjvw0.s 			page 19

