ARM GAS  C:\Users\HP\AppData\Local\Temp\cc2hlKqE.s 			page 1


   1              		.cpu cortex-m4
   2              		.arch armv7e-m
   3              		.fpu fpv4-sp-d16
   4              		.eabi_attribute 27, 1
   5              		.eabi_attribute 28, 1
   6              		.eabi_attribute 20, 1
   7              		.eabi_attribute 21, 1
   8              		.eabi_attribute 23, 3
   9              		.eabi_attribute 24, 1
  10              		.eabi_attribute 25, 1
  11              		.eabi_attribute 26, 1
  12              		.eabi_attribute 30, 1
  13              		.eabi_attribute 34, 1
  14              		.eabi_attribute 18, 4
  15              		.file	"fx_unicode_directory_create.c"
  16              		.text
  17              	.Ltext0:
  18              		.cfi_sections	.debug_frame
  19              		.section	.text._fx_unicode_directory_create,"ax",%progbits
  20              		.align	1
  21              		.global	_fx_unicode_directory_create
  22              		.syntax unified
  23              		.thumb
  24              		.thumb_func
  26              	_fx_unicode_directory_create:
  27              	.LVL0:
  28              	.LFB8:
  29              		.file 1 "Middlewares/ST/filex/common/src/fx_unicode_directory_create.c"
   1:Middlewares/ST/filex/common/src/fx_unicode_directory_create.c **** /**************************************************************************/
   2:Middlewares/ST/filex/common/src/fx_unicode_directory_create.c **** /*                                                                        */
   3:Middlewares/ST/filex/common/src/fx_unicode_directory_create.c **** /*       Copyright (c) Microsoft Corporation. All rights reserved.        */
   4:Middlewares/ST/filex/common/src/fx_unicode_directory_create.c **** /*                                                                        */
   5:Middlewares/ST/filex/common/src/fx_unicode_directory_create.c **** /*       This software is licensed under the Microsoft Software License   */
   6:Middlewares/ST/filex/common/src/fx_unicode_directory_create.c **** /*       Terms for Microsoft Azure RTOS. Full text of the license can be  */
   7:Middlewares/ST/filex/common/src/fx_unicode_directory_create.c **** /*       found in the LICENSE file at https://aka.ms/AzureRTOS_EULA       */
   8:Middlewares/ST/filex/common/src/fx_unicode_directory_create.c **** /*       and in the root directory of this software.                      */
   9:Middlewares/ST/filex/common/src/fx_unicode_directory_create.c **** /*                                                                        */
  10:Middlewares/ST/filex/common/src/fx_unicode_directory_create.c **** /**************************************************************************/
  11:Middlewares/ST/filex/common/src/fx_unicode_directory_create.c **** 
  12:Middlewares/ST/filex/common/src/fx_unicode_directory_create.c **** 
  13:Middlewares/ST/filex/common/src/fx_unicode_directory_create.c **** /**************************************************************************/
  14:Middlewares/ST/filex/common/src/fx_unicode_directory_create.c **** /**************************************************************************/
  15:Middlewares/ST/filex/common/src/fx_unicode_directory_create.c **** /**                                                                       */
  16:Middlewares/ST/filex/common/src/fx_unicode_directory_create.c **** /** FileX Component                                                       */
  17:Middlewares/ST/filex/common/src/fx_unicode_directory_create.c **** /**                                                                       */
  18:Middlewares/ST/filex/common/src/fx_unicode_directory_create.c **** /**   Unicode                                                             */
  19:Middlewares/ST/filex/common/src/fx_unicode_directory_create.c **** /**                                                                       */
  20:Middlewares/ST/filex/common/src/fx_unicode_directory_create.c **** /**************************************************************************/
  21:Middlewares/ST/filex/common/src/fx_unicode_directory_create.c **** /**************************************************************************/
  22:Middlewares/ST/filex/common/src/fx_unicode_directory_create.c **** 
  23:Middlewares/ST/filex/common/src/fx_unicode_directory_create.c **** #define FX_SOURCE_CODE
  24:Middlewares/ST/filex/common/src/fx_unicode_directory_create.c **** 
  25:Middlewares/ST/filex/common/src/fx_unicode_directory_create.c **** 
  26:Middlewares/ST/filex/common/src/fx_unicode_directory_create.c **** /* Include necessary system files.  */
  27:Middlewares/ST/filex/common/src/fx_unicode_directory_create.c **** 
  28:Middlewares/ST/filex/common/src/fx_unicode_directory_create.c **** #include "fx_api.h"
  29:Middlewares/ST/filex/common/src/fx_unicode_directory_create.c **** #include "fx_unicode.h"
ARM GAS  C:\Users\HP\AppData\Local\Temp\cc2hlKqE.s 			page 2


  30:Middlewares/ST/filex/common/src/fx_unicode_directory_create.c **** #include "fx_directory.h"
  31:Middlewares/ST/filex/common/src/fx_unicode_directory_create.c **** #include "fx_utility.h"
  32:Middlewares/ST/filex/common/src/fx_unicode_directory_create.c **** #ifdef FX_ENABLE_FAULT_TOLERANT
  33:Middlewares/ST/filex/common/src/fx_unicode_directory_create.c **** #include "fx_fault_tolerant.h"
  34:Middlewares/ST/filex/common/src/fx_unicode_directory_create.c **** #endif /* FX_ENABLE_FAULT_TOLERANT */
  35:Middlewares/ST/filex/common/src/fx_unicode_directory_create.c **** 
  36:Middlewares/ST/filex/common/src/fx_unicode_directory_create.c **** 
  37:Middlewares/ST/filex/common/src/fx_unicode_directory_create.c **** /**************************************************************************/
  38:Middlewares/ST/filex/common/src/fx_unicode_directory_create.c **** /*                                                                        */
  39:Middlewares/ST/filex/common/src/fx_unicode_directory_create.c **** /*  FUNCTION                                               RELEASE        */
  40:Middlewares/ST/filex/common/src/fx_unicode_directory_create.c **** /*                                                                        */
  41:Middlewares/ST/filex/common/src/fx_unicode_directory_create.c **** /*    _fx_unicode_directory_create                        PORTABLE C      */
  42:Middlewares/ST/filex/common/src/fx_unicode_directory_create.c **** /*                                                           6.1          */
  43:Middlewares/ST/filex/common/src/fx_unicode_directory_create.c **** /*  AUTHOR                                                                */
  44:Middlewares/ST/filex/common/src/fx_unicode_directory_create.c **** /*                                                                        */
  45:Middlewares/ST/filex/common/src/fx_unicode_directory_create.c **** /*    William E. Lamie, Microsoft Corporation                             */
  46:Middlewares/ST/filex/common/src/fx_unicode_directory_create.c **** /*                                                                        */
  47:Middlewares/ST/filex/common/src/fx_unicode_directory_create.c **** /*  DESCRIPTION                                                           */
  48:Middlewares/ST/filex/common/src/fx_unicode_directory_create.c **** /*                                                                        */
  49:Middlewares/ST/filex/common/src/fx_unicode_directory_create.c **** /*    This function creates the specified unicode directory.              */
  50:Middlewares/ST/filex/common/src/fx_unicode_directory_create.c **** /*                                                                        */
  51:Middlewares/ST/filex/common/src/fx_unicode_directory_create.c **** /*  INPUT                                                                 */
  52:Middlewares/ST/filex/common/src/fx_unicode_directory_create.c **** /*                                                                        */
  53:Middlewares/ST/filex/common/src/fx_unicode_directory_create.c **** /*    media_ptr                             Pointer to media              */
  54:Middlewares/ST/filex/common/src/fx_unicode_directory_create.c **** /*    source_unicode_name                   Pointer to source unicode name*/
  55:Middlewares/ST/filex/common/src/fx_unicode_directory_create.c **** /*    source_unicode_length                 Unicode name length           */
  56:Middlewares/ST/filex/common/src/fx_unicode_directory_create.c **** /*    short_name                            Designated short name         */
  57:Middlewares/ST/filex/common/src/fx_unicode_directory_create.c **** /*                                                                        */
  58:Middlewares/ST/filex/common/src/fx_unicode_directory_create.c **** /*  OUTPUT                                                                */
  59:Middlewares/ST/filex/common/src/fx_unicode_directory_create.c **** /*                                                                        */
  60:Middlewares/ST/filex/common/src/fx_unicode_directory_create.c **** /*    Completion Status                                                   */
  61:Middlewares/ST/filex/common/src/fx_unicode_directory_create.c **** /*                                                                        */
  62:Middlewares/ST/filex/common/src/fx_unicode_directory_create.c **** /*  CALLS                                                                 */
  63:Middlewares/ST/filex/common/src/fx_unicode_directory_create.c **** /*                                                                        */
  64:Middlewares/ST/filex/common/src/fx_unicode_directory_create.c **** /*    _fx_directory_search                  Search directory              */
  65:Middlewares/ST/filex/common/src/fx_unicode_directory_create.c **** /*    _fx_unicode_directory_entry_change    Change unicode file name      */
  66:Middlewares/ST/filex/common/src/fx_unicode_directory_create.c **** /*    _fx_unicode_directory_search          Search for unicode name       */
  67:Middlewares/ST/filex/common/src/fx_unicode_directory_create.c **** /*    _fx_directory_create                  Create a directory            */
  68:Middlewares/ST/filex/common/src/fx_unicode_directory_create.c **** /*    _fx_fault_tolerant_transaction_start  Start fault tolerant          */
  69:Middlewares/ST/filex/common/src/fx_unicode_directory_create.c **** /*                                            transaction                 */
  70:Middlewares/ST/filex/common/src/fx_unicode_directory_create.c **** /*    _fx_fault_tolerant_transaction_end    End fault tolerant transaction*/
  71:Middlewares/ST/filex/common/src/fx_unicode_directory_create.c **** /*    _fx_fault_tolerant_recover            Recover FAT chain             */
  72:Middlewares/ST/filex/common/src/fx_unicode_directory_create.c **** /*    _fx_fault_tolerant_reset_log_file     Reset the log file            */
  73:Middlewares/ST/filex/common/src/fx_unicode_directory_create.c **** /*                                                                        */
  74:Middlewares/ST/filex/common/src/fx_unicode_directory_create.c **** /*  CALLED BY                                                             */
  75:Middlewares/ST/filex/common/src/fx_unicode_directory_create.c **** /*                                                                        */
  76:Middlewares/ST/filex/common/src/fx_unicode_directory_create.c **** /*    Application Code                                                    */
  77:Middlewares/ST/filex/common/src/fx_unicode_directory_create.c **** /*                                                                        */
  78:Middlewares/ST/filex/common/src/fx_unicode_directory_create.c **** /*  RELEASE HISTORY                                                       */
  79:Middlewares/ST/filex/common/src/fx_unicode_directory_create.c **** /*                                                                        */
  80:Middlewares/ST/filex/common/src/fx_unicode_directory_create.c **** /*    DATE              NAME                      DESCRIPTION             */
  81:Middlewares/ST/filex/common/src/fx_unicode_directory_create.c **** /*                                                                        */
  82:Middlewares/ST/filex/common/src/fx_unicode_directory_create.c **** /*  05-19-2020     William E. Lamie         Initial Version 6.0           */
  83:Middlewares/ST/filex/common/src/fx_unicode_directory_create.c **** /*  09-30-2020     William E. Lamie         Modified comment(s),          */
  84:Middlewares/ST/filex/common/src/fx_unicode_directory_create.c **** /*                                            resulting in version 6.1    */
  85:Middlewares/ST/filex/common/src/fx_unicode_directory_create.c **** /*                                                                        */
  86:Middlewares/ST/filex/common/src/fx_unicode_directory_create.c **** /**************************************************************************/
ARM GAS  C:\Users\HP\AppData\Local\Temp\cc2hlKqE.s 			page 3


  87:Middlewares/ST/filex/common/src/fx_unicode_directory_create.c **** UINT  _fx_unicode_directory_create(FX_MEDIA *media_ptr, UCHAR *source_unicode_name, ULONG source_un
  88:Middlewares/ST/filex/common/src/fx_unicode_directory_create.c **** {
  30              		.loc 1 88 1 view -0
  31              		.cfi_startproc
  32              		@ args = 0, pretend = 0, frame = 136
  33              		@ frame_needed = 0, uses_anonymous_args = 0
  34              		.loc 1 88 1 is_stmt 0 view .LVU1
  35 0000 2DE9F047 		push	{r4, r5, r6, r7, r8, r9, r10, lr}
  36              	.LCFI0:
  37              		.cfi_def_cfa_offset 32
  38              		.cfi_offset 4, -32
  39              		.cfi_offset 5, -28
  40              		.cfi_offset 6, -24
  41              		.cfi_offset 7, -20
  42              		.cfi_offset 8, -16
  43              		.cfi_offset 9, -12
  44              		.cfi_offset 10, -8
  45              		.cfi_offset 14, -4
  46 0004 A6B0     		sub	sp, sp, #152
  47              	.LCFI1:
  48              		.cfi_def_cfa_offset 184
  49 0006 1546     		mov	r5, r2
  50 0008 1E46     		mov	r6, r3
  89:Middlewares/ST/filex/common/src/fx_unicode_directory_create.c **** 
  90:Middlewares/ST/filex/common/src/fx_unicode_directory_create.c **** FX_DIR_ENTRY dir_entry;
  51              		.loc 1 90 1 is_stmt 1 view .LVU2
  91:Middlewares/ST/filex/common/src/fx_unicode_directory_create.c **** UINT         i, status;
  52              		.loc 1 91 1 view .LVU3
  92:Middlewares/ST/filex/common/src/fx_unicode_directory_create.c **** ULONG        temp_length;
  53              		.loc 1 92 1 view .LVU4
  93:Middlewares/ST/filex/common/src/fx_unicode_directory_create.c **** UCHAR        destination_shortname[13];
  54              		.loc 1 93 1 view .LVU5
  94:Middlewares/ST/filex/common/src/fx_unicode_directory_create.c **** 
  95:Middlewares/ST/filex/common/src/fx_unicode_directory_create.c **** 
  96:Middlewares/ST/filex/common/src/fx_unicode_directory_create.c ****     /* Setup pointer to media name buffer.  */
  97:Middlewares/ST/filex/common/src/fx_unicode_directory_create.c ****     dir_entry.fx_dir_entry_name =  media_ptr -> fx_media_name_buffer + FX_MAX_LONG_NAME_LEN;
  55              		.loc 1 97 5 view .LVU6
  56              		.loc 1 97 70 is_stmt 0 view .LVU7
  57 000a 00F69C18 		addw	r8, r0, #2460
  58              		.loc 1 97 33 view .LVU8
  59 000e CDF82880 		str	r8, [sp, #40]
  98:Middlewares/ST/filex/common/src/fx_unicode_directory_create.c **** 
  99:Middlewares/ST/filex/common/src/fx_unicode_directory_create.c ****     /* Clear the short name string.  */
 100:Middlewares/ST/filex/common/src/fx_unicode_directory_create.c ****     dir_entry.fx_dir_entry_short_name[0] =  FX_NULL;
  60              		.loc 1 100 5 is_stmt 1 view .LVU9
  61              		.loc 1 100 42 is_stmt 0 view .LVU10
  62 0012 0023     		movs	r3, #0
  63              	.LVL1:
  64              		.loc 1 100 42 view .LVU11
  65 0014 8DF82C30 		strb	r3, [sp, #44]
 101:Middlewares/ST/filex/common/src/fx_unicode_directory_create.c **** 
 102:Middlewares/ST/filex/common/src/fx_unicode_directory_create.c ****     /* Set destination shortname to null.  */
 103:Middlewares/ST/filex/common/src/fx_unicode_directory_create.c ****     destination_shortname[0] =  FX_NULL;
  66              		.loc 1 103 5 is_stmt 1 view .LVU12
  67              		.loc 1 103 30 is_stmt 0 view .LVU13
  68 0018 8DF81430 		strb	r3, [sp, #20]
 104:Middlewares/ST/filex/common/src/fx_unicode_directory_create.c **** 
ARM GAS  C:\Users\HP\AppData\Local\Temp\cc2hlKqE.s 			page 4


 105:Middlewares/ST/filex/common/src/fx_unicode_directory_create.c ****     /* Clear the return short name.  */
 106:Middlewares/ST/filex/common/src/fx_unicode_directory_create.c ****     short_name[0] =  FX_NULL;
  69              		.loc 1 106 5 is_stmt 1 view .LVU14
  70              		.loc 1 106 19 is_stmt 0 view .LVU15
  71 001c 3370     		strb	r3, [r6]
 107:Middlewares/ST/filex/common/src/fx_unicode_directory_create.c **** 
 108:Middlewares/ST/filex/common/src/fx_unicode_directory_create.c ****     /* Check the media to make sure it is open.  */
 109:Middlewares/ST/filex/common/src/fx_unicode_directory_create.c ****     if (media_ptr -> fx_media_id != FX_MEDIA_ID)
  72              		.loc 1 109 5 is_stmt 1 view .LVU16
  73              		.loc 1 109 19 is_stmt 0 view .LVU17
  74 001e 0268     		ldr	r2, [r0]
  75              	.LVL2:
  76              		.loc 1 109 8 view .LVU18
  77 0020 474B     		ldr	r3, .L25
  78 0022 9A42     		cmp	r2, r3
  79 0024 05D0     		beq	.L19
 110:Middlewares/ST/filex/common/src/fx_unicode_directory_create.c ****     {
 111:Middlewares/ST/filex/common/src/fx_unicode_directory_create.c **** 
 112:Middlewares/ST/filex/common/src/fx_unicode_directory_create.c ****         /* Return the media not opened error.  */
 113:Middlewares/ST/filex/common/src/fx_unicode_directory_create.c ****         return(FX_MEDIA_NOT_OPEN);
  80              		.loc 1 113 15 view .LVU19
  81 0026 4FF0110A 		mov	r10, #17
  82              	.LVL3:
  83              	.L1:
 114:Middlewares/ST/filex/common/src/fx_unicode_directory_create.c ****     }
 115:Middlewares/ST/filex/common/src/fx_unicode_directory_create.c **** 
 116:Middlewares/ST/filex/common/src/fx_unicode_directory_create.c **** #ifdef FX_ENABLE_EXFAT
 117:Middlewares/ST/filex/common/src/fx_unicode_directory_create.c ****     /* Check if media format is exFAT.  */
 118:Middlewares/ST/filex/common/src/fx_unicode_directory_create.c ****     if (media_ptr -> fx_media_FAT_type == FX_exFAT)
 119:Middlewares/ST/filex/common/src/fx_unicode_directory_create.c ****     {
 120:Middlewares/ST/filex/common/src/fx_unicode_directory_create.c **** 
 121:Middlewares/ST/filex/common/src/fx_unicode_directory_create.c ****         /* Return the not implemented error.  */
 122:Middlewares/ST/filex/common/src/fx_unicode_directory_create.c ****         return(FX_NOT_IMPLEMENTED);
 123:Middlewares/ST/filex/common/src/fx_unicode_directory_create.c ****     }
 124:Middlewares/ST/filex/common/src/fx_unicode_directory_create.c **** #endif
 125:Middlewares/ST/filex/common/src/fx_unicode_directory_create.c **** 
 126:Middlewares/ST/filex/common/src/fx_unicode_directory_create.c ****     /* If trace is enabled, insert this event into the trace buffer.  */
 127:Middlewares/ST/filex/common/src/fx_unicode_directory_create.c ****     FX_TRACE_IN_LINE_INSERT(FX_TRACE_UNICODE_DIRECTORY_CREATE, media_ptr, source_unicode_name, sour
 128:Middlewares/ST/filex/common/src/fx_unicode_directory_create.c **** 
 129:Middlewares/ST/filex/common/src/fx_unicode_directory_create.c ****     /* Protect media.  */
 130:Middlewares/ST/filex/common/src/fx_unicode_directory_create.c ****     FX_PROTECT
 131:Middlewares/ST/filex/common/src/fx_unicode_directory_create.c **** 
 132:Middlewares/ST/filex/common/src/fx_unicode_directory_create.c **** #ifdef FX_ENABLE_FAULT_TOLERANT
 133:Middlewares/ST/filex/common/src/fx_unicode_directory_create.c ****     /* Start transaction. */
 134:Middlewares/ST/filex/common/src/fx_unicode_directory_create.c ****     _fx_fault_tolerant_transaction_start(media_ptr);
 135:Middlewares/ST/filex/common/src/fx_unicode_directory_create.c **** #endif /* FX_ENABLE_FAULT_TOLERANT */
 136:Middlewares/ST/filex/common/src/fx_unicode_directory_create.c **** 
 137:Middlewares/ST/filex/common/src/fx_unicode_directory_create.c ****     /* Check for write protect at the media level (set by driver).  */
 138:Middlewares/ST/filex/common/src/fx_unicode_directory_create.c ****     if (media_ptr -> fx_media_driver_write_protect)
 139:Middlewares/ST/filex/common/src/fx_unicode_directory_create.c ****     {
 140:Middlewares/ST/filex/common/src/fx_unicode_directory_create.c **** #ifdef FX_ENABLE_FAULT_TOLERANT
 141:Middlewares/ST/filex/common/src/fx_unicode_directory_create.c ****         FX_FAULT_TOLERANT_TRANSACTION_FAIL(media_ptr);
 142:Middlewares/ST/filex/common/src/fx_unicode_directory_create.c **** #endif /* FX_ENABLE_FAULT_TOLERANT */
 143:Middlewares/ST/filex/common/src/fx_unicode_directory_create.c **** 
 144:Middlewares/ST/filex/common/src/fx_unicode_directory_create.c ****         /* Release media protection.  */
 145:Middlewares/ST/filex/common/src/fx_unicode_directory_create.c ****         FX_UNPROTECT
 146:Middlewares/ST/filex/common/src/fx_unicode_directory_create.c **** 
ARM GAS  C:\Users\HP\AppData\Local\Temp\cc2hlKqE.s 			page 5


 147:Middlewares/ST/filex/common/src/fx_unicode_directory_create.c ****         /* Return write protect error.  */
 148:Middlewares/ST/filex/common/src/fx_unicode_directory_create.c ****         return(FX_WRITE_PROTECT);
 149:Middlewares/ST/filex/common/src/fx_unicode_directory_create.c ****     }
 150:Middlewares/ST/filex/common/src/fx_unicode_directory_create.c **** 
 151:Middlewares/ST/filex/common/src/fx_unicode_directory_create.c ****     /* Setup temporary length.  */
 152:Middlewares/ST/filex/common/src/fx_unicode_directory_create.c ****     temp_length =  source_unicode_length;
 153:Middlewares/ST/filex/common/src/fx_unicode_directory_create.c **** 
 154:Middlewares/ST/filex/common/src/fx_unicode_directory_create.c ****     /* Determine if the destination directory is already present.  */
 155:Middlewares/ST/filex/common/src/fx_unicode_directory_create.c ****     status =  _fx_unicode_directory_search(media_ptr, &dir_entry, destination_shortname, sizeof(des
 156:Middlewares/ST/filex/common/src/fx_unicode_directory_create.c **** 
 157:Middlewares/ST/filex/common/src/fx_unicode_directory_create.c ****     /* Determine if the search was successful.  */
 158:Middlewares/ST/filex/common/src/fx_unicode_directory_create.c ****     if (status == FX_SUCCESS)
 159:Middlewares/ST/filex/common/src/fx_unicode_directory_create.c ****     {
 160:Middlewares/ST/filex/common/src/fx_unicode_directory_create.c **** #ifdef FX_ENABLE_FAULT_TOLERANT
 161:Middlewares/ST/filex/common/src/fx_unicode_directory_create.c ****         FX_FAULT_TOLERANT_TRANSACTION_FAIL(media_ptr);
 162:Middlewares/ST/filex/common/src/fx_unicode_directory_create.c **** #endif /* FX_ENABLE_FAULT_TOLERANT */
 163:Middlewares/ST/filex/common/src/fx_unicode_directory_create.c **** 
 164:Middlewares/ST/filex/common/src/fx_unicode_directory_create.c ****         /* Release media protection.  */
 165:Middlewares/ST/filex/common/src/fx_unicode_directory_create.c ****         FX_UNPROTECT
 166:Middlewares/ST/filex/common/src/fx_unicode_directory_create.c **** 
 167:Middlewares/ST/filex/common/src/fx_unicode_directory_create.c ****         /* Return the error code.  */
 168:Middlewares/ST/filex/common/src/fx_unicode_directory_create.c ****         return(FX_ALREADY_CREATED);
 169:Middlewares/ST/filex/common/src/fx_unicode_directory_create.c ****     }
 170:Middlewares/ST/filex/common/src/fx_unicode_directory_create.c **** 
 171:Middlewares/ST/filex/common/src/fx_unicode_directory_create.c ****     /* Okay, at this point we need to create a new long directory name that has enough space for th
 172:Middlewares/ST/filex/common/src/fx_unicode_directory_create.c ****        eventual unicode directory name.  */
 173:Middlewares/ST/filex/common/src/fx_unicode_directory_create.c **** 
 174:Middlewares/ST/filex/common/src/fx_unicode_directory_create.c ****     /* Copy the characters from the unicode directory name and make sure they are
 175:Middlewares/ST/filex/common/src/fx_unicode_directory_create.c ****        within the ASCII range.  */
 176:Middlewares/ST/filex/common/src/fx_unicode_directory_create.c ****     _fx_unicode_temp_long_file_name[0] =  'z';
 177:Middlewares/ST/filex/common/src/fx_unicode_directory_create.c ****     for (i = 1; i < source_unicode_length; i++)
 178:Middlewares/ST/filex/common/src/fx_unicode_directory_create.c ****     {
 179:Middlewares/ST/filex/common/src/fx_unicode_directory_create.c **** 
 180:Middlewares/ST/filex/common/src/fx_unicode_directory_create.c ****         /* Build temporary long file name.  */
 181:Middlewares/ST/filex/common/src/fx_unicode_directory_create.c ****         _fx_unicode_temp_long_file_name[i] =  (UCHAR)((INT)'0' + (i % 9));
 182:Middlewares/ST/filex/common/src/fx_unicode_directory_create.c ****     }
 183:Middlewares/ST/filex/common/src/fx_unicode_directory_create.c ****     _fx_unicode_temp_long_file_name[i] =  FX_NULL;
 184:Middlewares/ST/filex/common/src/fx_unicode_directory_create.c **** 
 185:Middlewares/ST/filex/common/src/fx_unicode_directory_create.c ****     /* Loop to try different temp long file names... if necessary.  */
 186:Middlewares/ST/filex/common/src/fx_unicode_directory_create.c ****     do
 187:Middlewares/ST/filex/common/src/fx_unicode_directory_create.c ****     {
 188:Middlewares/ST/filex/common/src/fx_unicode_directory_create.c **** 
 189:Middlewares/ST/filex/common/src/fx_unicode_directory_create.c ****         /* Create a new directory with the temp long file name.  */
 190:Middlewares/ST/filex/common/src/fx_unicode_directory_create.c ****         status =  _fx_directory_create(media_ptr, (CHAR *)_fx_unicode_temp_long_file_name);
 191:Middlewares/ST/filex/common/src/fx_unicode_directory_create.c **** 
 192:Middlewares/ST/filex/common/src/fx_unicode_directory_create.c ****         /* Determine if there was an error.  */
 193:Middlewares/ST/filex/common/src/fx_unicode_directory_create.c ****         if (status == FX_ALREADY_CREATED)
 194:Middlewares/ST/filex/common/src/fx_unicode_directory_create.c ****         {
 195:Middlewares/ST/filex/common/src/fx_unicode_directory_create.c **** 
 196:Middlewares/ST/filex/common/src/fx_unicode_directory_create.c ****             /* Adjust the name slightly and try again!  */
 197:Middlewares/ST/filex/common/src/fx_unicode_directory_create.c ****             _fx_unicode_temp_long_file_name[0]--;
 198:Middlewares/ST/filex/common/src/fx_unicode_directory_create.c **** 
 199:Middlewares/ST/filex/common/src/fx_unicode_directory_create.c ****             /* Determine if it is outside the lower case boundary.  */
 200:Middlewares/ST/filex/common/src/fx_unicode_directory_create.c ****             if (_fx_unicode_temp_long_file_name[0] < 0x61)
 201:Middlewares/ST/filex/common/src/fx_unicode_directory_create.c ****             {
 202:Middlewares/ST/filex/common/src/fx_unicode_directory_create.c ****                 break;
 203:Middlewares/ST/filex/common/src/fx_unicode_directory_create.c ****             }
ARM GAS  C:\Users\HP\AppData\Local\Temp\cc2hlKqE.s 			page 6


 204:Middlewares/ST/filex/common/src/fx_unicode_directory_create.c ****         }
 205:Middlewares/ST/filex/common/src/fx_unicode_directory_create.c ****     } while (status == FX_ALREADY_CREATED);
 206:Middlewares/ST/filex/common/src/fx_unicode_directory_create.c **** 
 207:Middlewares/ST/filex/common/src/fx_unicode_directory_create.c ****     /* Determine if there was an error.  */
 208:Middlewares/ST/filex/common/src/fx_unicode_directory_create.c ****     if (status)
 209:Middlewares/ST/filex/common/src/fx_unicode_directory_create.c ****     {
 210:Middlewares/ST/filex/common/src/fx_unicode_directory_create.c **** #ifdef FX_ENABLE_FAULT_TOLERANT
 211:Middlewares/ST/filex/common/src/fx_unicode_directory_create.c ****         FX_FAULT_TOLERANT_TRANSACTION_FAIL(media_ptr);
 212:Middlewares/ST/filex/common/src/fx_unicode_directory_create.c **** #endif /* FX_ENABLE_FAULT_TOLERANT */
 213:Middlewares/ST/filex/common/src/fx_unicode_directory_create.c **** 
 214:Middlewares/ST/filex/common/src/fx_unicode_directory_create.c ****         /* Release media protection.  */
 215:Middlewares/ST/filex/common/src/fx_unicode_directory_create.c ****         FX_UNPROTECT
 216:Middlewares/ST/filex/common/src/fx_unicode_directory_create.c **** 
 217:Middlewares/ST/filex/common/src/fx_unicode_directory_create.c ****         /* Return error.  */
 218:Middlewares/ST/filex/common/src/fx_unicode_directory_create.c ****         return(status);
 219:Middlewares/ST/filex/common/src/fx_unicode_directory_create.c ****     }
 220:Middlewares/ST/filex/common/src/fx_unicode_directory_create.c **** 
 221:Middlewares/ST/filex/common/src/fx_unicode_directory_create.c ****     /* Setup pointer to media name buffer.  */
 222:Middlewares/ST/filex/common/src/fx_unicode_directory_create.c ****     dir_entry.fx_dir_entry_name =  media_ptr -> fx_media_name_buffer + FX_MAX_LONG_NAME_LEN;
 223:Middlewares/ST/filex/common/src/fx_unicode_directory_create.c **** 
 224:Middlewares/ST/filex/common/src/fx_unicode_directory_create.c ****     /* Clear the short name string.  */
 225:Middlewares/ST/filex/common/src/fx_unicode_directory_create.c ****     dir_entry.fx_dir_entry_short_name[0] =  0;
 226:Middlewares/ST/filex/common/src/fx_unicode_directory_create.c **** 
 227:Middlewares/ST/filex/common/src/fx_unicode_directory_create.c ****     /* Search the system for the supplied file name.  */
 228:Middlewares/ST/filex/common/src/fx_unicode_directory_create.c ****     status =  _fx_directory_search(media_ptr, (CHAR *)_fx_unicode_temp_long_file_name, &dir_entry, 
 229:Middlewares/ST/filex/common/src/fx_unicode_directory_create.c **** 
 230:Middlewares/ST/filex/common/src/fx_unicode_directory_create.c ****     /* Determine if the search was successful.  */
 231:Middlewares/ST/filex/common/src/fx_unicode_directory_create.c ****     if (status != FX_SUCCESS)
 232:Middlewares/ST/filex/common/src/fx_unicode_directory_create.c ****     {
 233:Middlewares/ST/filex/common/src/fx_unicode_directory_create.c **** #ifdef FX_ENABLE_FAULT_TOLERANT
 234:Middlewares/ST/filex/common/src/fx_unicode_directory_create.c ****         FX_FAULT_TOLERANT_TRANSACTION_FAIL(media_ptr);
 235:Middlewares/ST/filex/common/src/fx_unicode_directory_create.c **** #endif /* FX_ENABLE_FAULT_TOLERANT */
 236:Middlewares/ST/filex/common/src/fx_unicode_directory_create.c **** 
 237:Middlewares/ST/filex/common/src/fx_unicode_directory_create.c ****         /* Release media protection.  */
 238:Middlewares/ST/filex/common/src/fx_unicode_directory_create.c ****         FX_UNPROTECT
 239:Middlewares/ST/filex/common/src/fx_unicode_directory_create.c **** 
 240:Middlewares/ST/filex/common/src/fx_unicode_directory_create.c ****         /* Return the error status.  */
 241:Middlewares/ST/filex/common/src/fx_unicode_directory_create.c ****         return(status);
 242:Middlewares/ST/filex/common/src/fx_unicode_directory_create.c ****     }
 243:Middlewares/ST/filex/common/src/fx_unicode_directory_create.c **** 
 244:Middlewares/ST/filex/common/src/fx_unicode_directory_create.c ****     /* We can now change the temporary long file name with the destination unicode name.  */
 245:Middlewares/ST/filex/common/src/fx_unicode_directory_create.c ****     status =  _fx_unicode_directory_entry_change(media_ptr, &dir_entry,  source_unicode_name, sourc
 246:Middlewares/ST/filex/common/src/fx_unicode_directory_create.c **** 
 247:Middlewares/ST/filex/common/src/fx_unicode_directory_create.c ****     /* Was this successful?  */
 248:Middlewares/ST/filex/common/src/fx_unicode_directory_create.c ****     if (status == FX_SUCCESS)
 249:Middlewares/ST/filex/common/src/fx_unicode_directory_create.c ****     {
 250:Middlewares/ST/filex/common/src/fx_unicode_directory_create.c **** 
 251:Middlewares/ST/filex/common/src/fx_unicode_directory_create.c ****         /* Yes, copy the short file name to the destination.  */
 252:Middlewares/ST/filex/common/src/fx_unicode_directory_create.c ****         /* The new short name only have 8 characters, since we didn't include a dot in temp_long_fi
 253:Middlewares/ST/filex/common/src/fx_unicode_directory_create.c ****         for (i = 0; i < FX_DIR_NAME_SIZE; i++)
 254:Middlewares/ST/filex/common/src/fx_unicode_directory_create.c ****         {
 255:Middlewares/ST/filex/common/src/fx_unicode_directory_create.c **** 
 256:Middlewares/ST/filex/common/src/fx_unicode_directory_create.c ****             /* Copy a character.  */
 257:Middlewares/ST/filex/common/src/fx_unicode_directory_create.c ****             short_name[i] =  dir_entry.fx_dir_entry_short_name[i];
 258:Middlewares/ST/filex/common/src/fx_unicode_directory_create.c **** 
 259:Middlewares/ST/filex/common/src/fx_unicode_directory_create.c ****             /* Are we done?  */
 260:Middlewares/ST/filex/common/src/fx_unicode_directory_create.c ****             if (short_name[i] == FX_NULL)
ARM GAS  C:\Users\HP\AppData\Local\Temp\cc2hlKqE.s 			page 7


 261:Middlewares/ST/filex/common/src/fx_unicode_directory_create.c ****             {
 262:Middlewares/ST/filex/common/src/fx_unicode_directory_create.c ****                 break;
 263:Middlewares/ST/filex/common/src/fx_unicode_directory_create.c ****             }
 264:Middlewares/ST/filex/common/src/fx_unicode_directory_create.c ****         }
 265:Middlewares/ST/filex/common/src/fx_unicode_directory_create.c ****     }
 266:Middlewares/ST/filex/common/src/fx_unicode_directory_create.c **** 
 267:Middlewares/ST/filex/common/src/fx_unicode_directory_create.c **** #ifdef FX_ENABLE_FAULT_TOLERANT
 268:Middlewares/ST/filex/common/src/fx_unicode_directory_create.c ****     /* Check for a bad status.  */
 269:Middlewares/ST/filex/common/src/fx_unicode_directory_create.c ****     if (status != FX_SUCCESS)
 270:Middlewares/ST/filex/common/src/fx_unicode_directory_create.c ****     {
 271:Middlewares/ST/filex/common/src/fx_unicode_directory_create.c **** 
 272:Middlewares/ST/filex/common/src/fx_unicode_directory_create.c ****         FX_FAULT_TOLERANT_TRANSACTION_FAIL(media_ptr);
 273:Middlewares/ST/filex/common/src/fx_unicode_directory_create.c **** 
 274:Middlewares/ST/filex/common/src/fx_unicode_directory_create.c ****         /* Release media protection.  */
 275:Middlewares/ST/filex/common/src/fx_unicode_directory_create.c ****         FX_UNPROTECT
 276:Middlewares/ST/filex/common/src/fx_unicode_directory_create.c **** 
 277:Middlewares/ST/filex/common/src/fx_unicode_directory_create.c ****         /* Return the bad status.  */
 278:Middlewares/ST/filex/common/src/fx_unicode_directory_create.c ****         return(status);
 279:Middlewares/ST/filex/common/src/fx_unicode_directory_create.c ****     }
 280:Middlewares/ST/filex/common/src/fx_unicode_directory_create.c **** 
 281:Middlewares/ST/filex/common/src/fx_unicode_directory_create.c ****     /* End transaction. */
 282:Middlewares/ST/filex/common/src/fx_unicode_directory_create.c ****     status = _fx_fault_tolerant_transaction_end(media_ptr);
 283:Middlewares/ST/filex/common/src/fx_unicode_directory_create.c **** #endif /* FX_ENABLE_FAULT_TOLERANT */
 284:Middlewares/ST/filex/common/src/fx_unicode_directory_create.c **** 
 285:Middlewares/ST/filex/common/src/fx_unicode_directory_create.c ****     /* Release the protection.  */
 286:Middlewares/ST/filex/common/src/fx_unicode_directory_create.c ****     FX_UNPROTECT
 287:Middlewares/ST/filex/common/src/fx_unicode_directory_create.c **** 
 288:Middlewares/ST/filex/common/src/fx_unicode_directory_create.c ****     /* Return completion status.  */
 289:Middlewares/ST/filex/common/src/fx_unicode_directory_create.c ****     return(status);
 290:Middlewares/ST/filex/common/src/fx_unicode_directory_create.c **** }
  84              		.loc 1 290 1 view .LVU20
  85 002a 5046     		mov	r0, r10
  86 002c 26B0     		add	sp, sp, #152
  87              	.LCFI2:
  88              		.cfi_remember_state
  89              		.cfi_def_cfa_offset 32
  90              		@ sp needed
  91 002e BDE8F087 		pop	{r4, r5, r6, r7, r8, r9, r10, pc}
  92              	.LVL4:
  93              	.L19:
  94              	.LCFI3:
  95              		.cfi_restore_state
  96              		.loc 1 290 1 view .LVU21
  97 0032 0446     		mov	r4, r0
  98 0034 0F46     		mov	r7, r1
 130:Middlewares/ST/filex/common/src/fx_unicode_directory_create.c **** 
  99              		.loc 1 130 5 is_stmt 1 discriminator 2 view .LVU22
 130:Middlewares/ST/filex/common/src/fx_unicode_directory_create.c **** 
 100              		.loc 1 130 5 discriminator 2 view .LVU23
 101 0036 00F5E479 		add	r9, r0, #456
 102 003a 4FF0FF31 		mov	r1, #-1
 103              	.LVL5:
 130:Middlewares/ST/filex/common/src/fx_unicode_directory_create.c **** 
 104              		.loc 1 130 5 is_stmt 0 discriminator 2 view .LVU24
 105 003e 4846     		mov	r0, r9
 106              	.LVL6:
 130:Middlewares/ST/filex/common/src/fx_unicode_directory_create.c **** 
ARM GAS  C:\Users\HP\AppData\Local\Temp\cc2hlKqE.s 			page 8


 107              		.loc 1 130 5 discriminator 2 view .LVU25
 108 0040 FFF7FEFF 		bl	_tx_mutex_get
 109              	.LVL7:
 110 0044 0028     		cmp	r0, #0
 111 0046 78D1     		bne	.L16
 138:Middlewares/ST/filex/common/src/fx_unicode_directory_create.c ****     {
 112              		.loc 1 138 5 is_stmt 1 view .LVU26
 138:Middlewares/ST/filex/common/src/fx_unicode_directory_create.c ****     {
 113              		.loc 1 138 19 is_stmt 0 view .LVU27
 114 0048 D4F8A830 		ldr	r3, [r4, #168]
 138:Middlewares/ST/filex/common/src/fx_unicode_directory_create.c ****     {
 115              		.loc 1 138 8 view .LVU28
 116 004c 8BB9     		cbnz	r3, .L20
 152:Middlewares/ST/filex/common/src/fx_unicode_directory_create.c **** 
 117              		.loc 1 152 5 is_stmt 1 view .LVU29
 152:Middlewares/ST/filex/common/src/fx_unicode_directory_create.c **** 
 118              		.loc 1 152 17 is_stmt 0 view .LVU30
 119 004e 0995     		str	r5, [sp, #36]
 155:Middlewares/ST/filex/common/src/fx_unicode_directory_create.c **** 
 120              		.loc 1 155 5 is_stmt 1 view .LVU31
 155:Middlewares/ST/filex/common/src/fx_unicode_directory_create.c **** 
 121              		.loc 1 155 15 is_stmt 0 view .LVU32
 122 0050 0023     		movs	r3, #0
 123 0052 0293     		str	r3, [sp, #8]
 124 0054 09AB     		add	r3, sp, #36
 125 0056 0193     		str	r3, [sp, #4]
 126 0058 0097     		str	r7, [sp]
 127 005a 0D23     		movs	r3, #13
 128 005c 05AA     		add	r2, sp, #20
 129 005e 0AA9     		add	r1, sp, #40
 130 0060 2046     		mov	r0, r4
 131 0062 FFF7FEFF 		bl	_fx_unicode_directory_search
 132              	.LVL8:
 158:Middlewares/ST/filex/common/src/fx_unicode_directory_create.c ****     {
 133              		.loc 1 158 5 is_stmt 1 view .LVU33
 158:Middlewares/ST/filex/common/src/fx_unicode_directory_create.c ****     {
 134              		.loc 1 158 8 is_stmt 0 view .LVU34
 135 0066 50B1     		cbz	r0, .L21
 176:Middlewares/ST/filex/common/src/fx_unicode_directory_create.c ****     for (i = 1; i < source_unicode_length; i++)
 136              		.loc 1 176 5 is_stmt 1 view .LVU35
 176:Middlewares/ST/filex/common/src/fx_unicode_directory_create.c ****     for (i = 1; i < source_unicode_length; i++)
 137              		.loc 1 176 40 is_stmt 0 view .LVU36
 138 0068 364B     		ldr	r3, .L25+4
 139 006a 7A22     		movs	r2, #122
 140 006c 1A70     		strb	r2, [r3]
 177:Middlewares/ST/filex/common/src/fx_unicode_directory_create.c ****     {
 141              		.loc 1 177 5 is_stmt 1 view .LVU37
 142              	.LVL9:
 177:Middlewares/ST/filex/common/src/fx_unicode_directory_create.c ****     {
 143              		.loc 1 177 12 is_stmt 0 view .LVU38
 144 006e 0122     		movs	r2, #1
 177:Middlewares/ST/filex/common/src/fx_unicode_directory_create.c ****     {
 145              		.loc 1 177 5 view .LVU39
 146 0070 1AE0     		b	.L5
 147              	.LVL10:
 148              	.L20:
 145:Middlewares/ST/filex/common/src/fx_unicode_directory_create.c **** 
ARM GAS  C:\Users\HP\AppData\Local\Temp\cc2hlKqE.s 			page 9


 149              		.loc 1 145 9 is_stmt 1 view .LVU40
 150 0072 4846     		mov	r0, r9
 151 0074 FFF7FEFF 		bl	_tx_mutex_put
 152              	.LVL11:
 148:Middlewares/ST/filex/common/src/fx_unicode_directory_create.c ****     }
 153              		.loc 1 148 9 view .LVU41
 148:Middlewares/ST/filex/common/src/fx_unicode_directory_create.c ****     }
 154              		.loc 1 148 15 is_stmt 0 view .LVU42
 155 0078 4FF0230A 		mov	r10, #35
 156 007c D5E7     		b	.L1
 157              	.LVL12:
 158              	.L21:
 165:Middlewares/ST/filex/common/src/fx_unicode_directory_create.c **** 
 159              		.loc 1 165 9 is_stmt 1 view .LVU43
 160 007e 4846     		mov	r0, r9
 161              	.LVL13:
 165:Middlewares/ST/filex/common/src/fx_unicode_directory_create.c **** 
 162              		.loc 1 165 9 is_stmt 0 view .LVU44
 163 0080 FFF7FEFF 		bl	_tx_mutex_put
 164              	.LVL14:
 168:Middlewares/ST/filex/common/src/fx_unicode_directory_create.c ****     }
 165              		.loc 1 168 9 is_stmt 1 view .LVU45
 168:Middlewares/ST/filex/common/src/fx_unicode_directory_create.c ****     }
 166              		.loc 1 168 15 is_stmt 0 view .LVU46
 167 0084 4FF00B0A 		mov	r10, #11
 168 0088 CFE7     		b	.L1
 169              	.LVL15:
 170              	.L6:
 181:Middlewares/ST/filex/common/src/fx_unicode_directory_create.c ****     }
 171              		.loc 1 181 9 is_stmt 1 discriminator 3 view .LVU47
 181:Middlewares/ST/filex/common/src/fx_unicode_directory_create.c ****     }
 172              		.loc 1 181 69 is_stmt 0 discriminator 3 view .LVU48
 173 008a 2F4B     		ldr	r3, .L25+8
 174 008c A3FB023C 		umull	r3, ip, r3, r2
 175 0090 4FEA5C0C 		lsr	ip, ip, #1
 176 0094 0CEBCC0C 		add	ip, ip, ip, lsl #3
 177 0098 A2EB0C0C 		sub	ip, r2, ip
 181:Middlewares/ST/filex/common/src/fx_unicode_directory_create.c ****     }
 178              		.loc 1 181 47 discriminator 3 view .LVU49
 179 009c 0CF1300C 		add	ip, ip, #48
 181:Middlewares/ST/filex/common/src/fx_unicode_directory_create.c ****     }
 180              		.loc 1 181 44 discriminator 3 view .LVU50
 181 00a0 284B     		ldr	r3, .L25+4
 182 00a2 03F802C0 		strb	ip, [r3, r2]
 177:Middlewares/ST/filex/common/src/fx_unicode_directory_create.c ****     {
 183              		.loc 1 177 44 is_stmt 1 discriminator 3 view .LVU51
 177:Middlewares/ST/filex/common/src/fx_unicode_directory_create.c ****     {
 184              		.loc 1 177 45 is_stmt 0 discriminator 3 view .LVU52
 185 00a6 0132     		adds	r2, r2, #1
 186              	.LVL16:
 187              	.L5:
 177:Middlewares/ST/filex/common/src/fx_unicode_directory_create.c ****     {
 188              		.loc 1 177 17 is_stmt 1 discriminator 1 view .LVU53
 177:Middlewares/ST/filex/common/src/fx_unicode_directory_create.c ****     {
 189              		.loc 1 177 5 is_stmt 0 discriminator 1 view .LVU54
 190 00a8 AA42     		cmp	r2, r5
 191 00aa EED3     		bcc	.L6
ARM GAS  C:\Users\HP\AppData\Local\Temp\cc2hlKqE.s 			page 10


 183:Middlewares/ST/filex/common/src/fx_unicode_directory_create.c **** 
 192              		.loc 1 183 5 is_stmt 1 view .LVU55
 183:Middlewares/ST/filex/common/src/fx_unicode_directory_create.c **** 
 193              		.loc 1 183 40 is_stmt 0 view .LVU56
 194 00ac 254B     		ldr	r3, .L25+4
 195 00ae 0021     		movs	r1, #0
 196 00b0 9954     		strb	r1, [r3, r2]
 197 00b2 02E0     		b	.L9
 198              	.LVL17:
 199              	.L7:
 205:Middlewares/ST/filex/common/src/fx_unicode_directory_create.c **** 
 200              		.loc 1 205 13 is_stmt 1 view .LVU57
 205:Middlewares/ST/filex/common/src/fx_unicode_directory_create.c **** 
 201              		.loc 1 205 5 is_stmt 0 view .LVU58
 202 00b4 BAF10B0F 		cmp	r10, #11
 203 00b8 0DD1     		bne	.L8
 204              	.L9:
 186:Middlewares/ST/filex/common/src/fx_unicode_directory_create.c ****     {
 205              		.loc 1 186 5 is_stmt 1 view .LVU59
 190:Middlewares/ST/filex/common/src/fx_unicode_directory_create.c **** 
 206              		.loc 1 190 9 view .LVU60
 190:Middlewares/ST/filex/common/src/fx_unicode_directory_create.c **** 
 207              		.loc 1 190 19 is_stmt 0 view .LVU61
 208 00ba 2249     		ldr	r1, .L25+4
 209 00bc 2046     		mov	r0, r4
 210              	.LVL18:
 190:Middlewares/ST/filex/common/src/fx_unicode_directory_create.c **** 
 211              		.loc 1 190 19 view .LVU62
 212 00be FFF7FEFF 		bl	_fx_directory_create
 213              	.LVL19:
 214 00c2 8246     		mov	r10, r0
 215              	.LVL20:
 193:Middlewares/ST/filex/common/src/fx_unicode_directory_create.c ****         {
 216              		.loc 1 193 9 is_stmt 1 view .LVU63
 193:Middlewares/ST/filex/common/src/fx_unicode_directory_create.c ****         {
 217              		.loc 1 193 12 is_stmt 0 view .LVU64
 218 00c4 0B28     		cmp	r0, #11
 219 00c6 F5D1     		bne	.L7
 197:Middlewares/ST/filex/common/src/fx_unicode_directory_create.c **** 
 220              		.loc 1 197 13 is_stmt 1 view .LVU65
 197:Middlewares/ST/filex/common/src/fx_unicode_directory_create.c **** 
 221              		.loc 1 197 44 is_stmt 0 view .LVU66
 222 00c8 1E4A     		ldr	r2, .L25+4
 223 00ca 1378     		ldrb	r3, [r2]	@ zero_extendqisi2
 197:Middlewares/ST/filex/common/src/fx_unicode_directory_create.c **** 
 224              		.loc 1 197 47 view .LVU67
 225 00cc 013B     		subs	r3, r3, #1
 226 00ce DBB2     		uxtb	r3, r3
 227 00d0 1370     		strb	r3, [r2]
 200:Middlewares/ST/filex/common/src/fx_unicode_directory_create.c ****             {
 228              		.loc 1 200 13 is_stmt 1 view .LVU68
 200:Middlewares/ST/filex/common/src/fx_unicode_directory_create.c ****             {
 229              		.loc 1 200 16 is_stmt 0 view .LVU69
 230 00d2 602B     		cmp	r3, #96
 231 00d4 EED8     		bhi	.L7
 232              	.L8:
 208:Middlewares/ST/filex/common/src/fx_unicode_directory_create.c ****     {
ARM GAS  C:\Users\HP\AppData\Local\Temp\cc2hlKqE.s 			page 11


 233              		.loc 1 208 5 is_stmt 1 view .LVU70
 208:Middlewares/ST/filex/common/src/fx_unicode_directory_create.c ****     {
 234              		.loc 1 208 8 is_stmt 0 view .LVU71
 235 00d6 BAF1000F 		cmp	r10, #0
 236 00da 18D1     		bne	.L22
 222:Middlewares/ST/filex/common/src/fx_unicode_directory_create.c **** 
 237              		.loc 1 222 5 is_stmt 1 view .LVU72
 222:Middlewares/ST/filex/common/src/fx_unicode_directory_create.c **** 
 238              		.loc 1 222 33 is_stmt 0 view .LVU73
 239 00dc CDF82880 		str	r8, [sp, #40]
 225:Middlewares/ST/filex/common/src/fx_unicode_directory_create.c **** 
 240              		.loc 1 225 5 is_stmt 1 view .LVU74
 225:Middlewares/ST/filex/common/src/fx_unicode_directory_create.c **** 
 241              		.loc 1 225 42 is_stmt 0 view .LVU75
 242 00e0 0023     		movs	r3, #0
 243 00e2 8DF82C30 		strb	r3, [sp, #44]
 228:Middlewares/ST/filex/common/src/fx_unicode_directory_create.c **** 
 244              		.loc 1 228 5 is_stmt 1 view .LVU76
 228:Middlewares/ST/filex/common/src/fx_unicode_directory_create.c **** 
 245              		.loc 1 228 15 is_stmt 0 view .LVU77
 246 00e6 0093     		str	r3, [sp]
 247 00e8 0AAA     		add	r2, sp, #40
 248 00ea 1649     		ldr	r1, .L25+4
 249 00ec 2046     		mov	r0, r4
 250              	.LVL21:
 228:Middlewares/ST/filex/common/src/fx_unicode_directory_create.c **** 
 251              		.loc 1 228 15 view .LVU78
 252 00ee FFF7FEFF 		bl	_fx_directory_search
 253              	.LVL22:
 231:Middlewares/ST/filex/common/src/fx_unicode_directory_create.c ****     {
 254              		.loc 1 231 5 is_stmt 1 view .LVU79
 231:Middlewares/ST/filex/common/src/fx_unicode_directory_create.c ****     {
 255              		.loc 1 231 8 is_stmt 0 view .LVU80
 256 00f2 8246     		mov	r10, r0
 257 00f4 78B9     		cbnz	r0, .L23
 245:Middlewares/ST/filex/common/src/fx_unicode_directory_create.c **** 
 258              		.loc 1 245 5 is_stmt 1 view .LVU81
 245:Middlewares/ST/filex/common/src/fx_unicode_directory_create.c **** 
 259              		.loc 1 245 15 is_stmt 0 view .LVU82
 260 00f6 2B46     		mov	r3, r5
 261 00f8 3A46     		mov	r2, r7
 262 00fa 0AA9     		add	r1, sp, #40
 263 00fc 2046     		mov	r0, r4
 264              	.LVL23:
 245:Middlewares/ST/filex/common/src/fx_unicode_directory_create.c **** 
 265              		.loc 1 245 15 view .LVU83
 266 00fe FFF7FEFF 		bl	_fx_unicode_directory_entry_change
 267              	.LVL24:
 248:Middlewares/ST/filex/common/src/fx_unicode_directory_create.c ****     {
 268              		.loc 1 248 5 is_stmt 1 view .LVU84
 248:Middlewares/ST/filex/common/src/fx_unicode_directory_create.c ****     {
 269              		.loc 1 248 8 is_stmt 0 view .LVU85
 270 0102 8246     		mov	r10, r0
 271 0104 B8B1     		cbz	r0, .L17
 272              	.L13:
 286:Middlewares/ST/filex/common/src/fx_unicode_directory_create.c **** 
 273              		.loc 1 286 5 is_stmt 1 view .LVU86
ARM GAS  C:\Users\HP\AppData\Local\Temp\cc2hlKqE.s 			page 12


 274 0106 4846     		mov	r0, r9
 275              	.LVL25:
 286:Middlewares/ST/filex/common/src/fx_unicode_directory_create.c **** 
 276              		.loc 1 286 5 is_stmt 0 view .LVU87
 277 0108 FFF7FEFF 		bl	_tx_mutex_put
 278              	.LVL26:
 289:Middlewares/ST/filex/common/src/fx_unicode_directory_create.c **** }
 279              		.loc 1 289 5 is_stmt 1 view .LVU88
 289:Middlewares/ST/filex/common/src/fx_unicode_directory_create.c **** }
 280              		.loc 1 289 11 is_stmt 0 view .LVU89
 281 010c 8DE7     		b	.L1
 282              	.LVL27:
 283              	.L22:
 215:Middlewares/ST/filex/common/src/fx_unicode_directory_create.c **** 
 284              		.loc 1 215 9 is_stmt 1 view .LVU90
 285 010e 4846     		mov	r0, r9
 286              	.LVL28:
 215:Middlewares/ST/filex/common/src/fx_unicode_directory_create.c **** 
 287              		.loc 1 215 9 is_stmt 0 view .LVU91
 288 0110 FFF7FEFF 		bl	_tx_mutex_put
 289              	.LVL29:
 218:Middlewares/ST/filex/common/src/fx_unicode_directory_create.c ****     }
 290              		.loc 1 218 9 is_stmt 1 view .LVU92
 218:Middlewares/ST/filex/common/src/fx_unicode_directory_create.c ****     }
 291              		.loc 1 218 15 is_stmt 0 view .LVU93
 292 0114 89E7     		b	.L1
 293              	.LVL30:
 294              	.L23:
 238:Middlewares/ST/filex/common/src/fx_unicode_directory_create.c **** 
 295              		.loc 1 238 9 is_stmt 1 view .LVU94
 296 0116 4846     		mov	r0, r9
 297              	.LVL31:
 238:Middlewares/ST/filex/common/src/fx_unicode_directory_create.c **** 
 298              		.loc 1 238 9 is_stmt 0 view .LVU95
 299 0118 FFF7FEFF 		bl	_tx_mutex_put
 300              	.LVL32:
 241:Middlewares/ST/filex/common/src/fx_unicode_directory_create.c ****     }
 301              		.loc 1 241 9 is_stmt 1 view .LVU96
 241:Middlewares/ST/filex/common/src/fx_unicode_directory_create.c ****     }
 302              		.loc 1 241 15 is_stmt 0 view .LVU97
 303 011c 85E7     		b	.L1
 304              	.LVL33:
 305              	.L24:
 253:Middlewares/ST/filex/common/src/fx_unicode_directory_create.c ****         {
 306              		.loc 1 253 43 is_stmt 1 discriminator 2 view .LVU98
 253:Middlewares/ST/filex/common/src/fx_unicode_directory_create.c ****         {
 307              		.loc 1 253 44 is_stmt 0 discriminator 2 view .LVU99
 308 011e 0133     		adds	r3, r3, #1
 309              	.LVL34:
 310              	.L12:
 253:Middlewares/ST/filex/common/src/fx_unicode_directory_create.c ****         {
 311              		.loc 1 253 21 is_stmt 1 discriminator 1 view .LVU100
 253:Middlewares/ST/filex/common/src/fx_unicode_directory_create.c ****         {
 312              		.loc 1 253 9 is_stmt 0 discriminator 1 view .LVU101
 313 0120 072B     		cmp	r3, #7
 314 0122 F0D8     		bhi	.L13
 257:Middlewares/ST/filex/common/src/fx_unicode_directory_create.c **** 
ARM GAS  C:\Users\HP\AppData\Local\Temp\cc2hlKqE.s 			page 13


 315              		.loc 1 257 13 is_stmt 1 view .LVU102
 257:Middlewares/ST/filex/common/src/fx_unicode_directory_create.c **** 
 316              		.loc 1 257 63 is_stmt 0 view .LVU103
 317 0124 03F19802 		add	r2, r3, #152
 318 0128 6A44     		add	r2, sp, r2
 319 012a 12F86C2C 		ldrb	r2, [r2, #-108]	@ zero_extendqisi2
 257:Middlewares/ST/filex/common/src/fx_unicode_directory_create.c **** 
 320              		.loc 1 257 27 view .LVU104
 321 012e F254     		strb	r2, [r6, r3]
 260:Middlewares/ST/filex/common/src/fx_unicode_directory_create.c ****             {
 322              		.loc 1 260 13 is_stmt 1 view .LVU105
 260:Middlewares/ST/filex/common/src/fx_unicode_directory_create.c ****             {
 323              		.loc 1 260 16 is_stmt 0 view .LVU106
 324 0130 002A     		cmp	r2, #0
 325 0132 F4D1     		bne	.L24
 326 0134 E7E7     		b	.L13
 327              	.LVL35:
 328              	.L17:
 253:Middlewares/ST/filex/common/src/fx_unicode_directory_create.c ****         {
 329              		.loc 1 253 16 view .LVU107
 330 0136 0346     		mov	r3, r0
 331 0138 F2E7     		b	.L12
 332              	.LVL36:
 333              	.L16:
 130:Middlewares/ST/filex/common/src/fx_unicode_directory_create.c **** 
 334              		.loc 1 130 5 view .LVU108
 335 013a 4FF0110A 		mov	r10, #17
 336 013e 74E7     		b	.L1
 337              	.L26:
 338              		.align	2
 339              	.L25:
 340 0140 4944454D 		.word	1296385097
 341 0144 00000000 		.word	_fx_unicode_temp_long_file_name
 342 0148 398EE338 		.word	954437177
 343              		.cfi_endproc
 344              	.LFE8:
 346              		.text
 347              	.Letext0:
 348              		.file 2 "Middlewares/ST/threadx/ports/cortex_m4/gnu/inc/tx_port.h"
 349              		.file 3 "Middlewares/ST/threadx/common/inc/tx_api.h"
 350              		.file 4 "Middlewares/ST/filex/common/inc/fx_api.h"
 351              		.file 5 "Middlewares/ST/filex/common/inc/fx_unicode.h"
 352              		.file 6 "Middlewares/ST/filex/common/inc/fx_directory.h"
ARM GAS  C:\Users\HP\AppData\Local\Temp\cc2hlKqE.s 			page 14

