ARM GAS  C:\Users\HP\AppData\Local\Temp\ccdZbrrE.s 			page 1


   1              		.cpu cortex-m4
   2              		.arch armv7e-m
   3              		.fpu fpv4-sp-d16
   4              		.eabi_attribute 27, 1
   5              		.eabi_attribute 28, 1
   6              		.eabi_attribute 20, 1
   7              		.eabi_attribute 21, 1
   8              		.eabi_attribute 23, 3
   9              		.eabi_attribute 24, 1
  10              		.eabi_attribute 25, 1
  11              		.eabi_attribute 26, 1
  12              		.eabi_attribute 30, 1
  13              		.eabi_attribute 34, 1
  14              		.eabi_attribute 18, 4
  15              		.file	"fx_utility_64_unsigned_write.c"
  16              		.text
  17              	.Ltext0:
  18              		.cfi_sections	.debug_frame
  19              		.section	.text._fx_utility_64_unsigned_write,"ax",%progbits
  20              		.align	1
  21              		.global	_fx_utility_64_unsigned_write
  22              		.syntax unified
  23              		.thumb
  24              		.thumb_func
  26              	_fx_utility_64_unsigned_write:
  27              	.LVL0:
  28              	.LFB8:
  29              		.file 1 "Middlewares/ST/filex/common/src/fx_utility_64_unsigned_write.c"
   1:Middlewares/ST/filex/common/src/fx_utility_64_unsigned_write.c **** /**************************************************************************/
   2:Middlewares/ST/filex/common/src/fx_utility_64_unsigned_write.c **** /*                                                                        */
   3:Middlewares/ST/filex/common/src/fx_utility_64_unsigned_write.c **** /*       Copyright (c) Microsoft Corporation. All rights reserved.        */
   4:Middlewares/ST/filex/common/src/fx_utility_64_unsigned_write.c **** /*                                                                        */
   5:Middlewares/ST/filex/common/src/fx_utility_64_unsigned_write.c **** /*       This software is licensed under the Microsoft Software License   */
   6:Middlewares/ST/filex/common/src/fx_utility_64_unsigned_write.c **** /*       Terms for Microsoft Azure RTOS. Full text of the license can be  */
   7:Middlewares/ST/filex/common/src/fx_utility_64_unsigned_write.c **** /*       found in the LICENSE file at https://aka.ms/AzureRTOS_EULA       */
   8:Middlewares/ST/filex/common/src/fx_utility_64_unsigned_write.c **** /*       and in the root directory of this software.                      */
   9:Middlewares/ST/filex/common/src/fx_utility_64_unsigned_write.c **** /*                                                                        */
  10:Middlewares/ST/filex/common/src/fx_utility_64_unsigned_write.c **** /**************************************************************************/
  11:Middlewares/ST/filex/common/src/fx_utility_64_unsigned_write.c **** 
  12:Middlewares/ST/filex/common/src/fx_utility_64_unsigned_write.c **** 
  13:Middlewares/ST/filex/common/src/fx_utility_64_unsigned_write.c **** /**************************************************************************/
  14:Middlewares/ST/filex/common/src/fx_utility_64_unsigned_write.c **** /**************************************************************************/
  15:Middlewares/ST/filex/common/src/fx_utility_64_unsigned_write.c **** /**                                                                       */
  16:Middlewares/ST/filex/common/src/fx_utility_64_unsigned_write.c **** /** FileX Component                                                       */
  17:Middlewares/ST/filex/common/src/fx_utility_64_unsigned_write.c **** /**                                                                       */
  18:Middlewares/ST/filex/common/src/fx_utility_64_unsigned_write.c **** /**   Utility                                                             */
  19:Middlewares/ST/filex/common/src/fx_utility_64_unsigned_write.c **** /**                                                                       */
  20:Middlewares/ST/filex/common/src/fx_utility_64_unsigned_write.c **** /**************************************************************************/
  21:Middlewares/ST/filex/common/src/fx_utility_64_unsigned_write.c **** /**************************************************************************/
  22:Middlewares/ST/filex/common/src/fx_utility_64_unsigned_write.c **** 
  23:Middlewares/ST/filex/common/src/fx_utility_64_unsigned_write.c **** #define FX_SOURCE_CODE
  24:Middlewares/ST/filex/common/src/fx_utility_64_unsigned_write.c **** 
  25:Middlewares/ST/filex/common/src/fx_utility_64_unsigned_write.c **** 
  26:Middlewares/ST/filex/common/src/fx_utility_64_unsigned_write.c **** /* Include necessary system files.  */
  27:Middlewares/ST/filex/common/src/fx_utility_64_unsigned_write.c **** 
  28:Middlewares/ST/filex/common/src/fx_utility_64_unsigned_write.c **** #include "fx_api.h"
  29:Middlewares/ST/filex/common/src/fx_utility_64_unsigned_write.c **** #include "fx_system.h"
ARM GAS  C:\Users\HP\AppData\Local\Temp\ccdZbrrE.s 			page 2


  30:Middlewares/ST/filex/common/src/fx_utility_64_unsigned_write.c **** #include "fx_utility.h"
  31:Middlewares/ST/filex/common/src/fx_utility_64_unsigned_write.c **** 
  32:Middlewares/ST/filex/common/src/fx_utility_64_unsigned_write.c **** 
  33:Middlewares/ST/filex/common/src/fx_utility_64_unsigned_write.c **** /**************************************************************************/
  34:Middlewares/ST/filex/common/src/fx_utility_64_unsigned_write.c **** /*                                                                        */
  35:Middlewares/ST/filex/common/src/fx_utility_64_unsigned_write.c **** /*  FUNCTION                                               RELEASE        */
  36:Middlewares/ST/filex/common/src/fx_utility_64_unsigned_write.c **** /*                                                                        */
  37:Middlewares/ST/filex/common/src/fx_utility_64_unsigned_write.c **** /*    _fx_utility_64_unsigned_write                       PORTABLE C      */
  38:Middlewares/ST/filex/common/src/fx_utility_64_unsigned_write.c **** /*                                                           6.1          */
  39:Middlewares/ST/filex/common/src/fx_utility_64_unsigned_write.c **** /*  AUTHOR                                                                */
  40:Middlewares/ST/filex/common/src/fx_utility_64_unsigned_write.c **** /*                                                                        */
  41:Middlewares/ST/filex/common/src/fx_utility_64_unsigned_write.c **** /*    William E. Lamie, Microsoft Corporation                             */
  42:Middlewares/ST/filex/common/src/fx_utility_64_unsigned_write.c **** /*                                                                        */
  43:Middlewares/ST/filex/common/src/fx_utility_64_unsigned_write.c **** /*  DESCRIPTION                                                           */
  44:Middlewares/ST/filex/common/src/fx_utility_64_unsigned_write.c **** /*                                                                        */
  45:Middlewares/ST/filex/common/src/fx_utility_64_unsigned_write.c **** /*    This function writes (with endian awareness) a 64-bit unsigned data */
  46:Middlewares/ST/filex/common/src/fx_utility_64_unsigned_write.c **** /*    type to the specified destination.                                  */
  47:Middlewares/ST/filex/common/src/fx_utility_64_unsigned_write.c **** /*                                                                        */
  48:Middlewares/ST/filex/common/src/fx_utility_64_unsigned_write.c **** /*  INPUT                                                                 */
  49:Middlewares/ST/filex/common/src/fx_utility_64_unsigned_write.c **** /*                                                                        */
  50:Middlewares/ST/filex/common/src/fx_utility_64_unsigned_write.c **** /*    dest_ptr                              Destination memory pointer    */
  51:Middlewares/ST/filex/common/src/fx_utility_64_unsigned_write.c **** /*    value                                 Value to write to memory      */
  52:Middlewares/ST/filex/common/src/fx_utility_64_unsigned_write.c **** /*                                                                        */
  53:Middlewares/ST/filex/common/src/fx_utility_64_unsigned_write.c **** /*  OUTPUT                                                                */
  54:Middlewares/ST/filex/common/src/fx_utility_64_unsigned_write.c **** /*                                                                        */
  55:Middlewares/ST/filex/common/src/fx_utility_64_unsigned_write.c **** /*    None                                                                */
  56:Middlewares/ST/filex/common/src/fx_utility_64_unsigned_write.c **** /*                                                                        */
  57:Middlewares/ST/filex/common/src/fx_utility_64_unsigned_write.c **** /*  CALLS                                                                 */
  58:Middlewares/ST/filex/common/src/fx_utility_64_unsigned_write.c **** /*                                                                        */
  59:Middlewares/ST/filex/common/src/fx_utility_64_unsigned_write.c **** /*    None                                                                */
  60:Middlewares/ST/filex/common/src/fx_utility_64_unsigned_write.c **** /*                                                                        */
  61:Middlewares/ST/filex/common/src/fx_utility_64_unsigned_write.c **** /*  CALLED BY                                                             */
  62:Middlewares/ST/filex/common/src/fx_utility_64_unsigned_write.c **** /*                                                                        */
  63:Middlewares/ST/filex/common/src/fx_utility_64_unsigned_write.c **** /*    FileX System Functions                                              */
  64:Middlewares/ST/filex/common/src/fx_utility_64_unsigned_write.c **** /*                                                                        */
  65:Middlewares/ST/filex/common/src/fx_utility_64_unsigned_write.c **** /*  RELEASE HISTORY                                                       */
  66:Middlewares/ST/filex/common/src/fx_utility_64_unsigned_write.c **** /*                                                                        */
  67:Middlewares/ST/filex/common/src/fx_utility_64_unsigned_write.c **** /*    DATE              NAME                      DESCRIPTION             */
  68:Middlewares/ST/filex/common/src/fx_utility_64_unsigned_write.c **** /*                                                                        */
  69:Middlewares/ST/filex/common/src/fx_utility_64_unsigned_write.c **** /*  05-19-2020     William E. Lamie         Initial Version 6.0           */
  70:Middlewares/ST/filex/common/src/fx_utility_64_unsigned_write.c **** /*  09-30-2020     William E. Lamie         Modified comment(s),          */
  71:Middlewares/ST/filex/common/src/fx_utility_64_unsigned_write.c **** /*                                            resulting in version 6.1    */
  72:Middlewares/ST/filex/common/src/fx_utility_64_unsigned_write.c **** /*                                                                        */
  73:Middlewares/ST/filex/common/src/fx_utility_64_unsigned_write.c **** /**************************************************************************/
  74:Middlewares/ST/filex/common/src/fx_utility_64_unsigned_write.c **** VOID  _fx_utility_64_unsigned_write(UCHAR *dest_ptr, ULONG64 value)
  75:Middlewares/ST/filex/common/src/fx_utility_64_unsigned_write.c **** {
  30              		.loc 1 75 1 view -0
  31              		.cfi_startproc
  32              		@ args = 0, pretend = 0, frame = 0
  33              		@ frame_needed = 0, uses_anonymous_args = 0
  34              		.loc 1 75 1 is_stmt 0 view .LVU1
  35 0000 38B5     		push	{r3, r4, r5, lr}
  36              	.LCFI0:
  37              		.cfi_def_cfa_offset 16
  38              		.cfi_offset 3, -16
  39              		.cfi_offset 4, -12
  40              		.cfi_offset 5, -8
ARM GAS  C:\Users\HP\AppData\Local\Temp\ccdZbrrE.s 			page 3


  41              		.cfi_offset 14, -4
  42 0002 0446     		mov	r4, r0
  43 0004 1D46     		mov	r5, r3
  76:Middlewares/ST/filex/common/src/fx_utility_64_unsigned_write.c **** 
  77:Middlewares/ST/filex/common/src/fx_utility_64_unsigned_write.c ****     /* Store the ULONG64 into the destination with endian-awareness.  */
  78:Middlewares/ST/filex/common/src/fx_utility_64_unsigned_write.c ****     _fx_utility_32_unsigned_write(dest_ptr, (ULONG)value);
  44              		.loc 1 78 5 is_stmt 1 view .LVU2
  45 0006 1146     		mov	r1, r2
  46 0008 FFF7FEFF 		bl	_fx_utility_32_unsigned_write
  47              	.LVL1:
  79:Middlewares/ST/filex/common/src/fx_utility_64_unsigned_write.c ****     _fx_utility_32_unsigned_write(dest_ptr + sizeof(ULONG), (ULONG)(value >> 32));
  48              		.loc 1 79 5 view .LVU3
  49 000c 2946     		mov	r1, r5
  50 000e 201D     		adds	r0, r4, #4
  51 0010 FFF7FEFF 		bl	_fx_utility_32_unsigned_write
  52              	.LVL2:
  80:Middlewares/ST/filex/common/src/fx_utility_64_unsigned_write.c **** }
  53              		.loc 1 80 1 is_stmt 0 view .LVU4
  54 0014 38BD     		pop	{r3, r4, r5, pc}
  55              		.loc 1 80 1 view .LVU5
  56              		.cfi_endproc
  57              	.LFE8:
  59              		.text
  60              	.Letext0:
  61              		.file 2 "Middlewares/ST/threadx/ports/cortex_m4/gnu/inc/tx_port.h"
  62              		.file 3 "Middlewares/ST/filex/common/inc/fx_utility.h"
ARM GAS  C:\Users\HP\AppData\Local\Temp\ccdZbrrE.s 			page 4

