ARM GAS  C:\Users\HP\AppData\Local\Temp\ccsqscVN.s 			page 1


   1              		.cpu cortex-m4
   2              		.arch armv7e-m
   3              		.fpu fpv4-sp-d16
   4              		.eabi_attribute 27, 1
   5              		.eabi_attribute 28, 1
   6              		.eabi_attribute 20, 1
   7              		.eabi_attribute 21, 1
   8              		.eabi_attribute 23, 3
   9              		.eabi_attribute 24, 1
  10              		.eabi_attribute 25, 1
  11              		.eabi_attribute 26, 1
  12              		.eabi_attribute 30, 1
  13              		.eabi_attribute 34, 1
  14              		.eabi_attribute 18, 4
  15              		.file	"fx_unicode_file_rename.c"
  16              		.text
  17              	.Ltext0:
  18              		.cfi_sections	.debug_frame
  19              		.section	.text._fx_unicode_file_rename,"ax",%progbits
  20              		.align	1
  21              		.global	_fx_unicode_file_rename
  22              		.syntax unified
  23              		.thumb
  24              		.thumb_func
  26              	_fx_unicode_file_rename:
  27              	.LVL0:
  28              	.LFB8:
  29              		.file 1 "Middlewares/ST/filex/common/src/fx_unicode_file_rename.c"
   1:Middlewares/ST/filex/common/src/fx_unicode_file_rename.c **** /**************************************************************************/
   2:Middlewares/ST/filex/common/src/fx_unicode_file_rename.c **** /*                                                                        */
   3:Middlewares/ST/filex/common/src/fx_unicode_file_rename.c **** /*       Copyright (c) Microsoft Corporation. All rights reserved.        */
   4:Middlewares/ST/filex/common/src/fx_unicode_file_rename.c **** /*                                                                        */
   5:Middlewares/ST/filex/common/src/fx_unicode_file_rename.c **** /*       This software is licensed under the Microsoft Software License   */
   6:Middlewares/ST/filex/common/src/fx_unicode_file_rename.c **** /*       Terms for Microsoft Azure RTOS. Full text of the license can be  */
   7:Middlewares/ST/filex/common/src/fx_unicode_file_rename.c **** /*       found in the LICENSE file at https://aka.ms/AzureRTOS_EULA       */
   8:Middlewares/ST/filex/common/src/fx_unicode_file_rename.c **** /*       and in the root directory of this software.                      */
   9:Middlewares/ST/filex/common/src/fx_unicode_file_rename.c **** /*                                                                        */
  10:Middlewares/ST/filex/common/src/fx_unicode_file_rename.c **** /**************************************************************************/
  11:Middlewares/ST/filex/common/src/fx_unicode_file_rename.c **** 
  12:Middlewares/ST/filex/common/src/fx_unicode_file_rename.c **** 
  13:Middlewares/ST/filex/common/src/fx_unicode_file_rename.c **** /**************************************************************************/
  14:Middlewares/ST/filex/common/src/fx_unicode_file_rename.c **** /**************************************************************************/
  15:Middlewares/ST/filex/common/src/fx_unicode_file_rename.c **** /**                                                                       */
  16:Middlewares/ST/filex/common/src/fx_unicode_file_rename.c **** /** FileX Component                                                       */
  17:Middlewares/ST/filex/common/src/fx_unicode_file_rename.c **** /**                                                                       */
  18:Middlewares/ST/filex/common/src/fx_unicode_file_rename.c **** /**   Unicode                                                             */
  19:Middlewares/ST/filex/common/src/fx_unicode_file_rename.c **** /**                                                                       */
  20:Middlewares/ST/filex/common/src/fx_unicode_file_rename.c **** /**************************************************************************/
  21:Middlewares/ST/filex/common/src/fx_unicode_file_rename.c **** /**************************************************************************/
  22:Middlewares/ST/filex/common/src/fx_unicode_file_rename.c **** 
  23:Middlewares/ST/filex/common/src/fx_unicode_file_rename.c **** #define FX_SOURCE_CODE
  24:Middlewares/ST/filex/common/src/fx_unicode_file_rename.c **** 
  25:Middlewares/ST/filex/common/src/fx_unicode_file_rename.c **** 
  26:Middlewares/ST/filex/common/src/fx_unicode_file_rename.c **** /* Include necessary system files.  */
  27:Middlewares/ST/filex/common/src/fx_unicode_file_rename.c **** 
  28:Middlewares/ST/filex/common/src/fx_unicode_file_rename.c **** #include "fx_api.h"
  29:Middlewares/ST/filex/common/src/fx_unicode_file_rename.c **** #include "fx_unicode.h"
ARM GAS  C:\Users\HP\AppData\Local\Temp\ccsqscVN.s 			page 2


  30:Middlewares/ST/filex/common/src/fx_unicode_file_rename.c **** #include "fx_directory.h"
  31:Middlewares/ST/filex/common/src/fx_unicode_file_rename.c **** #include "fx_file.h"
  32:Middlewares/ST/filex/common/src/fx_unicode_file_rename.c **** #include "fx_utility.h"
  33:Middlewares/ST/filex/common/src/fx_unicode_file_rename.c **** #ifdef FX_ENABLE_FAULT_TOLERANT
  34:Middlewares/ST/filex/common/src/fx_unicode_file_rename.c **** #include "fx_fault_tolerant.h"
  35:Middlewares/ST/filex/common/src/fx_unicode_file_rename.c **** #endif /* FX_ENABLE_FAULT_TOLERANT */
  36:Middlewares/ST/filex/common/src/fx_unicode_file_rename.c **** 
  37:Middlewares/ST/filex/common/src/fx_unicode_file_rename.c **** 
  38:Middlewares/ST/filex/common/src/fx_unicode_file_rename.c **** /**************************************************************************/
  39:Middlewares/ST/filex/common/src/fx_unicode_file_rename.c **** /*                                                                        */
  40:Middlewares/ST/filex/common/src/fx_unicode_file_rename.c **** /*  FUNCTION                                               RELEASE        */
  41:Middlewares/ST/filex/common/src/fx_unicode_file_rename.c **** /*                                                                        */
  42:Middlewares/ST/filex/common/src/fx_unicode_file_rename.c **** /*    _fx_unicode_file_rename                             PORTABLE C      */
  43:Middlewares/ST/filex/common/src/fx_unicode_file_rename.c **** /*                                                           6.1          */
  44:Middlewares/ST/filex/common/src/fx_unicode_file_rename.c **** /*  AUTHOR                                                                */
  45:Middlewares/ST/filex/common/src/fx_unicode_file_rename.c **** /*                                                                        */
  46:Middlewares/ST/filex/common/src/fx_unicode_file_rename.c **** /*    William E. Lamie, Microsoft Corporation                             */
  47:Middlewares/ST/filex/common/src/fx_unicode_file_rename.c **** /*                                                                        */
  48:Middlewares/ST/filex/common/src/fx_unicode_file_rename.c **** /*  DESCRIPTION                                                           */
  49:Middlewares/ST/filex/common/src/fx_unicode_file_rename.c **** /*                                                                        */
  50:Middlewares/ST/filex/common/src/fx_unicode_file_rename.c **** /*    This function first attempts to find the specified file.  If found, */
  51:Middlewares/ST/filex/common/src/fx_unicode_file_rename.c **** /*    the rename request is valid and the directory entry will be changed */
  52:Middlewares/ST/filex/common/src/fx_unicode_file_rename.c **** /*    to the new file name.  Otherwise, if the file is not found, the     */
  53:Middlewares/ST/filex/common/src/fx_unicode_file_rename.c **** /*    appropriate error code is returned to the caller.                   */
  54:Middlewares/ST/filex/common/src/fx_unicode_file_rename.c **** /*                                                                        */
  55:Middlewares/ST/filex/common/src/fx_unicode_file_rename.c **** /*  INPUT                                                                 */
  56:Middlewares/ST/filex/common/src/fx_unicode_file_rename.c **** /*                                                                        */
  57:Middlewares/ST/filex/common/src/fx_unicode_file_rename.c **** /*    media_ptr                             Pointer to media              */
  58:Middlewares/ST/filex/common/src/fx_unicode_file_rename.c **** /*    old_unicode_name                      Pointer to old unicode name   */
  59:Middlewares/ST/filex/common/src/fx_unicode_file_rename.c **** /*    old_unicode_length                    Old unicode name length       */
  60:Middlewares/ST/filex/common/src/fx_unicode_file_rename.c **** /*    new_unicode_name                      Pointer to new unicode name   */
  61:Middlewares/ST/filex/common/src/fx_unicode_file_rename.c **** /*    new_unicode_length                    New unicode name length       */
  62:Middlewares/ST/filex/common/src/fx_unicode_file_rename.c **** /*    new_short_name                        Designated new short name     */
  63:Middlewares/ST/filex/common/src/fx_unicode_file_rename.c **** /*                                                                        */
  64:Middlewares/ST/filex/common/src/fx_unicode_file_rename.c **** /*  OUTPUT                                                                */
  65:Middlewares/ST/filex/common/src/fx_unicode_file_rename.c **** /*                                                                        */
  66:Middlewares/ST/filex/common/src/fx_unicode_file_rename.c **** /*    Completion Status                                                   */
  67:Middlewares/ST/filex/common/src/fx_unicode_file_rename.c **** /*                                                                        */
  68:Middlewares/ST/filex/common/src/fx_unicode_file_rename.c **** /*  CALLS                                                                 */
  69:Middlewares/ST/filex/common/src/fx_unicode_file_rename.c **** /*                                                                        */
  70:Middlewares/ST/filex/common/src/fx_unicode_file_rename.c **** /*    _fx_unicode_short_name_get            Get short name of unicode name*/
  71:Middlewares/ST/filex/common/src/fx_unicode_file_rename.c **** /*    _fx_directory_search                  Search directory              */
  72:Middlewares/ST/filex/common/src/fx_unicode_file_rename.c **** /*    _fx_unicode_directory_entry_change    Change unicode file name      */
  73:Middlewares/ST/filex/common/src/fx_unicode_file_rename.c **** /*    _fx_unicode_directory_search          Search for unicode name       */
  74:Middlewares/ST/filex/common/src/fx_unicode_file_rename.c **** /*    _fx_file_rename                       Rename for ASCII file name    */
  75:Middlewares/ST/filex/common/src/fx_unicode_file_rename.c **** /*    _fx_fault_tolerant_transaction_start  Start fault tolerant          */
  76:Middlewares/ST/filex/common/src/fx_unicode_file_rename.c **** /*                                            transaction                 */
  77:Middlewares/ST/filex/common/src/fx_unicode_file_rename.c **** /*    _fx_fault_tolerant_transaction_end    End fault tolerant transaction*/
  78:Middlewares/ST/filex/common/src/fx_unicode_file_rename.c **** /*                                                                        */
  79:Middlewares/ST/filex/common/src/fx_unicode_file_rename.c **** /*  CALLED BY                                                             */
  80:Middlewares/ST/filex/common/src/fx_unicode_file_rename.c **** /*                                                                        */
  81:Middlewares/ST/filex/common/src/fx_unicode_file_rename.c **** /*    Application Code                                                    */
  82:Middlewares/ST/filex/common/src/fx_unicode_file_rename.c **** /*                                                                        */
  83:Middlewares/ST/filex/common/src/fx_unicode_file_rename.c **** /*  RELEASE HISTORY                                                       */
  84:Middlewares/ST/filex/common/src/fx_unicode_file_rename.c **** /*                                                                        */
  85:Middlewares/ST/filex/common/src/fx_unicode_file_rename.c **** /*    DATE              NAME                      DESCRIPTION             */
  86:Middlewares/ST/filex/common/src/fx_unicode_file_rename.c **** /*                                                                        */
ARM GAS  C:\Users\HP\AppData\Local\Temp\ccsqscVN.s 			page 3


  87:Middlewares/ST/filex/common/src/fx_unicode_file_rename.c **** /*  05-19-2020     William E. Lamie         Initial Version 6.0           */
  88:Middlewares/ST/filex/common/src/fx_unicode_file_rename.c **** /*  09-30-2020     William E. Lamie         Modified comment(s),          */
  89:Middlewares/ST/filex/common/src/fx_unicode_file_rename.c **** /*                                            resulting in version 6.1    */
  90:Middlewares/ST/filex/common/src/fx_unicode_file_rename.c **** /*                                                                        */
  91:Middlewares/ST/filex/common/src/fx_unicode_file_rename.c **** /**************************************************************************/
  92:Middlewares/ST/filex/common/src/fx_unicode_file_rename.c **** UINT _fx_unicode_file_rename(FX_MEDIA *media_ptr, UCHAR *old_unicode_name, ULONG old_unicode_length
  93:Middlewares/ST/filex/common/src/fx_unicode_file_rename.c ****                              UCHAR *new_unicode_name, ULONG new_unicode_length, CHAR *new_short_nam
  94:Middlewares/ST/filex/common/src/fx_unicode_file_rename.c **** {
  30              		.loc 1 94 1 view -0
  31              		.cfi_startproc
  32              		@ args = 8, pretend = 0, frame = 144
  33              		@ frame_needed = 0, uses_anonymous_args = 0
  34              		.loc 1 94 1 is_stmt 0 view .LVU1
  35 0000 2DE9F04F 		push	{r4, r5, r6, r7, r8, r9, r10, fp, lr}
  36              	.LCFI0:
  37              		.cfi_def_cfa_offset 36
  38              		.cfi_offset 4, -36
  39              		.cfi_offset 5, -32
  40              		.cfi_offset 6, -28
  41              		.cfi_offset 7, -24
  42              		.cfi_offset 8, -20
  43              		.cfi_offset 9, -16
  44              		.cfi_offset 10, -12
  45              		.cfi_offset 11, -8
  46              		.cfi_offset 14, -4
  47 0004 A9B0     		sub	sp, sp, #164
  48              	.LCFI1:
  49              		.cfi_def_cfa_offset 200
  50 0006 9346     		mov	fp, r2
  51 0008 1E46     		mov	r6, r3
  52 000a 339C     		ldr	r4, [sp, #204]
  95:Middlewares/ST/filex/common/src/fx_unicode_file_rename.c **** ULONG        i;
  53              		.loc 1 95 1 is_stmt 1 view .LVU2
  96:Middlewares/ST/filex/common/src/fx_unicode_file_rename.c **** UINT         status;
  54              		.loc 1 96 1 view .LVU3
  97:Middlewares/ST/filex/common/src/fx_unicode_file_rename.c **** CHAR         alpha, beta;
  55              		.loc 1 97 1 view .LVU4
  98:Middlewares/ST/filex/common/src/fx_unicode_file_rename.c **** CHAR         old_shortname[13];
  56              		.loc 1 98 1 view .LVU5
  99:Middlewares/ST/filex/common/src/fx_unicode_file_rename.c **** CHAR         new_shortname[13];
  57              		.loc 1 99 1 view .LVU6
 100:Middlewares/ST/filex/common/src/fx_unicode_file_rename.c **** FX_DIR_ENTRY dir_entry;
  58              		.loc 1 100 1 view .LVU7
 101:Middlewares/ST/filex/common/src/fx_unicode_file_rename.c **** 
 102:Middlewares/ST/filex/common/src/fx_unicode_file_rename.c **** 
 103:Middlewares/ST/filex/common/src/fx_unicode_file_rename.c ****     /* Clear the return short name.  */
 104:Middlewares/ST/filex/common/src/fx_unicode_file_rename.c ****     new_short_name[0] =  FX_NULL;
  59              		.loc 1 104 5 view .LVU8
  60              		.loc 1 104 23 is_stmt 0 view .LVU9
  61 000c 0023     		movs	r3, #0
  62              	.LVL1:
  63              		.loc 1 104 23 view .LVU10
  64 000e 2370     		strb	r3, [r4]
  65              	.LVL2:
 105:Middlewares/ST/filex/common/src/fx_unicode_file_rename.c **** 
 106:Middlewares/ST/filex/common/src/fx_unicode_file_rename.c ****     /* Set shortname to null.  */
 107:Middlewares/ST/filex/common/src/fx_unicode_file_rename.c ****     old_shortname[0] =  FX_NULL;
ARM GAS  C:\Users\HP\AppData\Local\Temp\ccsqscVN.s 			page 4


  66              		.loc 1 107 5 is_stmt 1 view .LVU11
  67              		.loc 1 107 22 is_stmt 0 view .LVU12
  68 0010 8DF89030 		strb	r3, [sp, #144]
 108:Middlewares/ST/filex/common/src/fx_unicode_file_rename.c ****     new_shortname[0] =  FX_NULL;
  69              		.loc 1 108 5 is_stmt 1 view .LVU13
  70              		.loc 1 108 22 is_stmt 0 view .LVU14
  71 0014 8DF88030 		strb	r3, [sp, #128]
 109:Middlewares/ST/filex/common/src/fx_unicode_file_rename.c **** 
 110:Middlewares/ST/filex/common/src/fx_unicode_file_rename.c ****     /* Check the media to make sure it is open.  */
 111:Middlewares/ST/filex/common/src/fx_unicode_file_rename.c ****     if (media_ptr -> fx_media_id != FX_MEDIA_ID)
  72              		.loc 1 111 5 is_stmt 1 view .LVU15
  73              		.loc 1 111 19 is_stmt 0 view .LVU16
  74 0018 0268     		ldr	r2, [r0]
  75              	.LVL3:
  76              		.loc 1 111 8 view .LVU17
  77 001a 644B     		ldr	r3, .L29
  78 001c 9A42     		cmp	r2, r3
  79 001e 05D0     		beq	.L24
 112:Middlewares/ST/filex/common/src/fx_unicode_file_rename.c ****     {
 113:Middlewares/ST/filex/common/src/fx_unicode_file_rename.c **** 
 114:Middlewares/ST/filex/common/src/fx_unicode_file_rename.c ****         /* Return the media not opened error.  */
 115:Middlewares/ST/filex/common/src/fx_unicode_file_rename.c ****         return(FX_MEDIA_NOT_OPEN);
  80              		.loc 1 115 15 view .LVU18
  81 0020 4FF01109 		mov	r9, #17
  82              	.LVL4:
  83              	.L1:
 116:Middlewares/ST/filex/common/src/fx_unicode_file_rename.c ****     }
 117:Middlewares/ST/filex/common/src/fx_unicode_file_rename.c **** 
 118:Middlewares/ST/filex/common/src/fx_unicode_file_rename.c **** #ifdef FX_ENABLE_EXFAT
 119:Middlewares/ST/filex/common/src/fx_unicode_file_rename.c ****     /* Check if media format is exFAT.  */
 120:Middlewares/ST/filex/common/src/fx_unicode_file_rename.c ****     if (media_ptr -> fx_media_FAT_type == FX_exFAT)
 121:Middlewares/ST/filex/common/src/fx_unicode_file_rename.c ****     {
 122:Middlewares/ST/filex/common/src/fx_unicode_file_rename.c **** 
 123:Middlewares/ST/filex/common/src/fx_unicode_file_rename.c ****         /* Return the not implemented error.  */
 124:Middlewares/ST/filex/common/src/fx_unicode_file_rename.c ****         return(FX_NOT_IMPLEMENTED);
 125:Middlewares/ST/filex/common/src/fx_unicode_file_rename.c ****     }
 126:Middlewares/ST/filex/common/src/fx_unicode_file_rename.c **** #endif
 127:Middlewares/ST/filex/common/src/fx_unicode_file_rename.c **** 
 128:Middlewares/ST/filex/common/src/fx_unicode_file_rename.c ****     /* Get shortname of old unicode name. */
 129:Middlewares/ST/filex/common/src/fx_unicode_file_rename.c ****     status = _fx_unicode_short_name_get(media_ptr, old_unicode_name, old_unicode_length, old_shortn
 130:Middlewares/ST/filex/common/src/fx_unicode_file_rename.c **** 
 131:Middlewares/ST/filex/common/src/fx_unicode_file_rename.c ****     /* Determine if the result was successful.  */
 132:Middlewares/ST/filex/common/src/fx_unicode_file_rename.c ****     if (status != FX_SUCCESS)
 133:Middlewares/ST/filex/common/src/fx_unicode_file_rename.c ****     {
 134:Middlewares/ST/filex/common/src/fx_unicode_file_rename.c **** 
 135:Middlewares/ST/filex/common/src/fx_unicode_file_rename.c ****         /* Return the error code.  */
 136:Middlewares/ST/filex/common/src/fx_unicode_file_rename.c ****         return(status);
 137:Middlewares/ST/filex/common/src/fx_unicode_file_rename.c ****     }
 138:Middlewares/ST/filex/common/src/fx_unicode_file_rename.c **** 
 139:Middlewares/ST/filex/common/src/fx_unicode_file_rename.c ****     /* Protect media.  */
 140:Middlewares/ST/filex/common/src/fx_unicode_file_rename.c ****     FX_PROTECT
 141:Middlewares/ST/filex/common/src/fx_unicode_file_rename.c **** 
 142:Middlewares/ST/filex/common/src/fx_unicode_file_rename.c ****     /* Setup pointer to media name buffer.  */
 143:Middlewares/ST/filex/common/src/fx_unicode_file_rename.c ****     dir_entry.fx_dir_entry_name = media_ptr -> fx_media_name_buffer + FX_MAX_LONG_NAME_LEN;
 144:Middlewares/ST/filex/common/src/fx_unicode_file_rename.c **** 
 145:Middlewares/ST/filex/common/src/fx_unicode_file_rename.c ****     /* Clear the short name string.  */
 146:Middlewares/ST/filex/common/src/fx_unicode_file_rename.c ****     dir_entry.fx_dir_entry_short_name[0] =  FX_NULL;
ARM GAS  C:\Users\HP\AppData\Local\Temp\ccsqscVN.s 			page 5


 147:Middlewares/ST/filex/common/src/fx_unicode_file_rename.c **** 
 148:Middlewares/ST/filex/common/src/fx_unicode_file_rename.c ****     /* Search the target directory for the same file name.  */
 149:Middlewares/ST/filex/common/src/fx_unicode_file_rename.c ****     status = _fx_unicode_directory_search(media_ptr, &dir_entry, (UCHAR *)new_shortname, sizeof(new
 150:Middlewares/ST/filex/common/src/fx_unicode_file_rename.c ****                                           new_unicode_name, &new_unicode_length, 0);
 151:Middlewares/ST/filex/common/src/fx_unicode_file_rename.c **** 
 152:Middlewares/ST/filex/common/src/fx_unicode_file_rename.c ****     /* Determine if the name already exists.  */
 153:Middlewares/ST/filex/common/src/fx_unicode_file_rename.c ****     if (status == FX_SUCCESS)
 154:Middlewares/ST/filex/common/src/fx_unicode_file_rename.c ****     {
 155:Middlewares/ST/filex/common/src/fx_unicode_file_rename.c **** 
 156:Middlewares/ST/filex/common/src/fx_unicode_file_rename.c ****         if (old_unicode_length == new_unicode_length)
 157:Middlewares/ST/filex/common/src/fx_unicode_file_rename.c ****         {
 158:Middlewares/ST/filex/common/src/fx_unicode_file_rename.c **** 
 159:Middlewares/ST/filex/common/src/fx_unicode_file_rename.c ****             /* Determine if the new name simply has an ASCII case change. If so, simply let the pro
 160:Middlewares/ST/filex/common/src/fx_unicode_file_rename.c ****                continue.  */
 161:Middlewares/ST/filex/common/src/fx_unicode_file_rename.c ****             i =  0;
 162:Middlewares/ST/filex/common/src/fx_unicode_file_rename.c ****             do
 163:Middlewares/ST/filex/common/src/fx_unicode_file_rename.c ****             {
 164:Middlewares/ST/filex/common/src/fx_unicode_file_rename.c **** 
 165:Middlewares/ST/filex/common/src/fx_unicode_file_rename.c ****                 /* Pickup an old name and new name character and convert to upper case if necessary
 166:Middlewares/ST/filex/common/src/fx_unicode_file_rename.c ****                 alpha = (CHAR)old_unicode_name[i << 1];
 167:Middlewares/ST/filex/common/src/fx_unicode_file_rename.c ****                 if ((alpha >= 'a') && (alpha <= 'z') && (old_unicode_name[(i << 1) + 1] == 0))
 168:Middlewares/ST/filex/common/src/fx_unicode_file_rename.c ****                 {
 169:Middlewares/ST/filex/common/src/fx_unicode_file_rename.c **** 
 170:Middlewares/ST/filex/common/src/fx_unicode_file_rename.c ****                     /* Lower case, convert to upper case!  */
 171:Middlewares/ST/filex/common/src/fx_unicode_file_rename.c ****                     alpha =  (CHAR)((INT)alpha - 0x20);
 172:Middlewares/ST/filex/common/src/fx_unicode_file_rename.c ****                 }
 173:Middlewares/ST/filex/common/src/fx_unicode_file_rename.c ****                 beta =   (CHAR)new_unicode_name[i << 1];
 174:Middlewares/ST/filex/common/src/fx_unicode_file_rename.c ****                 if ((beta >= 'a') && (beta <= 'z') && (new_unicode_name[(i << 1) + 1] == 0))
 175:Middlewares/ST/filex/common/src/fx_unicode_file_rename.c ****                 {
 176:Middlewares/ST/filex/common/src/fx_unicode_file_rename.c **** 
 177:Middlewares/ST/filex/common/src/fx_unicode_file_rename.c ****                     /* Lower case, convert to upper case!  */
 178:Middlewares/ST/filex/common/src/fx_unicode_file_rename.c ****                     beta =  (CHAR)((INT)beta - 0x20);
 179:Middlewares/ST/filex/common/src/fx_unicode_file_rename.c ****                 }
 180:Middlewares/ST/filex/common/src/fx_unicode_file_rename.c **** 
 181:Middlewares/ST/filex/common/src/fx_unicode_file_rename.c ****                 /* Now compare the characters.  */
 182:Middlewares/ST/filex/common/src/fx_unicode_file_rename.c ****                 if ((alpha != beta))
 183:Middlewares/ST/filex/common/src/fx_unicode_file_rename.c ****                 {
 184:Middlewares/ST/filex/common/src/fx_unicode_file_rename.c **** 
 185:Middlewares/ST/filex/common/src/fx_unicode_file_rename.c ****                     /* Get out of this loop!  */
 186:Middlewares/ST/filex/common/src/fx_unicode_file_rename.c ****                     break;
 187:Middlewares/ST/filex/common/src/fx_unicode_file_rename.c ****                 }
 188:Middlewares/ST/filex/common/src/fx_unicode_file_rename.c **** 
 189:Middlewares/ST/filex/common/src/fx_unicode_file_rename.c ****                 /* Pickup the high bytes. */
 190:Middlewares/ST/filex/common/src/fx_unicode_file_rename.c ****                 alpha = (CHAR)old_unicode_name[(i << 1) + 1];
 191:Middlewares/ST/filex/common/src/fx_unicode_file_rename.c ****                 beta =  (CHAR)new_unicode_name[(i << 1) + 1];
 192:Middlewares/ST/filex/common/src/fx_unicode_file_rename.c **** 
 193:Middlewares/ST/filex/common/src/fx_unicode_file_rename.c ****                 /* Now compare the byte.  */
 194:Middlewares/ST/filex/common/src/fx_unicode_file_rename.c ****                 if ((alpha != beta))
 195:Middlewares/ST/filex/common/src/fx_unicode_file_rename.c ****                 {
 196:Middlewares/ST/filex/common/src/fx_unicode_file_rename.c **** 
 197:Middlewares/ST/filex/common/src/fx_unicode_file_rename.c ****                     /* Get out of this loop!  */
 198:Middlewares/ST/filex/common/src/fx_unicode_file_rename.c ****                     break;
 199:Middlewares/ST/filex/common/src/fx_unicode_file_rename.c ****                 }
 200:Middlewares/ST/filex/common/src/fx_unicode_file_rename.c **** 
 201:Middlewares/ST/filex/common/src/fx_unicode_file_rename.c ****                 /* Move to next character.  */
 202:Middlewares/ST/filex/common/src/fx_unicode_file_rename.c ****                 i++;
 203:Middlewares/ST/filex/common/src/fx_unicode_file_rename.c ****             } while (i < old_unicode_length);
ARM GAS  C:\Users\HP\AppData\Local\Temp\ccsqscVN.s 			page 6


 204:Middlewares/ST/filex/common/src/fx_unicode_file_rename.c ****         }
 205:Middlewares/ST/filex/common/src/fx_unicode_file_rename.c ****         else
 206:Middlewares/ST/filex/common/src/fx_unicode_file_rename.c ****         {
 207:Middlewares/ST/filex/common/src/fx_unicode_file_rename.c **** 
 208:Middlewares/ST/filex/common/src/fx_unicode_file_rename.c ****             /* Names not match. */
 209:Middlewares/ST/filex/common/src/fx_unicode_file_rename.c ****             alpha = 0;
 210:Middlewares/ST/filex/common/src/fx_unicode_file_rename.c ****             beta = 1;
 211:Middlewares/ST/filex/common/src/fx_unicode_file_rename.c ****         }
 212:Middlewares/ST/filex/common/src/fx_unicode_file_rename.c **** 
 213:Middlewares/ST/filex/common/src/fx_unicode_file_rename.c ****         /* Now determine if the names match.  */
 214:Middlewares/ST/filex/common/src/fx_unicode_file_rename.c ****         if (alpha != beta)
 215:Middlewares/ST/filex/common/src/fx_unicode_file_rename.c ****         {
 216:Middlewares/ST/filex/common/src/fx_unicode_file_rename.c **** 
 217:Middlewares/ST/filex/common/src/fx_unicode_file_rename.c ****             /* No, the names do not match so simply return an error
 218:Middlewares/ST/filex/common/src/fx_unicode_file_rename.c ****                to the caller.  */
 219:Middlewares/ST/filex/common/src/fx_unicode_file_rename.c **** 
 220:Middlewares/ST/filex/common/src/fx_unicode_file_rename.c ****             /* Release media protection.  */
 221:Middlewares/ST/filex/common/src/fx_unicode_file_rename.c ****             FX_UNPROTECT
 222:Middlewares/ST/filex/common/src/fx_unicode_file_rename.c **** 
 223:Middlewares/ST/filex/common/src/fx_unicode_file_rename.c ****             /* Return the not a file error code.  */
 224:Middlewares/ST/filex/common/src/fx_unicode_file_rename.c ****             return(FX_ALREADY_CREATED);
 225:Middlewares/ST/filex/common/src/fx_unicode_file_rename.c ****         }
 226:Middlewares/ST/filex/common/src/fx_unicode_file_rename.c ****     }
 227:Middlewares/ST/filex/common/src/fx_unicode_file_rename.c **** 
 228:Middlewares/ST/filex/common/src/fx_unicode_file_rename.c **** #ifdef FX_ENABLE_FAULT_TOLERANT
 229:Middlewares/ST/filex/common/src/fx_unicode_file_rename.c ****     /* Start transaction. */
 230:Middlewares/ST/filex/common/src/fx_unicode_file_rename.c ****     _fx_fault_tolerant_transaction_start(media_ptr);
 231:Middlewares/ST/filex/common/src/fx_unicode_file_rename.c **** #endif /* FX_ENABLE_FAULT_TOLERANT */
 232:Middlewares/ST/filex/common/src/fx_unicode_file_rename.c **** 
 233:Middlewares/ST/filex/common/src/fx_unicode_file_rename.c ****     /* Okay, at this point we need to rename to a new long file name that has enough space for the
 234:Middlewares/ST/filex/common/src/fx_unicode_file_rename.c ****        eventual unicode file name.  */
 235:Middlewares/ST/filex/common/src/fx_unicode_file_rename.c **** 
 236:Middlewares/ST/filex/common/src/fx_unicode_file_rename.c ****     /* Copy the characters from the unicode file name and make sure they are
 237:Middlewares/ST/filex/common/src/fx_unicode_file_rename.c ****        within the ASCII range.  */
 238:Middlewares/ST/filex/common/src/fx_unicode_file_rename.c ****     _fx_unicode_temp_long_file_name[0] =  'z';
 239:Middlewares/ST/filex/common/src/fx_unicode_file_rename.c ****     for (i = 1; i < new_unicode_length; i++)
 240:Middlewares/ST/filex/common/src/fx_unicode_file_rename.c ****     {
 241:Middlewares/ST/filex/common/src/fx_unicode_file_rename.c **** 
 242:Middlewares/ST/filex/common/src/fx_unicode_file_rename.c ****         /* Build temporary long file name.  */
 243:Middlewares/ST/filex/common/src/fx_unicode_file_rename.c ****         _fx_unicode_temp_long_file_name[i] =  (UCHAR)((UINT)'0' + (i % 9));
 244:Middlewares/ST/filex/common/src/fx_unicode_file_rename.c ****     }
 245:Middlewares/ST/filex/common/src/fx_unicode_file_rename.c ****     _fx_unicode_temp_long_file_name[i] =  FX_NULL;
 246:Middlewares/ST/filex/common/src/fx_unicode_file_rename.c **** 
 247:Middlewares/ST/filex/common/src/fx_unicode_file_rename.c ****     /* Loop to try different temp long file names... if necessary.  */
 248:Middlewares/ST/filex/common/src/fx_unicode_file_rename.c ****     do
 249:Middlewares/ST/filex/common/src/fx_unicode_file_rename.c ****     {
 250:Middlewares/ST/filex/common/src/fx_unicode_file_rename.c **** 
 251:Middlewares/ST/filex/common/src/fx_unicode_file_rename.c ****         /* Create a new file with the temp long file name.  */
 252:Middlewares/ST/filex/common/src/fx_unicode_file_rename.c ****         status = _fx_file_rename(media_ptr, old_shortname, (CHAR *)_fx_unicode_temp_long_file_name)
 253:Middlewares/ST/filex/common/src/fx_unicode_file_rename.c **** 
 254:Middlewares/ST/filex/common/src/fx_unicode_file_rename.c ****         /* Determine if there was an error.  */
 255:Middlewares/ST/filex/common/src/fx_unicode_file_rename.c ****         if (status == FX_ALREADY_CREATED)
 256:Middlewares/ST/filex/common/src/fx_unicode_file_rename.c ****         {
 257:Middlewares/ST/filex/common/src/fx_unicode_file_rename.c **** 
 258:Middlewares/ST/filex/common/src/fx_unicode_file_rename.c ****             /* Adjust the name slightly and try again!  */
 259:Middlewares/ST/filex/common/src/fx_unicode_file_rename.c ****             _fx_unicode_temp_long_file_name[0]--; 
 260:Middlewares/ST/filex/common/src/fx_unicode_file_rename.c **** 
ARM GAS  C:\Users\HP\AppData\Local\Temp\ccsqscVN.s 			page 7


 261:Middlewares/ST/filex/common/src/fx_unicode_file_rename.c ****             /* Determine if it is outside the lower case boundary.  */
 262:Middlewares/ST/filex/common/src/fx_unicode_file_rename.c ****             if (_fx_unicode_temp_long_file_name[0] < 0x61)
 263:Middlewares/ST/filex/common/src/fx_unicode_file_rename.c ****             {
 264:Middlewares/ST/filex/common/src/fx_unicode_file_rename.c ****                 break;
 265:Middlewares/ST/filex/common/src/fx_unicode_file_rename.c ****             }
 266:Middlewares/ST/filex/common/src/fx_unicode_file_rename.c ****         }
 267:Middlewares/ST/filex/common/src/fx_unicode_file_rename.c ****     } while (status == FX_ALREADY_CREATED);
 268:Middlewares/ST/filex/common/src/fx_unicode_file_rename.c **** 
 269:Middlewares/ST/filex/common/src/fx_unicode_file_rename.c ****     /* Determine if there was an error.  */
 270:Middlewares/ST/filex/common/src/fx_unicode_file_rename.c ****     if (status)
 271:Middlewares/ST/filex/common/src/fx_unicode_file_rename.c ****     {
 272:Middlewares/ST/filex/common/src/fx_unicode_file_rename.c **** #ifdef FX_ENABLE_FAULT_TOLERANT
 273:Middlewares/ST/filex/common/src/fx_unicode_file_rename.c ****         FX_FAULT_TOLERANT_TRANSACTION_FAIL(media_ptr);
 274:Middlewares/ST/filex/common/src/fx_unicode_file_rename.c **** #endif /* FX_ENABLE_FAULT_TOLERANT */
 275:Middlewares/ST/filex/common/src/fx_unicode_file_rename.c **** 
 276:Middlewares/ST/filex/common/src/fx_unicode_file_rename.c ****         /* Release media protection.  */
 277:Middlewares/ST/filex/common/src/fx_unicode_file_rename.c ****         FX_UNPROTECT
 278:Middlewares/ST/filex/common/src/fx_unicode_file_rename.c **** 
 279:Middlewares/ST/filex/common/src/fx_unicode_file_rename.c ****         /* Return error.  */
 280:Middlewares/ST/filex/common/src/fx_unicode_file_rename.c ****         return(status);
 281:Middlewares/ST/filex/common/src/fx_unicode_file_rename.c ****     }
 282:Middlewares/ST/filex/common/src/fx_unicode_file_rename.c **** 
 283:Middlewares/ST/filex/common/src/fx_unicode_file_rename.c ****     /* Setup pointer to media name buffer.  */
 284:Middlewares/ST/filex/common/src/fx_unicode_file_rename.c ****     dir_entry.fx_dir_entry_name =  media_ptr -> fx_media_name_buffer + FX_MAX_LONG_NAME_LEN;
 285:Middlewares/ST/filex/common/src/fx_unicode_file_rename.c **** 
 286:Middlewares/ST/filex/common/src/fx_unicode_file_rename.c ****     /* Clear the short name string.  */
 287:Middlewares/ST/filex/common/src/fx_unicode_file_rename.c ****     dir_entry.fx_dir_entry_short_name[0] =  0;
 288:Middlewares/ST/filex/common/src/fx_unicode_file_rename.c **** 
 289:Middlewares/ST/filex/common/src/fx_unicode_file_rename.c ****     /* Search the system for the supplied file name.  */
 290:Middlewares/ST/filex/common/src/fx_unicode_file_rename.c ****     status =  _fx_directory_search(media_ptr, (CHAR *)_fx_unicode_temp_long_file_name, &dir_entry, 
 291:Middlewares/ST/filex/common/src/fx_unicode_file_rename.c **** 
 292:Middlewares/ST/filex/common/src/fx_unicode_file_rename.c ****     /* Determine if the search was successful.  */
 293:Middlewares/ST/filex/common/src/fx_unicode_file_rename.c ****     if (status != FX_SUCCESS)
 294:Middlewares/ST/filex/common/src/fx_unicode_file_rename.c ****     {
 295:Middlewares/ST/filex/common/src/fx_unicode_file_rename.c **** #ifdef FX_ENABLE_FAULT_TOLERANT
 296:Middlewares/ST/filex/common/src/fx_unicode_file_rename.c ****         FX_FAULT_TOLERANT_TRANSACTION_FAIL(media_ptr);
 297:Middlewares/ST/filex/common/src/fx_unicode_file_rename.c **** #endif /* FX_ENABLE_FAULT_TOLERANT */
 298:Middlewares/ST/filex/common/src/fx_unicode_file_rename.c **** 
 299:Middlewares/ST/filex/common/src/fx_unicode_file_rename.c ****         /* Release media protection.  */
 300:Middlewares/ST/filex/common/src/fx_unicode_file_rename.c ****         FX_UNPROTECT
 301:Middlewares/ST/filex/common/src/fx_unicode_file_rename.c **** 
 302:Middlewares/ST/filex/common/src/fx_unicode_file_rename.c ****         /* Return the error status.  */
 303:Middlewares/ST/filex/common/src/fx_unicode_file_rename.c ****         return(status);
 304:Middlewares/ST/filex/common/src/fx_unicode_file_rename.c ****     }
 305:Middlewares/ST/filex/common/src/fx_unicode_file_rename.c **** 
 306:Middlewares/ST/filex/common/src/fx_unicode_file_rename.c ****     /* We can now change the temporary long file name with the destination unicode name.  */
 307:Middlewares/ST/filex/common/src/fx_unicode_file_rename.c ****     status =  _fx_unicode_directory_entry_change(media_ptr, &dir_entry,  new_unicode_name, new_unic
 308:Middlewares/ST/filex/common/src/fx_unicode_file_rename.c **** 
 309:Middlewares/ST/filex/common/src/fx_unicode_file_rename.c ****     /* Was this successful?  */
 310:Middlewares/ST/filex/common/src/fx_unicode_file_rename.c ****     if (status == FX_SUCCESS)
 311:Middlewares/ST/filex/common/src/fx_unicode_file_rename.c ****     {
 312:Middlewares/ST/filex/common/src/fx_unicode_file_rename.c **** 
 313:Middlewares/ST/filex/common/src/fx_unicode_file_rename.c ****         /* Yes, copy the short file name to the destination.  */
 314:Middlewares/ST/filex/common/src/fx_unicode_file_rename.c ****         /* The new short name only have 8 characters, since we didn't include a dot in temp_long_fi
 315:Middlewares/ST/filex/common/src/fx_unicode_file_rename.c ****         for (i = 0; i < FX_DIR_NAME_SIZE; i++)
 316:Middlewares/ST/filex/common/src/fx_unicode_file_rename.c ****         {
 317:Middlewares/ST/filex/common/src/fx_unicode_file_rename.c **** 
ARM GAS  C:\Users\HP\AppData\Local\Temp\ccsqscVN.s 			page 8


 318:Middlewares/ST/filex/common/src/fx_unicode_file_rename.c ****             /* Copy a character.  */
 319:Middlewares/ST/filex/common/src/fx_unicode_file_rename.c ****             new_short_name[i] =  dir_entry.fx_dir_entry_short_name[i];
 320:Middlewares/ST/filex/common/src/fx_unicode_file_rename.c **** 
 321:Middlewares/ST/filex/common/src/fx_unicode_file_rename.c ****             /* Are we done?  */
 322:Middlewares/ST/filex/common/src/fx_unicode_file_rename.c ****             if (new_short_name[i] == FX_NULL)
 323:Middlewares/ST/filex/common/src/fx_unicode_file_rename.c ****             {
 324:Middlewares/ST/filex/common/src/fx_unicode_file_rename.c ****                 break;
 325:Middlewares/ST/filex/common/src/fx_unicode_file_rename.c ****             }
 326:Middlewares/ST/filex/common/src/fx_unicode_file_rename.c ****         }
 327:Middlewares/ST/filex/common/src/fx_unicode_file_rename.c ****     }
 328:Middlewares/ST/filex/common/src/fx_unicode_file_rename.c **** 
 329:Middlewares/ST/filex/common/src/fx_unicode_file_rename.c **** #ifdef FX_ENABLE_FAULT_TOLERANT
 330:Middlewares/ST/filex/common/src/fx_unicode_file_rename.c ****     /* Check for a bad status.  */
 331:Middlewares/ST/filex/common/src/fx_unicode_file_rename.c ****     if (status != FX_SUCCESS)
 332:Middlewares/ST/filex/common/src/fx_unicode_file_rename.c ****     {
 333:Middlewares/ST/filex/common/src/fx_unicode_file_rename.c **** 
 334:Middlewares/ST/filex/common/src/fx_unicode_file_rename.c ****         FX_FAULT_TOLERANT_TRANSACTION_FAIL(media_ptr);
 335:Middlewares/ST/filex/common/src/fx_unicode_file_rename.c **** 
 336:Middlewares/ST/filex/common/src/fx_unicode_file_rename.c ****         /* Release media protection.  */
 337:Middlewares/ST/filex/common/src/fx_unicode_file_rename.c ****         FX_UNPROTECT
 338:Middlewares/ST/filex/common/src/fx_unicode_file_rename.c **** 
 339:Middlewares/ST/filex/common/src/fx_unicode_file_rename.c ****         /* Return the bad status.  */
 340:Middlewares/ST/filex/common/src/fx_unicode_file_rename.c ****         return(status);
 341:Middlewares/ST/filex/common/src/fx_unicode_file_rename.c ****     }
 342:Middlewares/ST/filex/common/src/fx_unicode_file_rename.c **** 
 343:Middlewares/ST/filex/common/src/fx_unicode_file_rename.c ****     /* End transaction. */
 344:Middlewares/ST/filex/common/src/fx_unicode_file_rename.c ****     status = _fx_fault_tolerant_transaction_end(media_ptr);
 345:Middlewares/ST/filex/common/src/fx_unicode_file_rename.c **** #endif /* FX_ENABLE_FAULT_TOLERANT */
 346:Middlewares/ST/filex/common/src/fx_unicode_file_rename.c **** 
 347:Middlewares/ST/filex/common/src/fx_unicode_file_rename.c ****     /* Release the protection.  */
 348:Middlewares/ST/filex/common/src/fx_unicode_file_rename.c ****     FX_UNPROTECT
 349:Middlewares/ST/filex/common/src/fx_unicode_file_rename.c **** 
 350:Middlewares/ST/filex/common/src/fx_unicode_file_rename.c ****     /* Return completion status.  */
 351:Middlewares/ST/filex/common/src/fx_unicode_file_rename.c ****     return(status);
 352:Middlewares/ST/filex/common/src/fx_unicode_file_rename.c **** }
  84              		.loc 1 352 1 view .LVU19
  85 0024 4846     		mov	r0, r9
  86 0026 29B0     		add	sp, sp, #164
  87              	.LCFI2:
  88              		.cfi_remember_state
  89              		.cfi_def_cfa_offset 36
  90              		@ sp needed
  91 0028 BDE8F08F 		pop	{r4, r5, r6, r7, r8, r9, r10, fp, pc}
  92              	.LVL5:
  93              	.L24:
  94              	.LCFI3:
  95              		.cfi_restore_state
  96              		.loc 1 352 1 view .LVU20
  97 002c 0546     		mov	r5, r0
  98 002e 8A46     		mov	r10, r1
 129:Middlewares/ST/filex/common/src/fx_unicode_file_rename.c **** 
  99              		.loc 1 129 5 is_stmt 1 view .LVU21
 129:Middlewares/ST/filex/common/src/fx_unicode_file_rename.c **** 
 100              		.loc 1 129 14 is_stmt 0 view .LVU22
 101 0030 24AB     		add	r3, sp, #144
 102 0032 5A46     		mov	r2, fp
 103 0034 FFF7FEFF 		bl	_fx_unicode_short_name_get
ARM GAS  C:\Users\HP\AppData\Local\Temp\ccsqscVN.s 			page 9


 104              	.LVL6:
 132:Middlewares/ST/filex/common/src/fx_unicode_file_rename.c ****     {
 105              		.loc 1 132 5 is_stmt 1 view .LVU23
 132:Middlewares/ST/filex/common/src/fx_unicode_file_rename.c ****     {
 106              		.loc 1 132 8 is_stmt 0 view .LVU24
 107 0038 8146     		mov	r9, r0
 108 003a 0028     		cmp	r0, #0
 109 003c F2D1     		bne	.L1
 140:Middlewares/ST/filex/common/src/fx_unicode_file_rename.c **** 
 110              		.loc 1 140 5 is_stmt 1 view .LVU25
 111 003e 2A68     		ldr	r2, [r5]
 112 0040 5A4B     		ldr	r3, .L29
 113 0042 9A42     		cmp	r2, r3
 114 0044 02D0     		beq	.L25
 115 0046 4FF01109 		mov	r9, #17
 116 004a EBE7     		b	.L1
 117              	.L25:
 140:Middlewares/ST/filex/common/src/fx_unicode_file_rename.c **** 
 118              		.loc 1 140 5 discriminator 2 view .LVU26
 119 004c 05F5E477 		add	r7, r5, #456
 120 0050 4FF0FF31 		mov	r1, #-1
 121 0054 3846     		mov	r0, r7
 122              	.LVL7:
 140:Middlewares/ST/filex/common/src/fx_unicode_file_rename.c **** 
 123              		.loc 1 140 5 is_stmt 0 discriminator 2 view .LVU27
 124 0056 FFF7FEFF 		bl	_tx_mutex_get
 125              	.LVL8:
 126 005a 0028     		cmp	r0, #0
 127 005c 40F0A280 		bne	.L20
 143:Middlewares/ST/filex/common/src/fx_unicode_file_rename.c **** 
 128              		.loc 1 143 5 is_stmt 1 view .LVU28
 143:Middlewares/ST/filex/common/src/fx_unicode_file_rename.c **** 
 129              		.loc 1 143 69 is_stmt 0 view .LVU29
 130 0060 05F69C18 		addw	r8, r5, #2460
 143:Middlewares/ST/filex/common/src/fx_unicode_file_rename.c **** 
 131              		.loc 1 143 33 view .LVU30
 132 0064 CDF81080 		str	r8, [sp, #16]
 146:Middlewares/ST/filex/common/src/fx_unicode_file_rename.c **** 
 133              		.loc 1 146 5 is_stmt 1 view .LVU31
 146:Middlewares/ST/filex/common/src/fx_unicode_file_rename.c **** 
 134              		.loc 1 146 42 is_stmt 0 view .LVU32
 135 0068 0023     		movs	r3, #0
 136 006a 8DF81430 		strb	r3, [sp, #20]
 149:Middlewares/ST/filex/common/src/fx_unicode_file_rename.c ****                                           new_unicode_name, &new_unicode_length, 0);
 137              		.loc 1 149 5 is_stmt 1 view .LVU33
 149:Middlewares/ST/filex/common/src/fx_unicode_file_rename.c ****                                           new_unicode_name, &new_unicode_length, 0);
 138              		.loc 1 149 14 is_stmt 0 view .LVU34
 139 006e 0293     		str	r3, [sp, #8]
 140 0070 32AB     		add	r3, sp, #200
 141              	.LVL9:
 149:Middlewares/ST/filex/common/src/fx_unicode_file_rename.c ****                                           new_unicode_name, &new_unicode_length, 0);
 142              		.loc 1 149 14 view .LVU35
 143 0072 0193     		str	r3, [sp, #4]
 144 0074 0096     		str	r6, [sp]
 145 0076 0D23     		movs	r3, #13
 146              	.LVL10:
 149:Middlewares/ST/filex/common/src/fx_unicode_file_rename.c ****                                           new_unicode_name, &new_unicode_length, 0);
ARM GAS  C:\Users\HP\AppData\Local\Temp\ccsqscVN.s 			page 10


 147              		.loc 1 149 14 view .LVU36
 148 0078 20AA     		add	r2, sp, #128
 149 007a 04A9     		add	r1, sp, #16
 150 007c 2846     		mov	r0, r5
 151 007e FFF7FEFF 		bl	_fx_unicode_directory_search
 152              	.LVL11:
 153:Middlewares/ST/filex/common/src/fx_unicode_file_rename.c ****     {
 153              		.loc 1 153 5 is_stmt 1 view .LVU37
 153:Middlewares/ST/filex/common/src/fx_unicode_file_rename.c ****     {
 154              		.loc 1 153 8 is_stmt 0 view .LVU38
 155 0082 8446     		mov	ip, r0
 156 0084 30B9     		cbnz	r0, .L3
 156:Middlewares/ST/filex/common/src/fx_unicode_file_rename.c ****         {
 157              		.loc 1 156 9 is_stmt 1 view .LVU39
 156:Middlewares/ST/filex/common/src/fx_unicode_file_rename.c ****         {
 158              		.loc 1 156 32 is_stmt 0 view .LVU40
 159 0086 329B     		ldr	r3, [sp, #200]
 156:Middlewares/ST/filex/common/src/fx_unicode_file_rename.c ****         {
 160              		.loc 1 156 12 view .LVU41
 161 0088 5B45     		cmp	r3, fp
 162 008a 14D0     		beq	.L7
 210:Middlewares/ST/filex/common/src/fx_unicode_file_rename.c ****         }
 163              		.loc 1 210 18 view .LVU42
 164 008c 0122     		movs	r2, #1
 209:Middlewares/ST/filex/common/src/fx_unicode_file_rename.c ****             beta = 1;
 165              		.loc 1 209 19 view .LVU43
 166 008e 0021     		movs	r1, #0
 167              	.LVL12:
 168              	.L4:
 214:Middlewares/ST/filex/common/src/fx_unicode_file_rename.c ****         {
 169              		.loc 1 214 9 is_stmt 1 view .LVU44
 214:Middlewares/ST/filex/common/src/fx_unicode_file_rename.c ****         {
 170              		.loc 1 214 12 is_stmt 0 view .LVU45
 171 0090 9142     		cmp	r1, r2
 172 0092 2CD1     		bne	.L26
 173              	.LVL13:
 174              	.L3:
 238:Middlewares/ST/filex/common/src/fx_unicode_file_rename.c ****     for (i = 1; i < new_unicode_length; i++)
 175              		.loc 1 238 5 is_stmt 1 view .LVU46
 238:Middlewares/ST/filex/common/src/fx_unicode_file_rename.c ****     for (i = 1; i < new_unicode_length; i++)
 176              		.loc 1 238 40 is_stmt 0 view .LVU47
 177 0094 464B     		ldr	r3, .L29+4
 178 0096 7A22     		movs	r2, #122
 179 0098 1A70     		strb	r2, [r3]
 239:Middlewares/ST/filex/common/src/fx_unicode_file_rename.c ****     {
 180              		.loc 1 239 5 is_stmt 1 view .LVU48
 181              	.LVL14:
 239:Middlewares/ST/filex/common/src/fx_unicode_file_rename.c ****     {
 182              		.loc 1 239 12 is_stmt 0 view .LVU49
 183 009a 0123     		movs	r3, #1
 239:Middlewares/ST/filex/common/src/fx_unicode_file_rename.c ****     {
 184              		.loc 1 239 5 view .LVU50
 185 009c 38E0     		b	.L8
 186              	.LVL15:
 187              	.L6:
 182:Middlewares/ST/filex/common/src/fx_unicode_file_rename.c ****                 {
 188              		.loc 1 182 17 is_stmt 1 view .LVU51
ARM GAS  C:\Users\HP\AppData\Local\Temp\ccsqscVN.s 			page 11


 182:Middlewares/ST/filex/common/src/fx_unicode_file_rename.c ****                 {
 189              		.loc 1 182 20 is_stmt 0 view .LVU52
 190 009e 9142     		cmp	r1, r2
 191 00a0 F6D1     		bne	.L4
 190:Middlewares/ST/filex/common/src/fx_unicode_file_rename.c ****                 beta =  (CHAR)new_unicode_name[(i << 1) + 1];
 192              		.loc 1 190 17 is_stmt 1 view .LVU53
 190:Middlewares/ST/filex/common/src/fx_unicode_file_rename.c ****                 beta =  (CHAR)new_unicode_name[(i << 1) + 1];
 193              		.loc 1 190 47 is_stmt 0 view .LVU54
 194 00a2 0133     		adds	r3, r3, #1
 190:Middlewares/ST/filex/common/src/fx_unicode_file_rename.c ****                 beta =  (CHAR)new_unicode_name[(i << 1) + 1];
 195              		.loc 1 190 23 view .LVU55
 196 00a4 1AF80310 		ldrb	r1, [r10, r3]	@ zero_extendqisi2
 197              	.LVL16:
 191:Middlewares/ST/filex/common/src/fx_unicode_file_rename.c **** 
 198              		.loc 1 191 17 is_stmt 1 view .LVU56
 191:Middlewares/ST/filex/common/src/fx_unicode_file_rename.c **** 
 199              		.loc 1 191 22 is_stmt 0 view .LVU57
 200 00a8 F25C     		ldrb	r2, [r6, r3]	@ zero_extendqisi2
 201              	.LVL17:
 194:Middlewares/ST/filex/common/src/fx_unicode_file_rename.c ****                 {
 202              		.loc 1 194 17 is_stmt 1 view .LVU58
 194:Middlewares/ST/filex/common/src/fx_unicode_file_rename.c ****                 {
 203              		.loc 1 194 20 is_stmt 0 view .LVU59
 204 00aa 9142     		cmp	r1, r2
 205 00ac F0D1     		bne	.L4
 202:Middlewares/ST/filex/common/src/fx_unicode_file_rename.c ****             } while (i < old_unicode_length);
 206              		.loc 1 202 17 is_stmt 1 view .LVU60
 202:Middlewares/ST/filex/common/src/fx_unicode_file_rename.c ****             } while (i < old_unicode_length);
 207              		.loc 1 202 18 is_stmt 0 view .LVU61
 208 00ae 0CF1010C 		add	ip, ip, #1
 209              	.LVL18:
 203:Middlewares/ST/filex/common/src/fx_unicode_file_rename.c ****         }
 210              		.loc 1 203 21 is_stmt 1 view .LVU62
 203:Middlewares/ST/filex/common/src/fx_unicode_file_rename.c ****         }
 211              		.loc 1 203 13 is_stmt 0 view .LVU63
 212 00b2 E345     		cmp	fp, ip
 213 00b4 ECD9     		bls	.L4
 214              	.LVL19:
 215              	.L7:
 162:Middlewares/ST/filex/common/src/fx_unicode_file_rename.c ****             {
 216              		.loc 1 162 13 is_stmt 1 view .LVU64
 166:Middlewares/ST/filex/common/src/fx_unicode_file_rename.c ****                 if ((alpha >= 'a') && (alpha <= 'z') && (old_unicode_name[(i << 1) + 1] == 0))
 217              		.loc 1 166 17 view .LVU65
 166:Middlewares/ST/filex/common/src/fx_unicode_file_rename.c ****                 if ((alpha >= 'a') && (alpha <= 'z') && (old_unicode_name[(i << 1) + 1] == 0))
 218              		.loc 1 166 50 is_stmt 0 view .LVU66
 219 00b6 4FEA4C03 		lsl	r3, ip, #1
 166:Middlewares/ST/filex/common/src/fx_unicode_file_rename.c ****                 if ((alpha >= 'a') && (alpha <= 'z') && (old_unicode_name[(i << 1) + 1] == 0))
 220              		.loc 1 166 23 view .LVU67
 221 00ba 1AF81C10 		ldrb	r1, [r10, ip, lsl #1]	@ zero_extendqisi2
 222              	.LVL20:
 167:Middlewares/ST/filex/common/src/fx_unicode_file_rename.c ****                 {
 223              		.loc 1 167 17 is_stmt 1 view .LVU68
 167:Middlewares/ST/filex/common/src/fx_unicode_file_rename.c ****                 {
 224              		.loc 1 167 36 is_stmt 0 view .LVU69
 225 00be A1F16102 		sub	r2, r1, #97
 226 00c2 D2B2     		uxtb	r2, r2
 167:Middlewares/ST/filex/common/src/fx_unicode_file_rename.c ****                 {
ARM GAS  C:\Users\HP\AppData\Local\Temp\ccsqscVN.s 			page 12


 227              		.loc 1 167 20 view .LVU70
 228 00c4 192A     		cmp	r2, #25
 229 00c6 05D8     		bhi	.L5
 167:Middlewares/ST/filex/common/src/fx_unicode_file_rename.c ****                 {
 230              		.loc 1 167 74 discriminator 1 view .LVU71
 231 00c8 0AEB0302 		add	r2, r10, r3
 232 00cc 5278     		ldrb	r2, [r2, #1]	@ zero_extendqisi2
 167:Middlewares/ST/filex/common/src/fx_unicode_file_rename.c ****                 {
 233              		.loc 1 167 54 discriminator 1 view .LVU72
 234 00ce 0AB9     		cbnz	r2, .L5
 171:Middlewares/ST/filex/common/src/fx_unicode_file_rename.c ****                 }
 235              		.loc 1 171 21 is_stmt 1 view .LVU73
 171:Middlewares/ST/filex/common/src/fx_unicode_file_rename.c ****                 }
 236              		.loc 1 171 27 is_stmt 0 view .LVU74
 237 00d0 2039     		subs	r1, r1, #32
 238              	.LVL21:
 171:Middlewares/ST/filex/common/src/fx_unicode_file_rename.c ****                 }
 239              		.loc 1 171 27 view .LVU75
 240 00d2 C9B2     		uxtb	r1, r1
 241              	.LVL22:
 242              	.L5:
 173:Middlewares/ST/filex/common/src/fx_unicode_file_rename.c ****                 if ((beta >= 'a') && (beta <= 'z') && (new_unicode_name[(i << 1) + 1] == 0))
 243              		.loc 1 173 17 is_stmt 1 view .LVU76
 173:Middlewares/ST/filex/common/src/fx_unicode_file_rename.c ****                 if ((beta >= 'a') && (beta <= 'z') && (new_unicode_name[(i << 1) + 1] == 0))
 244              		.loc 1 173 22 is_stmt 0 view .LVU77
 245 00d4 F25C     		ldrb	r2, [r6, r3]	@ zero_extendqisi2
 246              	.LVL23:
 174:Middlewares/ST/filex/common/src/fx_unicode_file_rename.c ****                 {
 247              		.loc 1 174 17 is_stmt 1 view .LVU78
 174:Middlewares/ST/filex/common/src/fx_unicode_file_rename.c ****                 {
 248              		.loc 1 174 35 is_stmt 0 view .LVU79
 249 00d6 A2F16100 		sub	r0, r2, #97
 250 00da C0B2     		uxtb	r0, r0
 174:Middlewares/ST/filex/common/src/fx_unicode_file_rename.c ****                 {
 251              		.loc 1 174 20 view .LVU80
 252 00dc 1928     		cmp	r0, #25
 253 00de DED8     		bhi	.L6
 174:Middlewares/ST/filex/common/src/fx_unicode_file_rename.c ****                 {
 254              		.loc 1 174 72 discriminator 1 view .LVU81
 255 00e0 F018     		adds	r0, r6, r3
 256 00e2 4078     		ldrb	r0, [r0, #1]	@ zero_extendqisi2
 174:Middlewares/ST/filex/common/src/fx_unicode_file_rename.c ****                 {
 257              		.loc 1 174 52 discriminator 1 view .LVU82
 258 00e4 0028     		cmp	r0, #0
 259 00e6 DAD1     		bne	.L6
 178:Middlewares/ST/filex/common/src/fx_unicode_file_rename.c ****                 }
 260              		.loc 1 178 21 is_stmt 1 view .LVU83
 178:Middlewares/ST/filex/common/src/fx_unicode_file_rename.c ****                 }
 261              		.loc 1 178 26 is_stmt 0 view .LVU84
 262 00e8 203A     		subs	r2, r2, #32
 263              	.LVL24:
 178:Middlewares/ST/filex/common/src/fx_unicode_file_rename.c ****                 }
 264              		.loc 1 178 26 view .LVU85
 265 00ea D2B2     		uxtb	r2, r2
 266              	.LVL25:
 178:Middlewares/ST/filex/common/src/fx_unicode_file_rename.c ****                 }
 267              		.loc 1 178 26 view .LVU86
ARM GAS  C:\Users\HP\AppData\Local\Temp\ccsqscVN.s 			page 13


 268 00ec D7E7     		b	.L6
 269              	.LVL26:
 270              	.L26:
 221:Middlewares/ST/filex/common/src/fx_unicode_file_rename.c **** 
 271              		.loc 1 221 13 is_stmt 1 view .LVU87
 272 00ee 3846     		mov	r0, r7
 273 00f0 FFF7FEFF 		bl	_tx_mutex_put
 274              	.LVL27:
 224:Middlewares/ST/filex/common/src/fx_unicode_file_rename.c ****         }
 275              		.loc 1 224 13 view .LVU88
 224:Middlewares/ST/filex/common/src/fx_unicode_file_rename.c ****         }
 276              		.loc 1 224 19 is_stmt 0 view .LVU89
 277 00f4 4FF00B09 		mov	r9, #11
 278 00f8 94E7     		b	.L1
 279              	.LVL28:
 280              	.L9:
 243:Middlewares/ST/filex/common/src/fx_unicode_file_rename.c ****     }
 281              		.loc 1 243 9 is_stmt 1 discriminator 3 view .LVU90
 243:Middlewares/ST/filex/common/src/fx_unicode_file_rename.c ****     }
 282              		.loc 1 243 70 is_stmt 0 discriminator 3 view .LVU91
 283 00fa 2E49     		ldr	r1, .L29+8
 284 00fc A1FB0321 		umull	r2, r1, r1, r3
 285 0100 4908     		lsrs	r1, r1, #1
 286 0102 01EBC101 		add	r1, r1, r1, lsl #3
 287 0106 591A     		subs	r1, r3, r1
 243:Middlewares/ST/filex/common/src/fx_unicode_file_rename.c ****     }
 288              		.loc 1 243 47 discriminator 3 view .LVU92
 289 0108 3031     		adds	r1, r1, #48
 243:Middlewares/ST/filex/common/src/fx_unicode_file_rename.c ****     }
 290              		.loc 1 243 44 discriminator 3 view .LVU93
 291 010a 294A     		ldr	r2, .L29+4
 292 010c D154     		strb	r1, [r2, r3]
 239:Middlewares/ST/filex/common/src/fx_unicode_file_rename.c ****     {
 293              		.loc 1 239 41 is_stmt 1 discriminator 3 view .LVU94
 239:Middlewares/ST/filex/common/src/fx_unicode_file_rename.c ****     {
 294              		.loc 1 239 42 is_stmt 0 discriminator 3 view .LVU95
 295 010e 0133     		adds	r3, r3, #1
 296              	.LVL29:
 297              	.L8:
 239:Middlewares/ST/filex/common/src/fx_unicode_file_rename.c ****     {
 298              		.loc 1 239 17 is_stmt 1 discriminator 1 view .LVU96
 239:Middlewares/ST/filex/common/src/fx_unicode_file_rename.c ****     {
 299              		.loc 1 239 19 is_stmt 0 discriminator 1 view .LVU97
 300 0110 329A     		ldr	r2, [sp, #200]
 239:Middlewares/ST/filex/common/src/fx_unicode_file_rename.c ****     {
 301              		.loc 1 239 5 discriminator 1 view .LVU98
 302 0112 9A42     		cmp	r2, r3
 303 0114 F1D8     		bhi	.L9
 245:Middlewares/ST/filex/common/src/fx_unicode_file_rename.c **** 
 304              		.loc 1 245 5 is_stmt 1 view .LVU99
 245:Middlewares/ST/filex/common/src/fx_unicode_file_rename.c **** 
 305              		.loc 1 245 40 is_stmt 0 view .LVU100
 306 0116 264A     		ldr	r2, .L29+4
 307 0118 0021     		movs	r1, #0
 308 011a D154     		strb	r1, [r2, r3]
 309 011c 02E0     		b	.L12
 310              	.LVL30:
ARM GAS  C:\Users\HP\AppData\Local\Temp\ccsqscVN.s 			page 14


 311              	.L10:
 267:Middlewares/ST/filex/common/src/fx_unicode_file_rename.c **** 
 312              		.loc 1 267 13 is_stmt 1 view .LVU101
 267:Middlewares/ST/filex/common/src/fx_unicode_file_rename.c **** 
 313              		.loc 1 267 5 is_stmt 0 view .LVU102
 314 011e B9F10B0F 		cmp	r9, #11
 315 0122 0ED1     		bne	.L11
 316              	.LVL31:
 317              	.L12:
 248:Middlewares/ST/filex/common/src/fx_unicode_file_rename.c ****     {
 318              		.loc 1 248 5 is_stmt 1 view .LVU103
 252:Middlewares/ST/filex/common/src/fx_unicode_file_rename.c **** 
 319              		.loc 1 252 9 view .LVU104
 252:Middlewares/ST/filex/common/src/fx_unicode_file_rename.c **** 
 320              		.loc 1 252 18 is_stmt 0 view .LVU105
 321 0124 224A     		ldr	r2, .L29+4
 322 0126 24A9     		add	r1, sp, #144
 323 0128 2846     		mov	r0, r5
 324 012a FFF7FEFF 		bl	_fx_file_rename
 325              	.LVL32:
 326 012e 8146     		mov	r9, r0
 327              	.LVL33:
 255:Middlewares/ST/filex/common/src/fx_unicode_file_rename.c ****         {
 328              		.loc 1 255 9 is_stmt 1 view .LVU106
 255:Middlewares/ST/filex/common/src/fx_unicode_file_rename.c ****         {
 329              		.loc 1 255 12 is_stmt 0 view .LVU107
 330 0130 0B28     		cmp	r0, #11
 331 0132 F4D1     		bne	.L10
 259:Middlewares/ST/filex/common/src/fx_unicode_file_rename.c **** 
 332              		.loc 1 259 13 is_stmt 1 view .LVU108
 259:Middlewares/ST/filex/common/src/fx_unicode_file_rename.c **** 
 333              		.loc 1 259 44 is_stmt 0 view .LVU109
 334 0134 1E4A     		ldr	r2, .L29+4
 335 0136 1378     		ldrb	r3, [r2]	@ zero_extendqisi2
 259:Middlewares/ST/filex/common/src/fx_unicode_file_rename.c **** 
 336              		.loc 1 259 47 view .LVU110
 337 0138 013B     		subs	r3, r3, #1
 338 013a DBB2     		uxtb	r3, r3
 339 013c 1370     		strb	r3, [r2]
 262:Middlewares/ST/filex/common/src/fx_unicode_file_rename.c ****             {
 340              		.loc 1 262 13 is_stmt 1 view .LVU111
 262:Middlewares/ST/filex/common/src/fx_unicode_file_rename.c ****             {
 341              		.loc 1 262 16 is_stmt 0 view .LVU112
 342 013e 602B     		cmp	r3, #96
 343 0140 EDD8     		bhi	.L10
 344              	.L11:
 270:Middlewares/ST/filex/common/src/fx_unicode_file_rename.c ****     {
 345              		.loc 1 270 5 is_stmt 1 view .LVU113
 270:Middlewares/ST/filex/common/src/fx_unicode_file_rename.c ****     {
 346              		.loc 1 270 8 is_stmt 0 view .LVU114
 347 0142 B9F1000F 		cmp	r9, #0
 348 0146 18D1     		bne	.L27
 284:Middlewares/ST/filex/common/src/fx_unicode_file_rename.c **** 
 349              		.loc 1 284 5 is_stmt 1 view .LVU115
 284:Middlewares/ST/filex/common/src/fx_unicode_file_rename.c **** 
 350              		.loc 1 284 33 is_stmt 0 view .LVU116
 351 0148 CDF81080 		str	r8, [sp, #16]
ARM GAS  C:\Users\HP\AppData\Local\Temp\ccsqscVN.s 			page 15


 287:Middlewares/ST/filex/common/src/fx_unicode_file_rename.c **** 
 352              		.loc 1 287 5 is_stmt 1 view .LVU117
 287:Middlewares/ST/filex/common/src/fx_unicode_file_rename.c **** 
 353              		.loc 1 287 42 is_stmt 0 view .LVU118
 354 014c 0023     		movs	r3, #0
 355 014e 8DF81430 		strb	r3, [sp, #20]
 290:Middlewares/ST/filex/common/src/fx_unicode_file_rename.c **** 
 356              		.loc 1 290 5 is_stmt 1 view .LVU119
 290:Middlewares/ST/filex/common/src/fx_unicode_file_rename.c **** 
 357              		.loc 1 290 15 is_stmt 0 view .LVU120
 358 0152 0093     		str	r3, [sp]
 359 0154 04AA     		add	r2, sp, #16
 360 0156 1649     		ldr	r1, .L29+4
 361 0158 2846     		mov	r0, r5
 362              	.LVL34:
 290:Middlewares/ST/filex/common/src/fx_unicode_file_rename.c **** 
 363              		.loc 1 290 15 view .LVU121
 364 015a FFF7FEFF 		bl	_fx_directory_search
 365              	.LVL35:
 293:Middlewares/ST/filex/common/src/fx_unicode_file_rename.c ****     {
 366              		.loc 1 293 5 is_stmt 1 view .LVU122
 293:Middlewares/ST/filex/common/src/fx_unicode_file_rename.c ****     {
 367              		.loc 1 293 8 is_stmt 0 view .LVU123
 368 015e 8146     		mov	r9, r0
 369 0160 78B9     		cbnz	r0, .L28
 307:Middlewares/ST/filex/common/src/fx_unicode_file_rename.c **** 
 370              		.loc 1 307 5 is_stmt 1 view .LVU124
 307:Middlewares/ST/filex/common/src/fx_unicode_file_rename.c **** 
 371              		.loc 1 307 15 is_stmt 0 view .LVU125
 372 0162 329B     		ldr	r3, [sp, #200]
 373 0164 3246     		mov	r2, r6
 374 0166 04A9     		add	r1, sp, #16
 375 0168 2846     		mov	r0, r5
 376              	.LVL36:
 307:Middlewares/ST/filex/common/src/fx_unicode_file_rename.c **** 
 377              		.loc 1 307 15 view .LVU126
 378 016a FFF7FEFF 		bl	_fx_unicode_directory_entry_change
 379              	.LVL37:
 310:Middlewares/ST/filex/common/src/fx_unicode_file_rename.c ****     {
 380              		.loc 1 310 5 is_stmt 1 view .LVU127
 310:Middlewares/ST/filex/common/src/fx_unicode_file_rename.c ****     {
 381              		.loc 1 310 8 is_stmt 0 view .LVU128
 382 016e 8146     		mov	r9, r0
 383 0170 58B1     		cbz	r0, .L22
 384              	.L16:
 348:Middlewares/ST/filex/common/src/fx_unicode_file_rename.c **** 
 385              		.loc 1 348 5 is_stmt 1 view .LVU129
 386 0172 3846     		mov	r0, r7
 387              	.LVL38:
 348:Middlewares/ST/filex/common/src/fx_unicode_file_rename.c **** 
 388              		.loc 1 348 5 is_stmt 0 view .LVU130
 389 0174 FFF7FEFF 		bl	_tx_mutex_put
 390              	.LVL39:
 351:Middlewares/ST/filex/common/src/fx_unicode_file_rename.c **** }
 391              		.loc 1 351 5 is_stmt 1 view .LVU131
 351:Middlewares/ST/filex/common/src/fx_unicode_file_rename.c **** }
 392              		.loc 1 351 11 is_stmt 0 view .LVU132
ARM GAS  C:\Users\HP\AppData\Local\Temp\ccsqscVN.s 			page 16


 393 0178 54E7     		b	.L1
 394              	.LVL40:
 395              	.L27:
 277:Middlewares/ST/filex/common/src/fx_unicode_file_rename.c **** 
 396              		.loc 1 277 9 is_stmt 1 view .LVU133
 397 017a 3846     		mov	r0, r7
 398              	.LVL41:
 277:Middlewares/ST/filex/common/src/fx_unicode_file_rename.c **** 
 399              		.loc 1 277 9 is_stmt 0 view .LVU134
 400 017c FFF7FEFF 		bl	_tx_mutex_put
 401              	.LVL42:
 280:Middlewares/ST/filex/common/src/fx_unicode_file_rename.c ****     }
 402              		.loc 1 280 9 is_stmt 1 view .LVU135
 280:Middlewares/ST/filex/common/src/fx_unicode_file_rename.c ****     }
 403              		.loc 1 280 15 is_stmt 0 view .LVU136
 404 0180 50E7     		b	.L1
 405              	.LVL43:
 406              	.L28:
 300:Middlewares/ST/filex/common/src/fx_unicode_file_rename.c **** 
 407              		.loc 1 300 9 is_stmt 1 view .LVU137
 408 0182 3846     		mov	r0, r7
 409              	.LVL44:
 300:Middlewares/ST/filex/common/src/fx_unicode_file_rename.c **** 
 410              		.loc 1 300 9 is_stmt 0 view .LVU138
 411 0184 FFF7FEFF 		bl	_tx_mutex_put
 412              	.LVL45:
 303:Middlewares/ST/filex/common/src/fx_unicode_file_rename.c ****     }
 413              		.loc 1 303 9 is_stmt 1 view .LVU139
 303:Middlewares/ST/filex/common/src/fx_unicode_file_rename.c ****     }
 414              		.loc 1 303 15 is_stmt 0 view .LVU140
 415 0188 4CE7     		b	.L1
 416              	.LVL46:
 417              	.L22:
 315:Middlewares/ST/filex/common/src/fx_unicode_file_rename.c ****         {
 418              		.loc 1 315 16 view .LVU141
 419 018a 0346     		mov	r3, r0
 420              	.L15:
 421              	.LVL47:
 315:Middlewares/ST/filex/common/src/fx_unicode_file_rename.c ****         {
 422              		.loc 1 315 21 is_stmt 1 discriminator 1 view .LVU142
 315:Middlewares/ST/filex/common/src/fx_unicode_file_rename.c ****         {
 423              		.loc 1 315 9 is_stmt 0 discriminator 1 view .LVU143
 424 018c 072B     		cmp	r3, #7
 425 018e F0D8     		bhi	.L16
 319:Middlewares/ST/filex/common/src/fx_unicode_file_rename.c **** 
 426              		.loc 1 319 13 is_stmt 1 view .LVU144
 319:Middlewares/ST/filex/common/src/fx_unicode_file_rename.c **** 
 427              		.loc 1 319 67 is_stmt 0 view .LVU145
 428 0190 03F1A002 		add	r2, r3, #160
 429 0194 6A44     		add	r2, sp, r2
 430 0196 12F88C2C 		ldrb	r2, [r2, #-140]	@ zero_extendqisi2
 319:Middlewares/ST/filex/common/src/fx_unicode_file_rename.c **** 
 431              		.loc 1 319 31 view .LVU146
 432 019a E254     		strb	r2, [r4, r3]
 322:Middlewares/ST/filex/common/src/fx_unicode_file_rename.c ****             {
 433              		.loc 1 322 13 is_stmt 1 view .LVU147
 322:Middlewares/ST/filex/common/src/fx_unicode_file_rename.c ****             {
ARM GAS  C:\Users\HP\AppData\Local\Temp\ccsqscVN.s 			page 17


 434              		.loc 1 322 16 is_stmt 0 view .LVU148
 435 019c 002A     		cmp	r2, #0
 436 019e E8D0     		beq	.L16
 315:Middlewares/ST/filex/common/src/fx_unicode_file_rename.c ****         {
 437              		.loc 1 315 43 is_stmt 1 discriminator 2 view .LVU149
 315:Middlewares/ST/filex/common/src/fx_unicode_file_rename.c ****         {
 438              		.loc 1 315 44 is_stmt 0 discriminator 2 view .LVU150
 439 01a0 0133     		adds	r3, r3, #1
 440              	.LVL48:
 315:Middlewares/ST/filex/common/src/fx_unicode_file_rename.c ****         {
 441              		.loc 1 315 44 discriminator 2 view .LVU151
 442 01a2 F3E7     		b	.L15
 443              	.LVL49:
 444              	.L20:
 140:Middlewares/ST/filex/common/src/fx_unicode_file_rename.c **** 
 445              		.loc 1 140 5 view .LVU152
 446 01a4 4FF01109 		mov	r9, #17
 447              	.LVL50:
 140:Middlewares/ST/filex/common/src/fx_unicode_file_rename.c **** 
 448              		.loc 1 140 5 view .LVU153
 449 01a8 3CE7     		b	.L1
 450              	.L30:
 451 01aa 00BF     		.align	2
 452              	.L29:
 453 01ac 4944454D 		.word	1296385097
 454 01b0 00000000 		.word	_fx_unicode_temp_long_file_name
 455 01b4 398EE338 		.word	954437177
 456              		.cfi_endproc
 457              	.LFE8:
 459              		.text
 460              	.Letext0:
 461              		.file 2 "Middlewares/ST/threadx/ports/cortex_m4/gnu/inc/tx_port.h"
 462              		.file 3 "Middlewares/ST/threadx/common/inc/tx_api.h"
 463              		.file 4 "Middlewares/ST/filex/common/inc/fx_api.h"
 464              		.file 5 "Middlewares/ST/filex/common/inc/fx_unicode.h"
 465              		.file 6 "Middlewares/ST/filex/common/inc/fx_file.h"
 466              		.file 7 "Middlewares/ST/filex/common/inc/fx_directory.h"
ARM GAS  C:\Users\HP\AppData\Local\Temp\ccsqscVN.s 			page 18

