ARM GAS  C:\Users\HP\AppData\Local\Temp\ccmNAPib.s 			page 1


   1              		.cpu cortex-m4
   2              		.arch armv7e-m
   3              		.fpu fpv4-sp-d16
   4              		.eabi_attribute 27, 1
   5              		.eabi_attribute 28, 1
   6              		.eabi_attribute 20, 1
   7              		.eabi_attribute 21, 1
   8              		.eabi_attribute 23, 3
   9              		.eabi_attribute 24, 1
  10              		.eabi_attribute 25, 1
  11              		.eabi_attribute 26, 1
  12              		.eabi_attribute 30, 1
  13              		.eabi_attribute 34, 1
  14              		.eabi_attribute 18, 4
  15              		.file	"fxe_system_date_get.c"
  16              		.text
  17              	.Ltext0:
  18              		.cfi_sections	.debug_frame
  19              		.section	.text._fxe_system_date_get,"ax",%progbits
  20              		.align	1
  21              		.global	_fxe_system_date_get
  22              		.syntax unified
  23              		.thumb
  24              		.thumb_func
  26              	_fxe_system_date_get:
  27              	.LVL0:
  28              	.LFB8:
  29              		.file 1 "Middlewares/ST/filex/common/src/fxe_system_date_get.c"
   1:Middlewares/ST/filex/common/src/fxe_system_date_get.c **** /**************************************************************************/
   2:Middlewares/ST/filex/common/src/fxe_system_date_get.c **** /*                                                                        */
   3:Middlewares/ST/filex/common/src/fxe_system_date_get.c **** /*       Copyright (c) Microsoft Corporation. All rights reserved.        */
   4:Middlewares/ST/filex/common/src/fxe_system_date_get.c **** /*                                                                        */
   5:Middlewares/ST/filex/common/src/fxe_system_date_get.c **** /*       This software is licensed under the Microsoft Software License   */
   6:Middlewares/ST/filex/common/src/fxe_system_date_get.c **** /*       Terms for Microsoft Azure RTOS. Full text of the license can be  */
   7:Middlewares/ST/filex/common/src/fxe_system_date_get.c **** /*       found in the LICENSE file at https://aka.ms/AzureRTOS_EULA       */
   8:Middlewares/ST/filex/common/src/fxe_system_date_get.c **** /*       and in the root directory of this software.                      */
   9:Middlewares/ST/filex/common/src/fxe_system_date_get.c **** /*                                                                        */
  10:Middlewares/ST/filex/common/src/fxe_system_date_get.c **** /**************************************************************************/
  11:Middlewares/ST/filex/common/src/fxe_system_date_get.c **** 
  12:Middlewares/ST/filex/common/src/fxe_system_date_get.c **** 
  13:Middlewares/ST/filex/common/src/fxe_system_date_get.c **** /**************************************************************************/
  14:Middlewares/ST/filex/common/src/fxe_system_date_get.c **** /**************************************************************************/
  15:Middlewares/ST/filex/common/src/fxe_system_date_get.c **** /**                                                                       */
  16:Middlewares/ST/filex/common/src/fxe_system_date_get.c **** /** FileX Component                                                       */
  17:Middlewares/ST/filex/common/src/fxe_system_date_get.c **** /**                                                                       */
  18:Middlewares/ST/filex/common/src/fxe_system_date_get.c **** /**   System                                                              */
  19:Middlewares/ST/filex/common/src/fxe_system_date_get.c **** /**                                                                       */
  20:Middlewares/ST/filex/common/src/fxe_system_date_get.c **** /**************************************************************************/
  21:Middlewares/ST/filex/common/src/fxe_system_date_get.c **** /**************************************************************************/
  22:Middlewares/ST/filex/common/src/fxe_system_date_get.c **** 
  23:Middlewares/ST/filex/common/src/fxe_system_date_get.c **** #define FX_SOURCE_CODE
  24:Middlewares/ST/filex/common/src/fxe_system_date_get.c **** 
  25:Middlewares/ST/filex/common/src/fxe_system_date_get.c **** 
  26:Middlewares/ST/filex/common/src/fxe_system_date_get.c **** /* Include necessary system files.  */
  27:Middlewares/ST/filex/common/src/fxe_system_date_get.c **** 
  28:Middlewares/ST/filex/common/src/fxe_system_date_get.c **** #include "fx_api.h"
  29:Middlewares/ST/filex/common/src/fxe_system_date_get.c **** #include "fx_system.h"
ARM GAS  C:\Users\HP\AppData\Local\Temp\ccmNAPib.s 			page 2


  30:Middlewares/ST/filex/common/src/fxe_system_date_get.c **** 
  31:Middlewares/ST/filex/common/src/fxe_system_date_get.c **** 
  32:Middlewares/ST/filex/common/src/fxe_system_date_get.c **** /**************************************************************************/
  33:Middlewares/ST/filex/common/src/fxe_system_date_get.c **** /*                                                                        */
  34:Middlewares/ST/filex/common/src/fxe_system_date_get.c **** /*  FUNCTION                                               RELEASE        */
  35:Middlewares/ST/filex/common/src/fxe_system_date_get.c **** /*                                                                        */
  36:Middlewares/ST/filex/common/src/fxe_system_date_get.c **** /*    _fxe_system_date_get                                PORTABLE C      */
  37:Middlewares/ST/filex/common/src/fxe_system_date_get.c **** /*                                                           6.1          */
  38:Middlewares/ST/filex/common/src/fxe_system_date_get.c **** /*  AUTHOR                                                                */
  39:Middlewares/ST/filex/common/src/fxe_system_date_get.c **** /*                                                                        */
  40:Middlewares/ST/filex/common/src/fxe_system_date_get.c **** /*    William E. Lamie, Microsoft Corporation                             */
  41:Middlewares/ST/filex/common/src/fxe_system_date_get.c **** /*                                                                        */
  42:Middlewares/ST/filex/common/src/fxe_system_date_get.c **** /*  DESCRIPTION                                                           */
  43:Middlewares/ST/filex/common/src/fxe_system_date_get.c **** /*                                                                        */
  44:Middlewares/ST/filex/common/src/fxe_system_date_get.c **** /*    This function checks for errors in the get system date call.        */
  45:Middlewares/ST/filex/common/src/fxe_system_date_get.c **** /*                                                                        */
  46:Middlewares/ST/filex/common/src/fxe_system_date_get.c **** /*  INPUT                                                                 */
  47:Middlewares/ST/filex/common/src/fxe_system_date_get.c **** /*                                                                        */
  48:Middlewares/ST/filex/common/src/fxe_system_date_get.c **** /*    year                                  Pointer to year               */
  49:Middlewares/ST/filex/common/src/fxe_system_date_get.c **** /*    month                                 Pointer to month              */
  50:Middlewares/ST/filex/common/src/fxe_system_date_get.c **** /*    day                                   Pointer to day                */
  51:Middlewares/ST/filex/common/src/fxe_system_date_get.c **** /*                                                                        */
  52:Middlewares/ST/filex/common/src/fxe_system_date_get.c **** /*  OUTPUT                                                                */
  53:Middlewares/ST/filex/common/src/fxe_system_date_get.c **** /*                                                                        */
  54:Middlewares/ST/filex/common/src/fxe_system_date_get.c **** /*    FX_PTR_ERROR                          Invalid destination pointer   */
  55:Middlewares/ST/filex/common/src/fxe_system_date_get.c **** /*    status                                Actual completion status      */
  56:Middlewares/ST/filex/common/src/fxe_system_date_get.c **** /*                                                                        */
  57:Middlewares/ST/filex/common/src/fxe_system_date_get.c **** /*  CALLS                                                                 */
  58:Middlewares/ST/filex/common/src/fxe_system_date_get.c **** /*                                                                        */
  59:Middlewares/ST/filex/common/src/fxe_system_date_get.c **** /*    _fx_system_date_get                   Actual get system date call   */
  60:Middlewares/ST/filex/common/src/fxe_system_date_get.c **** /*                                                                        */
  61:Middlewares/ST/filex/common/src/fxe_system_date_get.c **** /*  CALLED BY                                                             */
  62:Middlewares/ST/filex/common/src/fxe_system_date_get.c **** /*                                                                        */
  63:Middlewares/ST/filex/common/src/fxe_system_date_get.c **** /*    Application Code                                                    */
  64:Middlewares/ST/filex/common/src/fxe_system_date_get.c **** /*                                                                        */
  65:Middlewares/ST/filex/common/src/fxe_system_date_get.c **** /*  RELEASE HISTORY                                                       */
  66:Middlewares/ST/filex/common/src/fxe_system_date_get.c **** /*                                                                        */
  67:Middlewares/ST/filex/common/src/fxe_system_date_get.c **** /*    DATE              NAME                      DESCRIPTION             */
  68:Middlewares/ST/filex/common/src/fxe_system_date_get.c **** /*                                                                        */
  69:Middlewares/ST/filex/common/src/fxe_system_date_get.c **** /*  05-19-2020     William E. Lamie         Initial Version 6.0           */
  70:Middlewares/ST/filex/common/src/fxe_system_date_get.c **** /*  09-30-2020     William E. Lamie         Modified comment(s),          */
  71:Middlewares/ST/filex/common/src/fxe_system_date_get.c **** /*                                            resulting in version 6.1    */
  72:Middlewares/ST/filex/common/src/fxe_system_date_get.c **** /*                                                                        */
  73:Middlewares/ST/filex/common/src/fxe_system_date_get.c **** /**************************************************************************/
  74:Middlewares/ST/filex/common/src/fxe_system_date_get.c **** UINT  _fxe_system_date_get(UINT *year, UINT *month, UINT *day)
  75:Middlewares/ST/filex/common/src/fxe_system_date_get.c **** {
  30              		.loc 1 75 1 view -0
  31              		.cfi_startproc
  32              		@ args = 0, pretend = 0, frame = 0
  33              		@ frame_needed = 0, uses_anonymous_args = 0
  76:Middlewares/ST/filex/common/src/fxe_system_date_get.c **** 
  77:Middlewares/ST/filex/common/src/fxe_system_date_get.c **** UINT status;
  34              		.loc 1 77 1 view .LVU1
  78:Middlewares/ST/filex/common/src/fxe_system_date_get.c **** 
  79:Middlewares/ST/filex/common/src/fxe_system_date_get.c **** 
  80:Middlewares/ST/filex/common/src/fxe_system_date_get.c ****     /* Check for an invalid pointer.  */
  81:Middlewares/ST/filex/common/src/fxe_system_date_get.c ****     if ((year == FX_NULL) || (month == FX_NULL) || (day == FX_NULL))
ARM GAS  C:\Users\HP\AppData\Local\Temp\ccmNAPib.s 			page 3


  35              		.loc 1 81 5 view .LVU2
  36              		.loc 1 81 8 is_stmt 0 view .LVU3
  37 0000 28B1     		cbz	r0, .L3
  75:Middlewares/ST/filex/common/src/fxe_system_date_get.c **** 
  38              		.loc 1 75 1 discriminator 1 view .LVU4
  39 0002 08B5     		push	{r3, lr}
  40              	.LCFI0:
  41              		.cfi_def_cfa_offset 8
  42              		.cfi_offset 3, -8
  43              		.cfi_offset 14, -4
  44              		.loc 1 81 27 discriminator 1 view .LVU5
  45 0004 29B1     		cbz	r1, .L4
  46              		.loc 1 81 49 discriminator 2 view .LVU6
  47 0006 32B1     		cbz	r2, .L5
  82:Middlewares/ST/filex/common/src/fxe_system_date_get.c ****     {
  83:Middlewares/ST/filex/common/src/fxe_system_date_get.c ****         return(FX_PTR_ERROR);
  84:Middlewares/ST/filex/common/src/fxe_system_date_get.c ****     }
  85:Middlewares/ST/filex/common/src/fxe_system_date_get.c **** 
  86:Middlewares/ST/filex/common/src/fxe_system_date_get.c ****     /* Call actual service to get the system date.  */
  87:Middlewares/ST/filex/common/src/fxe_system_date_get.c ****     status =  _fx_system_date_get(year, month, day);
  48              		.loc 1 87 5 is_stmt 1 view .LVU7
  49              		.loc 1 87 15 is_stmt 0 view .LVU8
  50 0008 FFF7FEFF 		bl	_fx_system_date_get
  51              	.LVL1:
  88:Middlewares/ST/filex/common/src/fxe_system_date_get.c **** 
  89:Middlewares/ST/filex/common/src/fxe_system_date_get.c ****     /* Return status.  */
  90:Middlewares/ST/filex/common/src/fxe_system_date_get.c ****     return(status);
  52              		.loc 1 90 5 is_stmt 1 view .LVU9
  53              	.L1:
  91:Middlewares/ST/filex/common/src/fxe_system_date_get.c **** }
  54              		.loc 1 91 1 is_stmt 0 view .LVU10
  55 000c 08BD     		pop	{r3, pc}
  56              	.LVL2:
  57              	.L3:
  58              	.LCFI1:
  59              		.cfi_def_cfa_offset 0
  60              		.cfi_restore 3
  61              		.cfi_restore 14
  83:Middlewares/ST/filex/common/src/fxe_system_date_get.c ****     }
  62              		.loc 1 83 15 view .LVU11
  63 000e 1820     		movs	r0, #24
  64              	.LVL3:
  65              		.loc 1 91 1 view .LVU12
  66 0010 7047     		bx	lr
  67              	.LVL4:
  68              	.L4:
  69              	.LCFI2:
  70              		.cfi_def_cfa_offset 8
  71              		.cfi_offset 3, -8
  72              		.cfi_offset 14, -4
  83:Middlewares/ST/filex/common/src/fxe_system_date_get.c ****     }
  73              		.loc 1 83 15 view .LVU13
  74 0012 1820     		movs	r0, #24
  75              	.LVL5:
  83:Middlewares/ST/filex/common/src/fxe_system_date_get.c ****     }
  76              		.loc 1 83 15 view .LVU14
  77 0014 FAE7     		b	.L1
ARM GAS  C:\Users\HP\AppData\Local\Temp\ccmNAPib.s 			page 4


  78              	.LVL6:
  79              	.L5:
  83:Middlewares/ST/filex/common/src/fxe_system_date_get.c ****     }
  80              		.loc 1 83 15 view .LVU15
  81 0016 1820     		movs	r0, #24
  82              	.LVL7:
  83:Middlewares/ST/filex/common/src/fxe_system_date_get.c ****     }
  83              		.loc 1 83 15 view .LVU16
  84 0018 F8E7     		b	.L1
  85              		.cfi_endproc
  86              	.LFE8:
  88              		.text
  89              	.Letext0:
  90              		.file 2 "Middlewares/ST/threadx/ports/cortex_m4/gnu/inc/tx_port.h"
  91              		.file 3 "Middlewares/ST/filex/common/inc/fx_system.h"
ARM GAS  C:\Users\HP\AppData\Local\Temp\ccmNAPib.s 			page 5

