ARM GAS  C:\Users\HP\AppData\Local\Temp\ccYJlNCj.s 			page 1


   1              		.cpu cortex-m4
   2              		.arch armv7e-m
   3              		.fpu fpv4-sp-d16
   4              		.eabi_attribute 27, 1
   5              		.eabi_attribute 28, 1
   6              		.eabi_attribute 20, 1
   7              		.eabi_attribute 21, 1
   8              		.eabi_attribute 23, 3
   9              		.eabi_attribute 24, 1
  10              		.eabi_attribute 25, 1
  11              		.eabi_attribute 26, 1
  12              		.eabi_attribute 30, 1
  13              		.eabi_attribute 34, 1
  14              		.eabi_attribute 18, 4
  15              		.file	"fxe_directory_local_path_clear.c"
  16              		.text
  17              	.Ltext0:
  18              		.cfi_sections	.debug_frame
  19              		.section	.text._fxe_directory_local_path_clear,"ax",%progbits
  20              		.align	1
  21              		.global	_fxe_directory_local_path_clear
  22              		.syntax unified
  23              		.thumb
  24              		.thumb_func
  26              	_fxe_directory_local_path_clear:
  27              	.LVL0:
  28              	.LFB8:
  29              		.file 1 "Middlewares/ST/filex/common/src/fxe_directory_local_path_clear.c"
   1:Middlewares/ST/filex/common/src/fxe_directory_local_path_clear.c **** /**************************************************************************/
   2:Middlewares/ST/filex/common/src/fxe_directory_local_path_clear.c **** /*                                                                        */
   3:Middlewares/ST/filex/common/src/fxe_directory_local_path_clear.c **** /*       Copyright (c) Microsoft Corporation. All rights reserved.        */
   4:Middlewares/ST/filex/common/src/fxe_directory_local_path_clear.c **** /*                                                                        */
   5:Middlewares/ST/filex/common/src/fxe_directory_local_path_clear.c **** /*       This software is licensed under the Microsoft Software License   */
   6:Middlewares/ST/filex/common/src/fxe_directory_local_path_clear.c **** /*       Terms for Microsoft Azure RTOS. Full text of the license can be  */
   7:Middlewares/ST/filex/common/src/fxe_directory_local_path_clear.c **** /*       found in the LICENSE file at https://aka.ms/AzureRTOS_EULA       */
   8:Middlewares/ST/filex/common/src/fxe_directory_local_path_clear.c **** /*       and in the root directory of this software.                      */
   9:Middlewares/ST/filex/common/src/fxe_directory_local_path_clear.c **** /*                                                                        */
  10:Middlewares/ST/filex/common/src/fxe_directory_local_path_clear.c **** /**************************************************************************/
  11:Middlewares/ST/filex/common/src/fxe_directory_local_path_clear.c **** 
  12:Middlewares/ST/filex/common/src/fxe_directory_local_path_clear.c **** 
  13:Middlewares/ST/filex/common/src/fxe_directory_local_path_clear.c **** /**************************************************************************/
  14:Middlewares/ST/filex/common/src/fxe_directory_local_path_clear.c **** /**************************************************************************/
  15:Middlewares/ST/filex/common/src/fxe_directory_local_path_clear.c **** /**                                                                       */
  16:Middlewares/ST/filex/common/src/fxe_directory_local_path_clear.c **** /** FileX Component                                                       */
  17:Middlewares/ST/filex/common/src/fxe_directory_local_path_clear.c **** /**                                                                       */
  18:Middlewares/ST/filex/common/src/fxe_directory_local_path_clear.c **** /**   Directory                                                           */
  19:Middlewares/ST/filex/common/src/fxe_directory_local_path_clear.c **** /**                                                                       */
  20:Middlewares/ST/filex/common/src/fxe_directory_local_path_clear.c **** /**************************************************************************/
  21:Middlewares/ST/filex/common/src/fxe_directory_local_path_clear.c **** /**************************************************************************/
  22:Middlewares/ST/filex/common/src/fxe_directory_local_path_clear.c **** 
  23:Middlewares/ST/filex/common/src/fxe_directory_local_path_clear.c **** #define FX_SOURCE_CODE
  24:Middlewares/ST/filex/common/src/fxe_directory_local_path_clear.c **** 
  25:Middlewares/ST/filex/common/src/fxe_directory_local_path_clear.c **** 
  26:Middlewares/ST/filex/common/src/fxe_directory_local_path_clear.c **** /* Include necessary system files.  */
  27:Middlewares/ST/filex/common/src/fxe_directory_local_path_clear.c **** 
  28:Middlewares/ST/filex/common/src/fxe_directory_local_path_clear.c **** #include "fx_api.h"
  29:Middlewares/ST/filex/common/src/fxe_directory_local_path_clear.c **** #include "fx_system.h"
ARM GAS  C:\Users\HP\AppData\Local\Temp\ccYJlNCj.s 			page 2


  30:Middlewares/ST/filex/common/src/fxe_directory_local_path_clear.c **** #include "fx_file.h"
  31:Middlewares/ST/filex/common/src/fxe_directory_local_path_clear.c **** #include "fx_utility.h"
  32:Middlewares/ST/filex/common/src/fxe_directory_local_path_clear.c **** #include "fx_directory.h"
  33:Middlewares/ST/filex/common/src/fxe_directory_local_path_clear.c **** 
  34:Middlewares/ST/filex/common/src/fxe_directory_local_path_clear.c **** 
  35:Middlewares/ST/filex/common/src/fxe_directory_local_path_clear.c **** /**************************************************************************/
  36:Middlewares/ST/filex/common/src/fxe_directory_local_path_clear.c **** /*                                                                        */
  37:Middlewares/ST/filex/common/src/fxe_directory_local_path_clear.c **** /*  FUNCTION                                               RELEASE        */
  38:Middlewares/ST/filex/common/src/fxe_directory_local_path_clear.c **** /*                                                                        */
  39:Middlewares/ST/filex/common/src/fxe_directory_local_path_clear.c **** /*    _fxe_directory_local_path_clear                     PORTABLE C      */
  40:Middlewares/ST/filex/common/src/fxe_directory_local_path_clear.c **** /*                                                           6.1          */
  41:Middlewares/ST/filex/common/src/fxe_directory_local_path_clear.c **** /*  AUTHOR                                                                */
  42:Middlewares/ST/filex/common/src/fxe_directory_local_path_clear.c **** /*                                                                        */
  43:Middlewares/ST/filex/common/src/fxe_directory_local_path_clear.c **** /*    William E. Lamie, Microsoft Corporation                             */
  44:Middlewares/ST/filex/common/src/fxe_directory_local_path_clear.c **** /*                                                                        */
  45:Middlewares/ST/filex/common/src/fxe_directory_local_path_clear.c **** /*  DESCRIPTION                                                           */
  46:Middlewares/ST/filex/common/src/fxe_directory_local_path_clear.c **** /*                                                                        */
  47:Middlewares/ST/filex/common/src/fxe_directory_local_path_clear.c **** /*    This function checks for errors in the local path clear call.       */
  48:Middlewares/ST/filex/common/src/fxe_directory_local_path_clear.c **** /*                                                                        */
  49:Middlewares/ST/filex/common/src/fxe_directory_local_path_clear.c **** /*  INPUT                                                                 */
  50:Middlewares/ST/filex/common/src/fxe_directory_local_path_clear.c **** /*                                                                        */
  51:Middlewares/ST/filex/common/src/fxe_directory_local_path_clear.c **** /*    media_ptr                             Media control block pointer   */
  52:Middlewares/ST/filex/common/src/fxe_directory_local_path_clear.c **** /*                                                                        */
  53:Middlewares/ST/filex/common/src/fxe_directory_local_path_clear.c **** /*  OUTPUT                                                                */
  54:Middlewares/ST/filex/common/src/fxe_directory_local_path_clear.c **** /*                                                                        */
  55:Middlewares/ST/filex/common/src/fxe_directory_local_path_clear.c **** /*    return status                                                       */
  56:Middlewares/ST/filex/common/src/fxe_directory_local_path_clear.c **** /*                                                                        */
  57:Middlewares/ST/filex/common/src/fxe_directory_local_path_clear.c **** /*  CALLS                                                                 */
  58:Middlewares/ST/filex/common/src/fxe_directory_local_path_clear.c **** /*                                                                        */
  59:Middlewares/ST/filex/common/src/fxe_directory_local_path_clear.c **** /*    _fx_directory_local_path_set          Actual core service call      */
  60:Middlewares/ST/filex/common/src/fxe_directory_local_path_clear.c **** /*                                                                        */
  61:Middlewares/ST/filex/common/src/fxe_directory_local_path_clear.c **** /*  CALLED BY                                                             */
  62:Middlewares/ST/filex/common/src/fxe_directory_local_path_clear.c **** /*                                                                        */
  63:Middlewares/ST/filex/common/src/fxe_directory_local_path_clear.c **** /*    Application Code                                                    */
  64:Middlewares/ST/filex/common/src/fxe_directory_local_path_clear.c **** /*                                                                        */
  65:Middlewares/ST/filex/common/src/fxe_directory_local_path_clear.c **** /*  RELEASE HISTORY                                                       */
  66:Middlewares/ST/filex/common/src/fxe_directory_local_path_clear.c **** /*                                                                        */
  67:Middlewares/ST/filex/common/src/fxe_directory_local_path_clear.c **** /*    DATE              NAME                      DESCRIPTION             */
  68:Middlewares/ST/filex/common/src/fxe_directory_local_path_clear.c **** /*                                                                        */
  69:Middlewares/ST/filex/common/src/fxe_directory_local_path_clear.c **** /*  05-19-2020     William E. Lamie         Initial Version 6.0           */
  70:Middlewares/ST/filex/common/src/fxe_directory_local_path_clear.c **** /*  09-30-2020     William E. Lamie         Modified comment(s),          */
  71:Middlewares/ST/filex/common/src/fxe_directory_local_path_clear.c **** /*                                            resulting in version 6.1    */
  72:Middlewares/ST/filex/common/src/fxe_directory_local_path_clear.c **** /*                                                                        */
  73:Middlewares/ST/filex/common/src/fxe_directory_local_path_clear.c **** /**************************************************************************/
  74:Middlewares/ST/filex/common/src/fxe_directory_local_path_clear.c **** UINT  _fxe_directory_local_path_clear(FX_MEDIA *media_ptr)
  75:Middlewares/ST/filex/common/src/fxe_directory_local_path_clear.c **** {
  30              		.loc 1 75 1 view -0
  31              		.cfi_startproc
  32              		@ args = 0, pretend = 0, frame = 0
  33              		@ frame_needed = 0, uses_anonymous_args = 0
  76:Middlewares/ST/filex/common/src/fxe_directory_local_path_clear.c **** 
  77:Middlewares/ST/filex/common/src/fxe_directory_local_path_clear.c **** UINT status;
  34              		.loc 1 77 1 view .LVU1
  78:Middlewares/ST/filex/common/src/fxe_directory_local_path_clear.c **** 
  79:Middlewares/ST/filex/common/src/fxe_directory_local_path_clear.c **** 
  80:Middlewares/ST/filex/common/src/fxe_directory_local_path_clear.c ****     /* Check for a null media pointer.  */
  81:Middlewares/ST/filex/common/src/fxe_directory_local_path_clear.c ****     if (media_ptr == FX_NULL)
ARM GAS  C:\Users\HP\AppData\Local\Temp\ccYJlNCj.s 			page 3


  35              		.loc 1 81 5 view .LVU2
  36              		.loc 1 81 8 is_stmt 0 view .LVU3
  37 0000 18B1     		cbz	r0, .L3
  75:Middlewares/ST/filex/common/src/fxe_directory_local_path_clear.c **** 
  38              		.loc 1 75 1 view .LVU4
  39 0002 08B5     		push	{r3, lr}
  40              	.LCFI0:
  41              		.cfi_def_cfa_offset 8
  42              		.cfi_offset 3, -8
  43              		.cfi_offset 14, -4
  82:Middlewares/ST/filex/common/src/fxe_directory_local_path_clear.c ****     {
  83:Middlewares/ST/filex/common/src/fxe_directory_local_path_clear.c ****         return(FX_PTR_ERROR);
  84:Middlewares/ST/filex/common/src/fxe_directory_local_path_clear.c ****     }
  85:Middlewares/ST/filex/common/src/fxe_directory_local_path_clear.c **** 
  86:Middlewares/ST/filex/common/src/fxe_directory_local_path_clear.c ****     /* Call actual local path clear service.  */
  87:Middlewares/ST/filex/common/src/fxe_directory_local_path_clear.c ****     status =  _fx_directory_local_path_clear(media_ptr);
  44              		.loc 1 87 5 is_stmt 1 view .LVU5
  45              		.loc 1 87 15 is_stmt 0 view .LVU6
  46 0004 FFF7FEFF 		bl	_fx_directory_local_path_clear
  47              	.LVL1:
  88:Middlewares/ST/filex/common/src/fxe_directory_local_path_clear.c **** 
  89:Middlewares/ST/filex/common/src/fxe_directory_local_path_clear.c ****     /* Return status.  */
  90:Middlewares/ST/filex/common/src/fxe_directory_local_path_clear.c ****     return(status);
  48              		.loc 1 90 5 is_stmt 1 view .LVU7
  91:Middlewares/ST/filex/common/src/fxe_directory_local_path_clear.c **** }
  49              		.loc 1 91 1 is_stmt 0 view .LVU8
  50 0008 08BD     		pop	{r3, pc}
  51              	.LVL2:
  52              	.L3:
  53              	.LCFI1:
  54              		.cfi_def_cfa_offset 0
  55              		.cfi_restore 3
  56              		.cfi_restore 14
  83:Middlewares/ST/filex/common/src/fxe_directory_local_path_clear.c ****     }
  57              		.loc 1 83 15 view .LVU9
  58 000a 1820     		movs	r0, #24
  59              	.LVL3:
  60              		.loc 1 91 1 view .LVU10
  61 000c 7047     		bx	lr
  62              		.cfi_endproc
  63              	.LFE8:
  65              		.text
  66              	.Letext0:
  67              		.file 2 "Middlewares/ST/threadx/ports/cortex_m4/gnu/inc/tx_port.h"
  68              		.file 3 "Middlewares/ST/threadx/common/inc/tx_api.h"
  69              		.file 4 "Middlewares/ST/filex/common/inc/fx_api.h"
  70              		.file 5 "Middlewares/ST/filex/common/inc/fx_directory.h"
ARM GAS  C:\Users\HP\AppData\Local\Temp\ccYJlNCj.s 			page 4

