ARM GAS  C:\Users\HP\AppData\Local\Temp\ccGJK0AZ.s 			page 1


   1              		.cpu cortex-m4
   2              		.arch armv7e-m
   3              		.fpu fpv4-sp-d16
   4              		.eabi_attribute 27, 1
   5              		.eabi_attribute 28, 1
   6              		.eabi_attribute 20, 1
   7              		.eabi_attribute 21, 1
   8              		.eabi_attribute 23, 3
   9              		.eabi_attribute 24, 1
  10              		.eabi_attribute 25, 1
  11              		.eabi_attribute 26, 1
  12              		.eabi_attribute 30, 1
  13              		.eabi_attribute 34, 1
  14              		.eabi_attribute 18, 4
  15              		.file	"stm32l4xx_hal_hcd.c"
  16              		.text
  17              	.Ltext0:
  18              		.cfi_sections	.debug_frame
  19              		.section	.text.HCD_RXQLVL_IRQHandler,"ax",%progbits
  20              		.align	1
  21              		.syntax unified
  22              		.thumb
  23              		.thumb_func
  25              	HCD_RXQLVL_IRQHandler:
  26              	.LVL0:
  27              	.LFB157:
  28              		.file 1 "Drivers/STM32L4xx_HAL_Driver/Src/stm32l4xx_hal_hcd.c"
   1:Drivers/STM32L4xx_HAL_Driver/Src/stm32l4xx_hal_hcd.c **** /**
   2:Drivers/STM32L4xx_HAL_Driver/Src/stm32l4xx_hal_hcd.c ****   ******************************************************************************
   3:Drivers/STM32L4xx_HAL_Driver/Src/stm32l4xx_hal_hcd.c ****   * @file    stm32l4xx_hal_hcd.c
   4:Drivers/STM32L4xx_HAL_Driver/Src/stm32l4xx_hal_hcd.c ****   * @author  MCD Application Team
   5:Drivers/STM32L4xx_HAL_Driver/Src/stm32l4xx_hal_hcd.c ****   * @brief   HCD HAL module driver.
   6:Drivers/STM32L4xx_HAL_Driver/Src/stm32l4xx_hal_hcd.c ****   *          This file provides firmware functions to manage the following
   7:Drivers/STM32L4xx_HAL_Driver/Src/stm32l4xx_hal_hcd.c ****   *          functionalities of the USB Peripheral Controller:
   8:Drivers/STM32L4xx_HAL_Driver/Src/stm32l4xx_hal_hcd.c ****   *           + Initialization and de-initialization functions
   9:Drivers/STM32L4xx_HAL_Driver/Src/stm32l4xx_hal_hcd.c ****   *           + IO operation functions
  10:Drivers/STM32L4xx_HAL_Driver/Src/stm32l4xx_hal_hcd.c ****   *           + Peripheral Control functions
  11:Drivers/STM32L4xx_HAL_Driver/Src/stm32l4xx_hal_hcd.c ****   *           + Peripheral State functions
  12:Drivers/STM32L4xx_HAL_Driver/Src/stm32l4xx_hal_hcd.c ****   *
  13:Drivers/STM32L4xx_HAL_Driver/Src/stm32l4xx_hal_hcd.c ****   ******************************************************************************
  14:Drivers/STM32L4xx_HAL_Driver/Src/stm32l4xx_hal_hcd.c ****   * @attention
  15:Drivers/STM32L4xx_HAL_Driver/Src/stm32l4xx_hal_hcd.c ****   *
  16:Drivers/STM32L4xx_HAL_Driver/Src/stm32l4xx_hal_hcd.c ****   * Copyright (c) 2017 STMicroelectronics.
  17:Drivers/STM32L4xx_HAL_Driver/Src/stm32l4xx_hal_hcd.c ****   * All rights reserved.
  18:Drivers/STM32L4xx_HAL_Driver/Src/stm32l4xx_hal_hcd.c ****   *
  19:Drivers/STM32L4xx_HAL_Driver/Src/stm32l4xx_hal_hcd.c ****   * This software is licensed under terms that can be found in the LICENSE file
  20:Drivers/STM32L4xx_HAL_Driver/Src/stm32l4xx_hal_hcd.c ****   * in the root directory of this software component.
  21:Drivers/STM32L4xx_HAL_Driver/Src/stm32l4xx_hal_hcd.c ****   * If no LICENSE file comes with this software, it is provided AS-IS.
  22:Drivers/STM32L4xx_HAL_Driver/Src/stm32l4xx_hal_hcd.c ****   *
  23:Drivers/STM32L4xx_HAL_Driver/Src/stm32l4xx_hal_hcd.c ****   ******************************************************************************
  24:Drivers/STM32L4xx_HAL_Driver/Src/stm32l4xx_hal_hcd.c ****   @verbatim
  25:Drivers/STM32L4xx_HAL_Driver/Src/stm32l4xx_hal_hcd.c ****   ==============================================================================
  26:Drivers/STM32L4xx_HAL_Driver/Src/stm32l4xx_hal_hcd.c ****                     ##### How to use this driver #####
  27:Drivers/STM32L4xx_HAL_Driver/Src/stm32l4xx_hal_hcd.c ****   ==============================================================================
  28:Drivers/STM32L4xx_HAL_Driver/Src/stm32l4xx_hal_hcd.c ****   [..]
  29:Drivers/STM32L4xx_HAL_Driver/Src/stm32l4xx_hal_hcd.c ****     (#)Declare a HCD_HandleTypeDef handle structure, for example:
  30:Drivers/STM32L4xx_HAL_Driver/Src/stm32l4xx_hal_hcd.c ****        HCD_HandleTypeDef  hhcd;
ARM GAS  C:\Users\HP\AppData\Local\Temp\ccGJK0AZ.s 			page 2


  31:Drivers/STM32L4xx_HAL_Driver/Src/stm32l4xx_hal_hcd.c **** 
  32:Drivers/STM32L4xx_HAL_Driver/Src/stm32l4xx_hal_hcd.c ****     (#)Fill parameters of Init structure in HCD handle
  33:Drivers/STM32L4xx_HAL_Driver/Src/stm32l4xx_hal_hcd.c **** 
  34:Drivers/STM32L4xx_HAL_Driver/Src/stm32l4xx_hal_hcd.c ****     (#)Call HAL_HCD_Init() API to initialize the HCD peripheral (Core, Host core, ...)
  35:Drivers/STM32L4xx_HAL_Driver/Src/stm32l4xx_hal_hcd.c **** 
  36:Drivers/STM32L4xx_HAL_Driver/Src/stm32l4xx_hal_hcd.c ****     (#)Initialize the HCD low level resources through the HAL_HCD_MspInit() API:
  37:Drivers/STM32L4xx_HAL_Driver/Src/stm32l4xx_hal_hcd.c ****         (##) Enable the HCD/USB Low Level interface clock using the following macros
  38:Drivers/STM32L4xx_HAL_Driver/Src/stm32l4xx_hal_hcd.c ****              (+++) __HAL_RCC_USB_OTG_FS_CLK_ENABLE();
  39:Drivers/STM32L4xx_HAL_Driver/Src/stm32l4xx_hal_hcd.c ****         (##) Initialize the related GPIO clocks
  40:Drivers/STM32L4xx_HAL_Driver/Src/stm32l4xx_hal_hcd.c ****         (##) Configure HCD pin-out
  41:Drivers/STM32L4xx_HAL_Driver/Src/stm32l4xx_hal_hcd.c ****         (##) Configure HCD NVIC interrupt
  42:Drivers/STM32L4xx_HAL_Driver/Src/stm32l4xx_hal_hcd.c **** 
  43:Drivers/STM32L4xx_HAL_Driver/Src/stm32l4xx_hal_hcd.c ****     (#)Associate the Upper USB Host stack to the HAL HCD Driver:
  44:Drivers/STM32L4xx_HAL_Driver/Src/stm32l4xx_hal_hcd.c ****         (##) hhcd.pData = phost;
  45:Drivers/STM32L4xx_HAL_Driver/Src/stm32l4xx_hal_hcd.c **** 
  46:Drivers/STM32L4xx_HAL_Driver/Src/stm32l4xx_hal_hcd.c ****     (#)Enable HCD transmission and reception:
  47:Drivers/STM32L4xx_HAL_Driver/Src/stm32l4xx_hal_hcd.c ****         (##) HAL_HCD_Start();
  48:Drivers/STM32L4xx_HAL_Driver/Src/stm32l4xx_hal_hcd.c **** 
  49:Drivers/STM32L4xx_HAL_Driver/Src/stm32l4xx_hal_hcd.c ****   @endverbatim
  50:Drivers/STM32L4xx_HAL_Driver/Src/stm32l4xx_hal_hcd.c ****   ******************************************************************************
  51:Drivers/STM32L4xx_HAL_Driver/Src/stm32l4xx_hal_hcd.c ****   */
  52:Drivers/STM32L4xx_HAL_Driver/Src/stm32l4xx_hal_hcd.c **** 
  53:Drivers/STM32L4xx_HAL_Driver/Src/stm32l4xx_hal_hcd.c **** /* Includes ------------------------------------------------------------------*/
  54:Drivers/STM32L4xx_HAL_Driver/Src/stm32l4xx_hal_hcd.c **** #include "stm32l4xx_hal.h"
  55:Drivers/STM32L4xx_HAL_Driver/Src/stm32l4xx_hal_hcd.c **** 
  56:Drivers/STM32L4xx_HAL_Driver/Src/stm32l4xx_hal_hcd.c **** /** @addtogroup STM32L4xx_HAL_Driver
  57:Drivers/STM32L4xx_HAL_Driver/Src/stm32l4xx_hal_hcd.c ****   * @{
  58:Drivers/STM32L4xx_HAL_Driver/Src/stm32l4xx_hal_hcd.c ****   */
  59:Drivers/STM32L4xx_HAL_Driver/Src/stm32l4xx_hal_hcd.c **** 
  60:Drivers/STM32L4xx_HAL_Driver/Src/stm32l4xx_hal_hcd.c **** #ifdef HAL_HCD_MODULE_ENABLED
  61:Drivers/STM32L4xx_HAL_Driver/Src/stm32l4xx_hal_hcd.c **** #if defined (USB_OTG_FS)
  62:Drivers/STM32L4xx_HAL_Driver/Src/stm32l4xx_hal_hcd.c **** 
  63:Drivers/STM32L4xx_HAL_Driver/Src/stm32l4xx_hal_hcd.c **** /** @defgroup HCD HCD
  64:Drivers/STM32L4xx_HAL_Driver/Src/stm32l4xx_hal_hcd.c ****   * @brief HCD HAL module driver
  65:Drivers/STM32L4xx_HAL_Driver/Src/stm32l4xx_hal_hcd.c ****   * @{
  66:Drivers/STM32L4xx_HAL_Driver/Src/stm32l4xx_hal_hcd.c ****   */
  67:Drivers/STM32L4xx_HAL_Driver/Src/stm32l4xx_hal_hcd.c **** 
  68:Drivers/STM32L4xx_HAL_Driver/Src/stm32l4xx_hal_hcd.c **** /* Private typedef -----------------------------------------------------------*/
  69:Drivers/STM32L4xx_HAL_Driver/Src/stm32l4xx_hal_hcd.c **** /* Private define ------------------------------------------------------------*/
  70:Drivers/STM32L4xx_HAL_Driver/Src/stm32l4xx_hal_hcd.c **** /* Private macro -------------------------------------------------------------*/
  71:Drivers/STM32L4xx_HAL_Driver/Src/stm32l4xx_hal_hcd.c **** /* Private variables ---------------------------------------------------------*/
  72:Drivers/STM32L4xx_HAL_Driver/Src/stm32l4xx_hal_hcd.c **** /* Private function prototypes -----------------------------------------------*/
  73:Drivers/STM32L4xx_HAL_Driver/Src/stm32l4xx_hal_hcd.c **** /** @defgroup HCD_Private_Functions HCD Private Functions
  74:Drivers/STM32L4xx_HAL_Driver/Src/stm32l4xx_hal_hcd.c ****   * @{
  75:Drivers/STM32L4xx_HAL_Driver/Src/stm32l4xx_hal_hcd.c ****   */
  76:Drivers/STM32L4xx_HAL_Driver/Src/stm32l4xx_hal_hcd.c **** static void HCD_HC_IN_IRQHandler(HCD_HandleTypeDef *hhcd, uint8_t chnum);
  77:Drivers/STM32L4xx_HAL_Driver/Src/stm32l4xx_hal_hcd.c **** static void HCD_HC_OUT_IRQHandler(HCD_HandleTypeDef *hhcd, uint8_t chnum);
  78:Drivers/STM32L4xx_HAL_Driver/Src/stm32l4xx_hal_hcd.c **** static void HCD_RXQLVL_IRQHandler(HCD_HandleTypeDef *hhcd);
  79:Drivers/STM32L4xx_HAL_Driver/Src/stm32l4xx_hal_hcd.c **** static void HCD_Port_IRQHandler(HCD_HandleTypeDef *hhcd);
  80:Drivers/STM32L4xx_HAL_Driver/Src/stm32l4xx_hal_hcd.c **** /**
  81:Drivers/STM32L4xx_HAL_Driver/Src/stm32l4xx_hal_hcd.c ****   * @}
  82:Drivers/STM32L4xx_HAL_Driver/Src/stm32l4xx_hal_hcd.c ****   */
  83:Drivers/STM32L4xx_HAL_Driver/Src/stm32l4xx_hal_hcd.c **** 
  84:Drivers/STM32L4xx_HAL_Driver/Src/stm32l4xx_hal_hcd.c **** /* Exported functions --------------------------------------------------------*/
  85:Drivers/STM32L4xx_HAL_Driver/Src/stm32l4xx_hal_hcd.c **** /** @defgroup HCD_Exported_Functions HCD Exported Functions
  86:Drivers/STM32L4xx_HAL_Driver/Src/stm32l4xx_hal_hcd.c ****   * @{
  87:Drivers/STM32L4xx_HAL_Driver/Src/stm32l4xx_hal_hcd.c ****   */
ARM GAS  C:\Users\HP\AppData\Local\Temp\ccGJK0AZ.s 			page 3


  88:Drivers/STM32L4xx_HAL_Driver/Src/stm32l4xx_hal_hcd.c **** 
  89:Drivers/STM32L4xx_HAL_Driver/Src/stm32l4xx_hal_hcd.c **** /** @defgroup HCD_Exported_Functions_Group1 Initialization and de-initialization functions
  90:Drivers/STM32L4xx_HAL_Driver/Src/stm32l4xx_hal_hcd.c ****   *  @brief    Initialization and Configuration functions
  91:Drivers/STM32L4xx_HAL_Driver/Src/stm32l4xx_hal_hcd.c ****   *
  92:Drivers/STM32L4xx_HAL_Driver/Src/stm32l4xx_hal_hcd.c **** @verbatim
  93:Drivers/STM32L4xx_HAL_Driver/Src/stm32l4xx_hal_hcd.c ****  ===============================================================================
  94:Drivers/STM32L4xx_HAL_Driver/Src/stm32l4xx_hal_hcd.c ****           ##### Initialization and de-initialization functions #####
  95:Drivers/STM32L4xx_HAL_Driver/Src/stm32l4xx_hal_hcd.c ****  ===============================================================================
  96:Drivers/STM32L4xx_HAL_Driver/Src/stm32l4xx_hal_hcd.c ****     [..]  This section provides functions allowing to:
  97:Drivers/STM32L4xx_HAL_Driver/Src/stm32l4xx_hal_hcd.c **** 
  98:Drivers/STM32L4xx_HAL_Driver/Src/stm32l4xx_hal_hcd.c **** @endverbatim
  99:Drivers/STM32L4xx_HAL_Driver/Src/stm32l4xx_hal_hcd.c ****   * @{
 100:Drivers/STM32L4xx_HAL_Driver/Src/stm32l4xx_hal_hcd.c ****   */
 101:Drivers/STM32L4xx_HAL_Driver/Src/stm32l4xx_hal_hcd.c **** 
 102:Drivers/STM32L4xx_HAL_Driver/Src/stm32l4xx_hal_hcd.c **** /**
 103:Drivers/STM32L4xx_HAL_Driver/Src/stm32l4xx_hal_hcd.c ****   * @brief  Initialize the host driver.
 104:Drivers/STM32L4xx_HAL_Driver/Src/stm32l4xx_hal_hcd.c ****   * @param  hhcd HCD handle
 105:Drivers/STM32L4xx_HAL_Driver/Src/stm32l4xx_hal_hcd.c ****   * @retval HAL status
 106:Drivers/STM32L4xx_HAL_Driver/Src/stm32l4xx_hal_hcd.c ****   */
 107:Drivers/STM32L4xx_HAL_Driver/Src/stm32l4xx_hal_hcd.c **** HAL_StatusTypeDef HAL_HCD_Init(HCD_HandleTypeDef *hhcd)
 108:Drivers/STM32L4xx_HAL_Driver/Src/stm32l4xx_hal_hcd.c **** {
 109:Drivers/STM32L4xx_HAL_Driver/Src/stm32l4xx_hal_hcd.c ****   USB_OTG_GlobalTypeDef *USBx;
 110:Drivers/STM32L4xx_HAL_Driver/Src/stm32l4xx_hal_hcd.c **** 
 111:Drivers/STM32L4xx_HAL_Driver/Src/stm32l4xx_hal_hcd.c ****   /* Check the HCD handle allocation */
 112:Drivers/STM32L4xx_HAL_Driver/Src/stm32l4xx_hal_hcd.c ****   if (hhcd == NULL)
 113:Drivers/STM32L4xx_HAL_Driver/Src/stm32l4xx_hal_hcd.c ****   {
 114:Drivers/STM32L4xx_HAL_Driver/Src/stm32l4xx_hal_hcd.c ****     return HAL_ERROR;
 115:Drivers/STM32L4xx_HAL_Driver/Src/stm32l4xx_hal_hcd.c ****   }
 116:Drivers/STM32L4xx_HAL_Driver/Src/stm32l4xx_hal_hcd.c **** 
 117:Drivers/STM32L4xx_HAL_Driver/Src/stm32l4xx_hal_hcd.c ****   /* Check the parameters */
 118:Drivers/STM32L4xx_HAL_Driver/Src/stm32l4xx_hal_hcd.c ****   assert_param(IS_HCD_ALL_INSTANCE(hhcd->Instance));
 119:Drivers/STM32L4xx_HAL_Driver/Src/stm32l4xx_hal_hcd.c **** 
 120:Drivers/STM32L4xx_HAL_Driver/Src/stm32l4xx_hal_hcd.c ****   USBx = hhcd->Instance;
 121:Drivers/STM32L4xx_HAL_Driver/Src/stm32l4xx_hal_hcd.c **** 
 122:Drivers/STM32L4xx_HAL_Driver/Src/stm32l4xx_hal_hcd.c ****   if (hhcd->State == HAL_HCD_STATE_RESET)
 123:Drivers/STM32L4xx_HAL_Driver/Src/stm32l4xx_hal_hcd.c ****   {
 124:Drivers/STM32L4xx_HAL_Driver/Src/stm32l4xx_hal_hcd.c ****     /* Allocate lock resource and initialize it */
 125:Drivers/STM32L4xx_HAL_Driver/Src/stm32l4xx_hal_hcd.c ****     hhcd->Lock = HAL_UNLOCKED;
 126:Drivers/STM32L4xx_HAL_Driver/Src/stm32l4xx_hal_hcd.c **** 
 127:Drivers/STM32L4xx_HAL_Driver/Src/stm32l4xx_hal_hcd.c **** #if (USE_HAL_HCD_REGISTER_CALLBACKS == 1U)
 128:Drivers/STM32L4xx_HAL_Driver/Src/stm32l4xx_hal_hcd.c ****     hhcd->SOFCallback = HAL_HCD_SOF_Callback;
 129:Drivers/STM32L4xx_HAL_Driver/Src/stm32l4xx_hal_hcd.c ****     hhcd->ConnectCallback = HAL_HCD_Connect_Callback;
 130:Drivers/STM32L4xx_HAL_Driver/Src/stm32l4xx_hal_hcd.c ****     hhcd->DisconnectCallback = HAL_HCD_Disconnect_Callback;
 131:Drivers/STM32L4xx_HAL_Driver/Src/stm32l4xx_hal_hcd.c ****     hhcd->PortEnabledCallback = HAL_HCD_PortEnabled_Callback;
 132:Drivers/STM32L4xx_HAL_Driver/Src/stm32l4xx_hal_hcd.c ****     hhcd->PortDisabledCallback = HAL_HCD_PortDisabled_Callback;
 133:Drivers/STM32L4xx_HAL_Driver/Src/stm32l4xx_hal_hcd.c ****     hhcd->HC_NotifyURBChangeCallback = HAL_HCD_HC_NotifyURBChange_Callback;
 134:Drivers/STM32L4xx_HAL_Driver/Src/stm32l4xx_hal_hcd.c **** 
 135:Drivers/STM32L4xx_HAL_Driver/Src/stm32l4xx_hal_hcd.c ****     if (hhcd->MspInitCallback == NULL)
 136:Drivers/STM32L4xx_HAL_Driver/Src/stm32l4xx_hal_hcd.c ****     {
 137:Drivers/STM32L4xx_HAL_Driver/Src/stm32l4xx_hal_hcd.c ****       hhcd->MspInitCallback = HAL_HCD_MspInit;
 138:Drivers/STM32L4xx_HAL_Driver/Src/stm32l4xx_hal_hcd.c ****     }
 139:Drivers/STM32L4xx_HAL_Driver/Src/stm32l4xx_hal_hcd.c **** 
 140:Drivers/STM32L4xx_HAL_Driver/Src/stm32l4xx_hal_hcd.c ****     /* Init the low level hardware */
 141:Drivers/STM32L4xx_HAL_Driver/Src/stm32l4xx_hal_hcd.c ****     hhcd->MspInitCallback(hhcd);
 142:Drivers/STM32L4xx_HAL_Driver/Src/stm32l4xx_hal_hcd.c **** #else
 143:Drivers/STM32L4xx_HAL_Driver/Src/stm32l4xx_hal_hcd.c ****     /* Init the low level hardware : GPIO, CLOCK, NVIC... */
 144:Drivers/STM32L4xx_HAL_Driver/Src/stm32l4xx_hal_hcd.c ****     HAL_HCD_MspInit(hhcd);
ARM GAS  C:\Users\HP\AppData\Local\Temp\ccGJK0AZ.s 			page 4


 145:Drivers/STM32L4xx_HAL_Driver/Src/stm32l4xx_hal_hcd.c **** #endif /* (USE_HAL_HCD_REGISTER_CALLBACKS) */
 146:Drivers/STM32L4xx_HAL_Driver/Src/stm32l4xx_hal_hcd.c ****   }
 147:Drivers/STM32L4xx_HAL_Driver/Src/stm32l4xx_hal_hcd.c **** 
 148:Drivers/STM32L4xx_HAL_Driver/Src/stm32l4xx_hal_hcd.c ****   hhcd->State = HAL_HCD_STATE_BUSY;
 149:Drivers/STM32L4xx_HAL_Driver/Src/stm32l4xx_hal_hcd.c **** 
 150:Drivers/STM32L4xx_HAL_Driver/Src/stm32l4xx_hal_hcd.c ****   /* Disable DMA mode for FS instance */
 151:Drivers/STM32L4xx_HAL_Driver/Src/stm32l4xx_hal_hcd.c ****   if ((USBx->CID & (0x1U << 8)) == 0U)
 152:Drivers/STM32L4xx_HAL_Driver/Src/stm32l4xx_hal_hcd.c ****   {
 153:Drivers/STM32L4xx_HAL_Driver/Src/stm32l4xx_hal_hcd.c ****     hhcd->Init.dma_enable = 0U;
 154:Drivers/STM32L4xx_HAL_Driver/Src/stm32l4xx_hal_hcd.c ****   }
 155:Drivers/STM32L4xx_HAL_Driver/Src/stm32l4xx_hal_hcd.c **** 
 156:Drivers/STM32L4xx_HAL_Driver/Src/stm32l4xx_hal_hcd.c ****   /* Disable the Interrupts */
 157:Drivers/STM32L4xx_HAL_Driver/Src/stm32l4xx_hal_hcd.c ****   __HAL_HCD_DISABLE(hhcd);
 158:Drivers/STM32L4xx_HAL_Driver/Src/stm32l4xx_hal_hcd.c **** 
 159:Drivers/STM32L4xx_HAL_Driver/Src/stm32l4xx_hal_hcd.c ****   /* Init the Core (common init.) */
 160:Drivers/STM32L4xx_HAL_Driver/Src/stm32l4xx_hal_hcd.c ****   (void)USB_CoreInit(hhcd->Instance, hhcd->Init);
 161:Drivers/STM32L4xx_HAL_Driver/Src/stm32l4xx_hal_hcd.c **** 
 162:Drivers/STM32L4xx_HAL_Driver/Src/stm32l4xx_hal_hcd.c ****   /* Force Host Mode*/
 163:Drivers/STM32L4xx_HAL_Driver/Src/stm32l4xx_hal_hcd.c ****   (void)USB_SetCurrentMode(hhcd->Instance, USB_HOST_MODE);
 164:Drivers/STM32L4xx_HAL_Driver/Src/stm32l4xx_hal_hcd.c **** 
 165:Drivers/STM32L4xx_HAL_Driver/Src/stm32l4xx_hal_hcd.c ****   /* Init Host */
 166:Drivers/STM32L4xx_HAL_Driver/Src/stm32l4xx_hal_hcd.c ****   (void)USB_HostInit(hhcd->Instance, hhcd->Init);
 167:Drivers/STM32L4xx_HAL_Driver/Src/stm32l4xx_hal_hcd.c **** 
 168:Drivers/STM32L4xx_HAL_Driver/Src/stm32l4xx_hal_hcd.c ****   hhcd->State = HAL_HCD_STATE_READY;
 169:Drivers/STM32L4xx_HAL_Driver/Src/stm32l4xx_hal_hcd.c **** 
 170:Drivers/STM32L4xx_HAL_Driver/Src/stm32l4xx_hal_hcd.c ****   return HAL_OK;
 171:Drivers/STM32L4xx_HAL_Driver/Src/stm32l4xx_hal_hcd.c **** }
 172:Drivers/STM32L4xx_HAL_Driver/Src/stm32l4xx_hal_hcd.c **** 
 173:Drivers/STM32L4xx_HAL_Driver/Src/stm32l4xx_hal_hcd.c **** /**
 174:Drivers/STM32L4xx_HAL_Driver/Src/stm32l4xx_hal_hcd.c ****   * @brief  Initialize a host channel.
 175:Drivers/STM32L4xx_HAL_Driver/Src/stm32l4xx_hal_hcd.c ****   * @param  hhcd HCD handle
 176:Drivers/STM32L4xx_HAL_Driver/Src/stm32l4xx_hal_hcd.c ****   * @param  ch_num Channel number.
 177:Drivers/STM32L4xx_HAL_Driver/Src/stm32l4xx_hal_hcd.c ****   *         This parameter can be a value from 1 to 15
 178:Drivers/STM32L4xx_HAL_Driver/Src/stm32l4xx_hal_hcd.c ****   * @param  epnum Endpoint number.
 179:Drivers/STM32L4xx_HAL_Driver/Src/stm32l4xx_hal_hcd.c ****   *          This parameter can be a value from 1 to 15
 180:Drivers/STM32L4xx_HAL_Driver/Src/stm32l4xx_hal_hcd.c ****   * @param  dev_address Current device address
 181:Drivers/STM32L4xx_HAL_Driver/Src/stm32l4xx_hal_hcd.c ****   *          This parameter can be a value from 0 to 255
 182:Drivers/STM32L4xx_HAL_Driver/Src/stm32l4xx_hal_hcd.c ****   * @param  speed Current device speed.
 183:Drivers/STM32L4xx_HAL_Driver/Src/stm32l4xx_hal_hcd.c ****   *          This parameter can be one of these values:
 184:Drivers/STM32L4xx_HAL_Driver/Src/stm32l4xx_hal_hcd.c ****   *            HCD_DEVICE_SPEED_FULL: Full speed mode,
 185:Drivers/STM32L4xx_HAL_Driver/Src/stm32l4xx_hal_hcd.c ****   *            HCD_DEVICE_SPEED_LOW: Low speed mode
 186:Drivers/STM32L4xx_HAL_Driver/Src/stm32l4xx_hal_hcd.c ****   * @param  ep_type Endpoint Type.
 187:Drivers/STM32L4xx_HAL_Driver/Src/stm32l4xx_hal_hcd.c ****   *          This parameter can be one of these values:
 188:Drivers/STM32L4xx_HAL_Driver/Src/stm32l4xx_hal_hcd.c ****   *            EP_TYPE_CTRL: Control type,
 189:Drivers/STM32L4xx_HAL_Driver/Src/stm32l4xx_hal_hcd.c ****   *            EP_TYPE_ISOC: Isochronous type,
 190:Drivers/STM32L4xx_HAL_Driver/Src/stm32l4xx_hal_hcd.c ****   *            EP_TYPE_BULK: Bulk type,
 191:Drivers/STM32L4xx_HAL_Driver/Src/stm32l4xx_hal_hcd.c ****   *            EP_TYPE_INTR: Interrupt type
 192:Drivers/STM32L4xx_HAL_Driver/Src/stm32l4xx_hal_hcd.c ****   * @param  mps Max Packet Size.
 193:Drivers/STM32L4xx_HAL_Driver/Src/stm32l4xx_hal_hcd.c ****   *          This parameter can be a value from 0 to32K
 194:Drivers/STM32L4xx_HAL_Driver/Src/stm32l4xx_hal_hcd.c ****   * @retval HAL status
 195:Drivers/STM32L4xx_HAL_Driver/Src/stm32l4xx_hal_hcd.c ****   */
 196:Drivers/STM32L4xx_HAL_Driver/Src/stm32l4xx_hal_hcd.c **** HAL_StatusTypeDef HAL_HCD_HC_Init(HCD_HandleTypeDef *hhcd,
 197:Drivers/STM32L4xx_HAL_Driver/Src/stm32l4xx_hal_hcd.c ****                                   uint8_t ch_num,
 198:Drivers/STM32L4xx_HAL_Driver/Src/stm32l4xx_hal_hcd.c ****                                   uint8_t epnum,
 199:Drivers/STM32L4xx_HAL_Driver/Src/stm32l4xx_hal_hcd.c ****                                   uint8_t dev_address,
 200:Drivers/STM32L4xx_HAL_Driver/Src/stm32l4xx_hal_hcd.c ****                                   uint8_t speed,
 201:Drivers/STM32L4xx_HAL_Driver/Src/stm32l4xx_hal_hcd.c ****                                   uint8_t ep_type,
ARM GAS  C:\Users\HP\AppData\Local\Temp\ccGJK0AZ.s 			page 5


 202:Drivers/STM32L4xx_HAL_Driver/Src/stm32l4xx_hal_hcd.c ****                                   uint16_t mps)
 203:Drivers/STM32L4xx_HAL_Driver/Src/stm32l4xx_hal_hcd.c **** {
 204:Drivers/STM32L4xx_HAL_Driver/Src/stm32l4xx_hal_hcd.c ****   HAL_StatusTypeDef status;
 205:Drivers/STM32L4xx_HAL_Driver/Src/stm32l4xx_hal_hcd.c **** 
 206:Drivers/STM32L4xx_HAL_Driver/Src/stm32l4xx_hal_hcd.c ****   __HAL_LOCK(hhcd);
 207:Drivers/STM32L4xx_HAL_Driver/Src/stm32l4xx_hal_hcd.c ****   hhcd->hc[ch_num].do_ping = 0U;
 208:Drivers/STM32L4xx_HAL_Driver/Src/stm32l4xx_hal_hcd.c ****   hhcd->hc[ch_num].dev_addr = dev_address;
 209:Drivers/STM32L4xx_HAL_Driver/Src/stm32l4xx_hal_hcd.c ****   hhcd->hc[ch_num].max_packet = mps;
 210:Drivers/STM32L4xx_HAL_Driver/Src/stm32l4xx_hal_hcd.c ****   hhcd->hc[ch_num].ch_num = ch_num;
 211:Drivers/STM32L4xx_HAL_Driver/Src/stm32l4xx_hal_hcd.c ****   hhcd->hc[ch_num].ep_type = ep_type;
 212:Drivers/STM32L4xx_HAL_Driver/Src/stm32l4xx_hal_hcd.c ****   hhcd->hc[ch_num].ep_num = epnum & 0x7FU;
 213:Drivers/STM32L4xx_HAL_Driver/Src/stm32l4xx_hal_hcd.c **** 
 214:Drivers/STM32L4xx_HAL_Driver/Src/stm32l4xx_hal_hcd.c ****   if ((epnum & 0x80U) == 0x80U)
 215:Drivers/STM32L4xx_HAL_Driver/Src/stm32l4xx_hal_hcd.c ****   {
 216:Drivers/STM32L4xx_HAL_Driver/Src/stm32l4xx_hal_hcd.c ****     hhcd->hc[ch_num].ep_is_in = 1U;
 217:Drivers/STM32L4xx_HAL_Driver/Src/stm32l4xx_hal_hcd.c ****   }
 218:Drivers/STM32L4xx_HAL_Driver/Src/stm32l4xx_hal_hcd.c ****   else
 219:Drivers/STM32L4xx_HAL_Driver/Src/stm32l4xx_hal_hcd.c ****   {
 220:Drivers/STM32L4xx_HAL_Driver/Src/stm32l4xx_hal_hcd.c ****     hhcd->hc[ch_num].ep_is_in = 0U;
 221:Drivers/STM32L4xx_HAL_Driver/Src/stm32l4xx_hal_hcd.c ****   }
 222:Drivers/STM32L4xx_HAL_Driver/Src/stm32l4xx_hal_hcd.c **** 
 223:Drivers/STM32L4xx_HAL_Driver/Src/stm32l4xx_hal_hcd.c ****   hhcd->hc[ch_num].speed = speed;
 224:Drivers/STM32L4xx_HAL_Driver/Src/stm32l4xx_hal_hcd.c **** 
 225:Drivers/STM32L4xx_HAL_Driver/Src/stm32l4xx_hal_hcd.c ****   status =  USB_HC_Init(hhcd->Instance,
 226:Drivers/STM32L4xx_HAL_Driver/Src/stm32l4xx_hal_hcd.c ****                         ch_num,
 227:Drivers/STM32L4xx_HAL_Driver/Src/stm32l4xx_hal_hcd.c ****                         epnum,
 228:Drivers/STM32L4xx_HAL_Driver/Src/stm32l4xx_hal_hcd.c ****                         dev_address,
 229:Drivers/STM32L4xx_HAL_Driver/Src/stm32l4xx_hal_hcd.c ****                         speed,
 230:Drivers/STM32L4xx_HAL_Driver/Src/stm32l4xx_hal_hcd.c ****                         ep_type,
 231:Drivers/STM32L4xx_HAL_Driver/Src/stm32l4xx_hal_hcd.c ****                         mps);
 232:Drivers/STM32L4xx_HAL_Driver/Src/stm32l4xx_hal_hcd.c ****   __HAL_UNLOCK(hhcd);
 233:Drivers/STM32L4xx_HAL_Driver/Src/stm32l4xx_hal_hcd.c **** 
 234:Drivers/STM32L4xx_HAL_Driver/Src/stm32l4xx_hal_hcd.c ****   return status;
 235:Drivers/STM32L4xx_HAL_Driver/Src/stm32l4xx_hal_hcd.c **** }
 236:Drivers/STM32L4xx_HAL_Driver/Src/stm32l4xx_hal_hcd.c **** 
 237:Drivers/STM32L4xx_HAL_Driver/Src/stm32l4xx_hal_hcd.c **** /**
 238:Drivers/STM32L4xx_HAL_Driver/Src/stm32l4xx_hal_hcd.c ****   * @brief  Halt a host channel.
 239:Drivers/STM32L4xx_HAL_Driver/Src/stm32l4xx_hal_hcd.c ****   * @param  hhcd HCD handle
 240:Drivers/STM32L4xx_HAL_Driver/Src/stm32l4xx_hal_hcd.c ****   * @param  ch_num Channel number.
 241:Drivers/STM32L4xx_HAL_Driver/Src/stm32l4xx_hal_hcd.c ****   *         This parameter can be a value from 1 to 15
 242:Drivers/STM32L4xx_HAL_Driver/Src/stm32l4xx_hal_hcd.c ****   * @retval HAL status
 243:Drivers/STM32L4xx_HAL_Driver/Src/stm32l4xx_hal_hcd.c ****   */
 244:Drivers/STM32L4xx_HAL_Driver/Src/stm32l4xx_hal_hcd.c **** HAL_StatusTypeDef HAL_HCD_HC_Halt(HCD_HandleTypeDef *hhcd, uint8_t ch_num)
 245:Drivers/STM32L4xx_HAL_Driver/Src/stm32l4xx_hal_hcd.c **** {
 246:Drivers/STM32L4xx_HAL_Driver/Src/stm32l4xx_hal_hcd.c ****   HAL_StatusTypeDef status = HAL_OK;
 247:Drivers/STM32L4xx_HAL_Driver/Src/stm32l4xx_hal_hcd.c **** 
 248:Drivers/STM32L4xx_HAL_Driver/Src/stm32l4xx_hal_hcd.c ****   __HAL_LOCK(hhcd);
 249:Drivers/STM32L4xx_HAL_Driver/Src/stm32l4xx_hal_hcd.c ****   (void)USB_HC_Halt(hhcd->Instance, (uint8_t)ch_num);
 250:Drivers/STM32L4xx_HAL_Driver/Src/stm32l4xx_hal_hcd.c ****   __HAL_UNLOCK(hhcd);
 251:Drivers/STM32L4xx_HAL_Driver/Src/stm32l4xx_hal_hcd.c **** 
 252:Drivers/STM32L4xx_HAL_Driver/Src/stm32l4xx_hal_hcd.c ****   return status;
 253:Drivers/STM32L4xx_HAL_Driver/Src/stm32l4xx_hal_hcd.c **** }
 254:Drivers/STM32L4xx_HAL_Driver/Src/stm32l4xx_hal_hcd.c **** 
 255:Drivers/STM32L4xx_HAL_Driver/Src/stm32l4xx_hal_hcd.c **** /**
 256:Drivers/STM32L4xx_HAL_Driver/Src/stm32l4xx_hal_hcd.c ****   * @brief  DeInitialize the host driver.
 257:Drivers/STM32L4xx_HAL_Driver/Src/stm32l4xx_hal_hcd.c ****   * @param  hhcd HCD handle
 258:Drivers/STM32L4xx_HAL_Driver/Src/stm32l4xx_hal_hcd.c ****   * @retval HAL status
ARM GAS  C:\Users\HP\AppData\Local\Temp\ccGJK0AZ.s 			page 6


 259:Drivers/STM32L4xx_HAL_Driver/Src/stm32l4xx_hal_hcd.c ****   */
 260:Drivers/STM32L4xx_HAL_Driver/Src/stm32l4xx_hal_hcd.c **** HAL_StatusTypeDef HAL_HCD_DeInit(HCD_HandleTypeDef *hhcd)
 261:Drivers/STM32L4xx_HAL_Driver/Src/stm32l4xx_hal_hcd.c **** {
 262:Drivers/STM32L4xx_HAL_Driver/Src/stm32l4xx_hal_hcd.c ****   /* Check the HCD handle allocation */
 263:Drivers/STM32L4xx_HAL_Driver/Src/stm32l4xx_hal_hcd.c ****   if (hhcd == NULL)
 264:Drivers/STM32L4xx_HAL_Driver/Src/stm32l4xx_hal_hcd.c ****   {
 265:Drivers/STM32L4xx_HAL_Driver/Src/stm32l4xx_hal_hcd.c ****     return HAL_ERROR;
 266:Drivers/STM32L4xx_HAL_Driver/Src/stm32l4xx_hal_hcd.c ****   }
 267:Drivers/STM32L4xx_HAL_Driver/Src/stm32l4xx_hal_hcd.c **** 
 268:Drivers/STM32L4xx_HAL_Driver/Src/stm32l4xx_hal_hcd.c ****   hhcd->State = HAL_HCD_STATE_BUSY;
 269:Drivers/STM32L4xx_HAL_Driver/Src/stm32l4xx_hal_hcd.c **** 
 270:Drivers/STM32L4xx_HAL_Driver/Src/stm32l4xx_hal_hcd.c **** #if (USE_HAL_HCD_REGISTER_CALLBACKS == 1U)
 271:Drivers/STM32L4xx_HAL_Driver/Src/stm32l4xx_hal_hcd.c ****   if (hhcd->MspDeInitCallback == NULL)
 272:Drivers/STM32L4xx_HAL_Driver/Src/stm32l4xx_hal_hcd.c ****   {
 273:Drivers/STM32L4xx_HAL_Driver/Src/stm32l4xx_hal_hcd.c ****     hhcd->MspDeInitCallback = HAL_HCD_MspDeInit; /* Legacy weak MspDeInit  */
 274:Drivers/STM32L4xx_HAL_Driver/Src/stm32l4xx_hal_hcd.c ****   }
 275:Drivers/STM32L4xx_HAL_Driver/Src/stm32l4xx_hal_hcd.c **** 
 276:Drivers/STM32L4xx_HAL_Driver/Src/stm32l4xx_hal_hcd.c ****   /* DeInit the low level hardware */
 277:Drivers/STM32L4xx_HAL_Driver/Src/stm32l4xx_hal_hcd.c ****   hhcd->MspDeInitCallback(hhcd);
 278:Drivers/STM32L4xx_HAL_Driver/Src/stm32l4xx_hal_hcd.c **** #else
 279:Drivers/STM32L4xx_HAL_Driver/Src/stm32l4xx_hal_hcd.c ****   /* DeInit the low level hardware: CLOCK, NVIC.*/
 280:Drivers/STM32L4xx_HAL_Driver/Src/stm32l4xx_hal_hcd.c ****   HAL_HCD_MspDeInit(hhcd);
 281:Drivers/STM32L4xx_HAL_Driver/Src/stm32l4xx_hal_hcd.c **** #endif /* USE_HAL_HCD_REGISTER_CALLBACKS */
 282:Drivers/STM32L4xx_HAL_Driver/Src/stm32l4xx_hal_hcd.c **** 
 283:Drivers/STM32L4xx_HAL_Driver/Src/stm32l4xx_hal_hcd.c ****   __HAL_HCD_DISABLE(hhcd);
 284:Drivers/STM32L4xx_HAL_Driver/Src/stm32l4xx_hal_hcd.c **** 
 285:Drivers/STM32L4xx_HAL_Driver/Src/stm32l4xx_hal_hcd.c ****   hhcd->State = HAL_HCD_STATE_RESET;
 286:Drivers/STM32L4xx_HAL_Driver/Src/stm32l4xx_hal_hcd.c **** 
 287:Drivers/STM32L4xx_HAL_Driver/Src/stm32l4xx_hal_hcd.c ****   return HAL_OK;
 288:Drivers/STM32L4xx_HAL_Driver/Src/stm32l4xx_hal_hcd.c **** }
 289:Drivers/STM32L4xx_HAL_Driver/Src/stm32l4xx_hal_hcd.c **** 
 290:Drivers/STM32L4xx_HAL_Driver/Src/stm32l4xx_hal_hcd.c **** /**
 291:Drivers/STM32L4xx_HAL_Driver/Src/stm32l4xx_hal_hcd.c ****   * @brief  Initialize the HCD MSP.
 292:Drivers/STM32L4xx_HAL_Driver/Src/stm32l4xx_hal_hcd.c ****   * @param  hhcd HCD handle
 293:Drivers/STM32L4xx_HAL_Driver/Src/stm32l4xx_hal_hcd.c ****   * @retval None
 294:Drivers/STM32L4xx_HAL_Driver/Src/stm32l4xx_hal_hcd.c ****   */
 295:Drivers/STM32L4xx_HAL_Driver/Src/stm32l4xx_hal_hcd.c **** __weak void  HAL_HCD_MspInit(HCD_HandleTypeDef *hhcd)
 296:Drivers/STM32L4xx_HAL_Driver/Src/stm32l4xx_hal_hcd.c **** {
 297:Drivers/STM32L4xx_HAL_Driver/Src/stm32l4xx_hal_hcd.c ****   /* Prevent unused argument(s) compilation warning */
 298:Drivers/STM32L4xx_HAL_Driver/Src/stm32l4xx_hal_hcd.c ****   UNUSED(hhcd);
 299:Drivers/STM32L4xx_HAL_Driver/Src/stm32l4xx_hal_hcd.c **** 
 300:Drivers/STM32L4xx_HAL_Driver/Src/stm32l4xx_hal_hcd.c ****   /* NOTE : This function should not be modified, when the callback is needed,
 301:Drivers/STM32L4xx_HAL_Driver/Src/stm32l4xx_hal_hcd.c ****             the HAL_HCD_MspInit could be implemented in the user file
 302:Drivers/STM32L4xx_HAL_Driver/Src/stm32l4xx_hal_hcd.c ****    */
 303:Drivers/STM32L4xx_HAL_Driver/Src/stm32l4xx_hal_hcd.c **** }
 304:Drivers/STM32L4xx_HAL_Driver/Src/stm32l4xx_hal_hcd.c **** 
 305:Drivers/STM32L4xx_HAL_Driver/Src/stm32l4xx_hal_hcd.c **** /**
 306:Drivers/STM32L4xx_HAL_Driver/Src/stm32l4xx_hal_hcd.c ****   * @brief  DeInitialize the HCD MSP.
 307:Drivers/STM32L4xx_HAL_Driver/Src/stm32l4xx_hal_hcd.c ****   * @param  hhcd HCD handle
 308:Drivers/STM32L4xx_HAL_Driver/Src/stm32l4xx_hal_hcd.c ****   * @retval None
 309:Drivers/STM32L4xx_HAL_Driver/Src/stm32l4xx_hal_hcd.c ****   */
 310:Drivers/STM32L4xx_HAL_Driver/Src/stm32l4xx_hal_hcd.c **** __weak void  HAL_HCD_MspDeInit(HCD_HandleTypeDef *hhcd)
 311:Drivers/STM32L4xx_HAL_Driver/Src/stm32l4xx_hal_hcd.c **** {
 312:Drivers/STM32L4xx_HAL_Driver/Src/stm32l4xx_hal_hcd.c ****   /* Prevent unused argument(s) compilation warning */
 313:Drivers/STM32L4xx_HAL_Driver/Src/stm32l4xx_hal_hcd.c ****   UNUSED(hhcd);
 314:Drivers/STM32L4xx_HAL_Driver/Src/stm32l4xx_hal_hcd.c **** 
 315:Drivers/STM32L4xx_HAL_Driver/Src/stm32l4xx_hal_hcd.c ****   /* NOTE : This function should not be modified, when the callback is needed,
ARM GAS  C:\Users\HP\AppData\Local\Temp\ccGJK0AZ.s 			page 7


 316:Drivers/STM32L4xx_HAL_Driver/Src/stm32l4xx_hal_hcd.c ****             the HAL_HCD_MspDeInit could be implemented in the user file
 317:Drivers/STM32L4xx_HAL_Driver/Src/stm32l4xx_hal_hcd.c ****    */
 318:Drivers/STM32L4xx_HAL_Driver/Src/stm32l4xx_hal_hcd.c **** }
 319:Drivers/STM32L4xx_HAL_Driver/Src/stm32l4xx_hal_hcd.c **** 
 320:Drivers/STM32L4xx_HAL_Driver/Src/stm32l4xx_hal_hcd.c **** /**
 321:Drivers/STM32L4xx_HAL_Driver/Src/stm32l4xx_hal_hcd.c ****   * @}
 322:Drivers/STM32L4xx_HAL_Driver/Src/stm32l4xx_hal_hcd.c ****   */
 323:Drivers/STM32L4xx_HAL_Driver/Src/stm32l4xx_hal_hcd.c **** 
 324:Drivers/STM32L4xx_HAL_Driver/Src/stm32l4xx_hal_hcd.c **** /** @defgroup HCD_Exported_Functions_Group2 Input and Output operation functions
 325:Drivers/STM32L4xx_HAL_Driver/Src/stm32l4xx_hal_hcd.c ****   *  @brief   HCD IO operation functions
 326:Drivers/STM32L4xx_HAL_Driver/Src/stm32l4xx_hal_hcd.c ****   *
 327:Drivers/STM32L4xx_HAL_Driver/Src/stm32l4xx_hal_hcd.c **** @verbatim
 328:Drivers/STM32L4xx_HAL_Driver/Src/stm32l4xx_hal_hcd.c ****  ===============================================================================
 329:Drivers/STM32L4xx_HAL_Driver/Src/stm32l4xx_hal_hcd.c ****                       ##### IO operation functions #####
 330:Drivers/STM32L4xx_HAL_Driver/Src/stm32l4xx_hal_hcd.c ****  ===============================================================================
 331:Drivers/STM32L4xx_HAL_Driver/Src/stm32l4xx_hal_hcd.c ****  [..] This subsection provides a set of functions allowing to manage the USB Host Data
 332:Drivers/STM32L4xx_HAL_Driver/Src/stm32l4xx_hal_hcd.c ****     Transfer
 333:Drivers/STM32L4xx_HAL_Driver/Src/stm32l4xx_hal_hcd.c **** 
 334:Drivers/STM32L4xx_HAL_Driver/Src/stm32l4xx_hal_hcd.c **** @endverbatim
 335:Drivers/STM32L4xx_HAL_Driver/Src/stm32l4xx_hal_hcd.c ****   * @{
 336:Drivers/STM32L4xx_HAL_Driver/Src/stm32l4xx_hal_hcd.c ****   */
 337:Drivers/STM32L4xx_HAL_Driver/Src/stm32l4xx_hal_hcd.c **** 
 338:Drivers/STM32L4xx_HAL_Driver/Src/stm32l4xx_hal_hcd.c **** /**
 339:Drivers/STM32L4xx_HAL_Driver/Src/stm32l4xx_hal_hcd.c ****   * @brief  Submit a new URB for processing.
 340:Drivers/STM32L4xx_HAL_Driver/Src/stm32l4xx_hal_hcd.c ****   * @param  hhcd HCD handle
 341:Drivers/STM32L4xx_HAL_Driver/Src/stm32l4xx_hal_hcd.c ****   * @param  ch_num Channel number.
 342:Drivers/STM32L4xx_HAL_Driver/Src/stm32l4xx_hal_hcd.c ****   *         This parameter can be a value from 1 to 15
 343:Drivers/STM32L4xx_HAL_Driver/Src/stm32l4xx_hal_hcd.c ****   * @param  direction Channel number.
 344:Drivers/STM32L4xx_HAL_Driver/Src/stm32l4xx_hal_hcd.c ****   *          This parameter can be one of these values:
 345:Drivers/STM32L4xx_HAL_Driver/Src/stm32l4xx_hal_hcd.c ****   *           0 : Output / 1 : Input
 346:Drivers/STM32L4xx_HAL_Driver/Src/stm32l4xx_hal_hcd.c ****   * @param  ep_type Endpoint Type.
 347:Drivers/STM32L4xx_HAL_Driver/Src/stm32l4xx_hal_hcd.c ****   *          This parameter can be one of these values:
 348:Drivers/STM32L4xx_HAL_Driver/Src/stm32l4xx_hal_hcd.c ****   *            EP_TYPE_CTRL: Control type/
 349:Drivers/STM32L4xx_HAL_Driver/Src/stm32l4xx_hal_hcd.c ****   *            EP_TYPE_ISOC: Isochronous type/
 350:Drivers/STM32L4xx_HAL_Driver/Src/stm32l4xx_hal_hcd.c ****   *            EP_TYPE_BULK: Bulk type/
 351:Drivers/STM32L4xx_HAL_Driver/Src/stm32l4xx_hal_hcd.c ****   *            EP_TYPE_INTR: Interrupt type/
 352:Drivers/STM32L4xx_HAL_Driver/Src/stm32l4xx_hal_hcd.c ****   * @param  token Endpoint Type.
 353:Drivers/STM32L4xx_HAL_Driver/Src/stm32l4xx_hal_hcd.c ****   *          This parameter can be one of these values:
 354:Drivers/STM32L4xx_HAL_Driver/Src/stm32l4xx_hal_hcd.c ****   *            0: HC_PID_SETUP / 1: HC_PID_DATA1
 355:Drivers/STM32L4xx_HAL_Driver/Src/stm32l4xx_hal_hcd.c ****   * @param  pbuff pointer to URB data
 356:Drivers/STM32L4xx_HAL_Driver/Src/stm32l4xx_hal_hcd.c ****   * @param  length Length of URB data
 357:Drivers/STM32L4xx_HAL_Driver/Src/stm32l4xx_hal_hcd.c ****   * @param  do_ping activate do ping protocol (for high speed only).
 358:Drivers/STM32L4xx_HAL_Driver/Src/stm32l4xx_hal_hcd.c ****   *          This parameter can be one of these values:
 359:Drivers/STM32L4xx_HAL_Driver/Src/stm32l4xx_hal_hcd.c ****   *           0 : do ping inactive / 1 : do ping active
 360:Drivers/STM32L4xx_HAL_Driver/Src/stm32l4xx_hal_hcd.c ****   * @retval HAL status
 361:Drivers/STM32L4xx_HAL_Driver/Src/stm32l4xx_hal_hcd.c ****   */
 362:Drivers/STM32L4xx_HAL_Driver/Src/stm32l4xx_hal_hcd.c **** HAL_StatusTypeDef HAL_HCD_HC_SubmitRequest(HCD_HandleTypeDef *hhcd,
 363:Drivers/STM32L4xx_HAL_Driver/Src/stm32l4xx_hal_hcd.c ****                                            uint8_t ch_num,
 364:Drivers/STM32L4xx_HAL_Driver/Src/stm32l4xx_hal_hcd.c ****                                            uint8_t direction,
 365:Drivers/STM32L4xx_HAL_Driver/Src/stm32l4xx_hal_hcd.c ****                                            uint8_t ep_type,
 366:Drivers/STM32L4xx_HAL_Driver/Src/stm32l4xx_hal_hcd.c ****                                            uint8_t token,
 367:Drivers/STM32L4xx_HAL_Driver/Src/stm32l4xx_hal_hcd.c ****                                            uint8_t *pbuff,
 368:Drivers/STM32L4xx_HAL_Driver/Src/stm32l4xx_hal_hcd.c ****                                            uint16_t length,
 369:Drivers/STM32L4xx_HAL_Driver/Src/stm32l4xx_hal_hcd.c ****                                            uint8_t do_ping)
 370:Drivers/STM32L4xx_HAL_Driver/Src/stm32l4xx_hal_hcd.c **** {
 371:Drivers/STM32L4xx_HAL_Driver/Src/stm32l4xx_hal_hcd.c ****   hhcd->hc[ch_num].ep_is_in = direction;
 372:Drivers/STM32L4xx_HAL_Driver/Src/stm32l4xx_hal_hcd.c ****   hhcd->hc[ch_num].ep_type  = ep_type;
ARM GAS  C:\Users\HP\AppData\Local\Temp\ccGJK0AZ.s 			page 8


 373:Drivers/STM32L4xx_HAL_Driver/Src/stm32l4xx_hal_hcd.c **** 
 374:Drivers/STM32L4xx_HAL_Driver/Src/stm32l4xx_hal_hcd.c ****   if (token == 0U)
 375:Drivers/STM32L4xx_HAL_Driver/Src/stm32l4xx_hal_hcd.c ****   {
 376:Drivers/STM32L4xx_HAL_Driver/Src/stm32l4xx_hal_hcd.c ****     hhcd->hc[ch_num].data_pid = HC_PID_SETUP;
 377:Drivers/STM32L4xx_HAL_Driver/Src/stm32l4xx_hal_hcd.c ****     hhcd->hc[ch_num].do_ping = do_ping;
 378:Drivers/STM32L4xx_HAL_Driver/Src/stm32l4xx_hal_hcd.c ****   }
 379:Drivers/STM32L4xx_HAL_Driver/Src/stm32l4xx_hal_hcd.c ****   else
 380:Drivers/STM32L4xx_HAL_Driver/Src/stm32l4xx_hal_hcd.c ****   {
 381:Drivers/STM32L4xx_HAL_Driver/Src/stm32l4xx_hal_hcd.c ****     hhcd->hc[ch_num].data_pid = HC_PID_DATA1;
 382:Drivers/STM32L4xx_HAL_Driver/Src/stm32l4xx_hal_hcd.c ****   }
 383:Drivers/STM32L4xx_HAL_Driver/Src/stm32l4xx_hal_hcd.c **** 
 384:Drivers/STM32L4xx_HAL_Driver/Src/stm32l4xx_hal_hcd.c ****   /* Manage Data Toggle */
 385:Drivers/STM32L4xx_HAL_Driver/Src/stm32l4xx_hal_hcd.c ****   switch (ep_type)
 386:Drivers/STM32L4xx_HAL_Driver/Src/stm32l4xx_hal_hcd.c ****   {
 387:Drivers/STM32L4xx_HAL_Driver/Src/stm32l4xx_hal_hcd.c ****     case EP_TYPE_CTRL:
 388:Drivers/STM32L4xx_HAL_Driver/Src/stm32l4xx_hal_hcd.c ****       if ((token == 1U) && (direction == 0U)) /*send data */
 389:Drivers/STM32L4xx_HAL_Driver/Src/stm32l4xx_hal_hcd.c ****       {
 390:Drivers/STM32L4xx_HAL_Driver/Src/stm32l4xx_hal_hcd.c ****         if (length == 0U)
 391:Drivers/STM32L4xx_HAL_Driver/Src/stm32l4xx_hal_hcd.c ****         {
 392:Drivers/STM32L4xx_HAL_Driver/Src/stm32l4xx_hal_hcd.c ****           /* For Status OUT stage, Length==0, Status Out PID = 1 */
 393:Drivers/STM32L4xx_HAL_Driver/Src/stm32l4xx_hal_hcd.c ****           hhcd->hc[ch_num].toggle_out = 1U;
 394:Drivers/STM32L4xx_HAL_Driver/Src/stm32l4xx_hal_hcd.c ****         }
 395:Drivers/STM32L4xx_HAL_Driver/Src/stm32l4xx_hal_hcd.c **** 
 396:Drivers/STM32L4xx_HAL_Driver/Src/stm32l4xx_hal_hcd.c ****         /* Set the Data Toggle bit as per the Flag */
 397:Drivers/STM32L4xx_HAL_Driver/Src/stm32l4xx_hal_hcd.c ****         if (hhcd->hc[ch_num].toggle_out == 0U)
 398:Drivers/STM32L4xx_HAL_Driver/Src/stm32l4xx_hal_hcd.c ****         {
 399:Drivers/STM32L4xx_HAL_Driver/Src/stm32l4xx_hal_hcd.c ****           /* Put the PID 0 */
 400:Drivers/STM32L4xx_HAL_Driver/Src/stm32l4xx_hal_hcd.c ****           hhcd->hc[ch_num].data_pid = HC_PID_DATA0;
 401:Drivers/STM32L4xx_HAL_Driver/Src/stm32l4xx_hal_hcd.c ****         }
 402:Drivers/STM32L4xx_HAL_Driver/Src/stm32l4xx_hal_hcd.c ****         else
 403:Drivers/STM32L4xx_HAL_Driver/Src/stm32l4xx_hal_hcd.c ****         {
 404:Drivers/STM32L4xx_HAL_Driver/Src/stm32l4xx_hal_hcd.c ****           /* Put the PID 1 */
 405:Drivers/STM32L4xx_HAL_Driver/Src/stm32l4xx_hal_hcd.c ****           hhcd->hc[ch_num].data_pid = HC_PID_DATA1;
 406:Drivers/STM32L4xx_HAL_Driver/Src/stm32l4xx_hal_hcd.c ****         }
 407:Drivers/STM32L4xx_HAL_Driver/Src/stm32l4xx_hal_hcd.c ****       }
 408:Drivers/STM32L4xx_HAL_Driver/Src/stm32l4xx_hal_hcd.c ****       break;
 409:Drivers/STM32L4xx_HAL_Driver/Src/stm32l4xx_hal_hcd.c **** 
 410:Drivers/STM32L4xx_HAL_Driver/Src/stm32l4xx_hal_hcd.c ****     case EP_TYPE_BULK:
 411:Drivers/STM32L4xx_HAL_Driver/Src/stm32l4xx_hal_hcd.c ****       if (direction == 0U)
 412:Drivers/STM32L4xx_HAL_Driver/Src/stm32l4xx_hal_hcd.c ****       {
 413:Drivers/STM32L4xx_HAL_Driver/Src/stm32l4xx_hal_hcd.c ****         /* Set the Data Toggle bit as per the Flag */
 414:Drivers/STM32L4xx_HAL_Driver/Src/stm32l4xx_hal_hcd.c ****         if (hhcd->hc[ch_num].toggle_out == 0U)
 415:Drivers/STM32L4xx_HAL_Driver/Src/stm32l4xx_hal_hcd.c ****         {
 416:Drivers/STM32L4xx_HAL_Driver/Src/stm32l4xx_hal_hcd.c ****           /* Put the PID 0 */
 417:Drivers/STM32L4xx_HAL_Driver/Src/stm32l4xx_hal_hcd.c ****           hhcd->hc[ch_num].data_pid = HC_PID_DATA0;
 418:Drivers/STM32L4xx_HAL_Driver/Src/stm32l4xx_hal_hcd.c ****         }
 419:Drivers/STM32L4xx_HAL_Driver/Src/stm32l4xx_hal_hcd.c ****         else
 420:Drivers/STM32L4xx_HAL_Driver/Src/stm32l4xx_hal_hcd.c ****         {
 421:Drivers/STM32L4xx_HAL_Driver/Src/stm32l4xx_hal_hcd.c ****           /* Put the PID 1 */
 422:Drivers/STM32L4xx_HAL_Driver/Src/stm32l4xx_hal_hcd.c ****           hhcd->hc[ch_num].data_pid = HC_PID_DATA1;
 423:Drivers/STM32L4xx_HAL_Driver/Src/stm32l4xx_hal_hcd.c ****         }
 424:Drivers/STM32L4xx_HAL_Driver/Src/stm32l4xx_hal_hcd.c ****       }
 425:Drivers/STM32L4xx_HAL_Driver/Src/stm32l4xx_hal_hcd.c ****       else
 426:Drivers/STM32L4xx_HAL_Driver/Src/stm32l4xx_hal_hcd.c ****       {
 427:Drivers/STM32L4xx_HAL_Driver/Src/stm32l4xx_hal_hcd.c ****         if (hhcd->hc[ch_num].toggle_in == 0U)
 428:Drivers/STM32L4xx_HAL_Driver/Src/stm32l4xx_hal_hcd.c ****         {
 429:Drivers/STM32L4xx_HAL_Driver/Src/stm32l4xx_hal_hcd.c ****           hhcd->hc[ch_num].data_pid = HC_PID_DATA0;
ARM GAS  C:\Users\HP\AppData\Local\Temp\ccGJK0AZ.s 			page 9


 430:Drivers/STM32L4xx_HAL_Driver/Src/stm32l4xx_hal_hcd.c ****         }
 431:Drivers/STM32L4xx_HAL_Driver/Src/stm32l4xx_hal_hcd.c ****         else
 432:Drivers/STM32L4xx_HAL_Driver/Src/stm32l4xx_hal_hcd.c ****         {
 433:Drivers/STM32L4xx_HAL_Driver/Src/stm32l4xx_hal_hcd.c ****           hhcd->hc[ch_num].data_pid = HC_PID_DATA1;
 434:Drivers/STM32L4xx_HAL_Driver/Src/stm32l4xx_hal_hcd.c ****         }
 435:Drivers/STM32L4xx_HAL_Driver/Src/stm32l4xx_hal_hcd.c ****       }
 436:Drivers/STM32L4xx_HAL_Driver/Src/stm32l4xx_hal_hcd.c **** 
 437:Drivers/STM32L4xx_HAL_Driver/Src/stm32l4xx_hal_hcd.c ****       break;
 438:Drivers/STM32L4xx_HAL_Driver/Src/stm32l4xx_hal_hcd.c ****     case EP_TYPE_INTR:
 439:Drivers/STM32L4xx_HAL_Driver/Src/stm32l4xx_hal_hcd.c ****       if (direction == 0U)
 440:Drivers/STM32L4xx_HAL_Driver/Src/stm32l4xx_hal_hcd.c ****       {
 441:Drivers/STM32L4xx_HAL_Driver/Src/stm32l4xx_hal_hcd.c ****         /* Set the Data Toggle bit as per the Flag */
 442:Drivers/STM32L4xx_HAL_Driver/Src/stm32l4xx_hal_hcd.c ****         if (hhcd->hc[ch_num].toggle_out == 0U)
 443:Drivers/STM32L4xx_HAL_Driver/Src/stm32l4xx_hal_hcd.c ****         {
 444:Drivers/STM32L4xx_HAL_Driver/Src/stm32l4xx_hal_hcd.c ****           /* Put the PID 0 */
 445:Drivers/STM32L4xx_HAL_Driver/Src/stm32l4xx_hal_hcd.c ****           hhcd->hc[ch_num].data_pid = HC_PID_DATA0;
 446:Drivers/STM32L4xx_HAL_Driver/Src/stm32l4xx_hal_hcd.c ****         }
 447:Drivers/STM32L4xx_HAL_Driver/Src/stm32l4xx_hal_hcd.c ****         else
 448:Drivers/STM32L4xx_HAL_Driver/Src/stm32l4xx_hal_hcd.c ****         {
 449:Drivers/STM32L4xx_HAL_Driver/Src/stm32l4xx_hal_hcd.c ****           /* Put the PID 1 */
 450:Drivers/STM32L4xx_HAL_Driver/Src/stm32l4xx_hal_hcd.c ****           hhcd->hc[ch_num].data_pid = HC_PID_DATA1;
 451:Drivers/STM32L4xx_HAL_Driver/Src/stm32l4xx_hal_hcd.c ****         }
 452:Drivers/STM32L4xx_HAL_Driver/Src/stm32l4xx_hal_hcd.c ****       }
 453:Drivers/STM32L4xx_HAL_Driver/Src/stm32l4xx_hal_hcd.c ****       else
 454:Drivers/STM32L4xx_HAL_Driver/Src/stm32l4xx_hal_hcd.c ****       {
 455:Drivers/STM32L4xx_HAL_Driver/Src/stm32l4xx_hal_hcd.c ****         if (hhcd->hc[ch_num].toggle_in == 0U)
 456:Drivers/STM32L4xx_HAL_Driver/Src/stm32l4xx_hal_hcd.c ****         {
 457:Drivers/STM32L4xx_HAL_Driver/Src/stm32l4xx_hal_hcd.c ****           hhcd->hc[ch_num].data_pid = HC_PID_DATA0;
 458:Drivers/STM32L4xx_HAL_Driver/Src/stm32l4xx_hal_hcd.c ****         }
 459:Drivers/STM32L4xx_HAL_Driver/Src/stm32l4xx_hal_hcd.c ****         else
 460:Drivers/STM32L4xx_HAL_Driver/Src/stm32l4xx_hal_hcd.c ****         {
 461:Drivers/STM32L4xx_HAL_Driver/Src/stm32l4xx_hal_hcd.c ****           hhcd->hc[ch_num].data_pid = HC_PID_DATA1;
 462:Drivers/STM32L4xx_HAL_Driver/Src/stm32l4xx_hal_hcd.c ****         }
 463:Drivers/STM32L4xx_HAL_Driver/Src/stm32l4xx_hal_hcd.c ****       }
 464:Drivers/STM32L4xx_HAL_Driver/Src/stm32l4xx_hal_hcd.c ****       break;
 465:Drivers/STM32L4xx_HAL_Driver/Src/stm32l4xx_hal_hcd.c **** 
 466:Drivers/STM32L4xx_HAL_Driver/Src/stm32l4xx_hal_hcd.c ****     case EP_TYPE_ISOC:
 467:Drivers/STM32L4xx_HAL_Driver/Src/stm32l4xx_hal_hcd.c ****       hhcd->hc[ch_num].data_pid = HC_PID_DATA0;
 468:Drivers/STM32L4xx_HAL_Driver/Src/stm32l4xx_hal_hcd.c ****       break;
 469:Drivers/STM32L4xx_HAL_Driver/Src/stm32l4xx_hal_hcd.c **** 
 470:Drivers/STM32L4xx_HAL_Driver/Src/stm32l4xx_hal_hcd.c ****     default:
 471:Drivers/STM32L4xx_HAL_Driver/Src/stm32l4xx_hal_hcd.c ****       break;
 472:Drivers/STM32L4xx_HAL_Driver/Src/stm32l4xx_hal_hcd.c ****   }
 473:Drivers/STM32L4xx_HAL_Driver/Src/stm32l4xx_hal_hcd.c **** 
 474:Drivers/STM32L4xx_HAL_Driver/Src/stm32l4xx_hal_hcd.c ****   hhcd->hc[ch_num].xfer_buff = pbuff;
 475:Drivers/STM32L4xx_HAL_Driver/Src/stm32l4xx_hal_hcd.c ****   hhcd->hc[ch_num].xfer_len  = length;
 476:Drivers/STM32L4xx_HAL_Driver/Src/stm32l4xx_hal_hcd.c ****   hhcd->hc[ch_num].urb_state = URB_IDLE;
 477:Drivers/STM32L4xx_HAL_Driver/Src/stm32l4xx_hal_hcd.c ****   hhcd->hc[ch_num].xfer_count = 0U;
 478:Drivers/STM32L4xx_HAL_Driver/Src/stm32l4xx_hal_hcd.c ****   hhcd->hc[ch_num].ch_num = ch_num;
 479:Drivers/STM32L4xx_HAL_Driver/Src/stm32l4xx_hal_hcd.c ****   hhcd->hc[ch_num].state = HC_IDLE;
 480:Drivers/STM32L4xx_HAL_Driver/Src/stm32l4xx_hal_hcd.c **** 
 481:Drivers/STM32L4xx_HAL_Driver/Src/stm32l4xx_hal_hcd.c ****   return USB_HC_StartXfer(hhcd->Instance, &hhcd->hc[ch_num]);
 482:Drivers/STM32L4xx_HAL_Driver/Src/stm32l4xx_hal_hcd.c **** }
 483:Drivers/STM32L4xx_HAL_Driver/Src/stm32l4xx_hal_hcd.c **** 
 484:Drivers/STM32L4xx_HAL_Driver/Src/stm32l4xx_hal_hcd.c **** /**
 485:Drivers/STM32L4xx_HAL_Driver/Src/stm32l4xx_hal_hcd.c ****   * @brief  Handle HCD interrupt request.
 486:Drivers/STM32L4xx_HAL_Driver/Src/stm32l4xx_hal_hcd.c ****   * @param  hhcd HCD handle
ARM GAS  C:\Users\HP\AppData\Local\Temp\ccGJK0AZ.s 			page 10


 487:Drivers/STM32L4xx_HAL_Driver/Src/stm32l4xx_hal_hcd.c ****   * @retval None
 488:Drivers/STM32L4xx_HAL_Driver/Src/stm32l4xx_hal_hcd.c ****   */
 489:Drivers/STM32L4xx_HAL_Driver/Src/stm32l4xx_hal_hcd.c **** void HAL_HCD_IRQHandler(HCD_HandleTypeDef *hhcd)
 490:Drivers/STM32L4xx_HAL_Driver/Src/stm32l4xx_hal_hcd.c **** {
 491:Drivers/STM32L4xx_HAL_Driver/Src/stm32l4xx_hal_hcd.c ****   USB_OTG_GlobalTypeDef *USBx = hhcd->Instance;
 492:Drivers/STM32L4xx_HAL_Driver/Src/stm32l4xx_hal_hcd.c ****   uint32_t USBx_BASE = (uint32_t)USBx;
 493:Drivers/STM32L4xx_HAL_Driver/Src/stm32l4xx_hal_hcd.c ****   uint32_t i;
 494:Drivers/STM32L4xx_HAL_Driver/Src/stm32l4xx_hal_hcd.c ****   uint32_t interrupt;
 495:Drivers/STM32L4xx_HAL_Driver/Src/stm32l4xx_hal_hcd.c **** 
 496:Drivers/STM32L4xx_HAL_Driver/Src/stm32l4xx_hal_hcd.c ****   /* Ensure that we are in device mode */
 497:Drivers/STM32L4xx_HAL_Driver/Src/stm32l4xx_hal_hcd.c ****   if (USB_GetMode(hhcd->Instance) == USB_OTG_MODE_HOST)
 498:Drivers/STM32L4xx_HAL_Driver/Src/stm32l4xx_hal_hcd.c ****   {
 499:Drivers/STM32L4xx_HAL_Driver/Src/stm32l4xx_hal_hcd.c ****     /* Avoid spurious interrupt */
 500:Drivers/STM32L4xx_HAL_Driver/Src/stm32l4xx_hal_hcd.c ****     if (__HAL_HCD_IS_INVALID_INTERRUPT(hhcd))
 501:Drivers/STM32L4xx_HAL_Driver/Src/stm32l4xx_hal_hcd.c ****     {
 502:Drivers/STM32L4xx_HAL_Driver/Src/stm32l4xx_hal_hcd.c ****       return;
 503:Drivers/STM32L4xx_HAL_Driver/Src/stm32l4xx_hal_hcd.c ****     }
 504:Drivers/STM32L4xx_HAL_Driver/Src/stm32l4xx_hal_hcd.c **** 
 505:Drivers/STM32L4xx_HAL_Driver/Src/stm32l4xx_hal_hcd.c ****     if (__HAL_HCD_GET_FLAG(hhcd, USB_OTG_GINTSTS_PXFR_INCOMPISOOUT))
 506:Drivers/STM32L4xx_HAL_Driver/Src/stm32l4xx_hal_hcd.c ****     {
 507:Drivers/STM32L4xx_HAL_Driver/Src/stm32l4xx_hal_hcd.c ****       /* Incorrect mode, acknowledge the interrupt */
 508:Drivers/STM32L4xx_HAL_Driver/Src/stm32l4xx_hal_hcd.c ****       __HAL_HCD_CLEAR_FLAG(hhcd, USB_OTG_GINTSTS_PXFR_INCOMPISOOUT);
 509:Drivers/STM32L4xx_HAL_Driver/Src/stm32l4xx_hal_hcd.c ****     }
 510:Drivers/STM32L4xx_HAL_Driver/Src/stm32l4xx_hal_hcd.c **** 
 511:Drivers/STM32L4xx_HAL_Driver/Src/stm32l4xx_hal_hcd.c ****     if (__HAL_HCD_GET_FLAG(hhcd, USB_OTG_GINTSTS_IISOIXFR))
 512:Drivers/STM32L4xx_HAL_Driver/Src/stm32l4xx_hal_hcd.c ****     {
 513:Drivers/STM32L4xx_HAL_Driver/Src/stm32l4xx_hal_hcd.c ****       /* Incorrect mode, acknowledge the interrupt */
 514:Drivers/STM32L4xx_HAL_Driver/Src/stm32l4xx_hal_hcd.c ****       __HAL_HCD_CLEAR_FLAG(hhcd, USB_OTG_GINTSTS_IISOIXFR);
 515:Drivers/STM32L4xx_HAL_Driver/Src/stm32l4xx_hal_hcd.c ****     }
 516:Drivers/STM32L4xx_HAL_Driver/Src/stm32l4xx_hal_hcd.c **** 
 517:Drivers/STM32L4xx_HAL_Driver/Src/stm32l4xx_hal_hcd.c ****     if (__HAL_HCD_GET_FLAG(hhcd, USB_OTG_GINTSTS_PTXFE))
 518:Drivers/STM32L4xx_HAL_Driver/Src/stm32l4xx_hal_hcd.c ****     {
 519:Drivers/STM32L4xx_HAL_Driver/Src/stm32l4xx_hal_hcd.c ****       /* Incorrect mode, acknowledge the interrupt */
 520:Drivers/STM32L4xx_HAL_Driver/Src/stm32l4xx_hal_hcd.c ****       __HAL_HCD_CLEAR_FLAG(hhcd, USB_OTG_GINTSTS_PTXFE);
 521:Drivers/STM32L4xx_HAL_Driver/Src/stm32l4xx_hal_hcd.c ****     }
 522:Drivers/STM32L4xx_HAL_Driver/Src/stm32l4xx_hal_hcd.c **** 
 523:Drivers/STM32L4xx_HAL_Driver/Src/stm32l4xx_hal_hcd.c ****     if (__HAL_HCD_GET_FLAG(hhcd, USB_OTG_GINTSTS_MMIS))
 524:Drivers/STM32L4xx_HAL_Driver/Src/stm32l4xx_hal_hcd.c ****     {
 525:Drivers/STM32L4xx_HAL_Driver/Src/stm32l4xx_hal_hcd.c ****       /* Incorrect mode, acknowledge the interrupt */
 526:Drivers/STM32L4xx_HAL_Driver/Src/stm32l4xx_hal_hcd.c ****       __HAL_HCD_CLEAR_FLAG(hhcd, USB_OTG_GINTSTS_MMIS);
 527:Drivers/STM32L4xx_HAL_Driver/Src/stm32l4xx_hal_hcd.c ****     }
 528:Drivers/STM32L4xx_HAL_Driver/Src/stm32l4xx_hal_hcd.c **** 
 529:Drivers/STM32L4xx_HAL_Driver/Src/stm32l4xx_hal_hcd.c ****     /* Handle Host Disconnect Interrupts */
 530:Drivers/STM32L4xx_HAL_Driver/Src/stm32l4xx_hal_hcd.c ****     if (__HAL_HCD_GET_FLAG(hhcd, USB_OTG_GINTSTS_DISCINT))
 531:Drivers/STM32L4xx_HAL_Driver/Src/stm32l4xx_hal_hcd.c ****     {
 532:Drivers/STM32L4xx_HAL_Driver/Src/stm32l4xx_hal_hcd.c ****       __HAL_HCD_CLEAR_FLAG(hhcd, USB_OTG_GINTSTS_DISCINT);
 533:Drivers/STM32L4xx_HAL_Driver/Src/stm32l4xx_hal_hcd.c **** 
 534:Drivers/STM32L4xx_HAL_Driver/Src/stm32l4xx_hal_hcd.c ****       if ((USBx_HPRT0 & USB_OTG_HPRT_PCSTS) == 0U)
 535:Drivers/STM32L4xx_HAL_Driver/Src/stm32l4xx_hal_hcd.c ****       {
 536:Drivers/STM32L4xx_HAL_Driver/Src/stm32l4xx_hal_hcd.c ****         /* Flush USB Fifo */
 537:Drivers/STM32L4xx_HAL_Driver/Src/stm32l4xx_hal_hcd.c ****         (void)USB_FlushTxFifo(USBx, 0x10U);
 538:Drivers/STM32L4xx_HAL_Driver/Src/stm32l4xx_hal_hcd.c ****         (void)USB_FlushRxFifo(USBx);
 539:Drivers/STM32L4xx_HAL_Driver/Src/stm32l4xx_hal_hcd.c **** 
 540:Drivers/STM32L4xx_HAL_Driver/Src/stm32l4xx_hal_hcd.c ****         /* Restore FS Clock */
 541:Drivers/STM32L4xx_HAL_Driver/Src/stm32l4xx_hal_hcd.c ****         (void)USB_InitFSLSPClkSel(hhcd->Instance, HCFG_48_MHZ);
 542:Drivers/STM32L4xx_HAL_Driver/Src/stm32l4xx_hal_hcd.c **** 
 543:Drivers/STM32L4xx_HAL_Driver/Src/stm32l4xx_hal_hcd.c ****         /* Handle Host Port Disconnect Interrupt */
ARM GAS  C:\Users\HP\AppData\Local\Temp\ccGJK0AZ.s 			page 11


 544:Drivers/STM32L4xx_HAL_Driver/Src/stm32l4xx_hal_hcd.c **** #if (USE_HAL_HCD_REGISTER_CALLBACKS == 1U)
 545:Drivers/STM32L4xx_HAL_Driver/Src/stm32l4xx_hal_hcd.c ****         hhcd->DisconnectCallback(hhcd);
 546:Drivers/STM32L4xx_HAL_Driver/Src/stm32l4xx_hal_hcd.c **** #else
 547:Drivers/STM32L4xx_HAL_Driver/Src/stm32l4xx_hal_hcd.c ****         HAL_HCD_Disconnect_Callback(hhcd);
 548:Drivers/STM32L4xx_HAL_Driver/Src/stm32l4xx_hal_hcd.c **** #endif /* USE_HAL_HCD_REGISTER_CALLBACKS */
 549:Drivers/STM32L4xx_HAL_Driver/Src/stm32l4xx_hal_hcd.c ****       }
 550:Drivers/STM32L4xx_HAL_Driver/Src/stm32l4xx_hal_hcd.c ****     }
 551:Drivers/STM32L4xx_HAL_Driver/Src/stm32l4xx_hal_hcd.c **** 
 552:Drivers/STM32L4xx_HAL_Driver/Src/stm32l4xx_hal_hcd.c ****     /* Handle Host Port Interrupts */
 553:Drivers/STM32L4xx_HAL_Driver/Src/stm32l4xx_hal_hcd.c ****     if (__HAL_HCD_GET_FLAG(hhcd, USB_OTG_GINTSTS_HPRTINT))
 554:Drivers/STM32L4xx_HAL_Driver/Src/stm32l4xx_hal_hcd.c ****     {
 555:Drivers/STM32L4xx_HAL_Driver/Src/stm32l4xx_hal_hcd.c ****       HCD_Port_IRQHandler(hhcd);
 556:Drivers/STM32L4xx_HAL_Driver/Src/stm32l4xx_hal_hcd.c ****     }
 557:Drivers/STM32L4xx_HAL_Driver/Src/stm32l4xx_hal_hcd.c **** 
 558:Drivers/STM32L4xx_HAL_Driver/Src/stm32l4xx_hal_hcd.c ****     /* Handle Host SOF Interrupt */
 559:Drivers/STM32L4xx_HAL_Driver/Src/stm32l4xx_hal_hcd.c ****     if (__HAL_HCD_GET_FLAG(hhcd, USB_OTG_GINTSTS_SOF))
 560:Drivers/STM32L4xx_HAL_Driver/Src/stm32l4xx_hal_hcd.c ****     {
 561:Drivers/STM32L4xx_HAL_Driver/Src/stm32l4xx_hal_hcd.c **** #if (USE_HAL_HCD_REGISTER_CALLBACKS == 1U)
 562:Drivers/STM32L4xx_HAL_Driver/Src/stm32l4xx_hal_hcd.c ****       hhcd->SOFCallback(hhcd);
 563:Drivers/STM32L4xx_HAL_Driver/Src/stm32l4xx_hal_hcd.c **** #else
 564:Drivers/STM32L4xx_HAL_Driver/Src/stm32l4xx_hal_hcd.c ****       HAL_HCD_SOF_Callback(hhcd);
 565:Drivers/STM32L4xx_HAL_Driver/Src/stm32l4xx_hal_hcd.c **** #endif /* USE_HAL_HCD_REGISTER_CALLBACKS */
 566:Drivers/STM32L4xx_HAL_Driver/Src/stm32l4xx_hal_hcd.c **** 
 567:Drivers/STM32L4xx_HAL_Driver/Src/stm32l4xx_hal_hcd.c ****       __HAL_HCD_CLEAR_FLAG(hhcd, USB_OTG_GINTSTS_SOF);
 568:Drivers/STM32L4xx_HAL_Driver/Src/stm32l4xx_hal_hcd.c ****     }
 569:Drivers/STM32L4xx_HAL_Driver/Src/stm32l4xx_hal_hcd.c **** 
 570:Drivers/STM32L4xx_HAL_Driver/Src/stm32l4xx_hal_hcd.c ****     /* Handle Rx Queue Level Interrupts */
 571:Drivers/STM32L4xx_HAL_Driver/Src/stm32l4xx_hal_hcd.c ****     if ((__HAL_HCD_GET_FLAG(hhcd, USB_OTG_GINTSTS_RXFLVL)) != 0U)
 572:Drivers/STM32L4xx_HAL_Driver/Src/stm32l4xx_hal_hcd.c ****     {
 573:Drivers/STM32L4xx_HAL_Driver/Src/stm32l4xx_hal_hcd.c ****       USB_MASK_INTERRUPT(hhcd->Instance, USB_OTG_GINTSTS_RXFLVL);
 574:Drivers/STM32L4xx_HAL_Driver/Src/stm32l4xx_hal_hcd.c **** 
 575:Drivers/STM32L4xx_HAL_Driver/Src/stm32l4xx_hal_hcd.c ****       HCD_RXQLVL_IRQHandler(hhcd);
 576:Drivers/STM32L4xx_HAL_Driver/Src/stm32l4xx_hal_hcd.c **** 
 577:Drivers/STM32L4xx_HAL_Driver/Src/stm32l4xx_hal_hcd.c ****       USB_UNMASK_INTERRUPT(hhcd->Instance, USB_OTG_GINTSTS_RXFLVL);
 578:Drivers/STM32L4xx_HAL_Driver/Src/stm32l4xx_hal_hcd.c ****     }
 579:Drivers/STM32L4xx_HAL_Driver/Src/stm32l4xx_hal_hcd.c **** 
 580:Drivers/STM32L4xx_HAL_Driver/Src/stm32l4xx_hal_hcd.c ****     /* Handle Host channel Interrupt */
 581:Drivers/STM32L4xx_HAL_Driver/Src/stm32l4xx_hal_hcd.c ****     if (__HAL_HCD_GET_FLAG(hhcd, USB_OTG_GINTSTS_HCINT))
 582:Drivers/STM32L4xx_HAL_Driver/Src/stm32l4xx_hal_hcd.c ****     {
 583:Drivers/STM32L4xx_HAL_Driver/Src/stm32l4xx_hal_hcd.c ****       interrupt = USB_HC_ReadInterrupt(hhcd->Instance);
 584:Drivers/STM32L4xx_HAL_Driver/Src/stm32l4xx_hal_hcd.c ****       for (i = 0U; i < hhcd->Init.Host_channels; i++)
 585:Drivers/STM32L4xx_HAL_Driver/Src/stm32l4xx_hal_hcd.c ****       {
 586:Drivers/STM32L4xx_HAL_Driver/Src/stm32l4xx_hal_hcd.c ****         if ((interrupt & (1UL << (i & 0xFU))) != 0U)
 587:Drivers/STM32L4xx_HAL_Driver/Src/stm32l4xx_hal_hcd.c ****         {
 588:Drivers/STM32L4xx_HAL_Driver/Src/stm32l4xx_hal_hcd.c ****           if ((USBx_HC(i)->HCCHAR & USB_OTG_HCCHAR_EPDIR) == USB_OTG_HCCHAR_EPDIR)
 589:Drivers/STM32L4xx_HAL_Driver/Src/stm32l4xx_hal_hcd.c ****           {
 590:Drivers/STM32L4xx_HAL_Driver/Src/stm32l4xx_hal_hcd.c ****             HCD_HC_IN_IRQHandler(hhcd, (uint8_t)i);
 591:Drivers/STM32L4xx_HAL_Driver/Src/stm32l4xx_hal_hcd.c ****           }
 592:Drivers/STM32L4xx_HAL_Driver/Src/stm32l4xx_hal_hcd.c ****           else
 593:Drivers/STM32L4xx_HAL_Driver/Src/stm32l4xx_hal_hcd.c ****           {
 594:Drivers/STM32L4xx_HAL_Driver/Src/stm32l4xx_hal_hcd.c ****             HCD_HC_OUT_IRQHandler(hhcd, (uint8_t)i);
 595:Drivers/STM32L4xx_HAL_Driver/Src/stm32l4xx_hal_hcd.c ****           }
 596:Drivers/STM32L4xx_HAL_Driver/Src/stm32l4xx_hal_hcd.c ****         }
 597:Drivers/STM32L4xx_HAL_Driver/Src/stm32l4xx_hal_hcd.c ****       }
 598:Drivers/STM32L4xx_HAL_Driver/Src/stm32l4xx_hal_hcd.c ****       __HAL_HCD_CLEAR_FLAG(hhcd, USB_OTG_GINTSTS_HCINT);
 599:Drivers/STM32L4xx_HAL_Driver/Src/stm32l4xx_hal_hcd.c ****     }
 600:Drivers/STM32L4xx_HAL_Driver/Src/stm32l4xx_hal_hcd.c ****   }
ARM GAS  C:\Users\HP\AppData\Local\Temp\ccGJK0AZ.s 			page 12


 601:Drivers/STM32L4xx_HAL_Driver/Src/stm32l4xx_hal_hcd.c **** }
 602:Drivers/STM32L4xx_HAL_Driver/Src/stm32l4xx_hal_hcd.c **** 
 603:Drivers/STM32L4xx_HAL_Driver/Src/stm32l4xx_hal_hcd.c **** 
 604:Drivers/STM32L4xx_HAL_Driver/Src/stm32l4xx_hal_hcd.c **** /**
 605:Drivers/STM32L4xx_HAL_Driver/Src/stm32l4xx_hal_hcd.c ****   * @brief  SOF callback.
 606:Drivers/STM32L4xx_HAL_Driver/Src/stm32l4xx_hal_hcd.c ****   * @param  hhcd HCD handle
 607:Drivers/STM32L4xx_HAL_Driver/Src/stm32l4xx_hal_hcd.c ****   * @retval None
 608:Drivers/STM32L4xx_HAL_Driver/Src/stm32l4xx_hal_hcd.c ****   */
 609:Drivers/STM32L4xx_HAL_Driver/Src/stm32l4xx_hal_hcd.c **** __weak void HAL_HCD_SOF_Callback(HCD_HandleTypeDef *hhcd)
 610:Drivers/STM32L4xx_HAL_Driver/Src/stm32l4xx_hal_hcd.c **** {
 611:Drivers/STM32L4xx_HAL_Driver/Src/stm32l4xx_hal_hcd.c ****   /* Prevent unused argument(s) compilation warning */
 612:Drivers/STM32L4xx_HAL_Driver/Src/stm32l4xx_hal_hcd.c ****   UNUSED(hhcd);
 613:Drivers/STM32L4xx_HAL_Driver/Src/stm32l4xx_hal_hcd.c **** 
 614:Drivers/STM32L4xx_HAL_Driver/Src/stm32l4xx_hal_hcd.c ****   /* NOTE : This function should not be modified, when the callback is needed,
 615:Drivers/STM32L4xx_HAL_Driver/Src/stm32l4xx_hal_hcd.c ****             the HAL_HCD_SOF_Callback could be implemented in the user file
 616:Drivers/STM32L4xx_HAL_Driver/Src/stm32l4xx_hal_hcd.c ****    */
 617:Drivers/STM32L4xx_HAL_Driver/Src/stm32l4xx_hal_hcd.c **** }
 618:Drivers/STM32L4xx_HAL_Driver/Src/stm32l4xx_hal_hcd.c **** 
 619:Drivers/STM32L4xx_HAL_Driver/Src/stm32l4xx_hal_hcd.c **** /**
 620:Drivers/STM32L4xx_HAL_Driver/Src/stm32l4xx_hal_hcd.c ****   * @brief Connection Event callback.
 621:Drivers/STM32L4xx_HAL_Driver/Src/stm32l4xx_hal_hcd.c ****   * @param  hhcd HCD handle
 622:Drivers/STM32L4xx_HAL_Driver/Src/stm32l4xx_hal_hcd.c ****   * @retval None
 623:Drivers/STM32L4xx_HAL_Driver/Src/stm32l4xx_hal_hcd.c ****   */
 624:Drivers/STM32L4xx_HAL_Driver/Src/stm32l4xx_hal_hcd.c **** __weak void HAL_HCD_Connect_Callback(HCD_HandleTypeDef *hhcd)
 625:Drivers/STM32L4xx_HAL_Driver/Src/stm32l4xx_hal_hcd.c **** {
 626:Drivers/STM32L4xx_HAL_Driver/Src/stm32l4xx_hal_hcd.c ****   /* Prevent unused argument(s) compilation warning */
 627:Drivers/STM32L4xx_HAL_Driver/Src/stm32l4xx_hal_hcd.c ****   UNUSED(hhcd);
 628:Drivers/STM32L4xx_HAL_Driver/Src/stm32l4xx_hal_hcd.c **** 
 629:Drivers/STM32L4xx_HAL_Driver/Src/stm32l4xx_hal_hcd.c ****   /* NOTE : This function should not be modified, when the callback is needed,
 630:Drivers/STM32L4xx_HAL_Driver/Src/stm32l4xx_hal_hcd.c ****             the HAL_HCD_Connect_Callback could be implemented in the user file
 631:Drivers/STM32L4xx_HAL_Driver/Src/stm32l4xx_hal_hcd.c ****    */
 632:Drivers/STM32L4xx_HAL_Driver/Src/stm32l4xx_hal_hcd.c **** }
 633:Drivers/STM32L4xx_HAL_Driver/Src/stm32l4xx_hal_hcd.c **** 
 634:Drivers/STM32L4xx_HAL_Driver/Src/stm32l4xx_hal_hcd.c **** /**
 635:Drivers/STM32L4xx_HAL_Driver/Src/stm32l4xx_hal_hcd.c ****   * @brief  Disconnection Event callback.
 636:Drivers/STM32L4xx_HAL_Driver/Src/stm32l4xx_hal_hcd.c ****   * @param  hhcd HCD handle
 637:Drivers/STM32L4xx_HAL_Driver/Src/stm32l4xx_hal_hcd.c ****   * @retval None
 638:Drivers/STM32L4xx_HAL_Driver/Src/stm32l4xx_hal_hcd.c ****   */
 639:Drivers/STM32L4xx_HAL_Driver/Src/stm32l4xx_hal_hcd.c **** __weak void HAL_HCD_Disconnect_Callback(HCD_HandleTypeDef *hhcd)
 640:Drivers/STM32L4xx_HAL_Driver/Src/stm32l4xx_hal_hcd.c **** {
 641:Drivers/STM32L4xx_HAL_Driver/Src/stm32l4xx_hal_hcd.c ****   /* Prevent unused argument(s) compilation warning */
 642:Drivers/STM32L4xx_HAL_Driver/Src/stm32l4xx_hal_hcd.c ****   UNUSED(hhcd);
 643:Drivers/STM32L4xx_HAL_Driver/Src/stm32l4xx_hal_hcd.c **** 
 644:Drivers/STM32L4xx_HAL_Driver/Src/stm32l4xx_hal_hcd.c ****   /* NOTE : This function should not be modified, when the callback is needed,
 645:Drivers/STM32L4xx_HAL_Driver/Src/stm32l4xx_hal_hcd.c ****             the HAL_HCD_Disconnect_Callback could be implemented in the user file
 646:Drivers/STM32L4xx_HAL_Driver/Src/stm32l4xx_hal_hcd.c ****    */
 647:Drivers/STM32L4xx_HAL_Driver/Src/stm32l4xx_hal_hcd.c **** }
 648:Drivers/STM32L4xx_HAL_Driver/Src/stm32l4xx_hal_hcd.c **** 
 649:Drivers/STM32L4xx_HAL_Driver/Src/stm32l4xx_hal_hcd.c **** /**
 650:Drivers/STM32L4xx_HAL_Driver/Src/stm32l4xx_hal_hcd.c ****   * @brief  Port Enabled  Event callback.
 651:Drivers/STM32L4xx_HAL_Driver/Src/stm32l4xx_hal_hcd.c ****   * @param  hhcd HCD handle
 652:Drivers/STM32L4xx_HAL_Driver/Src/stm32l4xx_hal_hcd.c ****   * @retval None
 653:Drivers/STM32L4xx_HAL_Driver/Src/stm32l4xx_hal_hcd.c ****   */
 654:Drivers/STM32L4xx_HAL_Driver/Src/stm32l4xx_hal_hcd.c **** __weak void HAL_HCD_PortEnabled_Callback(HCD_HandleTypeDef *hhcd)
 655:Drivers/STM32L4xx_HAL_Driver/Src/stm32l4xx_hal_hcd.c **** {
 656:Drivers/STM32L4xx_HAL_Driver/Src/stm32l4xx_hal_hcd.c ****   /* Prevent unused argument(s) compilation warning */
 657:Drivers/STM32L4xx_HAL_Driver/Src/stm32l4xx_hal_hcd.c ****   UNUSED(hhcd);
ARM GAS  C:\Users\HP\AppData\Local\Temp\ccGJK0AZ.s 			page 13


 658:Drivers/STM32L4xx_HAL_Driver/Src/stm32l4xx_hal_hcd.c **** 
 659:Drivers/STM32L4xx_HAL_Driver/Src/stm32l4xx_hal_hcd.c ****   /* NOTE : This function should not be modified, when the callback is needed,
 660:Drivers/STM32L4xx_HAL_Driver/Src/stm32l4xx_hal_hcd.c ****             the HAL_HCD_Disconnect_Callback could be implemented in the user file
 661:Drivers/STM32L4xx_HAL_Driver/Src/stm32l4xx_hal_hcd.c ****    */
 662:Drivers/STM32L4xx_HAL_Driver/Src/stm32l4xx_hal_hcd.c **** }
 663:Drivers/STM32L4xx_HAL_Driver/Src/stm32l4xx_hal_hcd.c **** 
 664:Drivers/STM32L4xx_HAL_Driver/Src/stm32l4xx_hal_hcd.c **** /**
 665:Drivers/STM32L4xx_HAL_Driver/Src/stm32l4xx_hal_hcd.c ****   * @brief  Port Disabled  Event callback.
 666:Drivers/STM32L4xx_HAL_Driver/Src/stm32l4xx_hal_hcd.c ****   * @param  hhcd HCD handle
 667:Drivers/STM32L4xx_HAL_Driver/Src/stm32l4xx_hal_hcd.c ****   * @retval None
 668:Drivers/STM32L4xx_HAL_Driver/Src/stm32l4xx_hal_hcd.c ****   */
 669:Drivers/STM32L4xx_HAL_Driver/Src/stm32l4xx_hal_hcd.c **** __weak void HAL_HCD_PortDisabled_Callback(HCD_HandleTypeDef *hhcd)
 670:Drivers/STM32L4xx_HAL_Driver/Src/stm32l4xx_hal_hcd.c **** {
 671:Drivers/STM32L4xx_HAL_Driver/Src/stm32l4xx_hal_hcd.c ****   /* Prevent unused argument(s) compilation warning */
 672:Drivers/STM32L4xx_HAL_Driver/Src/stm32l4xx_hal_hcd.c ****   UNUSED(hhcd);
 673:Drivers/STM32L4xx_HAL_Driver/Src/stm32l4xx_hal_hcd.c **** 
 674:Drivers/STM32L4xx_HAL_Driver/Src/stm32l4xx_hal_hcd.c ****   /* NOTE : This function should not be modified, when the callback is needed,
 675:Drivers/STM32L4xx_HAL_Driver/Src/stm32l4xx_hal_hcd.c ****             the HAL_HCD_Disconnect_Callback could be implemented in the user file
 676:Drivers/STM32L4xx_HAL_Driver/Src/stm32l4xx_hal_hcd.c ****    */
 677:Drivers/STM32L4xx_HAL_Driver/Src/stm32l4xx_hal_hcd.c **** }
 678:Drivers/STM32L4xx_HAL_Driver/Src/stm32l4xx_hal_hcd.c **** 
 679:Drivers/STM32L4xx_HAL_Driver/Src/stm32l4xx_hal_hcd.c **** /**
 680:Drivers/STM32L4xx_HAL_Driver/Src/stm32l4xx_hal_hcd.c ****   * @brief  Notify URB state change callback.
 681:Drivers/STM32L4xx_HAL_Driver/Src/stm32l4xx_hal_hcd.c ****   * @param  hhcd HCD handle
 682:Drivers/STM32L4xx_HAL_Driver/Src/stm32l4xx_hal_hcd.c ****   * @param  chnum Channel number.
 683:Drivers/STM32L4xx_HAL_Driver/Src/stm32l4xx_hal_hcd.c ****   *         This parameter can be a value from 1 to 15
 684:Drivers/STM32L4xx_HAL_Driver/Src/stm32l4xx_hal_hcd.c ****   * @param  urb_state:
 685:Drivers/STM32L4xx_HAL_Driver/Src/stm32l4xx_hal_hcd.c ****   *          This parameter can be one of these values:
 686:Drivers/STM32L4xx_HAL_Driver/Src/stm32l4xx_hal_hcd.c ****   *            URB_IDLE/
 687:Drivers/STM32L4xx_HAL_Driver/Src/stm32l4xx_hal_hcd.c ****   *            URB_DONE/
 688:Drivers/STM32L4xx_HAL_Driver/Src/stm32l4xx_hal_hcd.c ****   *            URB_NOTREADY/
 689:Drivers/STM32L4xx_HAL_Driver/Src/stm32l4xx_hal_hcd.c ****   *            URB_NYET/
 690:Drivers/STM32L4xx_HAL_Driver/Src/stm32l4xx_hal_hcd.c ****   *            URB_ERROR/
 691:Drivers/STM32L4xx_HAL_Driver/Src/stm32l4xx_hal_hcd.c ****   *            URB_STALL/
 692:Drivers/STM32L4xx_HAL_Driver/Src/stm32l4xx_hal_hcd.c ****   * @retval None
 693:Drivers/STM32L4xx_HAL_Driver/Src/stm32l4xx_hal_hcd.c ****   */
 694:Drivers/STM32L4xx_HAL_Driver/Src/stm32l4xx_hal_hcd.c **** __weak void HAL_HCD_HC_NotifyURBChange_Callback(HCD_HandleTypeDef *hhcd, uint8_t chnum, HCD_URBStat
 695:Drivers/STM32L4xx_HAL_Driver/Src/stm32l4xx_hal_hcd.c **** {
 696:Drivers/STM32L4xx_HAL_Driver/Src/stm32l4xx_hal_hcd.c ****   /* Prevent unused argument(s) compilation warning */
 697:Drivers/STM32L4xx_HAL_Driver/Src/stm32l4xx_hal_hcd.c ****   UNUSED(hhcd);
 698:Drivers/STM32L4xx_HAL_Driver/Src/stm32l4xx_hal_hcd.c ****   UNUSED(chnum);
 699:Drivers/STM32L4xx_HAL_Driver/Src/stm32l4xx_hal_hcd.c ****   UNUSED(urb_state);
 700:Drivers/STM32L4xx_HAL_Driver/Src/stm32l4xx_hal_hcd.c **** 
 701:Drivers/STM32L4xx_HAL_Driver/Src/stm32l4xx_hal_hcd.c ****   /* NOTE : This function should not be modified, when the callback is needed,
 702:Drivers/STM32L4xx_HAL_Driver/Src/stm32l4xx_hal_hcd.c ****             the HAL_HCD_HC_NotifyURBChange_Callback could be implemented in the user file
 703:Drivers/STM32L4xx_HAL_Driver/Src/stm32l4xx_hal_hcd.c ****    */
 704:Drivers/STM32L4xx_HAL_Driver/Src/stm32l4xx_hal_hcd.c **** }
 705:Drivers/STM32L4xx_HAL_Driver/Src/stm32l4xx_hal_hcd.c **** 
 706:Drivers/STM32L4xx_HAL_Driver/Src/stm32l4xx_hal_hcd.c **** #if (USE_HAL_HCD_REGISTER_CALLBACKS == 1U)
 707:Drivers/STM32L4xx_HAL_Driver/Src/stm32l4xx_hal_hcd.c **** /**
 708:Drivers/STM32L4xx_HAL_Driver/Src/stm32l4xx_hal_hcd.c ****   * @brief  Register a User USB HCD Callback
 709:Drivers/STM32L4xx_HAL_Driver/Src/stm32l4xx_hal_hcd.c ****   *         To be used instead of the weak predefined callback
 710:Drivers/STM32L4xx_HAL_Driver/Src/stm32l4xx_hal_hcd.c ****   * @param  hhcd USB HCD handle
 711:Drivers/STM32L4xx_HAL_Driver/Src/stm32l4xx_hal_hcd.c ****   * @param  CallbackID ID of the callback to be registered
 712:Drivers/STM32L4xx_HAL_Driver/Src/stm32l4xx_hal_hcd.c ****   *         This parameter can be one of the following values:
 713:Drivers/STM32L4xx_HAL_Driver/Src/stm32l4xx_hal_hcd.c ****   *          @arg @ref HAL_HCD_SOF_CB_ID USB HCD SOF callback ID
 714:Drivers/STM32L4xx_HAL_Driver/Src/stm32l4xx_hal_hcd.c ****   *          @arg @ref HAL_HCD_CONNECT_CB_ID USB HCD Connect callback ID
ARM GAS  C:\Users\HP\AppData\Local\Temp\ccGJK0AZ.s 			page 14


 715:Drivers/STM32L4xx_HAL_Driver/Src/stm32l4xx_hal_hcd.c ****   *          @arg @ref HAL_HCD_DISCONNECT_CB_ID OTG HCD Disconnect callback ID
 716:Drivers/STM32L4xx_HAL_Driver/Src/stm32l4xx_hal_hcd.c ****   *          @arg @ref HAL_HCD_PORT_ENABLED_CB_ID USB HCD Port Enable callback ID
 717:Drivers/STM32L4xx_HAL_Driver/Src/stm32l4xx_hal_hcd.c ****   *          @arg @ref HAL_HCD_PORT_DISABLED_CB_ID USB HCD Port Disable callback ID
 718:Drivers/STM32L4xx_HAL_Driver/Src/stm32l4xx_hal_hcd.c ****   *          @arg @ref HAL_HCD_MSPINIT_CB_ID MspDeInit callback ID
 719:Drivers/STM32L4xx_HAL_Driver/Src/stm32l4xx_hal_hcd.c ****   *          @arg @ref HAL_HCD_MSPDEINIT_CB_ID MspDeInit callback ID
 720:Drivers/STM32L4xx_HAL_Driver/Src/stm32l4xx_hal_hcd.c ****   * @param  pCallback pointer to the Callback function
 721:Drivers/STM32L4xx_HAL_Driver/Src/stm32l4xx_hal_hcd.c ****   * @retval HAL status
 722:Drivers/STM32L4xx_HAL_Driver/Src/stm32l4xx_hal_hcd.c ****   */
 723:Drivers/STM32L4xx_HAL_Driver/Src/stm32l4xx_hal_hcd.c **** HAL_StatusTypeDef HAL_HCD_RegisterCallback(HCD_HandleTypeDef *hhcd,
 724:Drivers/STM32L4xx_HAL_Driver/Src/stm32l4xx_hal_hcd.c ****                                            HAL_HCD_CallbackIDTypeDef CallbackID,
 725:Drivers/STM32L4xx_HAL_Driver/Src/stm32l4xx_hal_hcd.c ****                                            pHCD_CallbackTypeDef pCallback)
 726:Drivers/STM32L4xx_HAL_Driver/Src/stm32l4xx_hal_hcd.c **** {
 727:Drivers/STM32L4xx_HAL_Driver/Src/stm32l4xx_hal_hcd.c ****   HAL_StatusTypeDef status = HAL_OK;
 728:Drivers/STM32L4xx_HAL_Driver/Src/stm32l4xx_hal_hcd.c **** 
 729:Drivers/STM32L4xx_HAL_Driver/Src/stm32l4xx_hal_hcd.c ****   if (pCallback == NULL)
 730:Drivers/STM32L4xx_HAL_Driver/Src/stm32l4xx_hal_hcd.c ****   {
 731:Drivers/STM32L4xx_HAL_Driver/Src/stm32l4xx_hal_hcd.c ****     /* Update the error code */
 732:Drivers/STM32L4xx_HAL_Driver/Src/stm32l4xx_hal_hcd.c ****     hhcd->ErrorCode |= HAL_HCD_ERROR_INVALID_CALLBACK;
 733:Drivers/STM32L4xx_HAL_Driver/Src/stm32l4xx_hal_hcd.c ****     return HAL_ERROR;
 734:Drivers/STM32L4xx_HAL_Driver/Src/stm32l4xx_hal_hcd.c ****   }
 735:Drivers/STM32L4xx_HAL_Driver/Src/stm32l4xx_hal_hcd.c ****   /* Process locked */
 736:Drivers/STM32L4xx_HAL_Driver/Src/stm32l4xx_hal_hcd.c ****   __HAL_LOCK(hhcd);
 737:Drivers/STM32L4xx_HAL_Driver/Src/stm32l4xx_hal_hcd.c **** 
 738:Drivers/STM32L4xx_HAL_Driver/Src/stm32l4xx_hal_hcd.c ****   if (hhcd->State == HAL_HCD_STATE_READY)
 739:Drivers/STM32L4xx_HAL_Driver/Src/stm32l4xx_hal_hcd.c ****   {
 740:Drivers/STM32L4xx_HAL_Driver/Src/stm32l4xx_hal_hcd.c ****     switch (CallbackID)
 741:Drivers/STM32L4xx_HAL_Driver/Src/stm32l4xx_hal_hcd.c ****     {
 742:Drivers/STM32L4xx_HAL_Driver/Src/stm32l4xx_hal_hcd.c ****       case HAL_HCD_SOF_CB_ID :
 743:Drivers/STM32L4xx_HAL_Driver/Src/stm32l4xx_hal_hcd.c ****         hhcd->SOFCallback = pCallback;
 744:Drivers/STM32L4xx_HAL_Driver/Src/stm32l4xx_hal_hcd.c ****         break;
 745:Drivers/STM32L4xx_HAL_Driver/Src/stm32l4xx_hal_hcd.c **** 
 746:Drivers/STM32L4xx_HAL_Driver/Src/stm32l4xx_hal_hcd.c ****       case HAL_HCD_CONNECT_CB_ID :
 747:Drivers/STM32L4xx_HAL_Driver/Src/stm32l4xx_hal_hcd.c ****         hhcd->ConnectCallback = pCallback;
 748:Drivers/STM32L4xx_HAL_Driver/Src/stm32l4xx_hal_hcd.c ****         break;
 749:Drivers/STM32L4xx_HAL_Driver/Src/stm32l4xx_hal_hcd.c **** 
 750:Drivers/STM32L4xx_HAL_Driver/Src/stm32l4xx_hal_hcd.c ****       case HAL_HCD_DISCONNECT_CB_ID :
 751:Drivers/STM32L4xx_HAL_Driver/Src/stm32l4xx_hal_hcd.c ****         hhcd->DisconnectCallback = pCallback;
 752:Drivers/STM32L4xx_HAL_Driver/Src/stm32l4xx_hal_hcd.c ****         break;
 753:Drivers/STM32L4xx_HAL_Driver/Src/stm32l4xx_hal_hcd.c **** 
 754:Drivers/STM32L4xx_HAL_Driver/Src/stm32l4xx_hal_hcd.c ****       case HAL_HCD_PORT_ENABLED_CB_ID :
 755:Drivers/STM32L4xx_HAL_Driver/Src/stm32l4xx_hal_hcd.c ****         hhcd->PortEnabledCallback = pCallback;
 756:Drivers/STM32L4xx_HAL_Driver/Src/stm32l4xx_hal_hcd.c ****         break;
 757:Drivers/STM32L4xx_HAL_Driver/Src/stm32l4xx_hal_hcd.c **** 
 758:Drivers/STM32L4xx_HAL_Driver/Src/stm32l4xx_hal_hcd.c ****       case HAL_HCD_PORT_DISABLED_CB_ID :
 759:Drivers/STM32L4xx_HAL_Driver/Src/stm32l4xx_hal_hcd.c ****         hhcd->PortDisabledCallback = pCallback;
 760:Drivers/STM32L4xx_HAL_Driver/Src/stm32l4xx_hal_hcd.c ****         break;
 761:Drivers/STM32L4xx_HAL_Driver/Src/stm32l4xx_hal_hcd.c **** 
 762:Drivers/STM32L4xx_HAL_Driver/Src/stm32l4xx_hal_hcd.c ****       case HAL_HCD_MSPINIT_CB_ID :
 763:Drivers/STM32L4xx_HAL_Driver/Src/stm32l4xx_hal_hcd.c ****         hhcd->MspInitCallback = pCallback;
 764:Drivers/STM32L4xx_HAL_Driver/Src/stm32l4xx_hal_hcd.c ****         break;
 765:Drivers/STM32L4xx_HAL_Driver/Src/stm32l4xx_hal_hcd.c **** 
 766:Drivers/STM32L4xx_HAL_Driver/Src/stm32l4xx_hal_hcd.c ****       case HAL_HCD_MSPDEINIT_CB_ID :
 767:Drivers/STM32L4xx_HAL_Driver/Src/stm32l4xx_hal_hcd.c ****         hhcd->MspDeInitCallback = pCallback;
 768:Drivers/STM32L4xx_HAL_Driver/Src/stm32l4xx_hal_hcd.c ****         break;
 769:Drivers/STM32L4xx_HAL_Driver/Src/stm32l4xx_hal_hcd.c **** 
 770:Drivers/STM32L4xx_HAL_Driver/Src/stm32l4xx_hal_hcd.c ****       default :
 771:Drivers/STM32L4xx_HAL_Driver/Src/stm32l4xx_hal_hcd.c ****         /* Update the error code */
ARM GAS  C:\Users\HP\AppData\Local\Temp\ccGJK0AZ.s 			page 15


 772:Drivers/STM32L4xx_HAL_Driver/Src/stm32l4xx_hal_hcd.c ****         hhcd->ErrorCode |= HAL_HCD_ERROR_INVALID_CALLBACK;
 773:Drivers/STM32L4xx_HAL_Driver/Src/stm32l4xx_hal_hcd.c ****         /* Return error status */
 774:Drivers/STM32L4xx_HAL_Driver/Src/stm32l4xx_hal_hcd.c ****         status =  HAL_ERROR;
 775:Drivers/STM32L4xx_HAL_Driver/Src/stm32l4xx_hal_hcd.c ****         break;
 776:Drivers/STM32L4xx_HAL_Driver/Src/stm32l4xx_hal_hcd.c ****     }
 777:Drivers/STM32L4xx_HAL_Driver/Src/stm32l4xx_hal_hcd.c ****   }
 778:Drivers/STM32L4xx_HAL_Driver/Src/stm32l4xx_hal_hcd.c ****   else if (hhcd->State == HAL_HCD_STATE_RESET)
 779:Drivers/STM32L4xx_HAL_Driver/Src/stm32l4xx_hal_hcd.c ****   {
 780:Drivers/STM32L4xx_HAL_Driver/Src/stm32l4xx_hal_hcd.c ****     switch (CallbackID)
 781:Drivers/STM32L4xx_HAL_Driver/Src/stm32l4xx_hal_hcd.c ****     {
 782:Drivers/STM32L4xx_HAL_Driver/Src/stm32l4xx_hal_hcd.c ****       case HAL_HCD_MSPINIT_CB_ID :
 783:Drivers/STM32L4xx_HAL_Driver/Src/stm32l4xx_hal_hcd.c ****         hhcd->MspInitCallback = pCallback;
 784:Drivers/STM32L4xx_HAL_Driver/Src/stm32l4xx_hal_hcd.c ****         break;
 785:Drivers/STM32L4xx_HAL_Driver/Src/stm32l4xx_hal_hcd.c **** 
 786:Drivers/STM32L4xx_HAL_Driver/Src/stm32l4xx_hal_hcd.c ****       case HAL_HCD_MSPDEINIT_CB_ID :
 787:Drivers/STM32L4xx_HAL_Driver/Src/stm32l4xx_hal_hcd.c ****         hhcd->MspDeInitCallback = pCallback;
 788:Drivers/STM32L4xx_HAL_Driver/Src/stm32l4xx_hal_hcd.c ****         break;
 789:Drivers/STM32L4xx_HAL_Driver/Src/stm32l4xx_hal_hcd.c **** 
 790:Drivers/STM32L4xx_HAL_Driver/Src/stm32l4xx_hal_hcd.c ****       default :
 791:Drivers/STM32L4xx_HAL_Driver/Src/stm32l4xx_hal_hcd.c ****         /* Update the error code */
 792:Drivers/STM32L4xx_HAL_Driver/Src/stm32l4xx_hal_hcd.c ****         hhcd->ErrorCode |= HAL_HCD_ERROR_INVALID_CALLBACK;
 793:Drivers/STM32L4xx_HAL_Driver/Src/stm32l4xx_hal_hcd.c ****         /* Return error status */
 794:Drivers/STM32L4xx_HAL_Driver/Src/stm32l4xx_hal_hcd.c ****         status =  HAL_ERROR;
 795:Drivers/STM32L4xx_HAL_Driver/Src/stm32l4xx_hal_hcd.c ****         break;
 796:Drivers/STM32L4xx_HAL_Driver/Src/stm32l4xx_hal_hcd.c ****     }
 797:Drivers/STM32L4xx_HAL_Driver/Src/stm32l4xx_hal_hcd.c ****   }
 798:Drivers/STM32L4xx_HAL_Driver/Src/stm32l4xx_hal_hcd.c ****   else
 799:Drivers/STM32L4xx_HAL_Driver/Src/stm32l4xx_hal_hcd.c ****   {
 800:Drivers/STM32L4xx_HAL_Driver/Src/stm32l4xx_hal_hcd.c ****     /* Update the error code */
 801:Drivers/STM32L4xx_HAL_Driver/Src/stm32l4xx_hal_hcd.c ****     hhcd->ErrorCode |= HAL_HCD_ERROR_INVALID_CALLBACK;
 802:Drivers/STM32L4xx_HAL_Driver/Src/stm32l4xx_hal_hcd.c ****     /* Return error status */
 803:Drivers/STM32L4xx_HAL_Driver/Src/stm32l4xx_hal_hcd.c ****     status =  HAL_ERROR;
 804:Drivers/STM32L4xx_HAL_Driver/Src/stm32l4xx_hal_hcd.c ****   }
 805:Drivers/STM32L4xx_HAL_Driver/Src/stm32l4xx_hal_hcd.c **** 
 806:Drivers/STM32L4xx_HAL_Driver/Src/stm32l4xx_hal_hcd.c ****   /* Release Lock */
 807:Drivers/STM32L4xx_HAL_Driver/Src/stm32l4xx_hal_hcd.c ****   __HAL_UNLOCK(hhcd);
 808:Drivers/STM32L4xx_HAL_Driver/Src/stm32l4xx_hal_hcd.c ****   return status;
 809:Drivers/STM32L4xx_HAL_Driver/Src/stm32l4xx_hal_hcd.c **** }
 810:Drivers/STM32L4xx_HAL_Driver/Src/stm32l4xx_hal_hcd.c **** 
 811:Drivers/STM32L4xx_HAL_Driver/Src/stm32l4xx_hal_hcd.c **** /**
 812:Drivers/STM32L4xx_HAL_Driver/Src/stm32l4xx_hal_hcd.c ****   * @brief  Unregister an USB HCD Callback
 813:Drivers/STM32L4xx_HAL_Driver/Src/stm32l4xx_hal_hcd.c ****   *         USB HCD callback is redirected to the weak predefined callback
 814:Drivers/STM32L4xx_HAL_Driver/Src/stm32l4xx_hal_hcd.c ****   * @param  hhcd USB HCD handle
 815:Drivers/STM32L4xx_HAL_Driver/Src/stm32l4xx_hal_hcd.c ****   * @param  CallbackID ID of the callback to be unregistered
 816:Drivers/STM32L4xx_HAL_Driver/Src/stm32l4xx_hal_hcd.c ****   *         This parameter can be one of the following values:
 817:Drivers/STM32L4xx_HAL_Driver/Src/stm32l4xx_hal_hcd.c ****   *          @arg @ref HAL_HCD_SOF_CB_ID USB HCD SOF callback ID
 818:Drivers/STM32L4xx_HAL_Driver/Src/stm32l4xx_hal_hcd.c ****   *          @arg @ref HAL_HCD_CONNECT_CB_ID USB HCD Connect callback ID
 819:Drivers/STM32L4xx_HAL_Driver/Src/stm32l4xx_hal_hcd.c ****   *          @arg @ref HAL_HCD_DISCONNECT_CB_ID OTG HCD Disconnect callback ID
 820:Drivers/STM32L4xx_HAL_Driver/Src/stm32l4xx_hal_hcd.c ****   *          @arg @ref HAL_HCD_PORT_ENABLED_CB_ID USB HCD Port Enabled callback ID
 821:Drivers/STM32L4xx_HAL_Driver/Src/stm32l4xx_hal_hcd.c ****   *          @arg @ref HAL_HCD_PORT_DISABLED_CB_ID USB HCD Port Disabled callback ID
 822:Drivers/STM32L4xx_HAL_Driver/Src/stm32l4xx_hal_hcd.c ****   *          @arg @ref HAL_HCD_MSPINIT_CB_ID MspDeInit callback ID
 823:Drivers/STM32L4xx_HAL_Driver/Src/stm32l4xx_hal_hcd.c ****   *          @arg @ref HAL_HCD_MSPDEINIT_CB_ID MspDeInit callback ID
 824:Drivers/STM32L4xx_HAL_Driver/Src/stm32l4xx_hal_hcd.c ****   * @retval HAL status
 825:Drivers/STM32L4xx_HAL_Driver/Src/stm32l4xx_hal_hcd.c ****   */
 826:Drivers/STM32L4xx_HAL_Driver/Src/stm32l4xx_hal_hcd.c **** HAL_StatusTypeDef HAL_HCD_UnRegisterCallback(HCD_HandleTypeDef *hhcd, HAL_HCD_CallbackIDTypeDef Cal
 827:Drivers/STM32L4xx_HAL_Driver/Src/stm32l4xx_hal_hcd.c **** {
 828:Drivers/STM32L4xx_HAL_Driver/Src/stm32l4xx_hal_hcd.c ****   HAL_StatusTypeDef status = HAL_OK;
ARM GAS  C:\Users\HP\AppData\Local\Temp\ccGJK0AZ.s 			page 16


 829:Drivers/STM32L4xx_HAL_Driver/Src/stm32l4xx_hal_hcd.c **** 
 830:Drivers/STM32L4xx_HAL_Driver/Src/stm32l4xx_hal_hcd.c ****   /* Process locked */
 831:Drivers/STM32L4xx_HAL_Driver/Src/stm32l4xx_hal_hcd.c ****   __HAL_LOCK(hhcd);
 832:Drivers/STM32L4xx_HAL_Driver/Src/stm32l4xx_hal_hcd.c **** 
 833:Drivers/STM32L4xx_HAL_Driver/Src/stm32l4xx_hal_hcd.c ****   /* Setup Legacy weak Callbacks  */
 834:Drivers/STM32L4xx_HAL_Driver/Src/stm32l4xx_hal_hcd.c ****   if (hhcd->State == HAL_HCD_STATE_READY)
 835:Drivers/STM32L4xx_HAL_Driver/Src/stm32l4xx_hal_hcd.c ****   {
 836:Drivers/STM32L4xx_HAL_Driver/Src/stm32l4xx_hal_hcd.c ****     switch (CallbackID)
 837:Drivers/STM32L4xx_HAL_Driver/Src/stm32l4xx_hal_hcd.c ****     {
 838:Drivers/STM32L4xx_HAL_Driver/Src/stm32l4xx_hal_hcd.c ****       case HAL_HCD_SOF_CB_ID :
 839:Drivers/STM32L4xx_HAL_Driver/Src/stm32l4xx_hal_hcd.c ****         hhcd->SOFCallback = HAL_HCD_SOF_Callback;
 840:Drivers/STM32L4xx_HAL_Driver/Src/stm32l4xx_hal_hcd.c ****         break;
 841:Drivers/STM32L4xx_HAL_Driver/Src/stm32l4xx_hal_hcd.c **** 
 842:Drivers/STM32L4xx_HAL_Driver/Src/stm32l4xx_hal_hcd.c ****       case HAL_HCD_CONNECT_CB_ID :
 843:Drivers/STM32L4xx_HAL_Driver/Src/stm32l4xx_hal_hcd.c ****         hhcd->ConnectCallback = HAL_HCD_Connect_Callback;
 844:Drivers/STM32L4xx_HAL_Driver/Src/stm32l4xx_hal_hcd.c ****         break;
 845:Drivers/STM32L4xx_HAL_Driver/Src/stm32l4xx_hal_hcd.c **** 
 846:Drivers/STM32L4xx_HAL_Driver/Src/stm32l4xx_hal_hcd.c ****       case HAL_HCD_DISCONNECT_CB_ID :
 847:Drivers/STM32L4xx_HAL_Driver/Src/stm32l4xx_hal_hcd.c ****         hhcd->DisconnectCallback = HAL_HCD_Disconnect_Callback;
 848:Drivers/STM32L4xx_HAL_Driver/Src/stm32l4xx_hal_hcd.c ****         break;
 849:Drivers/STM32L4xx_HAL_Driver/Src/stm32l4xx_hal_hcd.c **** 
 850:Drivers/STM32L4xx_HAL_Driver/Src/stm32l4xx_hal_hcd.c ****       case HAL_HCD_PORT_ENABLED_CB_ID :
 851:Drivers/STM32L4xx_HAL_Driver/Src/stm32l4xx_hal_hcd.c ****         hhcd->PortEnabledCallback = HAL_HCD_PortEnabled_Callback;
 852:Drivers/STM32L4xx_HAL_Driver/Src/stm32l4xx_hal_hcd.c ****         break;
 853:Drivers/STM32L4xx_HAL_Driver/Src/stm32l4xx_hal_hcd.c **** 
 854:Drivers/STM32L4xx_HAL_Driver/Src/stm32l4xx_hal_hcd.c ****       case HAL_HCD_PORT_DISABLED_CB_ID :
 855:Drivers/STM32L4xx_HAL_Driver/Src/stm32l4xx_hal_hcd.c ****         hhcd->PortDisabledCallback = HAL_HCD_PortDisabled_Callback;
 856:Drivers/STM32L4xx_HAL_Driver/Src/stm32l4xx_hal_hcd.c ****         break;
 857:Drivers/STM32L4xx_HAL_Driver/Src/stm32l4xx_hal_hcd.c **** 
 858:Drivers/STM32L4xx_HAL_Driver/Src/stm32l4xx_hal_hcd.c ****       case HAL_HCD_MSPINIT_CB_ID :
 859:Drivers/STM32L4xx_HAL_Driver/Src/stm32l4xx_hal_hcd.c ****         hhcd->MspInitCallback = HAL_HCD_MspInit;
 860:Drivers/STM32L4xx_HAL_Driver/Src/stm32l4xx_hal_hcd.c ****         break;
 861:Drivers/STM32L4xx_HAL_Driver/Src/stm32l4xx_hal_hcd.c **** 
 862:Drivers/STM32L4xx_HAL_Driver/Src/stm32l4xx_hal_hcd.c ****       case HAL_HCD_MSPDEINIT_CB_ID :
 863:Drivers/STM32L4xx_HAL_Driver/Src/stm32l4xx_hal_hcd.c ****         hhcd->MspDeInitCallback = HAL_HCD_MspDeInit;
 864:Drivers/STM32L4xx_HAL_Driver/Src/stm32l4xx_hal_hcd.c ****         break;
 865:Drivers/STM32L4xx_HAL_Driver/Src/stm32l4xx_hal_hcd.c **** 
 866:Drivers/STM32L4xx_HAL_Driver/Src/stm32l4xx_hal_hcd.c ****       default :
 867:Drivers/STM32L4xx_HAL_Driver/Src/stm32l4xx_hal_hcd.c ****         /* Update the error code */
 868:Drivers/STM32L4xx_HAL_Driver/Src/stm32l4xx_hal_hcd.c ****         hhcd->ErrorCode |= HAL_HCD_ERROR_INVALID_CALLBACK;
 869:Drivers/STM32L4xx_HAL_Driver/Src/stm32l4xx_hal_hcd.c **** 
 870:Drivers/STM32L4xx_HAL_Driver/Src/stm32l4xx_hal_hcd.c ****         /* Return error status */
 871:Drivers/STM32L4xx_HAL_Driver/Src/stm32l4xx_hal_hcd.c ****         status =  HAL_ERROR;
 872:Drivers/STM32L4xx_HAL_Driver/Src/stm32l4xx_hal_hcd.c ****         break;
 873:Drivers/STM32L4xx_HAL_Driver/Src/stm32l4xx_hal_hcd.c ****     }
 874:Drivers/STM32L4xx_HAL_Driver/Src/stm32l4xx_hal_hcd.c ****   }
 875:Drivers/STM32L4xx_HAL_Driver/Src/stm32l4xx_hal_hcd.c ****   else if (hhcd->State == HAL_HCD_STATE_RESET)
 876:Drivers/STM32L4xx_HAL_Driver/Src/stm32l4xx_hal_hcd.c ****   {
 877:Drivers/STM32L4xx_HAL_Driver/Src/stm32l4xx_hal_hcd.c ****     switch (CallbackID)
 878:Drivers/STM32L4xx_HAL_Driver/Src/stm32l4xx_hal_hcd.c ****     {
 879:Drivers/STM32L4xx_HAL_Driver/Src/stm32l4xx_hal_hcd.c ****       case HAL_HCD_MSPINIT_CB_ID :
 880:Drivers/STM32L4xx_HAL_Driver/Src/stm32l4xx_hal_hcd.c ****         hhcd->MspInitCallback = HAL_HCD_MspInit;
 881:Drivers/STM32L4xx_HAL_Driver/Src/stm32l4xx_hal_hcd.c ****         break;
 882:Drivers/STM32L4xx_HAL_Driver/Src/stm32l4xx_hal_hcd.c **** 
 883:Drivers/STM32L4xx_HAL_Driver/Src/stm32l4xx_hal_hcd.c ****       case HAL_HCD_MSPDEINIT_CB_ID :
 884:Drivers/STM32L4xx_HAL_Driver/Src/stm32l4xx_hal_hcd.c ****         hhcd->MspDeInitCallback = HAL_HCD_MspDeInit;
 885:Drivers/STM32L4xx_HAL_Driver/Src/stm32l4xx_hal_hcd.c ****         break;
ARM GAS  C:\Users\HP\AppData\Local\Temp\ccGJK0AZ.s 			page 17


 886:Drivers/STM32L4xx_HAL_Driver/Src/stm32l4xx_hal_hcd.c **** 
 887:Drivers/STM32L4xx_HAL_Driver/Src/stm32l4xx_hal_hcd.c ****       default :
 888:Drivers/STM32L4xx_HAL_Driver/Src/stm32l4xx_hal_hcd.c ****         /* Update the error code */
 889:Drivers/STM32L4xx_HAL_Driver/Src/stm32l4xx_hal_hcd.c ****         hhcd->ErrorCode |= HAL_HCD_ERROR_INVALID_CALLBACK;
 890:Drivers/STM32L4xx_HAL_Driver/Src/stm32l4xx_hal_hcd.c **** 
 891:Drivers/STM32L4xx_HAL_Driver/Src/stm32l4xx_hal_hcd.c ****         /* Return error status */
 892:Drivers/STM32L4xx_HAL_Driver/Src/stm32l4xx_hal_hcd.c ****         status =  HAL_ERROR;
 893:Drivers/STM32L4xx_HAL_Driver/Src/stm32l4xx_hal_hcd.c ****         break;
 894:Drivers/STM32L4xx_HAL_Driver/Src/stm32l4xx_hal_hcd.c ****     }
 895:Drivers/STM32L4xx_HAL_Driver/Src/stm32l4xx_hal_hcd.c ****   }
 896:Drivers/STM32L4xx_HAL_Driver/Src/stm32l4xx_hal_hcd.c ****   else
 897:Drivers/STM32L4xx_HAL_Driver/Src/stm32l4xx_hal_hcd.c ****   {
 898:Drivers/STM32L4xx_HAL_Driver/Src/stm32l4xx_hal_hcd.c ****     /* Update the error code */
 899:Drivers/STM32L4xx_HAL_Driver/Src/stm32l4xx_hal_hcd.c ****     hhcd->ErrorCode |= HAL_HCD_ERROR_INVALID_CALLBACK;
 900:Drivers/STM32L4xx_HAL_Driver/Src/stm32l4xx_hal_hcd.c **** 
 901:Drivers/STM32L4xx_HAL_Driver/Src/stm32l4xx_hal_hcd.c ****     /* Return error status */
 902:Drivers/STM32L4xx_HAL_Driver/Src/stm32l4xx_hal_hcd.c ****     status =  HAL_ERROR;
 903:Drivers/STM32L4xx_HAL_Driver/Src/stm32l4xx_hal_hcd.c ****   }
 904:Drivers/STM32L4xx_HAL_Driver/Src/stm32l4xx_hal_hcd.c **** 
 905:Drivers/STM32L4xx_HAL_Driver/Src/stm32l4xx_hal_hcd.c ****   /* Release Lock */
 906:Drivers/STM32L4xx_HAL_Driver/Src/stm32l4xx_hal_hcd.c ****   __HAL_UNLOCK(hhcd);
 907:Drivers/STM32L4xx_HAL_Driver/Src/stm32l4xx_hal_hcd.c ****   return status;
 908:Drivers/STM32L4xx_HAL_Driver/Src/stm32l4xx_hal_hcd.c **** }
 909:Drivers/STM32L4xx_HAL_Driver/Src/stm32l4xx_hal_hcd.c **** 
 910:Drivers/STM32L4xx_HAL_Driver/Src/stm32l4xx_hal_hcd.c **** /**
 911:Drivers/STM32L4xx_HAL_Driver/Src/stm32l4xx_hal_hcd.c ****   * @brief  Register USB HCD Host Channel Notify URB Change Callback
 912:Drivers/STM32L4xx_HAL_Driver/Src/stm32l4xx_hal_hcd.c ****   *         To be used instead of the weak HAL_HCD_HC_NotifyURBChange_Callback() predefined callbac
 913:Drivers/STM32L4xx_HAL_Driver/Src/stm32l4xx_hal_hcd.c ****   * @param  hhcd HCD handle
 914:Drivers/STM32L4xx_HAL_Driver/Src/stm32l4xx_hal_hcd.c ****   * @param  pCallback pointer to the USB HCD Host Channel Notify URB Change Callback function
 915:Drivers/STM32L4xx_HAL_Driver/Src/stm32l4xx_hal_hcd.c ****   * @retval HAL status
 916:Drivers/STM32L4xx_HAL_Driver/Src/stm32l4xx_hal_hcd.c ****   */
 917:Drivers/STM32L4xx_HAL_Driver/Src/stm32l4xx_hal_hcd.c **** HAL_StatusTypeDef HAL_HCD_RegisterHC_NotifyURBChangeCallback(HCD_HandleTypeDef *hhcd,
 918:Drivers/STM32L4xx_HAL_Driver/Src/stm32l4xx_hal_hcd.c ****                                                              pHCD_HC_NotifyURBChangeCallbackTypeDef
 919:Drivers/STM32L4xx_HAL_Driver/Src/stm32l4xx_hal_hcd.c **** {
 920:Drivers/STM32L4xx_HAL_Driver/Src/stm32l4xx_hal_hcd.c ****   HAL_StatusTypeDef status = HAL_OK;
 921:Drivers/STM32L4xx_HAL_Driver/Src/stm32l4xx_hal_hcd.c **** 
 922:Drivers/STM32L4xx_HAL_Driver/Src/stm32l4xx_hal_hcd.c ****   if (pCallback == NULL)
 923:Drivers/STM32L4xx_HAL_Driver/Src/stm32l4xx_hal_hcd.c ****   {
 924:Drivers/STM32L4xx_HAL_Driver/Src/stm32l4xx_hal_hcd.c ****     /* Update the error code */
 925:Drivers/STM32L4xx_HAL_Driver/Src/stm32l4xx_hal_hcd.c ****     hhcd->ErrorCode |= HAL_HCD_ERROR_INVALID_CALLBACK;
 926:Drivers/STM32L4xx_HAL_Driver/Src/stm32l4xx_hal_hcd.c **** 
 927:Drivers/STM32L4xx_HAL_Driver/Src/stm32l4xx_hal_hcd.c ****     return HAL_ERROR;
 928:Drivers/STM32L4xx_HAL_Driver/Src/stm32l4xx_hal_hcd.c ****   }
 929:Drivers/STM32L4xx_HAL_Driver/Src/stm32l4xx_hal_hcd.c **** 
 930:Drivers/STM32L4xx_HAL_Driver/Src/stm32l4xx_hal_hcd.c ****   /* Process locked */
 931:Drivers/STM32L4xx_HAL_Driver/Src/stm32l4xx_hal_hcd.c ****   __HAL_LOCK(hhcd);
 932:Drivers/STM32L4xx_HAL_Driver/Src/stm32l4xx_hal_hcd.c **** 
 933:Drivers/STM32L4xx_HAL_Driver/Src/stm32l4xx_hal_hcd.c ****   if (hhcd->State == HAL_HCD_STATE_READY)
 934:Drivers/STM32L4xx_HAL_Driver/Src/stm32l4xx_hal_hcd.c ****   {
 935:Drivers/STM32L4xx_HAL_Driver/Src/stm32l4xx_hal_hcd.c ****     hhcd->HC_NotifyURBChangeCallback = pCallback;
 936:Drivers/STM32L4xx_HAL_Driver/Src/stm32l4xx_hal_hcd.c ****   }
 937:Drivers/STM32L4xx_HAL_Driver/Src/stm32l4xx_hal_hcd.c ****   else
 938:Drivers/STM32L4xx_HAL_Driver/Src/stm32l4xx_hal_hcd.c ****   {
 939:Drivers/STM32L4xx_HAL_Driver/Src/stm32l4xx_hal_hcd.c ****     /* Update the error code */
 940:Drivers/STM32L4xx_HAL_Driver/Src/stm32l4xx_hal_hcd.c ****     hhcd->ErrorCode |= HAL_HCD_ERROR_INVALID_CALLBACK;
 941:Drivers/STM32L4xx_HAL_Driver/Src/stm32l4xx_hal_hcd.c **** 
 942:Drivers/STM32L4xx_HAL_Driver/Src/stm32l4xx_hal_hcd.c ****     /* Return error status */
ARM GAS  C:\Users\HP\AppData\Local\Temp\ccGJK0AZ.s 			page 18


 943:Drivers/STM32L4xx_HAL_Driver/Src/stm32l4xx_hal_hcd.c ****     status =  HAL_ERROR;
 944:Drivers/STM32L4xx_HAL_Driver/Src/stm32l4xx_hal_hcd.c ****   }
 945:Drivers/STM32L4xx_HAL_Driver/Src/stm32l4xx_hal_hcd.c **** 
 946:Drivers/STM32L4xx_HAL_Driver/Src/stm32l4xx_hal_hcd.c ****   /* Release Lock */
 947:Drivers/STM32L4xx_HAL_Driver/Src/stm32l4xx_hal_hcd.c ****   __HAL_UNLOCK(hhcd);
 948:Drivers/STM32L4xx_HAL_Driver/Src/stm32l4xx_hal_hcd.c **** 
 949:Drivers/STM32L4xx_HAL_Driver/Src/stm32l4xx_hal_hcd.c ****   return status;
 950:Drivers/STM32L4xx_HAL_Driver/Src/stm32l4xx_hal_hcd.c **** }
 951:Drivers/STM32L4xx_HAL_Driver/Src/stm32l4xx_hal_hcd.c **** 
 952:Drivers/STM32L4xx_HAL_Driver/Src/stm32l4xx_hal_hcd.c **** /**
 953:Drivers/STM32L4xx_HAL_Driver/Src/stm32l4xx_hal_hcd.c ****   * @brief  Unregister the USB HCD Host Channel Notify URB Change Callback
 954:Drivers/STM32L4xx_HAL_Driver/Src/stm32l4xx_hal_hcd.c ****   *         USB HCD Host Channel Notify URB Change Callback is redirected
 955:Drivers/STM32L4xx_HAL_Driver/Src/stm32l4xx_hal_hcd.c ****   *         to the weak HAL_HCD_HC_NotifyURBChange_Callback() predefined callback
 956:Drivers/STM32L4xx_HAL_Driver/Src/stm32l4xx_hal_hcd.c ****   * @param  hhcd HCD handle
 957:Drivers/STM32L4xx_HAL_Driver/Src/stm32l4xx_hal_hcd.c ****   * @retval HAL status
 958:Drivers/STM32L4xx_HAL_Driver/Src/stm32l4xx_hal_hcd.c ****   */
 959:Drivers/STM32L4xx_HAL_Driver/Src/stm32l4xx_hal_hcd.c **** HAL_StatusTypeDef HAL_HCD_UnRegisterHC_NotifyURBChangeCallback(HCD_HandleTypeDef *hhcd)
 960:Drivers/STM32L4xx_HAL_Driver/Src/stm32l4xx_hal_hcd.c **** {
 961:Drivers/STM32L4xx_HAL_Driver/Src/stm32l4xx_hal_hcd.c ****   HAL_StatusTypeDef status = HAL_OK;
 962:Drivers/STM32L4xx_HAL_Driver/Src/stm32l4xx_hal_hcd.c **** 
 963:Drivers/STM32L4xx_HAL_Driver/Src/stm32l4xx_hal_hcd.c ****   /* Process locked */
 964:Drivers/STM32L4xx_HAL_Driver/Src/stm32l4xx_hal_hcd.c ****   __HAL_LOCK(hhcd);
 965:Drivers/STM32L4xx_HAL_Driver/Src/stm32l4xx_hal_hcd.c **** 
 966:Drivers/STM32L4xx_HAL_Driver/Src/stm32l4xx_hal_hcd.c ****   if (hhcd->State == HAL_HCD_STATE_READY)
 967:Drivers/STM32L4xx_HAL_Driver/Src/stm32l4xx_hal_hcd.c ****   {
 968:Drivers/STM32L4xx_HAL_Driver/Src/stm32l4xx_hal_hcd.c ****     hhcd->HC_NotifyURBChangeCallback = HAL_HCD_HC_NotifyURBChange_Callback; /* Legacy weak DataOutS
 969:Drivers/STM32L4xx_HAL_Driver/Src/stm32l4xx_hal_hcd.c ****   }
 970:Drivers/STM32L4xx_HAL_Driver/Src/stm32l4xx_hal_hcd.c ****   else
 971:Drivers/STM32L4xx_HAL_Driver/Src/stm32l4xx_hal_hcd.c ****   {
 972:Drivers/STM32L4xx_HAL_Driver/Src/stm32l4xx_hal_hcd.c ****     /* Update the error code */
 973:Drivers/STM32L4xx_HAL_Driver/Src/stm32l4xx_hal_hcd.c ****     hhcd->ErrorCode |= HAL_HCD_ERROR_INVALID_CALLBACK;
 974:Drivers/STM32L4xx_HAL_Driver/Src/stm32l4xx_hal_hcd.c **** 
 975:Drivers/STM32L4xx_HAL_Driver/Src/stm32l4xx_hal_hcd.c ****     /* Return error status */
 976:Drivers/STM32L4xx_HAL_Driver/Src/stm32l4xx_hal_hcd.c ****     status =  HAL_ERROR;
 977:Drivers/STM32L4xx_HAL_Driver/Src/stm32l4xx_hal_hcd.c ****   }
 978:Drivers/STM32L4xx_HAL_Driver/Src/stm32l4xx_hal_hcd.c **** 
 979:Drivers/STM32L4xx_HAL_Driver/Src/stm32l4xx_hal_hcd.c ****   /* Release Lock */
 980:Drivers/STM32L4xx_HAL_Driver/Src/stm32l4xx_hal_hcd.c ****   __HAL_UNLOCK(hhcd);
 981:Drivers/STM32L4xx_HAL_Driver/Src/stm32l4xx_hal_hcd.c **** 
 982:Drivers/STM32L4xx_HAL_Driver/Src/stm32l4xx_hal_hcd.c ****   return status;
 983:Drivers/STM32L4xx_HAL_Driver/Src/stm32l4xx_hal_hcd.c **** }
 984:Drivers/STM32L4xx_HAL_Driver/Src/stm32l4xx_hal_hcd.c **** #endif /* USE_HAL_HCD_REGISTER_CALLBACKS */
 985:Drivers/STM32L4xx_HAL_Driver/Src/stm32l4xx_hal_hcd.c **** 
 986:Drivers/STM32L4xx_HAL_Driver/Src/stm32l4xx_hal_hcd.c **** /**
 987:Drivers/STM32L4xx_HAL_Driver/Src/stm32l4xx_hal_hcd.c ****   * @}
 988:Drivers/STM32L4xx_HAL_Driver/Src/stm32l4xx_hal_hcd.c ****   */
 989:Drivers/STM32L4xx_HAL_Driver/Src/stm32l4xx_hal_hcd.c **** 
 990:Drivers/STM32L4xx_HAL_Driver/Src/stm32l4xx_hal_hcd.c **** /** @defgroup HCD_Exported_Functions_Group3 Peripheral Control functions
 991:Drivers/STM32L4xx_HAL_Driver/Src/stm32l4xx_hal_hcd.c ****   *  @brief   Management functions
 992:Drivers/STM32L4xx_HAL_Driver/Src/stm32l4xx_hal_hcd.c ****   *
 993:Drivers/STM32L4xx_HAL_Driver/Src/stm32l4xx_hal_hcd.c **** @verbatim
 994:Drivers/STM32L4xx_HAL_Driver/Src/stm32l4xx_hal_hcd.c ****  ===============================================================================
 995:Drivers/STM32L4xx_HAL_Driver/Src/stm32l4xx_hal_hcd.c ****                       ##### Peripheral Control functions #####
 996:Drivers/STM32L4xx_HAL_Driver/Src/stm32l4xx_hal_hcd.c ****  ===============================================================================
 997:Drivers/STM32L4xx_HAL_Driver/Src/stm32l4xx_hal_hcd.c ****     [..]
 998:Drivers/STM32L4xx_HAL_Driver/Src/stm32l4xx_hal_hcd.c ****     This subsection provides a set of functions allowing to control the HCD data
 999:Drivers/STM32L4xx_HAL_Driver/Src/stm32l4xx_hal_hcd.c ****     transfers.
ARM GAS  C:\Users\HP\AppData\Local\Temp\ccGJK0AZ.s 			page 19


1000:Drivers/STM32L4xx_HAL_Driver/Src/stm32l4xx_hal_hcd.c **** 
1001:Drivers/STM32L4xx_HAL_Driver/Src/stm32l4xx_hal_hcd.c **** @endverbatim
1002:Drivers/STM32L4xx_HAL_Driver/Src/stm32l4xx_hal_hcd.c ****   * @{
1003:Drivers/STM32L4xx_HAL_Driver/Src/stm32l4xx_hal_hcd.c ****   */
1004:Drivers/STM32L4xx_HAL_Driver/Src/stm32l4xx_hal_hcd.c **** 
1005:Drivers/STM32L4xx_HAL_Driver/Src/stm32l4xx_hal_hcd.c **** /**
1006:Drivers/STM32L4xx_HAL_Driver/Src/stm32l4xx_hal_hcd.c ****   * @brief  Start the host driver.
1007:Drivers/STM32L4xx_HAL_Driver/Src/stm32l4xx_hal_hcd.c ****   * @param  hhcd HCD handle
1008:Drivers/STM32L4xx_HAL_Driver/Src/stm32l4xx_hal_hcd.c ****   * @retval HAL status
1009:Drivers/STM32L4xx_HAL_Driver/Src/stm32l4xx_hal_hcd.c ****   */
1010:Drivers/STM32L4xx_HAL_Driver/Src/stm32l4xx_hal_hcd.c **** HAL_StatusTypeDef HAL_HCD_Start(HCD_HandleTypeDef *hhcd)
1011:Drivers/STM32L4xx_HAL_Driver/Src/stm32l4xx_hal_hcd.c **** {
1012:Drivers/STM32L4xx_HAL_Driver/Src/stm32l4xx_hal_hcd.c ****   __HAL_LOCK(hhcd);
1013:Drivers/STM32L4xx_HAL_Driver/Src/stm32l4xx_hal_hcd.c ****   /* Enable port power */
1014:Drivers/STM32L4xx_HAL_Driver/Src/stm32l4xx_hal_hcd.c ****   (void)USB_DriveVbus(hhcd->Instance, 1U);
1015:Drivers/STM32L4xx_HAL_Driver/Src/stm32l4xx_hal_hcd.c **** 
1016:Drivers/STM32L4xx_HAL_Driver/Src/stm32l4xx_hal_hcd.c ****   /* Enable global interrupt */
1017:Drivers/STM32L4xx_HAL_Driver/Src/stm32l4xx_hal_hcd.c ****   __HAL_HCD_ENABLE(hhcd);
1018:Drivers/STM32L4xx_HAL_Driver/Src/stm32l4xx_hal_hcd.c ****   __HAL_UNLOCK(hhcd);
1019:Drivers/STM32L4xx_HAL_Driver/Src/stm32l4xx_hal_hcd.c **** 
1020:Drivers/STM32L4xx_HAL_Driver/Src/stm32l4xx_hal_hcd.c ****   return HAL_OK;
1021:Drivers/STM32L4xx_HAL_Driver/Src/stm32l4xx_hal_hcd.c **** }
1022:Drivers/STM32L4xx_HAL_Driver/Src/stm32l4xx_hal_hcd.c **** 
1023:Drivers/STM32L4xx_HAL_Driver/Src/stm32l4xx_hal_hcd.c **** /**
1024:Drivers/STM32L4xx_HAL_Driver/Src/stm32l4xx_hal_hcd.c ****   * @brief  Stop the host driver.
1025:Drivers/STM32L4xx_HAL_Driver/Src/stm32l4xx_hal_hcd.c ****   * @param  hhcd HCD handle
1026:Drivers/STM32L4xx_HAL_Driver/Src/stm32l4xx_hal_hcd.c ****   * @retval HAL status
1027:Drivers/STM32L4xx_HAL_Driver/Src/stm32l4xx_hal_hcd.c ****   */
1028:Drivers/STM32L4xx_HAL_Driver/Src/stm32l4xx_hal_hcd.c **** 
1029:Drivers/STM32L4xx_HAL_Driver/Src/stm32l4xx_hal_hcd.c **** HAL_StatusTypeDef HAL_HCD_Stop(HCD_HandleTypeDef *hhcd)
1030:Drivers/STM32L4xx_HAL_Driver/Src/stm32l4xx_hal_hcd.c **** {
1031:Drivers/STM32L4xx_HAL_Driver/Src/stm32l4xx_hal_hcd.c ****   __HAL_LOCK(hhcd);
1032:Drivers/STM32L4xx_HAL_Driver/Src/stm32l4xx_hal_hcd.c ****   (void)USB_StopHost(hhcd->Instance);
1033:Drivers/STM32L4xx_HAL_Driver/Src/stm32l4xx_hal_hcd.c ****   __HAL_UNLOCK(hhcd);
1034:Drivers/STM32L4xx_HAL_Driver/Src/stm32l4xx_hal_hcd.c **** 
1035:Drivers/STM32L4xx_HAL_Driver/Src/stm32l4xx_hal_hcd.c ****   return HAL_OK;
1036:Drivers/STM32L4xx_HAL_Driver/Src/stm32l4xx_hal_hcd.c **** }
1037:Drivers/STM32L4xx_HAL_Driver/Src/stm32l4xx_hal_hcd.c **** 
1038:Drivers/STM32L4xx_HAL_Driver/Src/stm32l4xx_hal_hcd.c **** /**
1039:Drivers/STM32L4xx_HAL_Driver/Src/stm32l4xx_hal_hcd.c ****   * @brief  Reset the host port.
1040:Drivers/STM32L4xx_HAL_Driver/Src/stm32l4xx_hal_hcd.c ****   * @param  hhcd HCD handle
1041:Drivers/STM32L4xx_HAL_Driver/Src/stm32l4xx_hal_hcd.c ****   * @retval HAL status
1042:Drivers/STM32L4xx_HAL_Driver/Src/stm32l4xx_hal_hcd.c ****   */
1043:Drivers/STM32L4xx_HAL_Driver/Src/stm32l4xx_hal_hcd.c **** HAL_StatusTypeDef HAL_HCD_ResetPort(HCD_HandleTypeDef *hhcd)
1044:Drivers/STM32L4xx_HAL_Driver/Src/stm32l4xx_hal_hcd.c **** {
1045:Drivers/STM32L4xx_HAL_Driver/Src/stm32l4xx_hal_hcd.c ****   return (USB_ResetPort(hhcd->Instance));
1046:Drivers/STM32L4xx_HAL_Driver/Src/stm32l4xx_hal_hcd.c **** }
1047:Drivers/STM32L4xx_HAL_Driver/Src/stm32l4xx_hal_hcd.c **** 
1048:Drivers/STM32L4xx_HAL_Driver/Src/stm32l4xx_hal_hcd.c **** /**
1049:Drivers/STM32L4xx_HAL_Driver/Src/stm32l4xx_hal_hcd.c ****   * @}
1050:Drivers/STM32L4xx_HAL_Driver/Src/stm32l4xx_hal_hcd.c ****   */
1051:Drivers/STM32L4xx_HAL_Driver/Src/stm32l4xx_hal_hcd.c **** 
1052:Drivers/STM32L4xx_HAL_Driver/Src/stm32l4xx_hal_hcd.c **** /** @defgroup HCD_Exported_Functions_Group4 Peripheral State functions
1053:Drivers/STM32L4xx_HAL_Driver/Src/stm32l4xx_hal_hcd.c ****   *  @brief   Peripheral State functions
1054:Drivers/STM32L4xx_HAL_Driver/Src/stm32l4xx_hal_hcd.c ****   *
1055:Drivers/STM32L4xx_HAL_Driver/Src/stm32l4xx_hal_hcd.c **** @verbatim
1056:Drivers/STM32L4xx_HAL_Driver/Src/stm32l4xx_hal_hcd.c ****  ===============================================================================
ARM GAS  C:\Users\HP\AppData\Local\Temp\ccGJK0AZ.s 			page 20


1057:Drivers/STM32L4xx_HAL_Driver/Src/stm32l4xx_hal_hcd.c ****                       ##### Peripheral State functions #####
1058:Drivers/STM32L4xx_HAL_Driver/Src/stm32l4xx_hal_hcd.c ****  ===============================================================================
1059:Drivers/STM32L4xx_HAL_Driver/Src/stm32l4xx_hal_hcd.c ****     [..]
1060:Drivers/STM32L4xx_HAL_Driver/Src/stm32l4xx_hal_hcd.c ****     This subsection permits to get in run-time the status of the peripheral
1061:Drivers/STM32L4xx_HAL_Driver/Src/stm32l4xx_hal_hcd.c ****     and the data flow.
1062:Drivers/STM32L4xx_HAL_Driver/Src/stm32l4xx_hal_hcd.c **** 
1063:Drivers/STM32L4xx_HAL_Driver/Src/stm32l4xx_hal_hcd.c **** @endverbatim
1064:Drivers/STM32L4xx_HAL_Driver/Src/stm32l4xx_hal_hcd.c ****   * @{
1065:Drivers/STM32L4xx_HAL_Driver/Src/stm32l4xx_hal_hcd.c ****   */
1066:Drivers/STM32L4xx_HAL_Driver/Src/stm32l4xx_hal_hcd.c **** 
1067:Drivers/STM32L4xx_HAL_Driver/Src/stm32l4xx_hal_hcd.c **** /**
1068:Drivers/STM32L4xx_HAL_Driver/Src/stm32l4xx_hal_hcd.c ****   * @brief  Return the HCD handle state.
1069:Drivers/STM32L4xx_HAL_Driver/Src/stm32l4xx_hal_hcd.c ****   * @param  hhcd HCD handle
1070:Drivers/STM32L4xx_HAL_Driver/Src/stm32l4xx_hal_hcd.c ****   * @retval HAL state
1071:Drivers/STM32L4xx_HAL_Driver/Src/stm32l4xx_hal_hcd.c ****   */
1072:Drivers/STM32L4xx_HAL_Driver/Src/stm32l4xx_hal_hcd.c **** HCD_StateTypeDef HAL_HCD_GetState(HCD_HandleTypeDef *hhcd)
1073:Drivers/STM32L4xx_HAL_Driver/Src/stm32l4xx_hal_hcd.c **** {
1074:Drivers/STM32L4xx_HAL_Driver/Src/stm32l4xx_hal_hcd.c ****   return hhcd->State;
1075:Drivers/STM32L4xx_HAL_Driver/Src/stm32l4xx_hal_hcd.c **** }
1076:Drivers/STM32L4xx_HAL_Driver/Src/stm32l4xx_hal_hcd.c **** 
1077:Drivers/STM32L4xx_HAL_Driver/Src/stm32l4xx_hal_hcd.c **** /**
1078:Drivers/STM32L4xx_HAL_Driver/Src/stm32l4xx_hal_hcd.c ****   * @brief  Return  URB state for a channel.
1079:Drivers/STM32L4xx_HAL_Driver/Src/stm32l4xx_hal_hcd.c ****   * @param  hhcd HCD handle
1080:Drivers/STM32L4xx_HAL_Driver/Src/stm32l4xx_hal_hcd.c ****   * @param  chnum Channel number.
1081:Drivers/STM32L4xx_HAL_Driver/Src/stm32l4xx_hal_hcd.c ****   *         This parameter can be a value from 1 to 15
1082:Drivers/STM32L4xx_HAL_Driver/Src/stm32l4xx_hal_hcd.c ****   * @retval URB state.
1083:Drivers/STM32L4xx_HAL_Driver/Src/stm32l4xx_hal_hcd.c ****   *          This parameter can be one of these values:
1084:Drivers/STM32L4xx_HAL_Driver/Src/stm32l4xx_hal_hcd.c ****   *            URB_IDLE/
1085:Drivers/STM32L4xx_HAL_Driver/Src/stm32l4xx_hal_hcd.c ****   *            URB_DONE/
1086:Drivers/STM32L4xx_HAL_Driver/Src/stm32l4xx_hal_hcd.c ****   *            URB_NOTREADY/
1087:Drivers/STM32L4xx_HAL_Driver/Src/stm32l4xx_hal_hcd.c ****   *            URB_NYET/
1088:Drivers/STM32L4xx_HAL_Driver/Src/stm32l4xx_hal_hcd.c ****   *            URB_ERROR/
1089:Drivers/STM32L4xx_HAL_Driver/Src/stm32l4xx_hal_hcd.c ****   *            URB_STALL
1090:Drivers/STM32L4xx_HAL_Driver/Src/stm32l4xx_hal_hcd.c ****   */
1091:Drivers/STM32L4xx_HAL_Driver/Src/stm32l4xx_hal_hcd.c **** HCD_URBStateTypeDef HAL_HCD_HC_GetURBState(HCD_HandleTypeDef *hhcd, uint8_t chnum)
1092:Drivers/STM32L4xx_HAL_Driver/Src/stm32l4xx_hal_hcd.c **** {
1093:Drivers/STM32L4xx_HAL_Driver/Src/stm32l4xx_hal_hcd.c ****   return hhcd->hc[chnum].urb_state;
1094:Drivers/STM32L4xx_HAL_Driver/Src/stm32l4xx_hal_hcd.c **** }
1095:Drivers/STM32L4xx_HAL_Driver/Src/stm32l4xx_hal_hcd.c **** 
1096:Drivers/STM32L4xx_HAL_Driver/Src/stm32l4xx_hal_hcd.c **** 
1097:Drivers/STM32L4xx_HAL_Driver/Src/stm32l4xx_hal_hcd.c **** /**
1098:Drivers/STM32L4xx_HAL_Driver/Src/stm32l4xx_hal_hcd.c ****   * @brief  Return the last host transfer size.
1099:Drivers/STM32L4xx_HAL_Driver/Src/stm32l4xx_hal_hcd.c ****   * @param  hhcd HCD handle
1100:Drivers/STM32L4xx_HAL_Driver/Src/stm32l4xx_hal_hcd.c ****   * @param  chnum Channel number.
1101:Drivers/STM32L4xx_HAL_Driver/Src/stm32l4xx_hal_hcd.c ****   *         This parameter can be a value from 1 to 15
1102:Drivers/STM32L4xx_HAL_Driver/Src/stm32l4xx_hal_hcd.c ****   * @retval last transfer size in byte
1103:Drivers/STM32L4xx_HAL_Driver/Src/stm32l4xx_hal_hcd.c ****   */
1104:Drivers/STM32L4xx_HAL_Driver/Src/stm32l4xx_hal_hcd.c **** uint32_t HAL_HCD_HC_GetXferCount(HCD_HandleTypeDef *hhcd, uint8_t chnum)
1105:Drivers/STM32L4xx_HAL_Driver/Src/stm32l4xx_hal_hcd.c **** {
1106:Drivers/STM32L4xx_HAL_Driver/Src/stm32l4xx_hal_hcd.c ****   return hhcd->hc[chnum].xfer_count;
1107:Drivers/STM32L4xx_HAL_Driver/Src/stm32l4xx_hal_hcd.c **** }
1108:Drivers/STM32L4xx_HAL_Driver/Src/stm32l4xx_hal_hcd.c **** 
1109:Drivers/STM32L4xx_HAL_Driver/Src/stm32l4xx_hal_hcd.c **** /**
1110:Drivers/STM32L4xx_HAL_Driver/Src/stm32l4xx_hal_hcd.c ****   * @brief  Return the Host Channel state.
1111:Drivers/STM32L4xx_HAL_Driver/Src/stm32l4xx_hal_hcd.c ****   * @param  hhcd HCD handle
1112:Drivers/STM32L4xx_HAL_Driver/Src/stm32l4xx_hal_hcd.c ****   * @param  chnum Channel number.
1113:Drivers/STM32L4xx_HAL_Driver/Src/stm32l4xx_hal_hcd.c ****   *         This parameter can be a value from 1 to 15
ARM GAS  C:\Users\HP\AppData\Local\Temp\ccGJK0AZ.s 			page 21


1114:Drivers/STM32L4xx_HAL_Driver/Src/stm32l4xx_hal_hcd.c ****   * @retval Host channel state
1115:Drivers/STM32L4xx_HAL_Driver/Src/stm32l4xx_hal_hcd.c ****   *          This parameter can be one of these values:
1116:Drivers/STM32L4xx_HAL_Driver/Src/stm32l4xx_hal_hcd.c ****   *            HC_IDLE/
1117:Drivers/STM32L4xx_HAL_Driver/Src/stm32l4xx_hal_hcd.c ****   *            HC_XFRC/
1118:Drivers/STM32L4xx_HAL_Driver/Src/stm32l4xx_hal_hcd.c ****   *            HC_HALTED/
1119:Drivers/STM32L4xx_HAL_Driver/Src/stm32l4xx_hal_hcd.c ****   *            HC_NYET/
1120:Drivers/STM32L4xx_HAL_Driver/Src/stm32l4xx_hal_hcd.c ****   *            HC_NAK/
1121:Drivers/STM32L4xx_HAL_Driver/Src/stm32l4xx_hal_hcd.c ****   *            HC_STALL/
1122:Drivers/STM32L4xx_HAL_Driver/Src/stm32l4xx_hal_hcd.c ****   *            HC_XACTERR/
1123:Drivers/STM32L4xx_HAL_Driver/Src/stm32l4xx_hal_hcd.c ****   *            HC_BBLERR/
1124:Drivers/STM32L4xx_HAL_Driver/Src/stm32l4xx_hal_hcd.c ****   *            HC_DATATGLERR
1125:Drivers/STM32L4xx_HAL_Driver/Src/stm32l4xx_hal_hcd.c ****   */
1126:Drivers/STM32L4xx_HAL_Driver/Src/stm32l4xx_hal_hcd.c **** HCD_HCStateTypeDef  HAL_HCD_HC_GetState(HCD_HandleTypeDef *hhcd, uint8_t chnum)
1127:Drivers/STM32L4xx_HAL_Driver/Src/stm32l4xx_hal_hcd.c **** {
1128:Drivers/STM32L4xx_HAL_Driver/Src/stm32l4xx_hal_hcd.c ****   return hhcd->hc[chnum].state;
1129:Drivers/STM32L4xx_HAL_Driver/Src/stm32l4xx_hal_hcd.c **** }
1130:Drivers/STM32L4xx_HAL_Driver/Src/stm32l4xx_hal_hcd.c **** 
1131:Drivers/STM32L4xx_HAL_Driver/Src/stm32l4xx_hal_hcd.c **** /**
1132:Drivers/STM32L4xx_HAL_Driver/Src/stm32l4xx_hal_hcd.c ****   * @brief  Return the current Host frame number.
1133:Drivers/STM32L4xx_HAL_Driver/Src/stm32l4xx_hal_hcd.c ****   * @param  hhcd HCD handle
1134:Drivers/STM32L4xx_HAL_Driver/Src/stm32l4xx_hal_hcd.c ****   * @retval Current Host frame number
1135:Drivers/STM32L4xx_HAL_Driver/Src/stm32l4xx_hal_hcd.c ****   */
1136:Drivers/STM32L4xx_HAL_Driver/Src/stm32l4xx_hal_hcd.c **** uint32_t HAL_HCD_GetCurrentFrame(HCD_HandleTypeDef *hhcd)
1137:Drivers/STM32L4xx_HAL_Driver/Src/stm32l4xx_hal_hcd.c **** {
1138:Drivers/STM32L4xx_HAL_Driver/Src/stm32l4xx_hal_hcd.c ****   return (USB_GetCurrentFrame(hhcd->Instance));
1139:Drivers/STM32L4xx_HAL_Driver/Src/stm32l4xx_hal_hcd.c **** }
1140:Drivers/STM32L4xx_HAL_Driver/Src/stm32l4xx_hal_hcd.c **** 
1141:Drivers/STM32L4xx_HAL_Driver/Src/stm32l4xx_hal_hcd.c **** /**
1142:Drivers/STM32L4xx_HAL_Driver/Src/stm32l4xx_hal_hcd.c ****   * @brief  Return the Host enumeration speed.
1143:Drivers/STM32L4xx_HAL_Driver/Src/stm32l4xx_hal_hcd.c ****   * @param  hhcd HCD handle
1144:Drivers/STM32L4xx_HAL_Driver/Src/stm32l4xx_hal_hcd.c ****   * @retval Enumeration speed
1145:Drivers/STM32L4xx_HAL_Driver/Src/stm32l4xx_hal_hcd.c ****   */
1146:Drivers/STM32L4xx_HAL_Driver/Src/stm32l4xx_hal_hcd.c **** uint32_t HAL_HCD_GetCurrentSpeed(HCD_HandleTypeDef *hhcd)
1147:Drivers/STM32L4xx_HAL_Driver/Src/stm32l4xx_hal_hcd.c **** {
1148:Drivers/STM32L4xx_HAL_Driver/Src/stm32l4xx_hal_hcd.c ****   return (USB_GetHostSpeed(hhcd->Instance));
1149:Drivers/STM32L4xx_HAL_Driver/Src/stm32l4xx_hal_hcd.c **** }
1150:Drivers/STM32L4xx_HAL_Driver/Src/stm32l4xx_hal_hcd.c **** 
1151:Drivers/STM32L4xx_HAL_Driver/Src/stm32l4xx_hal_hcd.c **** /**
1152:Drivers/STM32L4xx_HAL_Driver/Src/stm32l4xx_hal_hcd.c ****   * @}
1153:Drivers/STM32L4xx_HAL_Driver/Src/stm32l4xx_hal_hcd.c ****   */
1154:Drivers/STM32L4xx_HAL_Driver/Src/stm32l4xx_hal_hcd.c **** 
1155:Drivers/STM32L4xx_HAL_Driver/Src/stm32l4xx_hal_hcd.c **** /**
1156:Drivers/STM32L4xx_HAL_Driver/Src/stm32l4xx_hal_hcd.c ****   * @}
1157:Drivers/STM32L4xx_HAL_Driver/Src/stm32l4xx_hal_hcd.c ****   */
1158:Drivers/STM32L4xx_HAL_Driver/Src/stm32l4xx_hal_hcd.c **** 
1159:Drivers/STM32L4xx_HAL_Driver/Src/stm32l4xx_hal_hcd.c **** /** @addtogroup HCD_Private_Functions
1160:Drivers/STM32L4xx_HAL_Driver/Src/stm32l4xx_hal_hcd.c ****   * @{
1161:Drivers/STM32L4xx_HAL_Driver/Src/stm32l4xx_hal_hcd.c ****   */
1162:Drivers/STM32L4xx_HAL_Driver/Src/stm32l4xx_hal_hcd.c **** /**
1163:Drivers/STM32L4xx_HAL_Driver/Src/stm32l4xx_hal_hcd.c ****   * @brief  Handle Host Channel IN interrupt requests.
1164:Drivers/STM32L4xx_HAL_Driver/Src/stm32l4xx_hal_hcd.c ****   * @param  hhcd HCD handle
1165:Drivers/STM32L4xx_HAL_Driver/Src/stm32l4xx_hal_hcd.c ****   * @param  chnum Channel number.
1166:Drivers/STM32L4xx_HAL_Driver/Src/stm32l4xx_hal_hcd.c ****   *         This parameter can be a value from 1 to 15
1167:Drivers/STM32L4xx_HAL_Driver/Src/stm32l4xx_hal_hcd.c ****   * @retval none
1168:Drivers/STM32L4xx_HAL_Driver/Src/stm32l4xx_hal_hcd.c ****   */
1169:Drivers/STM32L4xx_HAL_Driver/Src/stm32l4xx_hal_hcd.c **** static void HCD_HC_IN_IRQHandler(HCD_HandleTypeDef *hhcd, uint8_t chnum)
1170:Drivers/STM32L4xx_HAL_Driver/Src/stm32l4xx_hal_hcd.c **** {
ARM GAS  C:\Users\HP\AppData\Local\Temp\ccGJK0AZ.s 			page 22


1171:Drivers/STM32L4xx_HAL_Driver/Src/stm32l4xx_hal_hcd.c ****   USB_OTG_GlobalTypeDef *USBx = hhcd->Instance;
1172:Drivers/STM32L4xx_HAL_Driver/Src/stm32l4xx_hal_hcd.c ****   uint32_t USBx_BASE = (uint32_t)USBx;
1173:Drivers/STM32L4xx_HAL_Driver/Src/stm32l4xx_hal_hcd.c ****   uint32_t ch_num = (uint32_t)chnum;
1174:Drivers/STM32L4xx_HAL_Driver/Src/stm32l4xx_hal_hcd.c **** 
1175:Drivers/STM32L4xx_HAL_Driver/Src/stm32l4xx_hal_hcd.c ****   uint32_t tmpreg;
1176:Drivers/STM32L4xx_HAL_Driver/Src/stm32l4xx_hal_hcd.c **** 
1177:Drivers/STM32L4xx_HAL_Driver/Src/stm32l4xx_hal_hcd.c ****   if ((USBx_HC(ch_num)->HCINT & USB_OTG_HCINT_AHBERR) == USB_OTG_HCINT_AHBERR)
1178:Drivers/STM32L4xx_HAL_Driver/Src/stm32l4xx_hal_hcd.c ****   {
1179:Drivers/STM32L4xx_HAL_Driver/Src/stm32l4xx_hal_hcd.c ****     __HAL_HCD_CLEAR_HC_INT(ch_num, USB_OTG_HCINT_AHBERR);
1180:Drivers/STM32L4xx_HAL_Driver/Src/stm32l4xx_hal_hcd.c ****     hhcd->hc[ch_num].state = HC_XACTERR;
1181:Drivers/STM32L4xx_HAL_Driver/Src/stm32l4xx_hal_hcd.c ****     (void)USB_HC_Halt(hhcd->Instance, (uint8_t)ch_num);
1182:Drivers/STM32L4xx_HAL_Driver/Src/stm32l4xx_hal_hcd.c ****   }
1183:Drivers/STM32L4xx_HAL_Driver/Src/stm32l4xx_hal_hcd.c ****   else if ((USBx_HC(ch_num)->HCINT & USB_OTG_HCINT_BBERR) == USB_OTG_HCINT_BBERR)
1184:Drivers/STM32L4xx_HAL_Driver/Src/stm32l4xx_hal_hcd.c ****   {
1185:Drivers/STM32L4xx_HAL_Driver/Src/stm32l4xx_hal_hcd.c ****     __HAL_HCD_CLEAR_HC_INT(ch_num, USB_OTG_HCINT_BBERR);
1186:Drivers/STM32L4xx_HAL_Driver/Src/stm32l4xx_hal_hcd.c ****     hhcd->hc[ch_num].state = HC_BBLERR;
1187:Drivers/STM32L4xx_HAL_Driver/Src/stm32l4xx_hal_hcd.c ****     (void)USB_HC_Halt(hhcd->Instance, (uint8_t)ch_num);
1188:Drivers/STM32L4xx_HAL_Driver/Src/stm32l4xx_hal_hcd.c ****   }
1189:Drivers/STM32L4xx_HAL_Driver/Src/stm32l4xx_hal_hcd.c ****   else if ((USBx_HC(ch_num)->HCINT & USB_OTG_HCINT_ACK) == USB_OTG_HCINT_ACK)
1190:Drivers/STM32L4xx_HAL_Driver/Src/stm32l4xx_hal_hcd.c ****   {
1191:Drivers/STM32L4xx_HAL_Driver/Src/stm32l4xx_hal_hcd.c ****     __HAL_HCD_CLEAR_HC_INT(ch_num, USB_OTG_HCINT_ACK);
1192:Drivers/STM32L4xx_HAL_Driver/Src/stm32l4xx_hal_hcd.c ****   }
1193:Drivers/STM32L4xx_HAL_Driver/Src/stm32l4xx_hal_hcd.c ****   else if ((USBx_HC(ch_num)->HCINT & USB_OTG_HCINT_STALL) == USB_OTG_HCINT_STALL)
1194:Drivers/STM32L4xx_HAL_Driver/Src/stm32l4xx_hal_hcd.c ****   {
1195:Drivers/STM32L4xx_HAL_Driver/Src/stm32l4xx_hal_hcd.c ****     __HAL_HCD_CLEAR_HC_INT(ch_num, USB_OTG_HCINT_STALL);
1196:Drivers/STM32L4xx_HAL_Driver/Src/stm32l4xx_hal_hcd.c ****     hhcd->hc[ch_num].state = HC_STALL;
1197:Drivers/STM32L4xx_HAL_Driver/Src/stm32l4xx_hal_hcd.c ****     (void)USB_HC_Halt(hhcd->Instance, (uint8_t)ch_num);
1198:Drivers/STM32L4xx_HAL_Driver/Src/stm32l4xx_hal_hcd.c ****   }
1199:Drivers/STM32L4xx_HAL_Driver/Src/stm32l4xx_hal_hcd.c ****   else if ((USBx_HC(ch_num)->HCINT & USB_OTG_HCINT_DTERR) == USB_OTG_HCINT_DTERR)
1200:Drivers/STM32L4xx_HAL_Driver/Src/stm32l4xx_hal_hcd.c ****   {
1201:Drivers/STM32L4xx_HAL_Driver/Src/stm32l4xx_hal_hcd.c ****     __HAL_HCD_CLEAR_HC_INT(ch_num, USB_OTG_HCINT_DTERR);
1202:Drivers/STM32L4xx_HAL_Driver/Src/stm32l4xx_hal_hcd.c ****     hhcd->hc[ch_num].state = HC_DATATGLERR;
1203:Drivers/STM32L4xx_HAL_Driver/Src/stm32l4xx_hal_hcd.c ****     (void)USB_HC_Halt(hhcd->Instance, (uint8_t)ch_num);
1204:Drivers/STM32L4xx_HAL_Driver/Src/stm32l4xx_hal_hcd.c ****   }
1205:Drivers/STM32L4xx_HAL_Driver/Src/stm32l4xx_hal_hcd.c ****   else if ((USBx_HC(ch_num)->HCINT & USB_OTG_HCINT_TXERR) == USB_OTG_HCINT_TXERR)
1206:Drivers/STM32L4xx_HAL_Driver/Src/stm32l4xx_hal_hcd.c ****   {
1207:Drivers/STM32L4xx_HAL_Driver/Src/stm32l4xx_hal_hcd.c ****     __HAL_HCD_CLEAR_HC_INT(ch_num, USB_OTG_HCINT_TXERR);
1208:Drivers/STM32L4xx_HAL_Driver/Src/stm32l4xx_hal_hcd.c ****     hhcd->hc[ch_num].state = HC_XACTERR;
1209:Drivers/STM32L4xx_HAL_Driver/Src/stm32l4xx_hal_hcd.c ****     (void)USB_HC_Halt(hhcd->Instance, (uint8_t)ch_num);
1210:Drivers/STM32L4xx_HAL_Driver/Src/stm32l4xx_hal_hcd.c ****   }
1211:Drivers/STM32L4xx_HAL_Driver/Src/stm32l4xx_hal_hcd.c ****   else
1212:Drivers/STM32L4xx_HAL_Driver/Src/stm32l4xx_hal_hcd.c ****   {
1213:Drivers/STM32L4xx_HAL_Driver/Src/stm32l4xx_hal_hcd.c ****     /* ... */
1214:Drivers/STM32L4xx_HAL_Driver/Src/stm32l4xx_hal_hcd.c ****   }
1215:Drivers/STM32L4xx_HAL_Driver/Src/stm32l4xx_hal_hcd.c **** 
1216:Drivers/STM32L4xx_HAL_Driver/Src/stm32l4xx_hal_hcd.c ****   if ((USBx_HC(ch_num)->HCINT & USB_OTG_HCINT_FRMOR) == USB_OTG_HCINT_FRMOR)
1217:Drivers/STM32L4xx_HAL_Driver/Src/stm32l4xx_hal_hcd.c ****   {
1218:Drivers/STM32L4xx_HAL_Driver/Src/stm32l4xx_hal_hcd.c ****     (void)USB_HC_Halt(hhcd->Instance, (uint8_t)ch_num);
1219:Drivers/STM32L4xx_HAL_Driver/Src/stm32l4xx_hal_hcd.c ****     __HAL_HCD_CLEAR_HC_INT(ch_num, USB_OTG_HCINT_FRMOR);
1220:Drivers/STM32L4xx_HAL_Driver/Src/stm32l4xx_hal_hcd.c ****   }
1221:Drivers/STM32L4xx_HAL_Driver/Src/stm32l4xx_hal_hcd.c ****   else if ((USBx_HC(ch_num)->HCINT & USB_OTG_HCINT_XFRC) == USB_OTG_HCINT_XFRC)
1222:Drivers/STM32L4xx_HAL_Driver/Src/stm32l4xx_hal_hcd.c ****   {
1223:Drivers/STM32L4xx_HAL_Driver/Src/stm32l4xx_hal_hcd.c ****     hhcd->hc[ch_num].state = HC_XFRC;
1224:Drivers/STM32L4xx_HAL_Driver/Src/stm32l4xx_hal_hcd.c ****     hhcd->hc[ch_num].ErrCnt = 0U;
1225:Drivers/STM32L4xx_HAL_Driver/Src/stm32l4xx_hal_hcd.c ****     __HAL_HCD_CLEAR_HC_INT(ch_num, USB_OTG_HCINT_XFRC);
1226:Drivers/STM32L4xx_HAL_Driver/Src/stm32l4xx_hal_hcd.c **** 
1227:Drivers/STM32L4xx_HAL_Driver/Src/stm32l4xx_hal_hcd.c ****     if ((hhcd->hc[ch_num].ep_type == EP_TYPE_CTRL) ||
ARM GAS  C:\Users\HP\AppData\Local\Temp\ccGJK0AZ.s 			page 23


1228:Drivers/STM32L4xx_HAL_Driver/Src/stm32l4xx_hal_hcd.c ****         (hhcd->hc[ch_num].ep_type == EP_TYPE_BULK))
1229:Drivers/STM32L4xx_HAL_Driver/Src/stm32l4xx_hal_hcd.c ****     {
1230:Drivers/STM32L4xx_HAL_Driver/Src/stm32l4xx_hal_hcd.c ****       (void)USB_HC_Halt(hhcd->Instance, (uint8_t)ch_num);
1231:Drivers/STM32L4xx_HAL_Driver/Src/stm32l4xx_hal_hcd.c ****       __HAL_HCD_CLEAR_HC_INT(ch_num, USB_OTG_HCINT_NAK);
1232:Drivers/STM32L4xx_HAL_Driver/Src/stm32l4xx_hal_hcd.c ****     }
1233:Drivers/STM32L4xx_HAL_Driver/Src/stm32l4xx_hal_hcd.c ****     else if ((hhcd->hc[ch_num].ep_type == EP_TYPE_INTR) ||
1234:Drivers/STM32L4xx_HAL_Driver/Src/stm32l4xx_hal_hcd.c ****              (hhcd->hc[ch_num].ep_type == EP_TYPE_ISOC))
1235:Drivers/STM32L4xx_HAL_Driver/Src/stm32l4xx_hal_hcd.c ****     {
1236:Drivers/STM32L4xx_HAL_Driver/Src/stm32l4xx_hal_hcd.c ****       USBx_HC(ch_num)->HCCHAR |= USB_OTG_HCCHAR_ODDFRM;
1237:Drivers/STM32L4xx_HAL_Driver/Src/stm32l4xx_hal_hcd.c ****       hhcd->hc[ch_num].urb_state = URB_DONE;
1238:Drivers/STM32L4xx_HAL_Driver/Src/stm32l4xx_hal_hcd.c **** 
1239:Drivers/STM32L4xx_HAL_Driver/Src/stm32l4xx_hal_hcd.c **** #if (USE_HAL_HCD_REGISTER_CALLBACKS == 1U)
1240:Drivers/STM32L4xx_HAL_Driver/Src/stm32l4xx_hal_hcd.c ****       hhcd->HC_NotifyURBChangeCallback(hhcd, (uint8_t)ch_num, hhcd->hc[ch_num].urb_state);
1241:Drivers/STM32L4xx_HAL_Driver/Src/stm32l4xx_hal_hcd.c **** #else
1242:Drivers/STM32L4xx_HAL_Driver/Src/stm32l4xx_hal_hcd.c ****       HAL_HCD_HC_NotifyURBChange_Callback(hhcd, (uint8_t)ch_num, hhcd->hc[ch_num].urb_state);
1243:Drivers/STM32L4xx_HAL_Driver/Src/stm32l4xx_hal_hcd.c **** #endif /* USE_HAL_HCD_REGISTER_CALLBACKS */
1244:Drivers/STM32L4xx_HAL_Driver/Src/stm32l4xx_hal_hcd.c ****     }
1245:Drivers/STM32L4xx_HAL_Driver/Src/stm32l4xx_hal_hcd.c ****     else
1246:Drivers/STM32L4xx_HAL_Driver/Src/stm32l4xx_hal_hcd.c ****     {
1247:Drivers/STM32L4xx_HAL_Driver/Src/stm32l4xx_hal_hcd.c ****       /* ... */
1248:Drivers/STM32L4xx_HAL_Driver/Src/stm32l4xx_hal_hcd.c ****     }
1249:Drivers/STM32L4xx_HAL_Driver/Src/stm32l4xx_hal_hcd.c **** 
1250:Drivers/STM32L4xx_HAL_Driver/Src/stm32l4xx_hal_hcd.c ****     if (hhcd->Init.dma_enable == 1U)
1251:Drivers/STM32L4xx_HAL_Driver/Src/stm32l4xx_hal_hcd.c ****     {
1252:Drivers/STM32L4xx_HAL_Driver/Src/stm32l4xx_hal_hcd.c ****       if (((hhcd->hc[ch_num].XferSize / hhcd->hc[ch_num].max_packet) & 1U) != 0U)
1253:Drivers/STM32L4xx_HAL_Driver/Src/stm32l4xx_hal_hcd.c ****       {
1254:Drivers/STM32L4xx_HAL_Driver/Src/stm32l4xx_hal_hcd.c ****         hhcd->hc[ch_num].toggle_in ^= 1U;
1255:Drivers/STM32L4xx_HAL_Driver/Src/stm32l4xx_hal_hcd.c ****       }
1256:Drivers/STM32L4xx_HAL_Driver/Src/stm32l4xx_hal_hcd.c ****     }
1257:Drivers/STM32L4xx_HAL_Driver/Src/stm32l4xx_hal_hcd.c ****     else
1258:Drivers/STM32L4xx_HAL_Driver/Src/stm32l4xx_hal_hcd.c ****     {
1259:Drivers/STM32L4xx_HAL_Driver/Src/stm32l4xx_hal_hcd.c ****       hhcd->hc[ch_num].toggle_in ^= 1U;
1260:Drivers/STM32L4xx_HAL_Driver/Src/stm32l4xx_hal_hcd.c ****     }
1261:Drivers/STM32L4xx_HAL_Driver/Src/stm32l4xx_hal_hcd.c ****   }
1262:Drivers/STM32L4xx_HAL_Driver/Src/stm32l4xx_hal_hcd.c ****   else if ((USBx_HC(ch_num)->HCINT & USB_OTG_HCINT_CHH) == USB_OTG_HCINT_CHH)
1263:Drivers/STM32L4xx_HAL_Driver/Src/stm32l4xx_hal_hcd.c ****   {
1264:Drivers/STM32L4xx_HAL_Driver/Src/stm32l4xx_hal_hcd.c ****     if (hhcd->hc[ch_num].state == HC_XFRC)
1265:Drivers/STM32L4xx_HAL_Driver/Src/stm32l4xx_hal_hcd.c ****     {
1266:Drivers/STM32L4xx_HAL_Driver/Src/stm32l4xx_hal_hcd.c ****       hhcd->hc[ch_num].urb_state = URB_DONE;
1267:Drivers/STM32L4xx_HAL_Driver/Src/stm32l4xx_hal_hcd.c ****     }
1268:Drivers/STM32L4xx_HAL_Driver/Src/stm32l4xx_hal_hcd.c ****     else if (hhcd->hc[ch_num].state == HC_STALL)
1269:Drivers/STM32L4xx_HAL_Driver/Src/stm32l4xx_hal_hcd.c ****     {
1270:Drivers/STM32L4xx_HAL_Driver/Src/stm32l4xx_hal_hcd.c ****       hhcd->hc[ch_num].urb_state = URB_STALL;
1271:Drivers/STM32L4xx_HAL_Driver/Src/stm32l4xx_hal_hcd.c ****     }
1272:Drivers/STM32L4xx_HAL_Driver/Src/stm32l4xx_hal_hcd.c ****     else if ((hhcd->hc[ch_num].state == HC_XACTERR) ||
1273:Drivers/STM32L4xx_HAL_Driver/Src/stm32l4xx_hal_hcd.c ****              (hhcd->hc[ch_num].state == HC_DATATGLERR))
1274:Drivers/STM32L4xx_HAL_Driver/Src/stm32l4xx_hal_hcd.c ****     {
1275:Drivers/STM32L4xx_HAL_Driver/Src/stm32l4xx_hal_hcd.c ****       hhcd->hc[ch_num].ErrCnt++;
1276:Drivers/STM32L4xx_HAL_Driver/Src/stm32l4xx_hal_hcd.c ****       if (hhcd->hc[ch_num].ErrCnt > 2U)
1277:Drivers/STM32L4xx_HAL_Driver/Src/stm32l4xx_hal_hcd.c ****       {
1278:Drivers/STM32L4xx_HAL_Driver/Src/stm32l4xx_hal_hcd.c ****         hhcd->hc[ch_num].ErrCnt = 0U;
1279:Drivers/STM32L4xx_HAL_Driver/Src/stm32l4xx_hal_hcd.c ****         hhcd->hc[ch_num].urb_state = URB_ERROR;
1280:Drivers/STM32L4xx_HAL_Driver/Src/stm32l4xx_hal_hcd.c ****       }
1281:Drivers/STM32L4xx_HAL_Driver/Src/stm32l4xx_hal_hcd.c ****       else
1282:Drivers/STM32L4xx_HAL_Driver/Src/stm32l4xx_hal_hcd.c ****       {
1283:Drivers/STM32L4xx_HAL_Driver/Src/stm32l4xx_hal_hcd.c ****         hhcd->hc[ch_num].urb_state = URB_NOTREADY;
1284:Drivers/STM32L4xx_HAL_Driver/Src/stm32l4xx_hal_hcd.c **** 
ARM GAS  C:\Users\HP\AppData\Local\Temp\ccGJK0AZ.s 			page 24


1285:Drivers/STM32L4xx_HAL_Driver/Src/stm32l4xx_hal_hcd.c ****         /* re-activate the channel */
1286:Drivers/STM32L4xx_HAL_Driver/Src/stm32l4xx_hal_hcd.c ****         tmpreg = USBx_HC(ch_num)->HCCHAR;
1287:Drivers/STM32L4xx_HAL_Driver/Src/stm32l4xx_hal_hcd.c ****         tmpreg &= ~USB_OTG_HCCHAR_CHDIS;
1288:Drivers/STM32L4xx_HAL_Driver/Src/stm32l4xx_hal_hcd.c ****         tmpreg |= USB_OTG_HCCHAR_CHENA;
1289:Drivers/STM32L4xx_HAL_Driver/Src/stm32l4xx_hal_hcd.c ****         USBx_HC(ch_num)->HCCHAR = tmpreg;
1290:Drivers/STM32L4xx_HAL_Driver/Src/stm32l4xx_hal_hcd.c ****       }
1291:Drivers/STM32L4xx_HAL_Driver/Src/stm32l4xx_hal_hcd.c ****     }
1292:Drivers/STM32L4xx_HAL_Driver/Src/stm32l4xx_hal_hcd.c ****     else if (hhcd->hc[ch_num].state == HC_NAK)
1293:Drivers/STM32L4xx_HAL_Driver/Src/stm32l4xx_hal_hcd.c ****     {
1294:Drivers/STM32L4xx_HAL_Driver/Src/stm32l4xx_hal_hcd.c ****       hhcd->hc[ch_num].urb_state  = URB_NOTREADY;
1295:Drivers/STM32L4xx_HAL_Driver/Src/stm32l4xx_hal_hcd.c **** 
1296:Drivers/STM32L4xx_HAL_Driver/Src/stm32l4xx_hal_hcd.c ****       /* re-activate the channel */
1297:Drivers/STM32L4xx_HAL_Driver/Src/stm32l4xx_hal_hcd.c ****       tmpreg = USBx_HC(ch_num)->HCCHAR;
1298:Drivers/STM32L4xx_HAL_Driver/Src/stm32l4xx_hal_hcd.c ****       tmpreg &= ~USB_OTG_HCCHAR_CHDIS;
1299:Drivers/STM32L4xx_HAL_Driver/Src/stm32l4xx_hal_hcd.c ****       tmpreg |= USB_OTG_HCCHAR_CHENA;
1300:Drivers/STM32L4xx_HAL_Driver/Src/stm32l4xx_hal_hcd.c ****       USBx_HC(ch_num)->HCCHAR = tmpreg;
1301:Drivers/STM32L4xx_HAL_Driver/Src/stm32l4xx_hal_hcd.c ****     }
1302:Drivers/STM32L4xx_HAL_Driver/Src/stm32l4xx_hal_hcd.c ****     else if (hhcd->hc[ch_num].state == HC_BBLERR)
1303:Drivers/STM32L4xx_HAL_Driver/Src/stm32l4xx_hal_hcd.c ****     {
1304:Drivers/STM32L4xx_HAL_Driver/Src/stm32l4xx_hal_hcd.c ****       hhcd->hc[ch_num].ErrCnt++;
1305:Drivers/STM32L4xx_HAL_Driver/Src/stm32l4xx_hal_hcd.c ****       hhcd->hc[ch_num].urb_state = URB_ERROR;
1306:Drivers/STM32L4xx_HAL_Driver/Src/stm32l4xx_hal_hcd.c ****     }
1307:Drivers/STM32L4xx_HAL_Driver/Src/stm32l4xx_hal_hcd.c ****     else
1308:Drivers/STM32L4xx_HAL_Driver/Src/stm32l4xx_hal_hcd.c ****     {
1309:Drivers/STM32L4xx_HAL_Driver/Src/stm32l4xx_hal_hcd.c ****       /* ... */
1310:Drivers/STM32L4xx_HAL_Driver/Src/stm32l4xx_hal_hcd.c ****     }
1311:Drivers/STM32L4xx_HAL_Driver/Src/stm32l4xx_hal_hcd.c ****     __HAL_HCD_CLEAR_HC_INT(ch_num, USB_OTG_HCINT_CHH);
1312:Drivers/STM32L4xx_HAL_Driver/Src/stm32l4xx_hal_hcd.c **** 
1313:Drivers/STM32L4xx_HAL_Driver/Src/stm32l4xx_hal_hcd.c **** #if (USE_HAL_HCD_REGISTER_CALLBACKS == 1U)
1314:Drivers/STM32L4xx_HAL_Driver/Src/stm32l4xx_hal_hcd.c ****     hhcd->HC_NotifyURBChangeCallback(hhcd, (uint8_t)ch_num, hhcd->hc[ch_num].urb_state);
1315:Drivers/STM32L4xx_HAL_Driver/Src/stm32l4xx_hal_hcd.c **** #else
1316:Drivers/STM32L4xx_HAL_Driver/Src/stm32l4xx_hal_hcd.c ****     HAL_HCD_HC_NotifyURBChange_Callback(hhcd, (uint8_t)ch_num, hhcd->hc[ch_num].urb_state);
1317:Drivers/STM32L4xx_HAL_Driver/Src/stm32l4xx_hal_hcd.c **** #endif /* USE_HAL_HCD_REGISTER_CALLBACKS */
1318:Drivers/STM32L4xx_HAL_Driver/Src/stm32l4xx_hal_hcd.c ****   }
1319:Drivers/STM32L4xx_HAL_Driver/Src/stm32l4xx_hal_hcd.c ****   else if ((USBx_HC(ch_num)->HCINT & USB_OTG_HCINT_NAK) == USB_OTG_HCINT_NAK)
1320:Drivers/STM32L4xx_HAL_Driver/Src/stm32l4xx_hal_hcd.c ****   {
1321:Drivers/STM32L4xx_HAL_Driver/Src/stm32l4xx_hal_hcd.c ****     if (hhcd->hc[ch_num].ep_type == EP_TYPE_INTR)
1322:Drivers/STM32L4xx_HAL_Driver/Src/stm32l4xx_hal_hcd.c ****     {
1323:Drivers/STM32L4xx_HAL_Driver/Src/stm32l4xx_hal_hcd.c ****       hhcd->hc[ch_num].ErrCnt = 0U;
1324:Drivers/STM32L4xx_HAL_Driver/Src/stm32l4xx_hal_hcd.c ****       (void)USB_HC_Halt(hhcd->Instance, (uint8_t)ch_num);
1325:Drivers/STM32L4xx_HAL_Driver/Src/stm32l4xx_hal_hcd.c ****     }
1326:Drivers/STM32L4xx_HAL_Driver/Src/stm32l4xx_hal_hcd.c ****     else if ((hhcd->hc[ch_num].ep_type == EP_TYPE_CTRL) ||
1327:Drivers/STM32L4xx_HAL_Driver/Src/stm32l4xx_hal_hcd.c ****              (hhcd->hc[ch_num].ep_type == EP_TYPE_BULK))
1328:Drivers/STM32L4xx_HAL_Driver/Src/stm32l4xx_hal_hcd.c ****     {
1329:Drivers/STM32L4xx_HAL_Driver/Src/stm32l4xx_hal_hcd.c ****       hhcd->hc[ch_num].ErrCnt = 0U;
1330:Drivers/STM32L4xx_HAL_Driver/Src/stm32l4xx_hal_hcd.c ****       hhcd->hc[ch_num].state = HC_NAK;
1331:Drivers/STM32L4xx_HAL_Driver/Src/stm32l4xx_hal_hcd.c ****       (void)USB_HC_Halt(hhcd->Instance, (uint8_t)ch_num);
1332:Drivers/STM32L4xx_HAL_Driver/Src/stm32l4xx_hal_hcd.c ****     }
1333:Drivers/STM32L4xx_HAL_Driver/Src/stm32l4xx_hal_hcd.c ****     else
1334:Drivers/STM32L4xx_HAL_Driver/Src/stm32l4xx_hal_hcd.c ****     {
1335:Drivers/STM32L4xx_HAL_Driver/Src/stm32l4xx_hal_hcd.c ****       /* ... */
1336:Drivers/STM32L4xx_HAL_Driver/Src/stm32l4xx_hal_hcd.c ****     }
1337:Drivers/STM32L4xx_HAL_Driver/Src/stm32l4xx_hal_hcd.c ****     __HAL_HCD_CLEAR_HC_INT(ch_num, USB_OTG_HCINT_NAK);
1338:Drivers/STM32L4xx_HAL_Driver/Src/stm32l4xx_hal_hcd.c ****   }
1339:Drivers/STM32L4xx_HAL_Driver/Src/stm32l4xx_hal_hcd.c ****   else
1340:Drivers/STM32L4xx_HAL_Driver/Src/stm32l4xx_hal_hcd.c ****   {
1341:Drivers/STM32L4xx_HAL_Driver/Src/stm32l4xx_hal_hcd.c ****     /* ... */
ARM GAS  C:\Users\HP\AppData\Local\Temp\ccGJK0AZ.s 			page 25


1342:Drivers/STM32L4xx_HAL_Driver/Src/stm32l4xx_hal_hcd.c ****   }
1343:Drivers/STM32L4xx_HAL_Driver/Src/stm32l4xx_hal_hcd.c **** }
1344:Drivers/STM32L4xx_HAL_Driver/Src/stm32l4xx_hal_hcd.c **** 
1345:Drivers/STM32L4xx_HAL_Driver/Src/stm32l4xx_hal_hcd.c **** /**
1346:Drivers/STM32L4xx_HAL_Driver/Src/stm32l4xx_hal_hcd.c ****   * @brief  Handle Host Channel OUT interrupt requests.
1347:Drivers/STM32L4xx_HAL_Driver/Src/stm32l4xx_hal_hcd.c ****   * @param  hhcd HCD handle
1348:Drivers/STM32L4xx_HAL_Driver/Src/stm32l4xx_hal_hcd.c ****   * @param  chnum Channel number.
1349:Drivers/STM32L4xx_HAL_Driver/Src/stm32l4xx_hal_hcd.c ****   *         This parameter can be a value from 1 to 15
1350:Drivers/STM32L4xx_HAL_Driver/Src/stm32l4xx_hal_hcd.c ****   * @retval none
1351:Drivers/STM32L4xx_HAL_Driver/Src/stm32l4xx_hal_hcd.c ****   */
1352:Drivers/STM32L4xx_HAL_Driver/Src/stm32l4xx_hal_hcd.c **** static void HCD_HC_OUT_IRQHandler(HCD_HandleTypeDef *hhcd, uint8_t chnum)
1353:Drivers/STM32L4xx_HAL_Driver/Src/stm32l4xx_hal_hcd.c **** {
1354:Drivers/STM32L4xx_HAL_Driver/Src/stm32l4xx_hal_hcd.c ****   USB_OTG_GlobalTypeDef *USBx = hhcd->Instance;
1355:Drivers/STM32L4xx_HAL_Driver/Src/stm32l4xx_hal_hcd.c ****   uint32_t USBx_BASE = (uint32_t)USBx;
1356:Drivers/STM32L4xx_HAL_Driver/Src/stm32l4xx_hal_hcd.c ****   uint32_t ch_num = (uint32_t)chnum;
1357:Drivers/STM32L4xx_HAL_Driver/Src/stm32l4xx_hal_hcd.c ****   uint32_t tmpreg;
1358:Drivers/STM32L4xx_HAL_Driver/Src/stm32l4xx_hal_hcd.c ****   uint32_t num_packets;
1359:Drivers/STM32L4xx_HAL_Driver/Src/stm32l4xx_hal_hcd.c **** 
1360:Drivers/STM32L4xx_HAL_Driver/Src/stm32l4xx_hal_hcd.c ****   if ((USBx_HC(ch_num)->HCINT & USB_OTG_HCINT_AHBERR) == USB_OTG_HCINT_AHBERR)
1361:Drivers/STM32L4xx_HAL_Driver/Src/stm32l4xx_hal_hcd.c ****   {
1362:Drivers/STM32L4xx_HAL_Driver/Src/stm32l4xx_hal_hcd.c ****     __HAL_HCD_CLEAR_HC_INT(ch_num, USB_OTG_HCINT_AHBERR);
1363:Drivers/STM32L4xx_HAL_Driver/Src/stm32l4xx_hal_hcd.c ****     hhcd->hc[ch_num].state = HC_XACTERR;
1364:Drivers/STM32L4xx_HAL_Driver/Src/stm32l4xx_hal_hcd.c ****     (void)USB_HC_Halt(hhcd->Instance, (uint8_t)ch_num);
1365:Drivers/STM32L4xx_HAL_Driver/Src/stm32l4xx_hal_hcd.c ****   }
1366:Drivers/STM32L4xx_HAL_Driver/Src/stm32l4xx_hal_hcd.c ****   else if ((USBx_HC(ch_num)->HCINT & USB_OTG_HCINT_ACK) == USB_OTG_HCINT_ACK)
1367:Drivers/STM32L4xx_HAL_Driver/Src/stm32l4xx_hal_hcd.c ****   {
1368:Drivers/STM32L4xx_HAL_Driver/Src/stm32l4xx_hal_hcd.c ****     __HAL_HCD_CLEAR_HC_INT(ch_num, USB_OTG_HCINT_ACK);
1369:Drivers/STM32L4xx_HAL_Driver/Src/stm32l4xx_hal_hcd.c **** 
1370:Drivers/STM32L4xx_HAL_Driver/Src/stm32l4xx_hal_hcd.c ****     if (hhcd->hc[ch_num].do_ping == 1U)
1371:Drivers/STM32L4xx_HAL_Driver/Src/stm32l4xx_hal_hcd.c ****     {
1372:Drivers/STM32L4xx_HAL_Driver/Src/stm32l4xx_hal_hcd.c ****       hhcd->hc[ch_num].do_ping = 0U;
1373:Drivers/STM32L4xx_HAL_Driver/Src/stm32l4xx_hal_hcd.c ****       hhcd->hc[ch_num].urb_state = URB_NOTREADY;
1374:Drivers/STM32L4xx_HAL_Driver/Src/stm32l4xx_hal_hcd.c ****       (void)USB_HC_Halt(hhcd->Instance, (uint8_t)ch_num);
1375:Drivers/STM32L4xx_HAL_Driver/Src/stm32l4xx_hal_hcd.c ****     }
1376:Drivers/STM32L4xx_HAL_Driver/Src/stm32l4xx_hal_hcd.c ****   }
1377:Drivers/STM32L4xx_HAL_Driver/Src/stm32l4xx_hal_hcd.c ****   else if ((USBx_HC(ch_num)->HCINT & USB_OTG_HCINT_FRMOR) == USB_OTG_HCINT_FRMOR)
1378:Drivers/STM32L4xx_HAL_Driver/Src/stm32l4xx_hal_hcd.c ****   {
1379:Drivers/STM32L4xx_HAL_Driver/Src/stm32l4xx_hal_hcd.c ****     __HAL_HCD_CLEAR_HC_INT(ch_num, USB_OTG_HCINT_FRMOR);
1380:Drivers/STM32L4xx_HAL_Driver/Src/stm32l4xx_hal_hcd.c ****     (void)USB_HC_Halt(hhcd->Instance, (uint8_t)ch_num);
1381:Drivers/STM32L4xx_HAL_Driver/Src/stm32l4xx_hal_hcd.c ****   }
1382:Drivers/STM32L4xx_HAL_Driver/Src/stm32l4xx_hal_hcd.c ****   else if ((USBx_HC(ch_num)->HCINT & USB_OTG_HCINT_XFRC) == USB_OTG_HCINT_XFRC)
1383:Drivers/STM32L4xx_HAL_Driver/Src/stm32l4xx_hal_hcd.c ****   {
1384:Drivers/STM32L4xx_HAL_Driver/Src/stm32l4xx_hal_hcd.c ****     hhcd->hc[ch_num].ErrCnt = 0U;
1385:Drivers/STM32L4xx_HAL_Driver/Src/stm32l4xx_hal_hcd.c **** 
1386:Drivers/STM32L4xx_HAL_Driver/Src/stm32l4xx_hal_hcd.c ****     /* transaction completed with NYET state, update do ping state */
1387:Drivers/STM32L4xx_HAL_Driver/Src/stm32l4xx_hal_hcd.c ****     if ((USBx_HC(ch_num)->HCINT & USB_OTG_HCINT_NYET) == USB_OTG_HCINT_NYET)
1388:Drivers/STM32L4xx_HAL_Driver/Src/stm32l4xx_hal_hcd.c ****     {
1389:Drivers/STM32L4xx_HAL_Driver/Src/stm32l4xx_hal_hcd.c ****       hhcd->hc[ch_num].do_ping = 1U;
1390:Drivers/STM32L4xx_HAL_Driver/Src/stm32l4xx_hal_hcd.c ****       __HAL_HCD_CLEAR_HC_INT(ch_num, USB_OTG_HCINT_NYET);
1391:Drivers/STM32L4xx_HAL_Driver/Src/stm32l4xx_hal_hcd.c ****     }
1392:Drivers/STM32L4xx_HAL_Driver/Src/stm32l4xx_hal_hcd.c ****     __HAL_HCD_CLEAR_HC_INT(ch_num, USB_OTG_HCINT_XFRC);
1393:Drivers/STM32L4xx_HAL_Driver/Src/stm32l4xx_hal_hcd.c ****     hhcd->hc[ch_num].state = HC_XFRC;
1394:Drivers/STM32L4xx_HAL_Driver/Src/stm32l4xx_hal_hcd.c ****     (void)USB_HC_Halt(hhcd->Instance, (uint8_t)ch_num);
1395:Drivers/STM32L4xx_HAL_Driver/Src/stm32l4xx_hal_hcd.c ****   }
1396:Drivers/STM32L4xx_HAL_Driver/Src/stm32l4xx_hal_hcd.c ****   else if ((USBx_HC(ch_num)->HCINT & USB_OTG_HCINT_NYET) == USB_OTG_HCINT_NYET)
1397:Drivers/STM32L4xx_HAL_Driver/Src/stm32l4xx_hal_hcd.c ****   {
1398:Drivers/STM32L4xx_HAL_Driver/Src/stm32l4xx_hal_hcd.c ****     hhcd->hc[ch_num].state = HC_NYET;
ARM GAS  C:\Users\HP\AppData\Local\Temp\ccGJK0AZ.s 			page 26


1399:Drivers/STM32L4xx_HAL_Driver/Src/stm32l4xx_hal_hcd.c ****     hhcd->hc[ch_num].do_ping = 1U;
1400:Drivers/STM32L4xx_HAL_Driver/Src/stm32l4xx_hal_hcd.c ****     hhcd->hc[ch_num].ErrCnt = 0U;
1401:Drivers/STM32L4xx_HAL_Driver/Src/stm32l4xx_hal_hcd.c ****     (void)USB_HC_Halt(hhcd->Instance, (uint8_t)ch_num);
1402:Drivers/STM32L4xx_HAL_Driver/Src/stm32l4xx_hal_hcd.c ****     __HAL_HCD_CLEAR_HC_INT(ch_num, USB_OTG_HCINT_NYET);
1403:Drivers/STM32L4xx_HAL_Driver/Src/stm32l4xx_hal_hcd.c ****   }
1404:Drivers/STM32L4xx_HAL_Driver/Src/stm32l4xx_hal_hcd.c ****   else if ((USBx_HC(ch_num)->HCINT & USB_OTG_HCINT_STALL) == USB_OTG_HCINT_STALL)
1405:Drivers/STM32L4xx_HAL_Driver/Src/stm32l4xx_hal_hcd.c ****   {
1406:Drivers/STM32L4xx_HAL_Driver/Src/stm32l4xx_hal_hcd.c ****     __HAL_HCD_CLEAR_HC_INT(ch_num, USB_OTG_HCINT_STALL);
1407:Drivers/STM32L4xx_HAL_Driver/Src/stm32l4xx_hal_hcd.c ****     hhcd->hc[ch_num].state = HC_STALL;
1408:Drivers/STM32L4xx_HAL_Driver/Src/stm32l4xx_hal_hcd.c ****     (void)USB_HC_Halt(hhcd->Instance, (uint8_t)ch_num);
1409:Drivers/STM32L4xx_HAL_Driver/Src/stm32l4xx_hal_hcd.c ****   }
1410:Drivers/STM32L4xx_HAL_Driver/Src/stm32l4xx_hal_hcd.c ****   else if ((USBx_HC(ch_num)->HCINT & USB_OTG_HCINT_NAK) == USB_OTG_HCINT_NAK)
1411:Drivers/STM32L4xx_HAL_Driver/Src/stm32l4xx_hal_hcd.c ****   {
1412:Drivers/STM32L4xx_HAL_Driver/Src/stm32l4xx_hal_hcd.c ****     hhcd->hc[ch_num].ErrCnt = 0U;
1413:Drivers/STM32L4xx_HAL_Driver/Src/stm32l4xx_hal_hcd.c ****     hhcd->hc[ch_num].state = HC_NAK;
1414:Drivers/STM32L4xx_HAL_Driver/Src/stm32l4xx_hal_hcd.c **** 
1415:Drivers/STM32L4xx_HAL_Driver/Src/stm32l4xx_hal_hcd.c ****     (void)USB_HC_Halt(hhcd->Instance, (uint8_t)ch_num);
1416:Drivers/STM32L4xx_HAL_Driver/Src/stm32l4xx_hal_hcd.c ****     __HAL_HCD_CLEAR_HC_INT(ch_num, USB_OTG_HCINT_NAK);
1417:Drivers/STM32L4xx_HAL_Driver/Src/stm32l4xx_hal_hcd.c ****   }
1418:Drivers/STM32L4xx_HAL_Driver/Src/stm32l4xx_hal_hcd.c ****   else if ((USBx_HC(ch_num)->HCINT & USB_OTG_HCINT_TXERR) == USB_OTG_HCINT_TXERR)
1419:Drivers/STM32L4xx_HAL_Driver/Src/stm32l4xx_hal_hcd.c ****   {
1420:Drivers/STM32L4xx_HAL_Driver/Src/stm32l4xx_hal_hcd.c ****     hhcd->hc[ch_num].state = HC_XACTERR;
1421:Drivers/STM32L4xx_HAL_Driver/Src/stm32l4xx_hal_hcd.c ****     (void)USB_HC_Halt(hhcd->Instance, (uint8_t)ch_num);
1422:Drivers/STM32L4xx_HAL_Driver/Src/stm32l4xx_hal_hcd.c ****     __HAL_HCD_CLEAR_HC_INT(ch_num, USB_OTG_HCINT_TXERR);
1423:Drivers/STM32L4xx_HAL_Driver/Src/stm32l4xx_hal_hcd.c ****   }
1424:Drivers/STM32L4xx_HAL_Driver/Src/stm32l4xx_hal_hcd.c ****   else if ((USBx_HC(ch_num)->HCINT & USB_OTG_HCINT_DTERR) == USB_OTG_HCINT_DTERR)
1425:Drivers/STM32L4xx_HAL_Driver/Src/stm32l4xx_hal_hcd.c ****   {
1426:Drivers/STM32L4xx_HAL_Driver/Src/stm32l4xx_hal_hcd.c ****     hhcd->hc[ch_num].state = HC_DATATGLERR;
1427:Drivers/STM32L4xx_HAL_Driver/Src/stm32l4xx_hal_hcd.c ****     (void)USB_HC_Halt(hhcd->Instance, (uint8_t)ch_num);
1428:Drivers/STM32L4xx_HAL_Driver/Src/stm32l4xx_hal_hcd.c ****     __HAL_HCD_CLEAR_HC_INT(ch_num, USB_OTG_HCINT_DTERR);
1429:Drivers/STM32L4xx_HAL_Driver/Src/stm32l4xx_hal_hcd.c ****   }
1430:Drivers/STM32L4xx_HAL_Driver/Src/stm32l4xx_hal_hcd.c ****   else if ((USBx_HC(ch_num)->HCINT & USB_OTG_HCINT_CHH) == USB_OTG_HCINT_CHH)
1431:Drivers/STM32L4xx_HAL_Driver/Src/stm32l4xx_hal_hcd.c ****   {
1432:Drivers/STM32L4xx_HAL_Driver/Src/stm32l4xx_hal_hcd.c ****     if (hhcd->hc[ch_num].state == HC_XFRC)
1433:Drivers/STM32L4xx_HAL_Driver/Src/stm32l4xx_hal_hcd.c ****     {
1434:Drivers/STM32L4xx_HAL_Driver/Src/stm32l4xx_hal_hcd.c ****       hhcd->hc[ch_num].urb_state  = URB_DONE;
1435:Drivers/STM32L4xx_HAL_Driver/Src/stm32l4xx_hal_hcd.c ****       if ((hhcd->hc[ch_num].ep_type == EP_TYPE_BULK) ||
1436:Drivers/STM32L4xx_HAL_Driver/Src/stm32l4xx_hal_hcd.c ****           (hhcd->hc[ch_num].ep_type == EP_TYPE_INTR))
1437:Drivers/STM32L4xx_HAL_Driver/Src/stm32l4xx_hal_hcd.c ****       {
1438:Drivers/STM32L4xx_HAL_Driver/Src/stm32l4xx_hal_hcd.c ****         if (hhcd->Init.dma_enable == 0U)
1439:Drivers/STM32L4xx_HAL_Driver/Src/stm32l4xx_hal_hcd.c ****         {
1440:Drivers/STM32L4xx_HAL_Driver/Src/stm32l4xx_hal_hcd.c ****           hhcd->hc[ch_num].toggle_out ^= 1U;
1441:Drivers/STM32L4xx_HAL_Driver/Src/stm32l4xx_hal_hcd.c ****         }
1442:Drivers/STM32L4xx_HAL_Driver/Src/stm32l4xx_hal_hcd.c **** 
1443:Drivers/STM32L4xx_HAL_Driver/Src/stm32l4xx_hal_hcd.c ****         if ((hhcd->Init.dma_enable == 1U) && (hhcd->hc[ch_num].xfer_len > 0U))
1444:Drivers/STM32L4xx_HAL_Driver/Src/stm32l4xx_hal_hcd.c ****         {
1445:Drivers/STM32L4xx_HAL_Driver/Src/stm32l4xx_hal_hcd.c ****           num_packets = (hhcd->hc[ch_num].xfer_len + hhcd->hc[ch_num].max_packet - 1U) / hhcd->hc[c
1446:Drivers/STM32L4xx_HAL_Driver/Src/stm32l4xx_hal_hcd.c **** 
1447:Drivers/STM32L4xx_HAL_Driver/Src/stm32l4xx_hal_hcd.c ****           if ((num_packets & 1U) != 0U)
1448:Drivers/STM32L4xx_HAL_Driver/Src/stm32l4xx_hal_hcd.c ****           {
1449:Drivers/STM32L4xx_HAL_Driver/Src/stm32l4xx_hal_hcd.c ****             hhcd->hc[ch_num].toggle_out ^= 1U;
1450:Drivers/STM32L4xx_HAL_Driver/Src/stm32l4xx_hal_hcd.c ****           }
1451:Drivers/STM32L4xx_HAL_Driver/Src/stm32l4xx_hal_hcd.c ****         }
1452:Drivers/STM32L4xx_HAL_Driver/Src/stm32l4xx_hal_hcd.c ****       }
1453:Drivers/STM32L4xx_HAL_Driver/Src/stm32l4xx_hal_hcd.c ****     }
1454:Drivers/STM32L4xx_HAL_Driver/Src/stm32l4xx_hal_hcd.c ****     else if (hhcd->hc[ch_num].state == HC_NAK)
1455:Drivers/STM32L4xx_HAL_Driver/Src/stm32l4xx_hal_hcd.c ****     {
ARM GAS  C:\Users\HP\AppData\Local\Temp\ccGJK0AZ.s 			page 27


1456:Drivers/STM32L4xx_HAL_Driver/Src/stm32l4xx_hal_hcd.c ****       hhcd->hc[ch_num].urb_state = URB_NOTREADY;
1457:Drivers/STM32L4xx_HAL_Driver/Src/stm32l4xx_hal_hcd.c ****     }
1458:Drivers/STM32L4xx_HAL_Driver/Src/stm32l4xx_hal_hcd.c ****     else if (hhcd->hc[ch_num].state == HC_NYET)
1459:Drivers/STM32L4xx_HAL_Driver/Src/stm32l4xx_hal_hcd.c ****     {
1460:Drivers/STM32L4xx_HAL_Driver/Src/stm32l4xx_hal_hcd.c ****       hhcd->hc[ch_num].urb_state  = URB_NOTREADY;
1461:Drivers/STM32L4xx_HAL_Driver/Src/stm32l4xx_hal_hcd.c ****     }
1462:Drivers/STM32L4xx_HAL_Driver/Src/stm32l4xx_hal_hcd.c ****     else if (hhcd->hc[ch_num].state == HC_STALL)
1463:Drivers/STM32L4xx_HAL_Driver/Src/stm32l4xx_hal_hcd.c ****     {
1464:Drivers/STM32L4xx_HAL_Driver/Src/stm32l4xx_hal_hcd.c ****       hhcd->hc[ch_num].urb_state  = URB_STALL;
1465:Drivers/STM32L4xx_HAL_Driver/Src/stm32l4xx_hal_hcd.c ****     }
1466:Drivers/STM32L4xx_HAL_Driver/Src/stm32l4xx_hal_hcd.c ****     else if ((hhcd->hc[ch_num].state == HC_XACTERR) ||
1467:Drivers/STM32L4xx_HAL_Driver/Src/stm32l4xx_hal_hcd.c ****              (hhcd->hc[ch_num].state == HC_DATATGLERR))
1468:Drivers/STM32L4xx_HAL_Driver/Src/stm32l4xx_hal_hcd.c ****     {
1469:Drivers/STM32L4xx_HAL_Driver/Src/stm32l4xx_hal_hcd.c ****       hhcd->hc[ch_num].ErrCnt++;
1470:Drivers/STM32L4xx_HAL_Driver/Src/stm32l4xx_hal_hcd.c ****       if (hhcd->hc[ch_num].ErrCnt > 2U)
1471:Drivers/STM32L4xx_HAL_Driver/Src/stm32l4xx_hal_hcd.c ****       {
1472:Drivers/STM32L4xx_HAL_Driver/Src/stm32l4xx_hal_hcd.c ****         hhcd->hc[ch_num].ErrCnt = 0U;
1473:Drivers/STM32L4xx_HAL_Driver/Src/stm32l4xx_hal_hcd.c ****         hhcd->hc[ch_num].urb_state = URB_ERROR;
1474:Drivers/STM32L4xx_HAL_Driver/Src/stm32l4xx_hal_hcd.c ****       }
1475:Drivers/STM32L4xx_HAL_Driver/Src/stm32l4xx_hal_hcd.c ****       else
1476:Drivers/STM32L4xx_HAL_Driver/Src/stm32l4xx_hal_hcd.c ****       {
1477:Drivers/STM32L4xx_HAL_Driver/Src/stm32l4xx_hal_hcd.c ****         hhcd->hc[ch_num].urb_state = URB_NOTREADY;
1478:Drivers/STM32L4xx_HAL_Driver/Src/stm32l4xx_hal_hcd.c **** 
1479:Drivers/STM32L4xx_HAL_Driver/Src/stm32l4xx_hal_hcd.c ****         /* re-activate the channel  */
1480:Drivers/STM32L4xx_HAL_Driver/Src/stm32l4xx_hal_hcd.c ****         tmpreg = USBx_HC(ch_num)->HCCHAR;
1481:Drivers/STM32L4xx_HAL_Driver/Src/stm32l4xx_hal_hcd.c ****         tmpreg &= ~USB_OTG_HCCHAR_CHDIS;
1482:Drivers/STM32L4xx_HAL_Driver/Src/stm32l4xx_hal_hcd.c ****         tmpreg |= USB_OTG_HCCHAR_CHENA;
1483:Drivers/STM32L4xx_HAL_Driver/Src/stm32l4xx_hal_hcd.c ****         USBx_HC(ch_num)->HCCHAR = tmpreg;
1484:Drivers/STM32L4xx_HAL_Driver/Src/stm32l4xx_hal_hcd.c ****       }
1485:Drivers/STM32L4xx_HAL_Driver/Src/stm32l4xx_hal_hcd.c ****     }
1486:Drivers/STM32L4xx_HAL_Driver/Src/stm32l4xx_hal_hcd.c ****     else
1487:Drivers/STM32L4xx_HAL_Driver/Src/stm32l4xx_hal_hcd.c ****     {
1488:Drivers/STM32L4xx_HAL_Driver/Src/stm32l4xx_hal_hcd.c ****       /* ... */
1489:Drivers/STM32L4xx_HAL_Driver/Src/stm32l4xx_hal_hcd.c ****     }
1490:Drivers/STM32L4xx_HAL_Driver/Src/stm32l4xx_hal_hcd.c **** 
1491:Drivers/STM32L4xx_HAL_Driver/Src/stm32l4xx_hal_hcd.c ****     __HAL_HCD_CLEAR_HC_INT(ch_num, USB_OTG_HCINT_CHH);
1492:Drivers/STM32L4xx_HAL_Driver/Src/stm32l4xx_hal_hcd.c **** 
1493:Drivers/STM32L4xx_HAL_Driver/Src/stm32l4xx_hal_hcd.c **** #if (USE_HAL_HCD_REGISTER_CALLBACKS == 1U)
1494:Drivers/STM32L4xx_HAL_Driver/Src/stm32l4xx_hal_hcd.c ****     hhcd->HC_NotifyURBChangeCallback(hhcd, (uint8_t)ch_num, hhcd->hc[ch_num].urb_state);
1495:Drivers/STM32L4xx_HAL_Driver/Src/stm32l4xx_hal_hcd.c **** #else
1496:Drivers/STM32L4xx_HAL_Driver/Src/stm32l4xx_hal_hcd.c ****     HAL_HCD_HC_NotifyURBChange_Callback(hhcd, (uint8_t)ch_num, hhcd->hc[ch_num].urb_state);
1497:Drivers/STM32L4xx_HAL_Driver/Src/stm32l4xx_hal_hcd.c **** #endif /* USE_HAL_HCD_REGISTER_CALLBACKS */
1498:Drivers/STM32L4xx_HAL_Driver/Src/stm32l4xx_hal_hcd.c ****   }
1499:Drivers/STM32L4xx_HAL_Driver/Src/stm32l4xx_hal_hcd.c ****   else
1500:Drivers/STM32L4xx_HAL_Driver/Src/stm32l4xx_hal_hcd.c ****   {
1501:Drivers/STM32L4xx_HAL_Driver/Src/stm32l4xx_hal_hcd.c ****     /* ... */
1502:Drivers/STM32L4xx_HAL_Driver/Src/stm32l4xx_hal_hcd.c ****   }
1503:Drivers/STM32L4xx_HAL_Driver/Src/stm32l4xx_hal_hcd.c **** }
1504:Drivers/STM32L4xx_HAL_Driver/Src/stm32l4xx_hal_hcd.c **** 
1505:Drivers/STM32L4xx_HAL_Driver/Src/stm32l4xx_hal_hcd.c **** /**
1506:Drivers/STM32L4xx_HAL_Driver/Src/stm32l4xx_hal_hcd.c ****   * @brief  Handle Rx Queue Level interrupt requests.
1507:Drivers/STM32L4xx_HAL_Driver/Src/stm32l4xx_hal_hcd.c ****   * @param  hhcd HCD handle
1508:Drivers/STM32L4xx_HAL_Driver/Src/stm32l4xx_hal_hcd.c ****   * @retval none
1509:Drivers/STM32L4xx_HAL_Driver/Src/stm32l4xx_hal_hcd.c ****   */
1510:Drivers/STM32L4xx_HAL_Driver/Src/stm32l4xx_hal_hcd.c **** static void HCD_RXQLVL_IRQHandler(HCD_HandleTypeDef *hhcd)
1511:Drivers/STM32L4xx_HAL_Driver/Src/stm32l4xx_hal_hcd.c **** {
  29              		.loc 1 1511 1 view -0
ARM GAS  C:\Users\HP\AppData\Local\Temp\ccGJK0AZ.s 			page 28


  30              		.cfi_startproc
  31              		@ args = 0, pretend = 0, frame = 0
  32              		@ frame_needed = 0, uses_anonymous_args = 0
  33              		.loc 1 1511 1 is_stmt 0 view .LVU1
  34 0000 F8B5     		push	{r3, r4, r5, r6, r7, lr}
  35              	.LCFI0:
  36              		.cfi_def_cfa_offset 24
  37              		.cfi_offset 3, -24
  38              		.cfi_offset 4, -20
  39              		.cfi_offset 5, -16
  40              		.cfi_offset 6, -12
  41              		.cfi_offset 7, -8
  42              		.cfi_offset 14, -4
1512:Drivers/STM32L4xx_HAL_Driver/Src/stm32l4xx_hal_hcd.c ****   USB_OTG_GlobalTypeDef *USBx = hhcd->Instance;
  43              		.loc 1 1512 3 is_stmt 1 view .LVU2
  44              		.loc 1 1512 26 is_stmt 0 view .LVU3
  45 0002 0668     		ldr	r6, [r0]
  46              	.LVL1:
1513:Drivers/STM32L4xx_HAL_Driver/Src/stm32l4xx_hal_hcd.c ****   uint32_t USBx_BASE = (uint32_t)USBx;
  47              		.loc 1 1513 3 is_stmt 1 view .LVU4
1514:Drivers/STM32L4xx_HAL_Driver/Src/stm32l4xx_hal_hcd.c ****   uint32_t pktsts;
  48              		.loc 1 1514 3 view .LVU5
1515:Drivers/STM32L4xx_HAL_Driver/Src/stm32l4xx_hal_hcd.c ****   uint32_t pktcnt;
  49              		.loc 1 1515 3 view .LVU6
1516:Drivers/STM32L4xx_HAL_Driver/Src/stm32l4xx_hal_hcd.c ****   uint32_t GrxstspReg;
  50              		.loc 1 1516 3 view .LVU7
1517:Drivers/STM32L4xx_HAL_Driver/Src/stm32l4xx_hal_hcd.c ****   uint32_t xferSizePktCnt;
  51              		.loc 1 1517 3 view .LVU8
1518:Drivers/STM32L4xx_HAL_Driver/Src/stm32l4xx_hal_hcd.c ****   uint32_t tmpreg;
  52              		.loc 1 1518 3 view .LVU9
1519:Drivers/STM32L4xx_HAL_Driver/Src/stm32l4xx_hal_hcd.c ****   uint32_t ch_num;
  53              		.loc 1 1519 3 view .LVU10
1520:Drivers/STM32L4xx_HAL_Driver/Src/stm32l4xx_hal_hcd.c **** 
1521:Drivers/STM32L4xx_HAL_Driver/Src/stm32l4xx_hal_hcd.c ****   GrxstspReg = hhcd->Instance->GRXSTSP;
  54              		.loc 1 1521 3 view .LVU11
  55              		.loc 1 1521 14 is_stmt 0 view .LVU12
  56 0004 346A     		ldr	r4, [r6, #32]
  57              	.LVL2:
1522:Drivers/STM32L4xx_HAL_Driver/Src/stm32l4xx_hal_hcd.c ****   ch_num = GrxstspReg & USB_OTG_GRXSTSP_EPNUM;
  58              		.loc 1 1522 3 is_stmt 1 view .LVU13
  59              		.loc 1 1522 10 is_stmt 0 view .LVU14
  60 0006 04F00F07 		and	r7, r4, #15
  61              	.LVL3:
1523:Drivers/STM32L4xx_HAL_Driver/Src/stm32l4xx_hal_hcd.c ****   pktsts = (GrxstspReg & USB_OTG_GRXSTSP_PKTSTS) >> 17;
  62              		.loc 1 1523 3 is_stmt 1 view .LVU15
  63              		.loc 1 1523 10 is_stmt 0 view .LVU16
  64 000a C4F34343 		ubfx	r3, r4, #17, #4
  65              	.LVL4:
1524:Drivers/STM32L4xx_HAL_Driver/Src/stm32l4xx_hal_hcd.c ****   pktcnt = (GrxstspReg & USB_OTG_GRXSTSP_BCNT) >> 4;
  66              		.loc 1 1524 3 is_stmt 1 view .LVU17
  67              		.loc 1 1524 10 is_stmt 0 view .LVU18
  68 000e C4F30A14 		ubfx	r4, r4, #4, #11
  69              	.LVL5:
1525:Drivers/STM32L4xx_HAL_Driver/Src/stm32l4xx_hal_hcd.c **** 
1526:Drivers/STM32L4xx_HAL_Driver/Src/stm32l4xx_hal_hcd.c ****   switch (pktsts)
  70              		.loc 1 1526 3 is_stmt 1 view .LVU19
  71 0012 022B     		cmp	r3, #2
ARM GAS  C:\Users\HP\AppData\Local\Temp\ccGJK0AZ.s 			page 29


  72 0014 00D0     		beq	.L5
  73              	.LVL6:
  74              	.L1:
1527:Drivers/STM32L4xx_HAL_Driver/Src/stm32l4xx_hal_hcd.c ****   {
1528:Drivers/STM32L4xx_HAL_Driver/Src/stm32l4xx_hal_hcd.c ****     case GRXSTS_PKTSTS_IN:
1529:Drivers/STM32L4xx_HAL_Driver/Src/stm32l4xx_hal_hcd.c ****       /* Read the data into the host buffer. */
1530:Drivers/STM32L4xx_HAL_Driver/Src/stm32l4xx_hal_hcd.c ****       if ((pktcnt > 0U) && (hhcd->hc[ch_num].xfer_buff != (void *)0))
1531:Drivers/STM32L4xx_HAL_Driver/Src/stm32l4xx_hal_hcd.c ****       {
1532:Drivers/STM32L4xx_HAL_Driver/Src/stm32l4xx_hal_hcd.c ****         if ((hhcd->hc[ch_num].xfer_count + pktcnt) <= hhcd->hc[ch_num].xfer_len)
1533:Drivers/STM32L4xx_HAL_Driver/Src/stm32l4xx_hal_hcd.c ****         {
1534:Drivers/STM32L4xx_HAL_Driver/Src/stm32l4xx_hal_hcd.c ****           (void)USB_ReadPacket(hhcd->Instance,
1535:Drivers/STM32L4xx_HAL_Driver/Src/stm32l4xx_hal_hcd.c ****                                hhcd->hc[ch_num].xfer_buff, (uint16_t)pktcnt);
1536:Drivers/STM32L4xx_HAL_Driver/Src/stm32l4xx_hal_hcd.c **** 
1537:Drivers/STM32L4xx_HAL_Driver/Src/stm32l4xx_hal_hcd.c ****           /* manage multiple Xfer */
1538:Drivers/STM32L4xx_HAL_Driver/Src/stm32l4xx_hal_hcd.c ****           hhcd->hc[ch_num].xfer_buff += pktcnt;
1539:Drivers/STM32L4xx_HAL_Driver/Src/stm32l4xx_hal_hcd.c ****           hhcd->hc[ch_num].xfer_count += pktcnt;
1540:Drivers/STM32L4xx_HAL_Driver/Src/stm32l4xx_hal_hcd.c **** 
1541:Drivers/STM32L4xx_HAL_Driver/Src/stm32l4xx_hal_hcd.c ****           /* get transfer size packet count */
1542:Drivers/STM32L4xx_HAL_Driver/Src/stm32l4xx_hal_hcd.c ****           xferSizePktCnt = (USBx_HC(ch_num)->HCTSIZ & USB_OTG_HCTSIZ_PKTCNT) >> 19;
1543:Drivers/STM32L4xx_HAL_Driver/Src/stm32l4xx_hal_hcd.c **** 
1544:Drivers/STM32L4xx_HAL_Driver/Src/stm32l4xx_hal_hcd.c ****           if ((hhcd->hc[ch_num].max_packet == pktcnt) && (xferSizePktCnt > 0U))
1545:Drivers/STM32L4xx_HAL_Driver/Src/stm32l4xx_hal_hcd.c ****           {
1546:Drivers/STM32L4xx_HAL_Driver/Src/stm32l4xx_hal_hcd.c ****             /* re-activate the channel when more packets are expected */
1547:Drivers/STM32L4xx_HAL_Driver/Src/stm32l4xx_hal_hcd.c ****             tmpreg = USBx_HC(ch_num)->HCCHAR;
1548:Drivers/STM32L4xx_HAL_Driver/Src/stm32l4xx_hal_hcd.c ****             tmpreg &= ~USB_OTG_HCCHAR_CHDIS;
1549:Drivers/STM32L4xx_HAL_Driver/Src/stm32l4xx_hal_hcd.c ****             tmpreg |= USB_OTG_HCCHAR_CHENA;
1550:Drivers/STM32L4xx_HAL_Driver/Src/stm32l4xx_hal_hcd.c ****             USBx_HC(ch_num)->HCCHAR = tmpreg;
1551:Drivers/STM32L4xx_HAL_Driver/Src/stm32l4xx_hal_hcd.c ****             hhcd->hc[ch_num].toggle_in ^= 1U;
1552:Drivers/STM32L4xx_HAL_Driver/Src/stm32l4xx_hal_hcd.c ****           }
1553:Drivers/STM32L4xx_HAL_Driver/Src/stm32l4xx_hal_hcd.c ****         }
1554:Drivers/STM32L4xx_HAL_Driver/Src/stm32l4xx_hal_hcd.c ****         else
1555:Drivers/STM32L4xx_HAL_Driver/Src/stm32l4xx_hal_hcd.c ****         {
1556:Drivers/STM32L4xx_HAL_Driver/Src/stm32l4xx_hal_hcd.c ****           hhcd->hc[ch_num].urb_state = URB_ERROR;
1557:Drivers/STM32L4xx_HAL_Driver/Src/stm32l4xx_hal_hcd.c ****         }
1558:Drivers/STM32L4xx_HAL_Driver/Src/stm32l4xx_hal_hcd.c ****       }
1559:Drivers/STM32L4xx_HAL_Driver/Src/stm32l4xx_hal_hcd.c ****       break;
1560:Drivers/STM32L4xx_HAL_Driver/Src/stm32l4xx_hal_hcd.c **** 
1561:Drivers/STM32L4xx_HAL_Driver/Src/stm32l4xx_hal_hcd.c ****     case GRXSTS_PKTSTS_DATA_TOGGLE_ERR:
1562:Drivers/STM32L4xx_HAL_Driver/Src/stm32l4xx_hal_hcd.c ****       break;
1563:Drivers/STM32L4xx_HAL_Driver/Src/stm32l4xx_hal_hcd.c **** 
1564:Drivers/STM32L4xx_HAL_Driver/Src/stm32l4xx_hal_hcd.c ****     case GRXSTS_PKTSTS_IN_XFER_COMP:
1565:Drivers/STM32L4xx_HAL_Driver/Src/stm32l4xx_hal_hcd.c ****     case GRXSTS_PKTSTS_CH_HALTED:
1566:Drivers/STM32L4xx_HAL_Driver/Src/stm32l4xx_hal_hcd.c ****     default:
1567:Drivers/STM32L4xx_HAL_Driver/Src/stm32l4xx_hal_hcd.c ****       break;
1568:Drivers/STM32L4xx_HAL_Driver/Src/stm32l4xx_hal_hcd.c ****   }
1569:Drivers/STM32L4xx_HAL_Driver/Src/stm32l4xx_hal_hcd.c **** }
  75              		.loc 1 1569 1 is_stmt 0 view .LVU20
  76 0016 F8BD     		pop	{r3, r4, r5, r6, r7, pc}
  77              	.LVL7:
  78              	.L5:
  79              		.loc 1 1569 1 view .LVU21
  80 0018 0546     		mov	r5, r0
1530:Drivers/STM32L4xx_HAL_Driver/Src/stm32l4xx_hal_hcd.c ****       {
  81              		.loc 1 1530 7 is_stmt 1 view .LVU22
1530:Drivers/STM32L4xx_HAL_Driver/Src/stm32l4xx_hal_hcd.c ****       {
  82              		.loc 1 1530 10 is_stmt 0 view .LVU23
  83 001a 002C     		cmp	r4, #0
ARM GAS  C:\Users\HP\AppData\Local\Temp\ccGJK0AZ.s 			page 30


  84 001c FBD0     		beq	.L1
1530:Drivers/STM32L4xx_HAL_Driver/Src/stm32l4xx_hal_hcd.c ****       {
  85              		.loc 1 1530 45 discriminator 1 view .LVU24
  86 001e 2C23     		movs	r3, #44
  87              	.LVL8:
1530:Drivers/STM32L4xx_HAL_Driver/Src/stm32l4xx_hal_hcd.c ****       {
  88              		.loc 1 1530 45 discriminator 1 view .LVU25
  89 0020 03FB0703 		mla	r3, r3, r7, r0
  90 0024 596C     		ldr	r1, [r3, #68]
1530:Drivers/STM32L4xx_HAL_Driver/Src/stm32l4xx_hal_hcd.c ****       {
  91              		.loc 1 1530 25 discriminator 1 view .LVU26
  92 0026 0029     		cmp	r1, #0
  93 0028 F5D0     		beq	.L1
1532:Drivers/STM32L4xx_HAL_Driver/Src/stm32l4xx_hal_hcd.c ****         {
  94              		.loc 1 1532 9 is_stmt 1 view .LVU27
1532:Drivers/STM32L4xx_HAL_Driver/Src/stm32l4xx_hal_hcd.c ****         {
  95              		.loc 1 1532 30 is_stmt 0 view .LVU28
  96 002a 2C23     		movs	r3, #44
  97 002c 03FB0703 		mla	r3, r3, r7, r0
  98 0030 1A6D     		ldr	r2, [r3, #80]
1532:Drivers/STM32L4xx_HAL_Driver/Src/stm32l4xx_hal_hcd.c ****         {
  99              		.loc 1 1532 42 view .LVU29
 100 0032 2244     		add	r2, r2, r4
1532:Drivers/STM32L4xx_HAL_Driver/Src/stm32l4xx_hal_hcd.c ****         {
 101              		.loc 1 1532 71 view .LVU30
 102 0034 DB6C     		ldr	r3, [r3, #76]
1532:Drivers/STM32L4xx_HAL_Driver/Src/stm32l4xx_hal_hcd.c ****         {
 103              		.loc 1 1532 12 view .LVU31
 104 0036 9A42     		cmp	r2, r3
 105 0038 06D9     		bls	.L6
1556:Drivers/STM32L4xx_HAL_Driver/Src/stm32l4xx_hal_hcd.c ****         }
 106              		.loc 1 1556 11 is_stmt 1 view .LVU32
1556:Drivers/STM32L4xx_HAL_Driver/Src/stm32l4xx_hal_hcd.c ****         }
 107              		.loc 1 1556 38 is_stmt 0 view .LVU33
 108 003a 2C20     		movs	r0, #44
 109              	.LVL9:
1556:Drivers/STM32L4xx_HAL_Driver/Src/stm32l4xx_hal_hcd.c ****         }
 110              		.loc 1 1556 38 view .LVU34
 111 003c 00FB0755 		mla	r5, r0, r7, r5
 112              	.LVL10:
1556:Drivers/STM32L4xx_HAL_Driver/Src/stm32l4xx_hal_hcd.c ****         }
 113              		.loc 1 1556 38 view .LVU35
 114 0040 0423     		movs	r3, #4
 115 0042 85F86030 		strb	r3, [r5, #96]
 116              		.loc 1 1569 1 view .LVU36
 117 0046 E6E7     		b	.L1
 118              	.LVL11:
 119              	.L6:
1534:Drivers/STM32L4xx_HAL_Driver/Src/stm32l4xx_hal_hcd.c ****                                hhcd->hc[ch_num].xfer_buff, (uint16_t)pktcnt);
 120              		.loc 1 1534 11 is_stmt 1 view .LVU37
1534:Drivers/STM32L4xx_HAL_Driver/Src/stm32l4xx_hal_hcd.c ****                                hhcd->hc[ch_num].xfer_buff, (uint16_t)pktcnt);
 121              		.loc 1 1534 17 is_stmt 0 view .LVU38
 122 0048 2246     		mov	r2, r4
 123 004a 3046     		mov	r0, r6
 124              	.LVL12:
1534:Drivers/STM32L4xx_HAL_Driver/Src/stm32l4xx_hal_hcd.c ****                                hhcd->hc[ch_num].xfer_buff, (uint16_t)pktcnt);
 125              		.loc 1 1534 17 view .LVU39
ARM GAS  C:\Users\HP\AppData\Local\Temp\ccGJK0AZ.s 			page 31


 126 004c FFF7FEFF 		bl	USB_ReadPacket
 127              	.LVL13:
1538:Drivers/STM32L4xx_HAL_Driver/Src/stm32l4xx_hal_hcd.c ****           hhcd->hc[ch_num].xfer_count += pktcnt;
 128              		.loc 1 1538 11 is_stmt 1 view .LVU40
1538:Drivers/STM32L4xx_HAL_Driver/Src/stm32l4xx_hal_hcd.c ****           hhcd->hc[ch_num].xfer_count += pktcnt;
 129              		.loc 1 1538 38 is_stmt 0 view .LVU41
 130 0050 2C23     		movs	r3, #44
 131 0052 03FB0753 		mla	r3, r3, r7, r5
 132 0056 5A6C     		ldr	r2, [r3, #68]
 133 0058 2244     		add	r2, r2, r4
 134 005a 5A64     		str	r2, [r3, #68]
1539:Drivers/STM32L4xx_HAL_Driver/Src/stm32l4xx_hal_hcd.c **** 
 135              		.loc 1 1539 11 is_stmt 1 view .LVU42
1539:Drivers/STM32L4xx_HAL_Driver/Src/stm32l4xx_hal_hcd.c **** 
 136              		.loc 1 1539 39 is_stmt 0 view .LVU43
 137 005c 1A6D     		ldr	r2, [r3, #80]
 138 005e 2244     		add	r2, r2, r4
 139 0060 1A65     		str	r2, [r3, #80]
1542:Drivers/STM32L4xx_HAL_Driver/Src/stm32l4xx_hal_hcd.c **** 
 140              		.loc 1 1542 11 is_stmt 1 view .LVU44
1542:Drivers/STM32L4xx_HAL_Driver/Src/stm32l4xx_hal_hcd.c **** 
 141              		.loc 1 1542 29 is_stmt 0 view .LVU45
 142 0062 06EB4716 		add	r6, r6, r7, lsl #5
 143              	.LVL14:
1542:Drivers/STM32L4xx_HAL_Driver/Src/stm32l4xx_hal_hcd.c **** 
 144              		.loc 1 1542 44 view .LVU46
 145 0066 D6F81025 		ldr	r2, [r6, #1296]
1542:Drivers/STM32L4xx_HAL_Driver/Src/stm32l4xx_hal_hcd.c **** 
 146              		.loc 1 1542 26 view .LVU47
 147 006a C2F3C942 		ubfx	r2, r2, #19, #10
 148              	.LVL15:
1544:Drivers/STM32L4xx_HAL_Driver/Src/stm32l4xx_hal_hcd.c ****           {
 149              		.loc 1 1544 11 is_stmt 1 view .LVU48
1544:Drivers/STM32L4xx_HAL_Driver/Src/stm32l4xx_hal_hcd.c ****           {
 150              		.loc 1 1544 32 is_stmt 0 view .LVU49
 151 006e B3F84030 		ldrh	r3, [r3, #64]
1544:Drivers/STM32L4xx_HAL_Driver/Src/stm32l4xx_hal_hcd.c ****           {
 152              		.loc 1 1544 14 view .LVU50
 153 0072 A342     		cmp	r3, r4
 154 0074 CFD1     		bne	.L1
1544:Drivers/STM32L4xx_HAL_Driver/Src/stm32l4xx_hal_hcd.c ****           {
 155              		.loc 1 1544 55 discriminator 1 view .LVU51
 156 0076 002A     		cmp	r2, #0
 157 0078 CDD0     		beq	.L1
1547:Drivers/STM32L4xx_HAL_Driver/Src/stm32l4xx_hal_hcd.c ****             tmpreg &= ~USB_OTG_HCCHAR_CHDIS;
 158              		.loc 1 1547 13 is_stmt 1 view .LVU52
1547:Drivers/STM32L4xx_HAL_Driver/Src/stm32l4xx_hal_hcd.c ****             tmpreg &= ~USB_OTG_HCCHAR_CHDIS;
 159              		.loc 1 1547 20 is_stmt 0 view .LVU53
 160 007a D6F80035 		ldr	r3, [r6, #1280]
 161              	.LVL16:
1548:Drivers/STM32L4xx_HAL_Driver/Src/stm32l4xx_hal_hcd.c ****             tmpreg |= USB_OTG_HCCHAR_CHENA;
 162              		.loc 1 1548 13 is_stmt 1 view .LVU54
1548:Drivers/STM32L4xx_HAL_Driver/Src/stm32l4xx_hal_hcd.c ****             tmpreg |= USB_OTG_HCCHAR_CHENA;
 163              		.loc 1 1548 20 is_stmt 0 view .LVU55
 164 007e 23F08043 		bic	r3, r3, #1073741824
 165              	.LVL17:
1549:Drivers/STM32L4xx_HAL_Driver/Src/stm32l4xx_hal_hcd.c ****             USBx_HC(ch_num)->HCCHAR = tmpreg;
ARM GAS  C:\Users\HP\AppData\Local\Temp\ccGJK0AZ.s 			page 32


 166              		.loc 1 1549 13 is_stmt 1 view .LVU56
1549:Drivers/STM32L4xx_HAL_Driver/Src/stm32l4xx_hal_hcd.c ****             USBx_HC(ch_num)->HCCHAR = tmpreg;
 167              		.loc 1 1549 20 is_stmt 0 view .LVU57
 168 0082 43F00043 		orr	r3, r3, #-2147483648
 169              	.LVL18:
1550:Drivers/STM32L4xx_HAL_Driver/Src/stm32l4xx_hal_hcd.c ****             hhcd->hc[ch_num].toggle_in ^= 1U;
 170              		.loc 1 1550 13 is_stmt 1 view .LVU58
1550:Drivers/STM32L4xx_HAL_Driver/Src/stm32l4xx_hal_hcd.c ****             hhcd->hc[ch_num].toggle_in ^= 1U;
 171              		.loc 1 1550 37 is_stmt 0 view .LVU59
 172 0086 C6F80035 		str	r3, [r6, #1280]
1551:Drivers/STM32L4xx_HAL_Driver/Src/stm32l4xx_hal_hcd.c ****           }
 173              		.loc 1 1551 13 is_stmt 1 view .LVU60
1551:Drivers/STM32L4xx_HAL_Driver/Src/stm32l4xx_hal_hcd.c ****           }
 174              		.loc 1 1551 40 is_stmt 0 view .LVU61
 175 008a 2C23     		movs	r3, #44
 176              	.LVL19:
1551:Drivers/STM32L4xx_HAL_Driver/Src/stm32l4xx_hal_hcd.c ****           }
 177              		.loc 1 1551 40 view .LVU62
 178 008c 03FB0755 		mla	r5, r3, r7, r5
 179              	.LVL20:
1551:Drivers/STM32L4xx_HAL_Driver/Src/stm32l4xx_hal_hcd.c ****           }
 180              		.loc 1 1551 40 view .LVU63
 181 0090 95F85430 		ldrb	r3, [r5, #84]	@ zero_extendqisi2
 182 0094 83F00103 		eor	r3, r3, #1
 183 0098 85F85430 		strb	r3, [r5, #84]
 184              	.LVL21:
1551:Drivers/STM32L4xx_HAL_Driver/Src/stm32l4xx_hal_hcd.c ****           }
 185              		.loc 1 1551 40 view .LVU64
 186 009c BBE7     		b	.L1
 187              		.cfi_endproc
 188              	.LFE157:
 190              		.section	.text.HAL_HCD_HC_Init,"ax",%progbits
 191              		.align	1
 192              		.global	HAL_HCD_HC_Init
 193              		.syntax unified
 194              		.thumb
 195              		.thumb_func
 197              	HAL_HCD_HC_Init:
 198              	.LVL22:
 199              	.LFB133:
 203:Drivers/STM32L4xx_HAL_Driver/Src/stm32l4xx_hal_hcd.c ****   HAL_StatusTypeDef status;
 200              		.loc 1 203 1 is_stmt 1 view -0
 201              		.cfi_startproc
 202              		@ args = 12, pretend = 0, frame = 0
 203              		@ frame_needed = 0, uses_anonymous_args = 0
 203:Drivers/STM32L4xx_HAL_Driver/Src/stm32l4xx_hal_hcd.c ****   HAL_StatusTypeDef status;
 204              		.loc 1 203 1 is_stmt 0 view .LVU66
 205 0000 F0B5     		push	{r4, r5, r6, r7, lr}
 206              	.LCFI1:
 207              		.cfi_def_cfa_offset 20
 208              		.cfi_offset 4, -20
 209              		.cfi_offset 5, -16
 210              		.cfi_offset 6, -12
 211              		.cfi_offset 7, -8
 212              		.cfi_offset 14, -4
 213 0002 85B0     		sub	sp, sp, #20
 214              	.LCFI2:
ARM GAS  C:\Users\HP\AppData\Local\Temp\ccGJK0AZ.s 			page 33


 215              		.cfi_def_cfa_offset 40
 216 0004 0446     		mov	r4, r0
 217 0006 9DF82850 		ldrb	r5, [sp, #40]	@ zero_extendqisi2
 218 000a 9DF82C60 		ldrb	r6, [sp, #44]	@ zero_extendqisi2
 219 000e BDF83070 		ldrh	r7, [sp, #48]
 204:Drivers/STM32L4xx_HAL_Driver/Src/stm32l4xx_hal_hcd.c **** 
 220              		.loc 1 204 3 is_stmt 1 view .LVU67
 206:Drivers/STM32L4xx_HAL_Driver/Src/stm32l4xx_hal_hcd.c ****   hhcd->hc[ch_num].do_ping = 0U;
 221              		.loc 1 206 3 view .LVU68
 206:Drivers/STM32L4xx_HAL_Driver/Src/stm32l4xx_hal_hcd.c ****   hhcd->hc[ch_num].do_ping = 0U;
 222              		.loc 1 206 3 view .LVU69
 223 0012 90F8F802 		ldrb	r0, [r0, #760]	@ zero_extendqisi2
 224              	.LVL23:
 206:Drivers/STM32L4xx_HAL_Driver/Src/stm32l4xx_hal_hcd.c ****   hhcd->hc[ch_num].do_ping = 0U;
 225              		.loc 1 206 3 is_stmt 0 view .LVU70
 226 0016 0128     		cmp	r0, #1
 227 0018 37D0     		beq	.L11
 206:Drivers/STM32L4xx_HAL_Driver/Src/stm32l4xx_hal_hcd.c ****   hhcd->hc[ch_num].do_ping = 0U;
 228              		.loc 1 206 3 is_stmt 1 discriminator 2 view .LVU71
 229 001a 0120     		movs	r0, #1
 230 001c 84F8F802 		strb	r0, [r4, #760]
 206:Drivers/STM32L4xx_HAL_Driver/Src/stm32l4xx_hal_hcd.c ****   hhcd->hc[ch_num].do_ping = 0U;
 231              		.loc 1 206 3 discriminator 2 view .LVU72
 207:Drivers/STM32L4xx_HAL_Driver/Src/stm32l4xx_hal_hcd.c ****   hhcd->hc[ch_num].dev_addr = dev_address;
 232              		.loc 1 207 3 discriminator 2 view .LVU73
 207:Drivers/STM32L4xx_HAL_Driver/Src/stm32l4xx_hal_hcd.c ****   hhcd->hc[ch_num].dev_addr = dev_address;
 233              		.loc 1 207 28 is_stmt 0 discriminator 2 view .LVU74
 234 0020 2C20     		movs	r0, #44
 235 0022 00FB0140 		mla	r0, r0, r1, r4
 236 0026 4FF0000C 		mov	ip, #0
 237 002a 80F83DC0 		strb	ip, [r0, #61]
 208:Drivers/STM32L4xx_HAL_Driver/Src/stm32l4xx_hal_hcd.c ****   hhcd->hc[ch_num].max_packet = mps;
 238              		.loc 1 208 3 is_stmt 1 discriminator 2 view .LVU75
 208:Drivers/STM32L4xx_HAL_Driver/Src/stm32l4xx_hal_hcd.c ****   hhcd->hc[ch_num].max_packet = mps;
 239              		.loc 1 208 29 is_stmt 0 discriminator 2 view .LVU76
 240 002e 80F83830 		strb	r3, [r0, #56]
 209:Drivers/STM32L4xx_HAL_Driver/Src/stm32l4xx_hal_hcd.c ****   hhcd->hc[ch_num].ch_num = ch_num;
 241              		.loc 1 209 3 is_stmt 1 discriminator 2 view .LVU77
 209:Drivers/STM32L4xx_HAL_Driver/Src/stm32l4xx_hal_hcd.c ****   hhcd->hc[ch_num].ch_num = ch_num;
 242              		.loc 1 209 31 is_stmt 0 discriminator 2 view .LVU78
 243 0032 A0F84070 		strh	r7, [r0, #64]	@ movhi
 210:Drivers/STM32L4xx_HAL_Driver/Src/stm32l4xx_hal_hcd.c ****   hhcd->hc[ch_num].ep_type = ep_type;
 244              		.loc 1 210 3 is_stmt 1 discriminator 2 view .LVU79
 210:Drivers/STM32L4xx_HAL_Driver/Src/stm32l4xx_hal_hcd.c ****   hhcd->hc[ch_num].ep_type = ep_type;
 245              		.loc 1 210 27 is_stmt 0 discriminator 2 view .LVU80
 246 0036 80F83910 		strb	r1, [r0, #57]
 211:Drivers/STM32L4xx_HAL_Driver/Src/stm32l4xx_hal_hcd.c ****   hhcd->hc[ch_num].ep_num = epnum & 0x7FU;
 247              		.loc 1 211 3 is_stmt 1 discriminator 2 view .LVU81
 211:Drivers/STM32L4xx_HAL_Driver/Src/stm32l4xx_hal_hcd.c ****   hhcd->hc[ch_num].ep_num = epnum & 0x7FU;
 248              		.loc 1 211 28 is_stmt 0 discriminator 2 view .LVU82
 249 003a 80F83F60 		strb	r6, [r0, #63]
 212:Drivers/STM32L4xx_HAL_Driver/Src/stm32l4xx_hal_hcd.c **** 
 250              		.loc 1 212 3 is_stmt 1 discriminator 2 view .LVU83
 212:Drivers/STM32L4xx_HAL_Driver/Src/stm32l4xx_hal_hcd.c **** 
 251              		.loc 1 212 35 is_stmt 0 discriminator 2 view .LVU84
 252 003e 02F07F0C 		and	ip, r2, #127
 212:Drivers/STM32L4xx_HAL_Driver/Src/stm32l4xx_hal_hcd.c **** 
ARM GAS  C:\Users\HP\AppData\Local\Temp\ccGJK0AZ.s 			page 34


 253              		.loc 1 212 27 discriminator 2 view .LVU85
 254 0042 80F83AC0 		strb	ip, [r0, #58]
 214:Drivers/STM32L4xx_HAL_Driver/Src/stm32l4xx_hal_hcd.c ****   {
 255              		.loc 1 214 3 is_stmt 1 discriminator 2 view .LVU86
 214:Drivers/STM32L4xx_HAL_Driver/Src/stm32l4xx_hal_hcd.c ****   {
 256              		.loc 1 214 6 is_stmt 0 discriminator 2 view .LVU87
 257 0046 12F0800F 		tst	r2, #128
 258 004a 16D1     		bne	.L13
 220:Drivers/STM32L4xx_HAL_Driver/Src/stm32l4xx_hal_hcd.c ****   }
 259              		.loc 1 220 5 is_stmt 1 view .LVU88
 220:Drivers/STM32L4xx_HAL_Driver/Src/stm32l4xx_hal_hcd.c ****   }
 260              		.loc 1 220 31 is_stmt 0 view .LVU89
 261 004c 2C20     		movs	r0, #44
 262 004e 00FB0140 		mla	r0, r0, r1, r4
 263 0052 4FF0000C 		mov	ip, #0
 264 0056 80F83BC0 		strb	ip, [r0, #59]
 265              	.L10:
 223:Drivers/STM32L4xx_HAL_Driver/Src/stm32l4xx_hal_hcd.c **** 
 266              		.loc 1 223 3 is_stmt 1 view .LVU90
 223:Drivers/STM32L4xx_HAL_Driver/Src/stm32l4xx_hal_hcd.c **** 
 267              		.loc 1 223 26 is_stmt 0 view .LVU91
 268 005a 2C20     		movs	r0, #44
 269 005c 00FB0140 		mla	r0, r0, r1, r4
 270 0060 80F83C50 		strb	r5, [r0, #60]
 225:Drivers/STM32L4xx_HAL_Driver/Src/stm32l4xx_hal_hcd.c ****                         ch_num,
 271              		.loc 1 225 3 is_stmt 1 view .LVU92
 225:Drivers/STM32L4xx_HAL_Driver/Src/stm32l4xx_hal_hcd.c ****                         ch_num,
 272              		.loc 1 225 13 is_stmt 0 view .LVU93
 273 0064 0297     		str	r7, [sp, #8]
 274 0066 0196     		str	r6, [sp, #4]
 275 0068 0095     		str	r5, [sp]
 276 006a 2068     		ldr	r0, [r4]
 277 006c FFF7FEFF 		bl	USB_HC_Init
 278              	.LVL24:
 232:Drivers/STM32L4xx_HAL_Driver/Src/stm32l4xx_hal_hcd.c **** 
 279              		.loc 1 232 3 is_stmt 1 view .LVU94
 232:Drivers/STM32L4xx_HAL_Driver/Src/stm32l4xx_hal_hcd.c **** 
 280              		.loc 1 232 3 view .LVU95
 281 0070 0023     		movs	r3, #0
 282 0072 84F8F832 		strb	r3, [r4, #760]
 232:Drivers/STM32L4xx_HAL_Driver/Src/stm32l4xx_hal_hcd.c **** 
 283              		.loc 1 232 3 view .LVU96
 234:Drivers/STM32L4xx_HAL_Driver/Src/stm32l4xx_hal_hcd.c **** }
 284              		.loc 1 234 3 view .LVU97
 285              	.LVL25:
 286              	.L8:
 235:Drivers/STM32L4xx_HAL_Driver/Src/stm32l4xx_hal_hcd.c **** 
 287              		.loc 1 235 1 is_stmt 0 view .LVU98
 288 0076 05B0     		add	sp, sp, #20
 289              	.LCFI3:
 290              		.cfi_remember_state
 291              		.cfi_def_cfa_offset 20
 292              		@ sp needed
 293 0078 F0BD     		pop	{r4, r5, r6, r7, pc}
 294              	.LVL26:
 295              	.L13:
 296              	.LCFI4:
ARM GAS  C:\Users\HP\AppData\Local\Temp\ccGJK0AZ.s 			page 35


 297              		.cfi_restore_state
 216:Drivers/STM32L4xx_HAL_Driver/Src/stm32l4xx_hal_hcd.c ****   }
 298              		.loc 1 216 5 is_stmt 1 view .LVU99
 216:Drivers/STM32L4xx_HAL_Driver/Src/stm32l4xx_hal_hcd.c ****   }
 299              		.loc 1 216 31 is_stmt 0 view .LVU100
 300 007a 2C20     		movs	r0, #44
 301 007c 00FB0140 		mla	r0, r0, r1, r4
 302 0080 4FF0010C 		mov	ip, #1
 303 0084 80F83BC0 		strb	ip, [r0, #59]
 304 0088 E7E7     		b	.L10
 305              	.L11:
 206:Drivers/STM32L4xx_HAL_Driver/Src/stm32l4xx_hal_hcd.c ****   hhcd->hc[ch_num].do_ping = 0U;
 306              		.loc 1 206 3 view .LVU101
 307 008a 0220     		movs	r0, #2
 308 008c F3E7     		b	.L8
 309              		.cfi_endproc
 310              	.LFE133:
 312              		.section	.text.HAL_HCD_HC_Halt,"ax",%progbits
 313              		.align	1
 314              		.global	HAL_HCD_HC_Halt
 315              		.syntax unified
 316              		.thumb
 317              		.thumb_func
 319              	HAL_HCD_HC_Halt:
 320              	.LVL27:
 321              	.LFB134:
 245:Drivers/STM32L4xx_HAL_Driver/Src/stm32l4xx_hal_hcd.c ****   HAL_StatusTypeDef status = HAL_OK;
 322              		.loc 1 245 1 is_stmt 1 view -0
 323              		.cfi_startproc
 324              		@ args = 0, pretend = 0, frame = 0
 325              		@ frame_needed = 0, uses_anonymous_args = 0
 246:Drivers/STM32L4xx_HAL_Driver/Src/stm32l4xx_hal_hcd.c **** 
 326              		.loc 1 246 3 view .LVU103
 248:Drivers/STM32L4xx_HAL_Driver/Src/stm32l4xx_hal_hcd.c ****   (void)USB_HC_Halt(hhcd->Instance, (uint8_t)ch_num);
 327              		.loc 1 248 3 view .LVU104
 248:Drivers/STM32L4xx_HAL_Driver/Src/stm32l4xx_hal_hcd.c ****   (void)USB_HC_Halt(hhcd->Instance, (uint8_t)ch_num);
 328              		.loc 1 248 3 view .LVU105
 329 0000 90F8F832 		ldrb	r3, [r0, #760]	@ zero_extendqisi2
 330 0004 012B     		cmp	r3, #1
 331 0006 0BD0     		beq	.L16
 245:Drivers/STM32L4xx_HAL_Driver/Src/stm32l4xx_hal_hcd.c ****   HAL_StatusTypeDef status = HAL_OK;
 332              		.loc 1 245 1 is_stmt 0 discriminator 2 view .LVU106
 333 0008 10B5     		push	{r4, lr}
 334              	.LCFI5:
 335              		.cfi_def_cfa_offset 8
 336              		.cfi_offset 4, -8
 337              		.cfi_offset 14, -4
 338 000a 0446     		mov	r4, r0
 248:Drivers/STM32L4xx_HAL_Driver/Src/stm32l4xx_hal_hcd.c ****   (void)USB_HC_Halt(hhcd->Instance, (uint8_t)ch_num);
 339              		.loc 1 248 3 is_stmt 1 discriminator 2 view .LVU107
 340 000c 0123     		movs	r3, #1
 341 000e 80F8F832 		strb	r3, [r0, #760]
 248:Drivers/STM32L4xx_HAL_Driver/Src/stm32l4xx_hal_hcd.c ****   (void)USB_HC_Halt(hhcd->Instance, (uint8_t)ch_num);
 342              		.loc 1 248 3 discriminator 2 view .LVU108
 249:Drivers/STM32L4xx_HAL_Driver/Src/stm32l4xx_hal_hcd.c ****   __HAL_UNLOCK(hhcd);
 343              		.loc 1 249 3 discriminator 2 view .LVU109
 249:Drivers/STM32L4xx_HAL_Driver/Src/stm32l4xx_hal_hcd.c ****   __HAL_UNLOCK(hhcd);
ARM GAS  C:\Users\HP\AppData\Local\Temp\ccGJK0AZ.s 			page 36


 344              		.loc 1 249 9 is_stmt 0 discriminator 2 view .LVU110
 345 0012 0068     		ldr	r0, [r0]
 346              	.LVL28:
 249:Drivers/STM32L4xx_HAL_Driver/Src/stm32l4xx_hal_hcd.c ****   __HAL_UNLOCK(hhcd);
 347              		.loc 1 249 9 discriminator 2 view .LVU111
 348 0014 FFF7FEFF 		bl	USB_HC_Halt
 349              	.LVL29:
 250:Drivers/STM32L4xx_HAL_Driver/Src/stm32l4xx_hal_hcd.c **** 
 350              		.loc 1 250 3 is_stmt 1 discriminator 2 view .LVU112
 250:Drivers/STM32L4xx_HAL_Driver/Src/stm32l4xx_hal_hcd.c **** 
 351              		.loc 1 250 3 discriminator 2 view .LVU113
 352 0018 0020     		movs	r0, #0
 353 001a 84F8F802 		strb	r0, [r4, #760]
 250:Drivers/STM32L4xx_HAL_Driver/Src/stm32l4xx_hal_hcd.c **** 
 354              		.loc 1 250 3 discriminator 2 view .LVU114
 252:Drivers/STM32L4xx_HAL_Driver/Src/stm32l4xx_hal_hcd.c **** }
 355              		.loc 1 252 3 discriminator 2 view .LVU115
 253:Drivers/STM32L4xx_HAL_Driver/Src/stm32l4xx_hal_hcd.c **** 
 356              		.loc 1 253 1 is_stmt 0 discriminator 2 view .LVU116
 357 001e 10BD     		pop	{r4, pc}
 358              	.LVL30:
 359              	.L16:
 360              	.LCFI6:
 361              		.cfi_def_cfa_offset 0
 362              		.cfi_restore 4
 363              		.cfi_restore 14
 248:Drivers/STM32L4xx_HAL_Driver/Src/stm32l4xx_hal_hcd.c ****   (void)USB_HC_Halt(hhcd->Instance, (uint8_t)ch_num);
 364              		.loc 1 248 3 view .LVU117
 365 0020 0220     		movs	r0, #2
 366              	.LVL31:
 253:Drivers/STM32L4xx_HAL_Driver/Src/stm32l4xx_hal_hcd.c **** 
 367              		.loc 1 253 1 view .LVU118
 368 0022 7047     		bx	lr
 369              		.cfi_endproc
 370              	.LFE134:
 372              		.section	.text.HAL_HCD_MspInit,"ax",%progbits
 373              		.align	1
 374              		.weak	HAL_HCD_MspInit
 375              		.syntax unified
 376              		.thumb
 377              		.thumb_func
 379              	HAL_HCD_MspInit:
 380              	.LVL32:
 381              	.LFB136:
 296:Drivers/STM32L4xx_HAL_Driver/Src/stm32l4xx_hal_hcd.c ****   /* Prevent unused argument(s) compilation warning */
 382              		.loc 1 296 1 is_stmt 1 view -0
 383              		.cfi_startproc
 384              		@ args = 0, pretend = 0, frame = 0
 385              		@ frame_needed = 0, uses_anonymous_args = 0
 386              		@ link register save eliminated.
 298:Drivers/STM32L4xx_HAL_Driver/Src/stm32l4xx_hal_hcd.c **** 
 387              		.loc 1 298 3 view .LVU120
 303:Drivers/STM32L4xx_HAL_Driver/Src/stm32l4xx_hal_hcd.c **** 
 388              		.loc 1 303 1 is_stmt 0 view .LVU121
 389 0000 7047     		bx	lr
 390              		.cfi_endproc
 391              	.LFE136:
ARM GAS  C:\Users\HP\AppData\Local\Temp\ccGJK0AZ.s 			page 37


 393              		.section	.text.HAL_HCD_Init,"ax",%progbits
 394              		.align	1
 395              		.global	HAL_HCD_Init
 396              		.syntax unified
 397              		.thumb
 398              		.thumb_func
 400              	HAL_HCD_Init:
 401              	.LVL33:
 402              	.LFB132:
 108:Drivers/STM32L4xx_HAL_Driver/Src/stm32l4xx_hal_hcd.c ****   USB_OTG_GlobalTypeDef *USBx;
 403              		.loc 1 108 1 is_stmt 1 view -0
 404              		.cfi_startproc
 405              		@ args = 0, pretend = 0, frame = 0
 406              		@ frame_needed = 0, uses_anonymous_args = 0
 109:Drivers/STM32L4xx_HAL_Driver/Src/stm32l4xx_hal_hcd.c **** 
 407              		.loc 1 109 3 view .LVU123
 112:Drivers/STM32L4xx_HAL_Driver/Src/stm32l4xx_hal_hcd.c ****   {
 408              		.loc 1 112 3 view .LVU124
 112:Drivers/STM32L4xx_HAL_Driver/Src/stm32l4xx_hal_hcd.c ****   {
 409              		.loc 1 112 6 is_stmt 0 view .LVU125
 410 0000 0028     		cmp	r0, #0
 411 0002 4DD0     		beq	.L26
 108:Drivers/STM32L4xx_HAL_Driver/Src/stm32l4xx_hal_hcd.c ****   USB_OTG_GlobalTypeDef *USBx;
 412              		.loc 1 108 1 view .LVU126
 413 0004 70B5     		push	{r4, r5, r6, lr}
 414              	.LCFI7:
 415              		.cfi_def_cfa_offset 16
 416              		.cfi_offset 4, -16
 417              		.cfi_offset 5, -12
 418              		.cfi_offset 6, -8
 419              		.cfi_offset 14, -4
 420 0006 8AB0     		sub	sp, sp, #40
 421              	.LCFI8:
 422              		.cfi_def_cfa_offset 56
 423 0008 0446     		mov	r4, r0
 118:Drivers/STM32L4xx_HAL_Driver/Src/stm32l4xx_hal_hcd.c **** 
 424              		.loc 1 118 3 is_stmt 1 view .LVU127
 120:Drivers/STM32L4xx_HAL_Driver/Src/stm32l4xx_hal_hcd.c **** 
 425              		.loc 1 120 3 view .LVU128
 120:Drivers/STM32L4xx_HAL_Driver/Src/stm32l4xx_hal_hcd.c **** 
 426              		.loc 1 120 8 is_stmt 0 view .LVU129
 427 000a 0568     		ldr	r5, [r0]
 428              	.LVL34:
 122:Drivers/STM32L4xx_HAL_Driver/Src/stm32l4xx_hal_hcd.c ****   {
 429              		.loc 1 122 3 is_stmt 1 view .LVU130
 122:Drivers/STM32L4xx_HAL_Driver/Src/stm32l4xx_hal_hcd.c ****   {
 430              		.loc 1 122 11 is_stmt 0 view .LVU131
 431 000c 90F8F932 		ldrb	r3, [r0, #761]	@ zero_extendqisi2
 122:Drivers/STM32L4xx_HAL_Driver/Src/stm32l4xx_hal_hcd.c ****   {
 432              		.loc 1 122 6 view .LVU132
 433 0010 002B     		cmp	r3, #0
 434 0012 40D0     		beq	.L31
 435              	.LVL35:
 436              	.L24:
 148:Drivers/STM32L4xx_HAL_Driver/Src/stm32l4xx_hal_hcd.c **** 
 437              		.loc 1 148 3 is_stmt 1 view .LVU133
 148:Drivers/STM32L4xx_HAL_Driver/Src/stm32l4xx_hal_hcd.c **** 
ARM GAS  C:\Users\HP\AppData\Local\Temp\ccGJK0AZ.s 			page 38


 438              		.loc 1 148 15 is_stmt 0 view .LVU134
 439 0014 0323     		movs	r3, #3
 440 0016 84F8F932 		strb	r3, [r4, #761]
 151:Drivers/STM32L4xx_HAL_Driver/Src/stm32l4xx_hal_hcd.c ****   {
 441              		.loc 1 151 3 is_stmt 1 view .LVU135
 151:Drivers/STM32L4xx_HAL_Driver/Src/stm32l4xx_hal_hcd.c ****   {
 442              		.loc 1 151 12 is_stmt 0 view .LVU136
 443 001a EB6B     		ldr	r3, [r5, #60]
 151:Drivers/STM32L4xx_HAL_Driver/Src/stm32l4xx_hal_hcd.c ****   {
 444              		.loc 1 151 6 view .LVU137
 445 001c 13F4807F 		tst	r3, #256
 446 0020 01D1     		bne	.L25
 153:Drivers/STM32L4xx_HAL_Driver/Src/stm32l4xx_hal_hcd.c ****   }
 447              		.loc 1 153 5 is_stmt 1 view .LVU138
 153:Drivers/STM32L4xx_HAL_Driver/Src/stm32l4xx_hal_hcd.c ****   }
 448              		.loc 1 153 27 is_stmt 0 view .LVU139
 449 0022 0023     		movs	r3, #0
 450 0024 2361     		str	r3, [r4, #16]
 451              	.L25:
 157:Drivers/STM32L4xx_HAL_Driver/Src/stm32l4xx_hal_hcd.c **** 
 452              		.loc 1 157 3 is_stmt 1 view .LVU140
 453 0026 2068     		ldr	r0, [r4]
 454 0028 FFF7FEFF 		bl	USB_DisableGlobalInt
 455              	.LVL36:
 160:Drivers/STM32L4xx_HAL_Driver/Src/stm32l4xx_hal_hcd.c **** 
 456              		.loc 1 160 3 view .LVU141
 160:Drivers/STM32L4xx_HAL_Driver/Src/stm32l4xx_hal_hcd.c **** 
 457              		.loc 1 160 26 is_stmt 0 view .LVU142
 458 002c A446     		mov	ip, r4
 459 002e 5CF8106B 		ldr	r6, [ip], #16
 160:Drivers/STM32L4xx_HAL_Driver/Src/stm32l4xx_hal_hcd.c **** 
 460              		.loc 1 160 9 view .LVU143
 461 0032 EE46     		mov	lr, sp
 462 0034 BCE80F00 		ldmia	ip!, {r0, r1, r2, r3}
 463 0038 AEE80F00 		stmia	lr!, {r0, r1, r2, r3}
 464 003c BCE80F00 		ldmia	ip!, {r0, r1, r2, r3}
 465 0040 AEE80F00 		stmia	lr!, {r0, r1, r2, r3}
 466 0044 9CE80300 		ldm	ip, {r0, r1}
 467 0048 8EE80300 		stm	lr, {r0, r1}
 468 004c 251D     		adds	r5, r4, #4
 469              	.LVL37:
 160:Drivers/STM32L4xx_HAL_Driver/Src/stm32l4xx_hal_hcd.c **** 
 470              		.loc 1 160 9 view .LVU144
 471 004e 95E80E00 		ldm	r5, {r1, r2, r3}
 472 0052 3046     		mov	r0, r6
 473 0054 FFF7FEFF 		bl	USB_CoreInit
 474              	.LVL38:
 163:Drivers/STM32L4xx_HAL_Driver/Src/stm32l4xx_hal_hcd.c **** 
 475              		.loc 1 163 3 is_stmt 1 view .LVU145
 163:Drivers/STM32L4xx_HAL_Driver/Src/stm32l4xx_hal_hcd.c **** 
 476              		.loc 1 163 9 is_stmt 0 view .LVU146
 477 0058 0121     		movs	r1, #1
 478 005a 2068     		ldr	r0, [r4]
 479 005c FFF7FEFF 		bl	USB_SetCurrentMode
 480              	.LVL39:
 166:Drivers/STM32L4xx_HAL_Driver/Src/stm32l4xx_hal_hcd.c **** 
 481              		.loc 1 166 3 is_stmt 1 view .LVU147
ARM GAS  C:\Users\HP\AppData\Local\Temp\ccGJK0AZ.s 			page 39


 166:Drivers/STM32L4xx_HAL_Driver/Src/stm32l4xx_hal_hcd.c **** 
 482              		.loc 1 166 26 is_stmt 0 view .LVU148
 483 0060 A446     		mov	ip, r4
 484 0062 5CF8106B 		ldr	r6, [ip], #16
 166:Drivers/STM32L4xx_HAL_Driver/Src/stm32l4xx_hal_hcd.c **** 
 485              		.loc 1 166 9 view .LVU149
 486 0066 EE46     		mov	lr, sp
 487 0068 BCE80F00 		ldmia	ip!, {r0, r1, r2, r3}
 488 006c AEE80F00 		stmia	lr!, {r0, r1, r2, r3}
 489 0070 BCE80F00 		ldmia	ip!, {r0, r1, r2, r3}
 490 0074 AEE80F00 		stmia	lr!, {r0, r1, r2, r3}
 491 0078 9CE80300 		ldm	ip, {r0, r1}
 492 007c 8EE80300 		stm	lr, {r0, r1}
 493 0080 95E80E00 		ldm	r5, {r1, r2, r3}
 494 0084 3046     		mov	r0, r6
 495 0086 FFF7FEFF 		bl	USB_HostInit
 496              	.LVL40:
 168:Drivers/STM32L4xx_HAL_Driver/Src/stm32l4xx_hal_hcd.c **** 
 497              		.loc 1 168 3 is_stmt 1 view .LVU150
 168:Drivers/STM32L4xx_HAL_Driver/Src/stm32l4xx_hal_hcd.c **** 
 498              		.loc 1 168 15 is_stmt 0 view .LVU151
 499 008a 0123     		movs	r3, #1
 500 008c 84F8F932 		strb	r3, [r4, #761]
 170:Drivers/STM32L4xx_HAL_Driver/Src/stm32l4xx_hal_hcd.c **** }
 501              		.loc 1 170 3 is_stmt 1 view .LVU152
 170:Drivers/STM32L4xx_HAL_Driver/Src/stm32l4xx_hal_hcd.c **** }
 502              		.loc 1 170 10 is_stmt 0 view .LVU153
 503 0090 0020     		movs	r0, #0
 171:Drivers/STM32L4xx_HAL_Driver/Src/stm32l4xx_hal_hcd.c **** 
 504              		.loc 1 171 1 view .LVU154
 505 0092 0AB0     		add	sp, sp, #40
 506              	.LCFI9:
 507              		.cfi_remember_state
 508              		.cfi_def_cfa_offset 16
 509              		@ sp needed
 510 0094 70BD     		pop	{r4, r5, r6, pc}
 511              	.LVL41:
 512              	.L31:
 513              	.LCFI10:
 514              		.cfi_restore_state
 125:Drivers/STM32L4xx_HAL_Driver/Src/stm32l4xx_hal_hcd.c **** 
 515              		.loc 1 125 5 is_stmt 1 view .LVU155
 125:Drivers/STM32L4xx_HAL_Driver/Src/stm32l4xx_hal_hcd.c **** 
 516              		.loc 1 125 16 is_stmt 0 view .LVU156
 517 0096 80F8F832 		strb	r3, [r0, #760]
 144:Drivers/STM32L4xx_HAL_Driver/Src/stm32l4xx_hal_hcd.c **** #endif /* (USE_HAL_HCD_REGISTER_CALLBACKS) */
 518              		.loc 1 144 5 is_stmt 1 view .LVU157
 519 009a FFF7FEFF 		bl	HAL_HCD_MspInit
 520              	.LVL42:
 144:Drivers/STM32L4xx_HAL_Driver/Src/stm32l4xx_hal_hcd.c **** #endif /* (USE_HAL_HCD_REGISTER_CALLBACKS) */
 521              		.loc 1 144 5 is_stmt 0 view .LVU158
 522 009e B9E7     		b	.L24
 523              	.LVL43:
 524              	.L26:
 525              	.LCFI11:
 526              		.cfi_def_cfa_offset 0
 527              		.cfi_restore 4
ARM GAS  C:\Users\HP\AppData\Local\Temp\ccGJK0AZ.s 			page 40


 528              		.cfi_restore 5
 529              		.cfi_restore 6
 530              		.cfi_restore 14
 114:Drivers/STM32L4xx_HAL_Driver/Src/stm32l4xx_hal_hcd.c ****   }
 531              		.loc 1 114 12 view .LVU159
 532 00a0 0120     		movs	r0, #1
 533              	.LVL44:
 171:Drivers/STM32L4xx_HAL_Driver/Src/stm32l4xx_hal_hcd.c **** 
 534              		.loc 1 171 1 view .LVU160
 535 00a2 7047     		bx	lr
 536              		.cfi_endproc
 537              	.LFE132:
 539              		.section	.text.HAL_HCD_MspDeInit,"ax",%progbits
 540              		.align	1
 541              		.weak	HAL_HCD_MspDeInit
 542              		.syntax unified
 543              		.thumb
 544              		.thumb_func
 546              	HAL_HCD_MspDeInit:
 547              	.LVL45:
 548              	.LFB137:
 311:Drivers/STM32L4xx_HAL_Driver/Src/stm32l4xx_hal_hcd.c ****   /* Prevent unused argument(s) compilation warning */
 549              		.loc 1 311 1 is_stmt 1 view -0
 550              		.cfi_startproc
 551              		@ args = 0, pretend = 0, frame = 0
 552              		@ frame_needed = 0, uses_anonymous_args = 0
 553              		@ link register save eliminated.
 313:Drivers/STM32L4xx_HAL_Driver/Src/stm32l4xx_hal_hcd.c **** 
 554              		.loc 1 313 3 view .LVU162
 318:Drivers/STM32L4xx_HAL_Driver/Src/stm32l4xx_hal_hcd.c **** 
 555              		.loc 1 318 1 is_stmt 0 view .LVU163
 556 0000 7047     		bx	lr
 557              		.cfi_endproc
 558              	.LFE137:
 560              		.section	.text.HAL_HCD_DeInit,"ax",%progbits
 561              		.align	1
 562              		.global	HAL_HCD_DeInit
 563              		.syntax unified
 564              		.thumb
 565              		.thumb_func
 567              	HAL_HCD_DeInit:
 568              	.LVL46:
 569              	.LFB135:
 261:Drivers/STM32L4xx_HAL_Driver/Src/stm32l4xx_hal_hcd.c ****   /* Check the HCD handle allocation */
 570              		.loc 1 261 1 is_stmt 1 view -0
 571              		.cfi_startproc
 572              		@ args = 0, pretend = 0, frame = 0
 573              		@ frame_needed = 0, uses_anonymous_args = 0
 263:Drivers/STM32L4xx_HAL_Driver/Src/stm32l4xx_hal_hcd.c ****   {
 574              		.loc 1 263 3 view .LVU165
 263:Drivers/STM32L4xx_HAL_Driver/Src/stm32l4xx_hal_hcd.c ****   {
 575              		.loc 1 263 6 is_stmt 0 view .LVU166
 576 0000 68B1     		cbz	r0, .L35
 261:Drivers/STM32L4xx_HAL_Driver/Src/stm32l4xx_hal_hcd.c ****   /* Check the HCD handle allocation */
 577              		.loc 1 261 1 view .LVU167
 578 0002 10B5     		push	{r4, lr}
 579              	.LCFI12:
ARM GAS  C:\Users\HP\AppData\Local\Temp\ccGJK0AZ.s 			page 41


 580              		.cfi_def_cfa_offset 8
 581              		.cfi_offset 4, -8
 582              		.cfi_offset 14, -4
 583 0004 0446     		mov	r4, r0
 268:Drivers/STM32L4xx_HAL_Driver/Src/stm32l4xx_hal_hcd.c **** 
 584              		.loc 1 268 3 is_stmt 1 view .LVU168
 268:Drivers/STM32L4xx_HAL_Driver/Src/stm32l4xx_hal_hcd.c **** 
 585              		.loc 1 268 15 is_stmt 0 view .LVU169
 586 0006 0323     		movs	r3, #3
 587 0008 80F8F932 		strb	r3, [r0, #761]
 280:Drivers/STM32L4xx_HAL_Driver/Src/stm32l4xx_hal_hcd.c **** #endif /* USE_HAL_HCD_REGISTER_CALLBACKS */
 588              		.loc 1 280 3 is_stmt 1 view .LVU170
 589 000c FFF7FEFF 		bl	HAL_HCD_MspDeInit
 590              	.LVL47:
 283:Drivers/STM32L4xx_HAL_Driver/Src/stm32l4xx_hal_hcd.c **** 
 591              		.loc 1 283 3 view .LVU171
 592 0010 2068     		ldr	r0, [r4]
 593 0012 FFF7FEFF 		bl	USB_DisableGlobalInt
 594              	.LVL48:
 285:Drivers/STM32L4xx_HAL_Driver/Src/stm32l4xx_hal_hcd.c **** 
 595              		.loc 1 285 3 view .LVU172
 285:Drivers/STM32L4xx_HAL_Driver/Src/stm32l4xx_hal_hcd.c **** 
 596              		.loc 1 285 15 is_stmt 0 view .LVU173
 597 0016 0020     		movs	r0, #0
 598 0018 84F8F902 		strb	r0, [r4, #761]
 287:Drivers/STM32L4xx_HAL_Driver/Src/stm32l4xx_hal_hcd.c **** }
 599              		.loc 1 287 3 is_stmt 1 view .LVU174
 288:Drivers/STM32L4xx_HAL_Driver/Src/stm32l4xx_hal_hcd.c **** 
 600              		.loc 1 288 1 is_stmt 0 view .LVU175
 601 001c 10BD     		pop	{r4, pc}
 602              	.LVL49:
 603              	.L35:
 604              	.LCFI13:
 605              		.cfi_def_cfa_offset 0
 606              		.cfi_restore 4
 607              		.cfi_restore 14
 265:Drivers/STM32L4xx_HAL_Driver/Src/stm32l4xx_hal_hcd.c ****   }
 608              		.loc 1 265 12 view .LVU176
 609 001e 0120     		movs	r0, #1
 610              	.LVL50:
 288:Drivers/STM32L4xx_HAL_Driver/Src/stm32l4xx_hal_hcd.c **** 
 611              		.loc 1 288 1 view .LVU177
 612 0020 7047     		bx	lr
 613              		.cfi_endproc
 614              	.LFE135:
 616              		.section	.text.HAL_HCD_HC_SubmitRequest,"ax",%progbits
 617              		.align	1
 618              		.global	HAL_HCD_HC_SubmitRequest
 619              		.syntax unified
 620              		.thumb
 621              		.thumb_func
 623              	HAL_HCD_HC_SubmitRequest:
 624              	.LVL51:
 625              	.LFB138:
 370:Drivers/STM32L4xx_HAL_Driver/Src/stm32l4xx_hal_hcd.c ****   hhcd->hc[ch_num].ep_is_in = direction;
 626              		.loc 1 370 1 is_stmt 1 view -0
 627              		.cfi_startproc
ARM GAS  C:\Users\HP\AppData\Local\Temp\ccGJK0AZ.s 			page 42


 628              		@ args = 16, pretend = 0, frame = 0
 629              		@ frame_needed = 0, uses_anonymous_args = 0
 370:Drivers/STM32L4xx_HAL_Driver/Src/stm32l4xx_hal_hcd.c ****   hhcd->hc[ch_num].ep_is_in = direction;
 630              		.loc 1 370 1 is_stmt 0 view .LVU179
 631 0000 70B5     		push	{r4, r5, r6, lr}
 632              	.LCFI14:
 633              		.cfi_def_cfa_offset 16
 634              		.cfi_offset 4, -16
 635              		.cfi_offset 5, -12
 636              		.cfi_offset 6, -8
 637              		.cfi_offset 14, -4
 638 0002 9DF81050 		ldrb	r5, [sp, #16]	@ zero_extendqisi2
 639 0006 BDF81860 		ldrh	r6, [sp, #24]
 371:Drivers/STM32L4xx_HAL_Driver/Src/stm32l4xx_hal_hcd.c ****   hhcd->hc[ch_num].ep_type  = ep_type;
 640              		.loc 1 371 3 is_stmt 1 view .LVU180
 371:Drivers/STM32L4xx_HAL_Driver/Src/stm32l4xx_hal_hcd.c ****   hhcd->hc[ch_num].ep_type  = ep_type;
 641              		.loc 1 371 29 is_stmt 0 view .LVU181
 642 000a 4FF02C0C 		mov	ip, #44
 643 000e 0CFB010C 		mla	ip, ip, r1, r0
 644 0012 8CF83B20 		strb	r2, [ip, #59]
 372:Drivers/STM32L4xx_HAL_Driver/Src/stm32l4xx_hal_hcd.c **** 
 645              		.loc 1 372 3 is_stmt 1 view .LVU182
 372:Drivers/STM32L4xx_HAL_Driver/Src/stm32l4xx_hal_hcd.c **** 
 646              		.loc 1 372 29 is_stmt 0 view .LVU183
 647 0016 8CF83F30 		strb	r3, [ip, #63]
 374:Drivers/STM32L4xx_HAL_Driver/Src/stm32l4xx_hal_hcd.c ****   {
 648              		.loc 1 374 3 is_stmt 1 view .LVU184
 374:Drivers/STM32L4xx_HAL_Driver/Src/stm32l4xx_hal_hcd.c ****   {
 649              		.loc 1 374 6 is_stmt 0 view .LVU185
 650 001a 7DB9     		cbnz	r5, .L41
 376:Drivers/STM32L4xx_HAL_Driver/Src/stm32l4xx_hal_hcd.c ****     hhcd->hc[ch_num].do_ping = do_ping;
 651              		.loc 1 376 5 is_stmt 1 view .LVU186
 376:Drivers/STM32L4xx_HAL_Driver/Src/stm32l4xx_hal_hcd.c ****     hhcd->hc[ch_num].do_ping = do_ping;
 652              		.loc 1 376 31 is_stmt 0 view .LVU187
 653 001c 6446     		mov	r4, ip
 654 001e 4FF0030C 		mov	ip, #3
 655 0022 84F842C0 		strb	ip, [r4, #66]
 377:Drivers/STM32L4xx_HAL_Driver/Src/stm32l4xx_hal_hcd.c ****   }
 656              		.loc 1 377 5 is_stmt 1 view .LVU188
 377:Drivers/STM32L4xx_HAL_Driver/Src/stm32l4xx_hal_hcd.c ****   }
 657              		.loc 1 377 30 is_stmt 0 view .LVU189
 658 0026 9DF81CC0 		ldrb	ip, [sp, #28]	@ zero_extendqisi2
 659 002a 84F83DC0 		strb	ip, [r4, #61]
 660              	.L42:
 385:Drivers/STM32L4xx_HAL_Driver/Src/stm32l4xx_hal_hcd.c ****   {
 661              		.loc 1 385 3 is_stmt 1 view .LVU190
 662 002e 032B     		cmp	r3, #3
 663 0030 00F28180 		bhi	.L43
 664 0034 DFE803F0 		tbb	[pc, r3]
 665              	.L45:
 666 0038 0A       		.byte	(.L48-.L45)/2
 667 0039 79       		.byte	(.L47-.L45)/2
 668 003a 29       		.byte	(.L46-.L45)/2
 669 003b 51       		.byte	(.L44-.L45)/2
 670              		.p2align 1
 671              	.L41:
 381:Drivers/STM32L4xx_HAL_Driver/Src/stm32l4xx_hal_hcd.c ****   }
ARM GAS  C:\Users\HP\AppData\Local\Temp\ccGJK0AZ.s 			page 43


 672              		.loc 1 381 5 view .LVU191
 381:Drivers/STM32L4xx_HAL_Driver/Src/stm32l4xx_hal_hcd.c ****   }
 673              		.loc 1 381 31 is_stmt 0 view .LVU192
 674 003c 2C24     		movs	r4, #44
 675 003e 04FB0104 		mla	r4, r4, r1, r0
 676 0042 4FF0020C 		mov	ip, #2
 677 0046 84F842C0 		strb	ip, [r4, #66]
 678 004a F0E7     		b	.L42
 679              	.L48:
 388:Drivers/STM32L4xx_HAL_Driver/Src/stm32l4xx_hal_hcd.c ****       {
 680              		.loc 1 388 7 is_stmt 1 view .LVU193
 388:Drivers/STM32L4xx_HAL_Driver/Src/stm32l4xx_hal_hcd.c ****       {
 681              		.loc 1 388 10 is_stmt 0 view .LVU194
 682 004c 012D     		cmp	r5, #1
 683 004e 72D1     		bne	.L43
 388:Drivers/STM32L4xx_HAL_Driver/Src/stm32l4xx_hal_hcd.c ****       {
 684              		.loc 1 388 25 discriminator 1 view .LVU195
 685 0050 002A     		cmp	r2, #0
 686 0052 70D1     		bne	.L43
 390:Drivers/STM32L4xx_HAL_Driver/Src/stm32l4xx_hal_hcd.c ****         {
 687              		.loc 1 390 9 is_stmt 1 view .LVU196
 390:Drivers/STM32L4xx_HAL_Driver/Src/stm32l4xx_hal_hcd.c ****         {
 688              		.loc 1 390 12 is_stmt 0 view .LVU197
 689 0054 2EB9     		cbnz	r6, .L49
 393:Drivers/STM32L4xx_HAL_Driver/Src/stm32l4xx_hal_hcd.c ****         }
 690              		.loc 1 393 11 is_stmt 1 view .LVU198
 393:Drivers/STM32L4xx_HAL_Driver/Src/stm32l4xx_hal_hcd.c ****         }
 691              		.loc 1 393 39 is_stmt 0 view .LVU199
 692 0056 2C23     		movs	r3, #44
 693              	.LVL52:
 393:Drivers/STM32L4xx_HAL_Driver/Src/stm32l4xx_hal_hcd.c ****         }
 694              		.loc 1 393 39 view .LVU200
 695 0058 03FB0103 		mla	r3, r3, r1, r0
 696 005c 0122     		movs	r2, #1
 697              	.LVL53:
 393:Drivers/STM32L4xx_HAL_Driver/Src/stm32l4xx_hal_hcd.c ****         }
 698              		.loc 1 393 39 view .LVU201
 699 005e 83F85520 		strb	r2, [r3, #85]
 700              	.L49:
 397:Drivers/STM32L4xx_HAL_Driver/Src/stm32l4xx_hal_hcd.c ****         {
 701              		.loc 1 397 9 is_stmt 1 view .LVU202
 397:Drivers/STM32L4xx_HAL_Driver/Src/stm32l4xx_hal_hcd.c ****         {
 702              		.loc 1 397 29 is_stmt 0 view .LVU203
 703 0062 2C23     		movs	r3, #44
 704 0064 03FB0103 		mla	r3, r3, r1, r0
 705 0068 93F85530 		ldrb	r3, [r3, #85]	@ zero_extendqisi2
 397:Drivers/STM32L4xx_HAL_Driver/Src/stm32l4xx_hal_hcd.c ****         {
 706              		.loc 1 397 12 view .LVU204
 707 006c 33B9     		cbnz	r3, .L50
 400:Drivers/STM32L4xx_HAL_Driver/Src/stm32l4xx_hal_hcd.c ****         }
 708              		.loc 1 400 11 is_stmt 1 view .LVU205
 400:Drivers/STM32L4xx_HAL_Driver/Src/stm32l4xx_hal_hcd.c ****         }
 709              		.loc 1 400 37 is_stmt 0 view .LVU206
 710 006e 2C23     		movs	r3, #44
 711 0070 03FB0103 		mla	r3, r3, r1, r0
 712 0074 0022     		movs	r2, #0
 713 0076 83F84220 		strb	r2, [r3, #66]
ARM GAS  C:\Users\HP\AppData\Local\Temp\ccGJK0AZ.s 			page 44


 714 007a 5CE0     		b	.L43
 715              	.L50:
 405:Drivers/STM32L4xx_HAL_Driver/Src/stm32l4xx_hal_hcd.c ****         }
 716              		.loc 1 405 11 is_stmt 1 view .LVU207
 405:Drivers/STM32L4xx_HAL_Driver/Src/stm32l4xx_hal_hcd.c ****         }
 717              		.loc 1 405 37 is_stmt 0 view .LVU208
 718 007c 2C23     		movs	r3, #44
 719 007e 03FB0103 		mla	r3, r3, r1, r0
 720 0082 0222     		movs	r2, #2
 721 0084 83F84220 		strb	r2, [r3, #66]
 722 0088 55E0     		b	.L43
 723              	.LVL54:
 724              	.L46:
 411:Drivers/STM32L4xx_HAL_Driver/Src/stm32l4xx_hal_hcd.c ****       {
 725              		.loc 1 411 7 is_stmt 1 view .LVU209
 411:Drivers/STM32L4xx_HAL_Driver/Src/stm32l4xx_hal_hcd.c ****       {
 726              		.loc 1 411 10 is_stmt 0 view .LVU210
 727 008a 92B9     		cbnz	r2, .L51
 414:Drivers/STM32L4xx_HAL_Driver/Src/stm32l4xx_hal_hcd.c ****         {
 728              		.loc 1 414 9 is_stmt 1 view .LVU211
 414:Drivers/STM32L4xx_HAL_Driver/Src/stm32l4xx_hal_hcd.c ****         {
 729              		.loc 1 414 29 is_stmt 0 view .LVU212
 730 008c 2C23     		movs	r3, #44
 731              	.LVL55:
 414:Drivers/STM32L4xx_HAL_Driver/Src/stm32l4xx_hal_hcd.c ****         {
 732              		.loc 1 414 29 view .LVU213
 733 008e 03FB0103 		mla	r3, r3, r1, r0
 734 0092 93F85530 		ldrb	r3, [r3, #85]	@ zero_extendqisi2
 414:Drivers/STM32L4xx_HAL_Driver/Src/stm32l4xx_hal_hcd.c ****         {
 735              		.loc 1 414 12 view .LVU214
 736 0096 2BB9     		cbnz	r3, .L52
 417:Drivers/STM32L4xx_HAL_Driver/Src/stm32l4xx_hal_hcd.c ****         }
 737              		.loc 1 417 11 is_stmt 1 view .LVU215
 417:Drivers/STM32L4xx_HAL_Driver/Src/stm32l4xx_hal_hcd.c ****         }
 738              		.loc 1 417 37 is_stmt 0 view .LVU216
 739 0098 2C23     		movs	r3, #44
 740 009a 03FB0103 		mla	r3, r3, r1, r0
 741 009e 83F84220 		strb	r2, [r3, #66]
 742 00a2 48E0     		b	.L43
 743              	.L52:
 422:Drivers/STM32L4xx_HAL_Driver/Src/stm32l4xx_hal_hcd.c ****         }
 744              		.loc 1 422 11 is_stmt 1 view .LVU217
 422:Drivers/STM32L4xx_HAL_Driver/Src/stm32l4xx_hal_hcd.c ****         }
 745              		.loc 1 422 37 is_stmt 0 view .LVU218
 746 00a4 2C23     		movs	r3, #44
 747 00a6 03FB0103 		mla	r3, r3, r1, r0
 748 00aa 0222     		movs	r2, #2
 749              	.LVL56:
 422:Drivers/STM32L4xx_HAL_Driver/Src/stm32l4xx_hal_hcd.c ****         }
 750              		.loc 1 422 37 view .LVU219
 751 00ac 83F84220 		strb	r2, [r3, #66]
 752 00b0 41E0     		b	.L43
 753              	.LVL57:
 754              	.L51:
 427:Drivers/STM32L4xx_HAL_Driver/Src/stm32l4xx_hal_hcd.c ****         {
 755              		.loc 1 427 9 is_stmt 1 view .LVU220
 427:Drivers/STM32L4xx_HAL_Driver/Src/stm32l4xx_hal_hcd.c ****         {
ARM GAS  C:\Users\HP\AppData\Local\Temp\ccGJK0AZ.s 			page 45


 756              		.loc 1 427 29 is_stmt 0 view .LVU221
 757 00b2 2C23     		movs	r3, #44
 758              	.LVL58:
 427:Drivers/STM32L4xx_HAL_Driver/Src/stm32l4xx_hal_hcd.c ****         {
 759              		.loc 1 427 29 view .LVU222
 760 00b4 03FB0103 		mla	r3, r3, r1, r0
 761 00b8 93F85430 		ldrb	r3, [r3, #84]	@ zero_extendqisi2
 427:Drivers/STM32L4xx_HAL_Driver/Src/stm32l4xx_hal_hcd.c ****         {
 762              		.loc 1 427 12 view .LVU223
 763 00bc 33B9     		cbnz	r3, .L53
 429:Drivers/STM32L4xx_HAL_Driver/Src/stm32l4xx_hal_hcd.c ****         }
 764              		.loc 1 429 11 is_stmt 1 view .LVU224
 429:Drivers/STM32L4xx_HAL_Driver/Src/stm32l4xx_hal_hcd.c ****         }
 765              		.loc 1 429 37 is_stmt 0 view .LVU225
 766 00be 2C23     		movs	r3, #44
 767 00c0 03FB0103 		mla	r3, r3, r1, r0
 768 00c4 0022     		movs	r2, #0
 769              	.LVL59:
 429:Drivers/STM32L4xx_HAL_Driver/Src/stm32l4xx_hal_hcd.c ****         }
 770              		.loc 1 429 37 view .LVU226
 771 00c6 83F84220 		strb	r2, [r3, #66]
 772 00ca 34E0     		b	.L43
 773              	.LVL60:
 774              	.L53:
 433:Drivers/STM32L4xx_HAL_Driver/Src/stm32l4xx_hal_hcd.c ****         }
 775              		.loc 1 433 11 is_stmt 1 view .LVU227
 433:Drivers/STM32L4xx_HAL_Driver/Src/stm32l4xx_hal_hcd.c ****         }
 776              		.loc 1 433 37 is_stmt 0 view .LVU228
 777 00cc 2C23     		movs	r3, #44
 778 00ce 03FB0103 		mla	r3, r3, r1, r0
 779 00d2 0222     		movs	r2, #2
 780              	.LVL61:
 433:Drivers/STM32L4xx_HAL_Driver/Src/stm32l4xx_hal_hcd.c ****         }
 781              		.loc 1 433 37 view .LVU229
 782 00d4 83F84220 		strb	r2, [r3, #66]
 783 00d8 2DE0     		b	.L43
 784              	.LVL62:
 785              	.L44:
 439:Drivers/STM32L4xx_HAL_Driver/Src/stm32l4xx_hal_hcd.c ****       {
 786              		.loc 1 439 7 is_stmt 1 view .LVU230
 439:Drivers/STM32L4xx_HAL_Driver/Src/stm32l4xx_hal_hcd.c ****       {
 787              		.loc 1 439 10 is_stmt 0 view .LVU231
 788 00da 92B9     		cbnz	r2, .L54
 442:Drivers/STM32L4xx_HAL_Driver/Src/stm32l4xx_hal_hcd.c ****         {
 789              		.loc 1 442 9 is_stmt 1 view .LVU232
 442:Drivers/STM32L4xx_HAL_Driver/Src/stm32l4xx_hal_hcd.c ****         {
 790              		.loc 1 442 29 is_stmt 0 view .LVU233
 791 00dc 2C23     		movs	r3, #44
 792              	.LVL63:
 442:Drivers/STM32L4xx_HAL_Driver/Src/stm32l4xx_hal_hcd.c ****         {
 793              		.loc 1 442 29 view .LVU234
 794 00de 03FB0103 		mla	r3, r3, r1, r0
 795 00e2 93F85530 		ldrb	r3, [r3, #85]	@ zero_extendqisi2
 442:Drivers/STM32L4xx_HAL_Driver/Src/stm32l4xx_hal_hcd.c ****         {
 796              		.loc 1 442 12 view .LVU235
 797 00e6 2BB9     		cbnz	r3, .L55
 445:Drivers/STM32L4xx_HAL_Driver/Src/stm32l4xx_hal_hcd.c ****         }
ARM GAS  C:\Users\HP\AppData\Local\Temp\ccGJK0AZ.s 			page 46


 798              		.loc 1 445 11 is_stmt 1 view .LVU236
 445:Drivers/STM32L4xx_HAL_Driver/Src/stm32l4xx_hal_hcd.c ****         }
 799              		.loc 1 445 37 is_stmt 0 view .LVU237
 800 00e8 2C23     		movs	r3, #44
 801 00ea 03FB0103 		mla	r3, r3, r1, r0
 802 00ee 83F84220 		strb	r2, [r3, #66]
 803 00f2 20E0     		b	.L43
 804              	.L55:
 450:Drivers/STM32L4xx_HAL_Driver/Src/stm32l4xx_hal_hcd.c ****         }
 805              		.loc 1 450 11 is_stmt 1 view .LVU238
 450:Drivers/STM32L4xx_HAL_Driver/Src/stm32l4xx_hal_hcd.c ****         }
 806              		.loc 1 450 37 is_stmt 0 view .LVU239
 807 00f4 2C23     		movs	r3, #44
 808 00f6 03FB0103 		mla	r3, r3, r1, r0
 809 00fa 0222     		movs	r2, #2
 810              	.LVL64:
 450:Drivers/STM32L4xx_HAL_Driver/Src/stm32l4xx_hal_hcd.c ****         }
 811              		.loc 1 450 37 view .LVU240
 812 00fc 83F84220 		strb	r2, [r3, #66]
 813 0100 19E0     		b	.L43
 814              	.LVL65:
 815              	.L54:
 455:Drivers/STM32L4xx_HAL_Driver/Src/stm32l4xx_hal_hcd.c ****         {
 816              		.loc 1 455 9 is_stmt 1 view .LVU241
 455:Drivers/STM32L4xx_HAL_Driver/Src/stm32l4xx_hal_hcd.c ****         {
 817              		.loc 1 455 29 is_stmt 0 view .LVU242
 818 0102 2C23     		movs	r3, #44
 819              	.LVL66:
 455:Drivers/STM32L4xx_HAL_Driver/Src/stm32l4xx_hal_hcd.c ****         {
 820              		.loc 1 455 29 view .LVU243
 821 0104 03FB0103 		mla	r3, r3, r1, r0
 822 0108 93F85430 		ldrb	r3, [r3, #84]	@ zero_extendqisi2
 455:Drivers/STM32L4xx_HAL_Driver/Src/stm32l4xx_hal_hcd.c ****         {
 823              		.loc 1 455 12 view .LVU244
 824 010c 33B9     		cbnz	r3, .L56
 457:Drivers/STM32L4xx_HAL_Driver/Src/stm32l4xx_hal_hcd.c ****         }
 825              		.loc 1 457 11 is_stmt 1 view .LVU245
 457:Drivers/STM32L4xx_HAL_Driver/Src/stm32l4xx_hal_hcd.c ****         }
 826              		.loc 1 457 37 is_stmt 0 view .LVU246
 827 010e 2C23     		movs	r3, #44
 828 0110 03FB0103 		mla	r3, r3, r1, r0
 829 0114 0022     		movs	r2, #0
 830              	.LVL67:
 457:Drivers/STM32L4xx_HAL_Driver/Src/stm32l4xx_hal_hcd.c ****         }
 831              		.loc 1 457 37 view .LVU247
 832 0116 83F84220 		strb	r2, [r3, #66]
 833 011a 0CE0     		b	.L43
 834              	.LVL68:
 835              	.L56:
 461:Drivers/STM32L4xx_HAL_Driver/Src/stm32l4xx_hal_hcd.c ****         }
 836              		.loc 1 461 11 is_stmt 1 view .LVU248
 461:Drivers/STM32L4xx_HAL_Driver/Src/stm32l4xx_hal_hcd.c ****         }
 837              		.loc 1 461 37 is_stmt 0 view .LVU249
 838 011c 2C23     		movs	r3, #44
 839 011e 03FB0103 		mla	r3, r3, r1, r0
 840 0122 0222     		movs	r2, #2
 841              	.LVL69:
ARM GAS  C:\Users\HP\AppData\Local\Temp\ccGJK0AZ.s 			page 47


 461:Drivers/STM32L4xx_HAL_Driver/Src/stm32l4xx_hal_hcd.c ****         }
 842              		.loc 1 461 37 view .LVU250
 843 0124 83F84220 		strb	r2, [r3, #66]
 844 0128 05E0     		b	.L43
 845              	.LVL70:
 846              	.L47:
 467:Drivers/STM32L4xx_HAL_Driver/Src/stm32l4xx_hal_hcd.c ****       break;
 847              		.loc 1 467 7 is_stmt 1 view .LVU251
 467:Drivers/STM32L4xx_HAL_Driver/Src/stm32l4xx_hal_hcd.c ****       break;
 848              		.loc 1 467 33 is_stmt 0 view .LVU252
 849 012a 2C23     		movs	r3, #44
 850              	.LVL71:
 467:Drivers/STM32L4xx_HAL_Driver/Src/stm32l4xx_hal_hcd.c ****       break;
 851              		.loc 1 467 33 view .LVU253
 852 012c 03FB0103 		mla	r3, r3, r1, r0
 853 0130 0022     		movs	r2, #0
 854              	.LVL72:
 467:Drivers/STM32L4xx_HAL_Driver/Src/stm32l4xx_hal_hcd.c ****       break;
 855              		.loc 1 467 33 view .LVU254
 856 0132 83F84220 		strb	r2, [r3, #66]
 468:Drivers/STM32L4xx_HAL_Driver/Src/stm32l4xx_hal_hcd.c **** 
 857              		.loc 1 468 7 is_stmt 1 view .LVU255
 858              	.L43:
 474:Drivers/STM32L4xx_HAL_Driver/Src/stm32l4xx_hal_hcd.c ****   hhcd->hc[ch_num].xfer_len  = length;
 859              		.loc 1 474 3 view .LVU256
 474:Drivers/STM32L4xx_HAL_Driver/Src/stm32l4xx_hal_hcd.c ****   hhcd->hc[ch_num].xfer_len  = length;
 860              		.loc 1 474 30 is_stmt 0 view .LVU257
 861 0136 2C23     		movs	r3, #44
 862 0138 01FB03F3 		mul	r3, r1, r3
 863 013c C218     		adds	r2, r0, r3
 864 013e 059C     		ldr	r4, [sp, #20]
 865 0140 5464     		str	r4, [r2, #68]
 475:Drivers/STM32L4xx_HAL_Driver/Src/stm32l4xx_hal_hcd.c ****   hhcd->hc[ch_num].urb_state = URB_IDLE;
 866              		.loc 1 475 3 is_stmt 1 view .LVU258
 475:Drivers/STM32L4xx_HAL_Driver/Src/stm32l4xx_hal_hcd.c ****   hhcd->hc[ch_num].urb_state = URB_IDLE;
 867              		.loc 1 475 30 is_stmt 0 view .LVU259
 868 0142 D664     		str	r6, [r2, #76]
 476:Drivers/STM32L4xx_HAL_Driver/Src/stm32l4xx_hal_hcd.c ****   hhcd->hc[ch_num].xfer_count = 0U;
 869              		.loc 1 476 3 is_stmt 1 view .LVU260
 476:Drivers/STM32L4xx_HAL_Driver/Src/stm32l4xx_hal_hcd.c ****   hhcd->hc[ch_num].xfer_count = 0U;
 870              		.loc 1 476 30 is_stmt 0 view .LVU261
 871 0144 0024     		movs	r4, #0
 872 0146 82F86040 		strb	r4, [r2, #96]
 477:Drivers/STM32L4xx_HAL_Driver/Src/stm32l4xx_hal_hcd.c ****   hhcd->hc[ch_num].ch_num = ch_num;
 873              		.loc 1 477 3 is_stmt 1 view .LVU262
 477:Drivers/STM32L4xx_HAL_Driver/Src/stm32l4xx_hal_hcd.c ****   hhcd->hc[ch_num].ch_num = ch_num;
 874              		.loc 1 477 31 is_stmt 0 view .LVU263
 875 014a 1465     		str	r4, [r2, #80]
 478:Drivers/STM32L4xx_HAL_Driver/Src/stm32l4xx_hal_hcd.c ****   hhcd->hc[ch_num].state = HC_IDLE;
 876              		.loc 1 478 3 is_stmt 1 view .LVU264
 478:Drivers/STM32L4xx_HAL_Driver/Src/stm32l4xx_hal_hcd.c ****   hhcd->hc[ch_num].state = HC_IDLE;
 877              		.loc 1 478 27 is_stmt 0 view .LVU265
 878 014c 82F83910 		strb	r1, [r2, #57]
 479:Drivers/STM32L4xx_HAL_Driver/Src/stm32l4xx_hal_hcd.c **** 
 879              		.loc 1 479 3 is_stmt 1 view .LVU266
 479:Drivers/STM32L4xx_HAL_Driver/Src/stm32l4xx_hal_hcd.c **** 
 880              		.loc 1 479 26 is_stmt 0 view .LVU267
ARM GAS  C:\Users\HP\AppData\Local\Temp\ccGJK0AZ.s 			page 48


 881 0150 82F86140 		strb	r4, [r2, #97]
 481:Drivers/STM32L4xx_HAL_Driver/Src/stm32l4xx_hal_hcd.c **** }
 882              		.loc 1 481 3 is_stmt 1 view .LVU268
 481:Drivers/STM32L4xx_HAL_Driver/Src/stm32l4xx_hal_hcd.c **** }
 883              		.loc 1 481 43 is_stmt 0 view .LVU269
 884 0154 03F13801 		add	r1, r3, #56
 885              	.LVL73:
 481:Drivers/STM32L4xx_HAL_Driver/Src/stm32l4xx_hal_hcd.c **** }
 886              		.loc 1 481 10 view .LVU270
 887 0158 0144     		add	r1, r1, r0
 888 015a 0068     		ldr	r0, [r0]
 889              	.LVL74:
 481:Drivers/STM32L4xx_HAL_Driver/Src/stm32l4xx_hal_hcd.c **** }
 890              		.loc 1 481 10 view .LVU271
 891 015c FFF7FEFF 		bl	USB_HC_StartXfer
 892              	.LVL75:
 482:Drivers/STM32L4xx_HAL_Driver/Src/stm32l4xx_hal_hcd.c **** 
 893              		.loc 1 482 1 view .LVU272
 894 0160 70BD     		pop	{r4, r5, r6, pc}
 482:Drivers/STM32L4xx_HAL_Driver/Src/stm32l4xx_hal_hcd.c **** 
 895              		.loc 1 482 1 view .LVU273
 896              		.cfi_endproc
 897              	.LFE138:
 899              		.section	.text.HAL_HCD_SOF_Callback,"ax",%progbits
 900              		.align	1
 901              		.weak	HAL_HCD_SOF_Callback
 902              		.syntax unified
 903              		.thumb
 904              		.thumb_func
 906              	HAL_HCD_SOF_Callback:
 907              	.LVL76:
 908              	.LFB140:
 610:Drivers/STM32L4xx_HAL_Driver/Src/stm32l4xx_hal_hcd.c ****   /* Prevent unused argument(s) compilation warning */
 909              		.loc 1 610 1 is_stmt 1 view -0
 910              		.cfi_startproc
 911              		@ args = 0, pretend = 0, frame = 0
 912              		@ frame_needed = 0, uses_anonymous_args = 0
 913              		@ link register save eliminated.
 612:Drivers/STM32L4xx_HAL_Driver/Src/stm32l4xx_hal_hcd.c **** 
 914              		.loc 1 612 3 view .LVU275
 617:Drivers/STM32L4xx_HAL_Driver/Src/stm32l4xx_hal_hcd.c **** 
 915              		.loc 1 617 1 is_stmt 0 view .LVU276
 916 0000 7047     		bx	lr
 917              		.cfi_endproc
 918              	.LFE140:
 920              		.section	.text.HAL_HCD_Connect_Callback,"ax",%progbits
 921              		.align	1
 922              		.weak	HAL_HCD_Connect_Callback
 923              		.syntax unified
 924              		.thumb
 925              		.thumb_func
 927              	HAL_HCD_Connect_Callback:
 928              	.LVL77:
 929              	.LFB141:
 625:Drivers/STM32L4xx_HAL_Driver/Src/stm32l4xx_hal_hcd.c ****   /* Prevent unused argument(s) compilation warning */
 930              		.loc 1 625 1 is_stmt 1 view -0
 931              		.cfi_startproc
ARM GAS  C:\Users\HP\AppData\Local\Temp\ccGJK0AZ.s 			page 49


 932              		@ args = 0, pretend = 0, frame = 0
 933              		@ frame_needed = 0, uses_anonymous_args = 0
 934              		@ link register save eliminated.
 627:Drivers/STM32L4xx_HAL_Driver/Src/stm32l4xx_hal_hcd.c **** 
 935              		.loc 1 627 3 view .LVU278
 632:Drivers/STM32L4xx_HAL_Driver/Src/stm32l4xx_hal_hcd.c **** 
 936              		.loc 1 632 1 is_stmt 0 view .LVU279
 937 0000 7047     		bx	lr
 938              		.cfi_endproc
 939              	.LFE141:
 941              		.section	.text.HAL_HCD_Disconnect_Callback,"ax",%progbits
 942              		.align	1
 943              		.weak	HAL_HCD_Disconnect_Callback
 944              		.syntax unified
 945              		.thumb
 946              		.thumb_func
 948              	HAL_HCD_Disconnect_Callback:
 949              	.LVL78:
 950              	.LFB142:
 640:Drivers/STM32L4xx_HAL_Driver/Src/stm32l4xx_hal_hcd.c ****   /* Prevent unused argument(s) compilation warning */
 951              		.loc 1 640 1 is_stmt 1 view -0
 952              		.cfi_startproc
 953              		@ args = 0, pretend = 0, frame = 0
 954              		@ frame_needed = 0, uses_anonymous_args = 0
 955              		@ link register save eliminated.
 642:Drivers/STM32L4xx_HAL_Driver/Src/stm32l4xx_hal_hcd.c **** 
 956              		.loc 1 642 3 view .LVU281
 647:Drivers/STM32L4xx_HAL_Driver/Src/stm32l4xx_hal_hcd.c **** 
 957              		.loc 1 647 1 is_stmt 0 view .LVU282
 958 0000 7047     		bx	lr
 959              		.cfi_endproc
 960              	.LFE142:
 962              		.section	.text.HAL_HCD_PortEnabled_Callback,"ax",%progbits
 963              		.align	1
 964              		.weak	HAL_HCD_PortEnabled_Callback
 965              		.syntax unified
 966              		.thumb
 967              		.thumb_func
 969              	HAL_HCD_PortEnabled_Callback:
 970              	.LVL79:
 971              	.LFB143:
 655:Drivers/STM32L4xx_HAL_Driver/Src/stm32l4xx_hal_hcd.c ****   /* Prevent unused argument(s) compilation warning */
 972              		.loc 1 655 1 is_stmt 1 view -0
 973              		.cfi_startproc
 974              		@ args = 0, pretend = 0, frame = 0
 975              		@ frame_needed = 0, uses_anonymous_args = 0
 976              		@ link register save eliminated.
 657:Drivers/STM32L4xx_HAL_Driver/Src/stm32l4xx_hal_hcd.c **** 
 977              		.loc 1 657 3 view .LVU284
 662:Drivers/STM32L4xx_HAL_Driver/Src/stm32l4xx_hal_hcd.c **** 
 978              		.loc 1 662 1 is_stmt 0 view .LVU285
 979 0000 7047     		bx	lr
 980              		.cfi_endproc
 981              	.LFE143:
 983              		.section	.text.HAL_HCD_PortDisabled_Callback,"ax",%progbits
 984              		.align	1
 985              		.weak	HAL_HCD_PortDisabled_Callback
ARM GAS  C:\Users\HP\AppData\Local\Temp\ccGJK0AZ.s 			page 50


 986              		.syntax unified
 987              		.thumb
 988              		.thumb_func
 990              	HAL_HCD_PortDisabled_Callback:
 991              	.LVL80:
 992              	.LFB144:
 670:Drivers/STM32L4xx_HAL_Driver/Src/stm32l4xx_hal_hcd.c ****   /* Prevent unused argument(s) compilation warning */
 993              		.loc 1 670 1 is_stmt 1 view -0
 994              		.cfi_startproc
 995              		@ args = 0, pretend = 0, frame = 0
 996              		@ frame_needed = 0, uses_anonymous_args = 0
 997              		@ link register save eliminated.
 672:Drivers/STM32L4xx_HAL_Driver/Src/stm32l4xx_hal_hcd.c **** 
 998              		.loc 1 672 3 view .LVU287
 677:Drivers/STM32L4xx_HAL_Driver/Src/stm32l4xx_hal_hcd.c **** 
 999              		.loc 1 677 1 is_stmt 0 view .LVU288
 1000 0000 7047     		bx	lr
 1001              		.cfi_endproc
 1002              	.LFE144:
 1004              		.section	.text.HCD_Port_IRQHandler,"ax",%progbits
 1005              		.align	1
 1006              		.syntax unified
 1007              		.thumb
 1008              		.thumb_func
 1010              	HCD_Port_IRQHandler:
 1011              	.LVL81:
 1012              	.LFB158:
1570:Drivers/STM32L4xx_HAL_Driver/Src/stm32l4xx_hal_hcd.c **** 
1571:Drivers/STM32L4xx_HAL_Driver/Src/stm32l4xx_hal_hcd.c **** /**
1572:Drivers/STM32L4xx_HAL_Driver/Src/stm32l4xx_hal_hcd.c ****   * @brief  Handle Host Port interrupt requests.
1573:Drivers/STM32L4xx_HAL_Driver/Src/stm32l4xx_hal_hcd.c ****   * @param  hhcd HCD handle
1574:Drivers/STM32L4xx_HAL_Driver/Src/stm32l4xx_hal_hcd.c ****   * @retval None
1575:Drivers/STM32L4xx_HAL_Driver/Src/stm32l4xx_hal_hcd.c ****   */
1576:Drivers/STM32L4xx_HAL_Driver/Src/stm32l4xx_hal_hcd.c **** static void HCD_Port_IRQHandler(HCD_HandleTypeDef *hhcd)
1577:Drivers/STM32L4xx_HAL_Driver/Src/stm32l4xx_hal_hcd.c **** {
 1013              		.loc 1 1577 1 is_stmt 1 view -0
 1014              		.cfi_startproc
 1015              		@ args = 0, pretend = 0, frame = 8
 1016              		@ frame_needed = 0, uses_anonymous_args = 0
 1017              		.loc 1 1577 1 is_stmt 0 view .LVU290
 1018 0000 30B5     		push	{r4, r5, lr}
 1019              	.LCFI15:
 1020              		.cfi_def_cfa_offset 12
 1021              		.cfi_offset 4, -12
 1022              		.cfi_offset 5, -8
 1023              		.cfi_offset 14, -4
 1024 0002 83B0     		sub	sp, sp, #12
 1025              	.LCFI16:
 1026              		.cfi_def_cfa_offset 24
 1027 0004 0446     		mov	r4, r0
1578:Drivers/STM32L4xx_HAL_Driver/Src/stm32l4xx_hal_hcd.c ****   USB_OTG_GlobalTypeDef *USBx = hhcd->Instance;
 1028              		.loc 1 1578 3 is_stmt 1 view .LVU291
 1029              		.loc 1 1578 26 is_stmt 0 view .LVU292
 1030 0006 0568     		ldr	r5, [r0]
1579:Drivers/STM32L4xx_HAL_Driver/Src/stm32l4xx_hal_hcd.c ****   uint32_t USBx_BASE = (uint32_t)USBx;
 1031              		.loc 1 1579 3 is_stmt 1 view .LVU293
 1032              	.LVL82:
ARM GAS  C:\Users\HP\AppData\Local\Temp\ccGJK0AZ.s 			page 51


1580:Drivers/STM32L4xx_HAL_Driver/Src/stm32l4xx_hal_hcd.c ****   __IO uint32_t hprt0;
 1033              		.loc 1 1580 3 view .LVU294
1581:Drivers/STM32L4xx_HAL_Driver/Src/stm32l4xx_hal_hcd.c ****   __IO uint32_t hprt0_dup;
 1034              		.loc 1 1581 3 view .LVU295
1582:Drivers/STM32L4xx_HAL_Driver/Src/stm32l4xx_hal_hcd.c **** 
1583:Drivers/STM32L4xx_HAL_Driver/Src/stm32l4xx_hal_hcd.c ****   /* Handle Host Port Interrupts */
1584:Drivers/STM32L4xx_HAL_Driver/Src/stm32l4xx_hal_hcd.c ****   hprt0 = USBx_HPRT0;
 1035              		.loc 1 1584 3 view .LVU296
 1036              		.loc 1 1584 11 is_stmt 0 view .LVU297
 1037 0008 D5F84034 		ldr	r3, [r5, #1088]
 1038              		.loc 1 1584 9 view .LVU298
 1039 000c 0193     		str	r3, [sp, #4]
1585:Drivers/STM32L4xx_HAL_Driver/Src/stm32l4xx_hal_hcd.c ****   hprt0_dup = USBx_HPRT0;
 1040              		.loc 1 1585 3 is_stmt 1 view .LVU299
 1041              		.loc 1 1585 15 is_stmt 0 view .LVU300
 1042 000e D5F84034 		ldr	r3, [r5, #1088]
 1043              		.loc 1 1585 13 view .LVU301
 1044 0012 0093     		str	r3, [sp]
1586:Drivers/STM32L4xx_HAL_Driver/Src/stm32l4xx_hal_hcd.c **** 
1587:Drivers/STM32L4xx_HAL_Driver/Src/stm32l4xx_hal_hcd.c ****   hprt0_dup &= ~(USB_OTG_HPRT_PENA | USB_OTG_HPRT_PCDET | \
 1045              		.loc 1 1587 3 is_stmt 1 view .LVU302
 1046              		.loc 1 1587 13 is_stmt 0 view .LVU303
 1047 0014 009B     		ldr	r3, [sp]
 1048 0016 23F02E03 		bic	r3, r3, #46
 1049 001a 0093     		str	r3, [sp]
1588:Drivers/STM32L4xx_HAL_Driver/Src/stm32l4xx_hal_hcd.c ****                  USB_OTG_HPRT_PENCHNG | USB_OTG_HPRT_POCCHNG);
1589:Drivers/STM32L4xx_HAL_Driver/Src/stm32l4xx_hal_hcd.c **** 
1590:Drivers/STM32L4xx_HAL_Driver/Src/stm32l4xx_hal_hcd.c ****   /* Check whether Port Connect detected */
1591:Drivers/STM32L4xx_HAL_Driver/Src/stm32l4xx_hal_hcd.c ****   if ((hprt0 & USB_OTG_HPRT_PCDET) == USB_OTG_HPRT_PCDET)
 1050              		.loc 1 1591 3 is_stmt 1 view .LVU304
 1051              		.loc 1 1591 14 is_stmt 0 view .LVU305
 1052 001c 019B     		ldr	r3, [sp, #4]
 1053              		.loc 1 1591 6 view .LVU306
 1054 001e 13F0020F 		tst	r3, #2
 1055 0022 07D0     		beq	.L64
1592:Drivers/STM32L4xx_HAL_Driver/Src/stm32l4xx_hal_hcd.c ****   {
1593:Drivers/STM32L4xx_HAL_Driver/Src/stm32l4xx_hal_hcd.c ****     if ((hprt0 & USB_OTG_HPRT_PCSTS) == USB_OTG_HPRT_PCSTS)
 1056              		.loc 1 1593 5 is_stmt 1 view .LVU307
 1057              		.loc 1 1593 16 is_stmt 0 view .LVU308
 1058 0024 019B     		ldr	r3, [sp, #4]
 1059              		.loc 1 1593 8 view .LVU309
 1060 0026 13F0010F 		tst	r3, #1
 1061 002a 25D1     		bne	.L73
 1062              	.LVL83:
 1063              	.L65:
1594:Drivers/STM32L4xx_HAL_Driver/Src/stm32l4xx_hal_hcd.c ****     {
1595:Drivers/STM32L4xx_HAL_Driver/Src/stm32l4xx_hal_hcd.c **** #if (USE_HAL_HCD_REGISTER_CALLBACKS == 1U)
1596:Drivers/STM32L4xx_HAL_Driver/Src/stm32l4xx_hal_hcd.c ****       hhcd->ConnectCallback(hhcd);
1597:Drivers/STM32L4xx_HAL_Driver/Src/stm32l4xx_hal_hcd.c **** #else
1598:Drivers/STM32L4xx_HAL_Driver/Src/stm32l4xx_hal_hcd.c ****       HAL_HCD_Connect_Callback(hhcd);
1599:Drivers/STM32L4xx_HAL_Driver/Src/stm32l4xx_hal_hcd.c **** #endif /* USE_HAL_HCD_REGISTER_CALLBACKS */
1600:Drivers/STM32L4xx_HAL_Driver/Src/stm32l4xx_hal_hcd.c ****     }
1601:Drivers/STM32L4xx_HAL_Driver/Src/stm32l4xx_hal_hcd.c ****     hprt0_dup |= USB_OTG_HPRT_PCDET;
 1064              		.loc 1 1601 5 is_stmt 1 view .LVU310
 1065              		.loc 1 1601 15 is_stmt 0 view .LVU311
 1066 002c 009B     		ldr	r3, [sp]
 1067 002e 43F00203 		orr	r3, r3, #2
ARM GAS  C:\Users\HP\AppData\Local\Temp\ccGJK0AZ.s 			page 52


 1068 0032 0093     		str	r3, [sp]
 1069              	.L64:
1602:Drivers/STM32L4xx_HAL_Driver/Src/stm32l4xx_hal_hcd.c ****   }
1603:Drivers/STM32L4xx_HAL_Driver/Src/stm32l4xx_hal_hcd.c **** 
1604:Drivers/STM32L4xx_HAL_Driver/Src/stm32l4xx_hal_hcd.c ****   /* Check whether Port Enable Changed */
1605:Drivers/STM32L4xx_HAL_Driver/Src/stm32l4xx_hal_hcd.c ****   if ((hprt0 & USB_OTG_HPRT_PENCHNG) == USB_OTG_HPRT_PENCHNG)
 1070              		.loc 1 1605 3 is_stmt 1 view .LVU312
 1071              		.loc 1 1605 14 is_stmt 0 view .LVU313
 1072 0034 019B     		ldr	r3, [sp, #4]
 1073              		.loc 1 1605 6 view .LVU314
 1074 0036 13F0080F 		tst	r3, #8
 1075 003a 10D0     		beq	.L66
1606:Drivers/STM32L4xx_HAL_Driver/Src/stm32l4xx_hal_hcd.c ****   {
1607:Drivers/STM32L4xx_HAL_Driver/Src/stm32l4xx_hal_hcd.c ****     hprt0_dup |= USB_OTG_HPRT_PENCHNG;
 1076              		.loc 1 1607 5 is_stmt 1 view .LVU315
 1077              		.loc 1 1607 15 is_stmt 0 view .LVU316
 1078 003c 009B     		ldr	r3, [sp]
 1079 003e 43F00803 		orr	r3, r3, #8
 1080 0042 0093     		str	r3, [sp]
1608:Drivers/STM32L4xx_HAL_Driver/Src/stm32l4xx_hal_hcd.c **** 
1609:Drivers/STM32L4xx_HAL_Driver/Src/stm32l4xx_hal_hcd.c ****     if ((hprt0 & USB_OTG_HPRT_PENA) == USB_OTG_HPRT_PENA)
 1081              		.loc 1 1609 5 is_stmt 1 view .LVU317
 1082              		.loc 1 1609 16 is_stmt 0 view .LVU318
 1083 0044 019B     		ldr	r3, [sp, #4]
 1084              		.loc 1 1609 8 view .LVU319
 1085 0046 13F0040F 		tst	r3, #4
 1086 004a 2DD0     		beq	.L67
1610:Drivers/STM32L4xx_HAL_Driver/Src/stm32l4xx_hal_hcd.c ****     {
1611:Drivers/STM32L4xx_HAL_Driver/Src/stm32l4xx_hal_hcd.c ****       if (hhcd->Init.phy_itface  == USB_OTG_EMBEDDED_PHY)
 1087              		.loc 1 1611 7 is_stmt 1 view .LVU320
 1088              		.loc 1 1611 21 is_stmt 0 view .LVU321
 1089 004c A369     		ldr	r3, [r4, #24]
 1090              		.loc 1 1611 10 view .LVU322
 1091 004e 022B     		cmp	r3, #2
 1092 0050 15D0     		beq	.L74
1612:Drivers/STM32L4xx_HAL_Driver/Src/stm32l4xx_hal_hcd.c ****       {
1613:Drivers/STM32L4xx_HAL_Driver/Src/stm32l4xx_hal_hcd.c ****         if ((hprt0 & USB_OTG_HPRT_PSPD) == (HPRT0_PRTSPD_LOW_SPEED << 17))
1614:Drivers/STM32L4xx_HAL_Driver/Src/stm32l4xx_hal_hcd.c ****         {
1615:Drivers/STM32L4xx_HAL_Driver/Src/stm32l4xx_hal_hcd.c ****           (void)USB_InitFSLSPClkSel(hhcd->Instance, HCFG_6_MHZ);
1616:Drivers/STM32L4xx_HAL_Driver/Src/stm32l4xx_hal_hcd.c ****         }
1617:Drivers/STM32L4xx_HAL_Driver/Src/stm32l4xx_hal_hcd.c ****         else
1618:Drivers/STM32L4xx_HAL_Driver/Src/stm32l4xx_hal_hcd.c ****         {
1619:Drivers/STM32L4xx_HAL_Driver/Src/stm32l4xx_hal_hcd.c ****           (void)USB_InitFSLSPClkSel(hhcd->Instance, HCFG_48_MHZ);
1620:Drivers/STM32L4xx_HAL_Driver/Src/stm32l4xx_hal_hcd.c ****         }
1621:Drivers/STM32L4xx_HAL_Driver/Src/stm32l4xx_hal_hcd.c ****       }
1622:Drivers/STM32L4xx_HAL_Driver/Src/stm32l4xx_hal_hcd.c ****       else
1623:Drivers/STM32L4xx_HAL_Driver/Src/stm32l4xx_hal_hcd.c ****       {
1624:Drivers/STM32L4xx_HAL_Driver/Src/stm32l4xx_hal_hcd.c ****         if (hhcd->Init.speed == HCD_SPEED_FULL)
 1093              		.loc 1 1624 9 is_stmt 1 view .LVU323
 1094              		.loc 1 1624 23 is_stmt 0 view .LVU324
 1095 0052 E368     		ldr	r3, [r4, #12]
 1096              		.loc 1 1624 12 view .LVU325
 1097 0054 012B     		cmp	r3, #1
 1098 0056 22D0     		beq	.L75
 1099              	.L70:
1625:Drivers/STM32L4xx_HAL_Driver/Src/stm32l4xx_hal_hcd.c ****         {
1626:Drivers/STM32L4xx_HAL_Driver/Src/stm32l4xx_hal_hcd.c ****           USBx_HOST->HFIR = 60000U;
ARM GAS  C:\Users\HP\AppData\Local\Temp\ccGJK0AZ.s 			page 53


1627:Drivers/STM32L4xx_HAL_Driver/Src/stm32l4xx_hal_hcd.c ****         }
1628:Drivers/STM32L4xx_HAL_Driver/Src/stm32l4xx_hal_hcd.c ****       }
1629:Drivers/STM32L4xx_HAL_Driver/Src/stm32l4xx_hal_hcd.c **** #if (USE_HAL_HCD_REGISTER_CALLBACKS == 1U)
1630:Drivers/STM32L4xx_HAL_Driver/Src/stm32l4xx_hal_hcd.c ****       hhcd->PortEnabledCallback(hhcd);
1631:Drivers/STM32L4xx_HAL_Driver/Src/stm32l4xx_hal_hcd.c **** #else
1632:Drivers/STM32L4xx_HAL_Driver/Src/stm32l4xx_hal_hcd.c ****       HAL_HCD_PortEnabled_Callback(hhcd);
 1100              		.loc 1 1632 7 is_stmt 1 view .LVU326
 1101 0058 2046     		mov	r0, r4
 1102 005a FFF7FEFF 		bl	HAL_HCD_PortEnabled_Callback
 1103              	.LVL84:
 1104              	.L66:
1633:Drivers/STM32L4xx_HAL_Driver/Src/stm32l4xx_hal_hcd.c **** #endif /* USE_HAL_HCD_REGISTER_CALLBACKS */
1634:Drivers/STM32L4xx_HAL_Driver/Src/stm32l4xx_hal_hcd.c **** 
1635:Drivers/STM32L4xx_HAL_Driver/Src/stm32l4xx_hal_hcd.c ****     }
1636:Drivers/STM32L4xx_HAL_Driver/Src/stm32l4xx_hal_hcd.c ****     else
1637:Drivers/STM32L4xx_HAL_Driver/Src/stm32l4xx_hal_hcd.c ****     {
1638:Drivers/STM32L4xx_HAL_Driver/Src/stm32l4xx_hal_hcd.c **** #if (USE_HAL_HCD_REGISTER_CALLBACKS == 1U)
1639:Drivers/STM32L4xx_HAL_Driver/Src/stm32l4xx_hal_hcd.c ****       hhcd->PortDisabledCallback(hhcd);
1640:Drivers/STM32L4xx_HAL_Driver/Src/stm32l4xx_hal_hcd.c **** #else
1641:Drivers/STM32L4xx_HAL_Driver/Src/stm32l4xx_hal_hcd.c ****       HAL_HCD_PortDisabled_Callback(hhcd);
1642:Drivers/STM32L4xx_HAL_Driver/Src/stm32l4xx_hal_hcd.c **** #endif /* USE_HAL_HCD_REGISTER_CALLBACKS */
1643:Drivers/STM32L4xx_HAL_Driver/Src/stm32l4xx_hal_hcd.c ****     }
1644:Drivers/STM32L4xx_HAL_Driver/Src/stm32l4xx_hal_hcd.c ****   }
1645:Drivers/STM32L4xx_HAL_Driver/Src/stm32l4xx_hal_hcd.c **** 
1646:Drivers/STM32L4xx_HAL_Driver/Src/stm32l4xx_hal_hcd.c ****   /* Check for an overcurrent */
1647:Drivers/STM32L4xx_HAL_Driver/Src/stm32l4xx_hal_hcd.c ****   if ((hprt0 & USB_OTG_HPRT_POCCHNG) == USB_OTG_HPRT_POCCHNG)
 1105              		.loc 1 1647 3 view .LVU327
 1106              		.loc 1 1647 14 is_stmt 0 view .LVU328
 1107 005e 019B     		ldr	r3, [sp, #4]
 1108              		.loc 1 1647 6 view .LVU329
 1109 0060 13F0200F 		tst	r3, #32
 1110 0064 03D0     		beq	.L71
1648:Drivers/STM32L4xx_HAL_Driver/Src/stm32l4xx_hal_hcd.c ****   {
1649:Drivers/STM32L4xx_HAL_Driver/Src/stm32l4xx_hal_hcd.c ****     hprt0_dup |= USB_OTG_HPRT_POCCHNG;
 1111              		.loc 1 1649 5 is_stmt 1 view .LVU330
 1112              		.loc 1 1649 15 is_stmt 0 view .LVU331
 1113 0066 009B     		ldr	r3, [sp]
 1114 0068 43F02003 		orr	r3, r3, #32
 1115 006c 0093     		str	r3, [sp]
 1116              	.L71:
1650:Drivers/STM32L4xx_HAL_Driver/Src/stm32l4xx_hal_hcd.c ****   }
1651:Drivers/STM32L4xx_HAL_Driver/Src/stm32l4xx_hal_hcd.c **** 
1652:Drivers/STM32L4xx_HAL_Driver/Src/stm32l4xx_hal_hcd.c ****   /* Clear Port Interrupts */
1653:Drivers/STM32L4xx_HAL_Driver/Src/stm32l4xx_hal_hcd.c ****   USBx_HPRT0 = hprt0_dup;
 1117              		.loc 1 1653 3 is_stmt 1 view .LVU332
 1118              		.loc 1 1653 14 is_stmt 0 view .LVU333
 1119 006e 009B     		ldr	r3, [sp]
 1120 0070 C5F84034 		str	r3, [r5, #1088]
1654:Drivers/STM32L4xx_HAL_Driver/Src/stm32l4xx_hal_hcd.c **** }
 1121              		.loc 1 1654 1 view .LVU334
 1122 0074 03B0     		add	sp, sp, #12
 1123              	.LCFI17:
 1124              		.cfi_remember_state
 1125              		.cfi_def_cfa_offset 12
 1126              		@ sp needed
 1127 0076 30BD     		pop	{r4, r5, pc}
 1128              	.LVL85:
ARM GAS  C:\Users\HP\AppData\Local\Temp\ccGJK0AZ.s 			page 54


 1129              	.L73:
 1130              	.LCFI18:
 1131              		.cfi_restore_state
1598:Drivers/STM32L4xx_HAL_Driver/Src/stm32l4xx_hal_hcd.c **** #endif /* USE_HAL_HCD_REGISTER_CALLBACKS */
 1132              		.loc 1 1598 7 is_stmt 1 view .LVU335
 1133 0078 FFF7FEFF 		bl	HAL_HCD_Connect_Callback
 1134              	.LVL86:
1598:Drivers/STM32L4xx_HAL_Driver/Src/stm32l4xx_hal_hcd.c **** #endif /* USE_HAL_HCD_REGISTER_CALLBACKS */
 1135              		.loc 1 1598 7 is_stmt 0 view .LVU336
 1136 007c D6E7     		b	.L65
 1137              	.L74:
1613:Drivers/STM32L4xx_HAL_Driver/Src/stm32l4xx_hal_hcd.c ****         {
 1138              		.loc 1 1613 9 is_stmt 1 view .LVU337
1613:Drivers/STM32L4xx_HAL_Driver/Src/stm32l4xx_hal_hcd.c ****         {
 1139              		.loc 1 1613 20 is_stmt 0 view .LVU338
 1140 007e 019B     		ldr	r3, [sp, #4]
 1141 0080 03F4C023 		and	r3, r3, #393216
1613:Drivers/STM32L4xx_HAL_Driver/Src/stm32l4xx_hal_hcd.c ****         {
 1142              		.loc 1 1613 12 view .LVU339
 1143 0084 B3F5802F 		cmp	r3, #262144
 1144 0088 04D0     		beq	.L76
1619:Drivers/STM32L4xx_HAL_Driver/Src/stm32l4xx_hal_hcd.c ****         }
 1145              		.loc 1 1619 11 is_stmt 1 view .LVU340
1619:Drivers/STM32L4xx_HAL_Driver/Src/stm32l4xx_hal_hcd.c ****         }
 1146              		.loc 1 1619 17 is_stmt 0 view .LVU341
 1147 008a 0121     		movs	r1, #1
 1148 008c 2068     		ldr	r0, [r4]
 1149 008e FFF7FEFF 		bl	USB_InitFSLSPClkSel
 1150              	.LVL87:
 1151 0092 E1E7     		b	.L70
 1152              	.L76:
1615:Drivers/STM32L4xx_HAL_Driver/Src/stm32l4xx_hal_hcd.c ****         }
 1153              		.loc 1 1615 11 is_stmt 1 view .LVU342
1615:Drivers/STM32L4xx_HAL_Driver/Src/stm32l4xx_hal_hcd.c ****         }
 1154              		.loc 1 1615 17 is_stmt 0 view .LVU343
 1155 0094 0221     		movs	r1, #2
 1156 0096 2068     		ldr	r0, [r4]
 1157 0098 FFF7FEFF 		bl	USB_InitFSLSPClkSel
 1158              	.LVL88:
 1159 009c DCE7     		b	.L70
 1160              	.L75:
1626:Drivers/STM32L4xx_HAL_Driver/Src/stm32l4xx_hal_hcd.c ****         }
 1161              		.loc 1 1626 11 is_stmt 1 view .LVU344
1626:Drivers/STM32L4xx_HAL_Driver/Src/stm32l4xx_hal_hcd.c ****         }
 1162              		.loc 1 1626 27 is_stmt 0 view .LVU345
 1163 009e 4EF66022 		movw	r2, #60000
 1164 00a2 C5F80424 		str	r2, [r5, #1028]
 1165 00a6 D7E7     		b	.L70
 1166              	.L67:
1641:Drivers/STM32L4xx_HAL_Driver/Src/stm32l4xx_hal_hcd.c **** #endif /* USE_HAL_HCD_REGISTER_CALLBACKS */
 1167              		.loc 1 1641 7 is_stmt 1 view .LVU346
 1168 00a8 2046     		mov	r0, r4
 1169 00aa FFF7FEFF 		bl	HAL_HCD_PortDisabled_Callback
 1170              	.LVL89:
 1171 00ae D6E7     		b	.L66
 1172              		.cfi_endproc
 1173              	.LFE158:
ARM GAS  C:\Users\HP\AppData\Local\Temp\ccGJK0AZ.s 			page 55


 1175              		.section	.text.HAL_HCD_HC_NotifyURBChange_Callback,"ax",%progbits
 1176              		.align	1
 1177              		.weak	HAL_HCD_HC_NotifyURBChange_Callback
 1178              		.syntax unified
 1179              		.thumb
 1180              		.thumb_func
 1182              	HAL_HCD_HC_NotifyURBChange_Callback:
 1183              	.LVL90:
 1184              	.LFB145:
 695:Drivers/STM32L4xx_HAL_Driver/Src/stm32l4xx_hal_hcd.c ****   /* Prevent unused argument(s) compilation warning */
 1185              		.loc 1 695 1 view -0
 1186              		.cfi_startproc
 1187              		@ args = 0, pretend = 0, frame = 0
 1188              		@ frame_needed = 0, uses_anonymous_args = 0
 1189              		@ link register save eliminated.
 697:Drivers/STM32L4xx_HAL_Driver/Src/stm32l4xx_hal_hcd.c ****   UNUSED(chnum);
 1190              		.loc 1 697 3 view .LVU348
 698:Drivers/STM32L4xx_HAL_Driver/Src/stm32l4xx_hal_hcd.c ****   UNUSED(urb_state);
 1191              		.loc 1 698 3 view .LVU349
 699:Drivers/STM32L4xx_HAL_Driver/Src/stm32l4xx_hal_hcd.c **** 
 1192              		.loc 1 699 3 view .LVU350
 704:Drivers/STM32L4xx_HAL_Driver/Src/stm32l4xx_hal_hcd.c **** 
 1193              		.loc 1 704 1 is_stmt 0 view .LVU351
 1194 0000 7047     		bx	lr
 1195              		.cfi_endproc
 1196              	.LFE145:
 1198              		.section	.text.HCD_HC_IN_IRQHandler,"ax",%progbits
 1199              		.align	1
 1200              		.syntax unified
 1201              		.thumb
 1202              		.thumb_func
 1204              	HCD_HC_IN_IRQHandler:
 1205              	.LVL91:
 1206              	.LFB155:
1170:Drivers/STM32L4xx_HAL_Driver/Src/stm32l4xx_hal_hcd.c ****   USB_OTG_GlobalTypeDef *USBx = hhcd->Instance;
 1207              		.loc 1 1170 1 is_stmt 1 view -0
 1208              		.cfi_startproc
 1209              		@ args = 0, pretend = 0, frame = 0
 1210              		@ frame_needed = 0, uses_anonymous_args = 0
1170:Drivers/STM32L4xx_HAL_Driver/Src/stm32l4xx_hal_hcd.c ****   USB_OTG_GlobalTypeDef *USBx = hhcd->Instance;
 1211              		.loc 1 1170 1 is_stmt 0 view .LVU353
 1212 0000 F8B5     		push	{r3, r4, r5, r6, r7, lr}
 1213              	.LCFI19:
 1214              		.cfi_def_cfa_offset 24
 1215              		.cfi_offset 3, -24
 1216              		.cfi_offset 4, -20
 1217              		.cfi_offset 5, -16
 1218              		.cfi_offset 6, -12
 1219              		.cfi_offset 7, -8
 1220              		.cfi_offset 14, -4
 1221 0002 0446     		mov	r4, r0
 1222 0004 0E46     		mov	r6, r1
1171:Drivers/STM32L4xx_HAL_Driver/Src/stm32l4xx_hal_hcd.c ****   uint32_t USBx_BASE = (uint32_t)USBx;
 1223              		.loc 1 1171 3 is_stmt 1 view .LVU354
1171:Drivers/STM32L4xx_HAL_Driver/Src/stm32l4xx_hal_hcd.c ****   uint32_t USBx_BASE = (uint32_t)USBx;
 1224              		.loc 1 1171 26 is_stmt 0 view .LVU355
 1225 0006 0768     		ldr	r7, [r0]
ARM GAS  C:\Users\HP\AppData\Local\Temp\ccGJK0AZ.s 			page 56


 1226              	.LVL92:
1172:Drivers/STM32L4xx_HAL_Driver/Src/stm32l4xx_hal_hcd.c ****   uint32_t ch_num = (uint32_t)chnum;
 1227              		.loc 1 1172 3 is_stmt 1 view .LVU356
1173:Drivers/STM32L4xx_HAL_Driver/Src/stm32l4xx_hal_hcd.c **** 
 1228              		.loc 1 1173 3 view .LVU357
1175:Drivers/STM32L4xx_HAL_Driver/Src/stm32l4xx_hal_hcd.c **** 
 1229              		.loc 1 1175 3 view .LVU358
1177:Drivers/STM32L4xx_HAL_Driver/Src/stm32l4xx_hal_hcd.c ****   {
 1230              		.loc 1 1177 3 view .LVU359
1177:Drivers/STM32L4xx_HAL_Driver/Src/stm32l4xx_hal_hcd.c ****   {
 1231              		.loc 1 1177 8 is_stmt 0 view .LVU360
 1232 0008 07EB4117 		add	r7, r7, r1, lsl #5
 1233              	.LVL93:
1177:Drivers/STM32L4xx_HAL_Driver/Src/stm32l4xx_hal_hcd.c ****   {
 1234              		.loc 1 1177 8 view .LVU361
 1235 000c 07F5A065 		add	r5, r7, #1280
1177:Drivers/STM32L4xx_HAL_Driver/Src/stm32l4xx_hal_hcd.c ****   {
 1236              		.loc 1 1177 23 view .LVU362
 1237 0010 AB68     		ldr	r3, [r5, #8]
1177:Drivers/STM32L4xx_HAL_Driver/Src/stm32l4xx_hal_hcd.c ****   {
 1238              		.loc 1 1177 6 view .LVU363
 1239 0012 13F0040F 		tst	r3, #4
 1240 0016 0AD1     		bne	.L105
1183:Drivers/STM32L4xx_HAL_Driver/Src/stm32l4xx_hal_hcd.c ****   {
 1241              		.loc 1 1183 8 is_stmt 1 view .LVU364
1183:Drivers/STM32L4xx_HAL_Driver/Src/stm32l4xx_hal_hcd.c ****   {
 1242              		.loc 1 1183 28 is_stmt 0 view .LVU365
 1243 0018 AB68     		ldr	r3, [r5, #8]
1183:Drivers/STM32L4xx_HAL_Driver/Src/stm32l4xx_hal_hcd.c ****   {
 1244              		.loc 1 1183 11 view .LVU366
 1245 001a 13F4807F 		tst	r3, #256
 1246 001e 3ED1     		bne	.L106
1189:Drivers/STM32L4xx_HAL_Driver/Src/stm32l4xx_hal_hcd.c ****   {
 1247              		.loc 1 1189 8 is_stmt 1 view .LVU367
1189:Drivers/STM32L4xx_HAL_Driver/Src/stm32l4xx_hal_hcd.c ****   {
 1248              		.loc 1 1189 28 is_stmt 0 view .LVU368
 1249 0020 AB68     		ldr	r3, [r5, #8]
1189:Drivers/STM32L4xx_HAL_Driver/Src/stm32l4xx_hal_hcd.c ****   {
 1250              		.loc 1 1189 11 view .LVU369
 1251 0022 13F0200F 		tst	r3, #32
 1252 0026 47D0     		beq	.L82
1191:Drivers/STM32L4xx_HAL_Driver/Src/stm32l4xx_hal_hcd.c ****   }
 1253              		.loc 1 1191 5 is_stmt 1 view .LVU370
 1254 0028 2023     		movs	r3, #32
 1255 002a AB60     		str	r3, [r5, #8]
 1256              	.LVL94:
1191:Drivers/STM32L4xx_HAL_Driver/Src/stm32l4xx_hal_hcd.c ****   }
 1257              		.loc 1 1191 5 is_stmt 0 view .LVU371
 1258 002c 0AE0     		b	.L80
 1259              	.LVL95:
 1260              	.L105:
1179:Drivers/STM32L4xx_HAL_Driver/Src/stm32l4xx_hal_hcd.c ****     hhcd->hc[ch_num].state = HC_XACTERR;
 1261              		.loc 1 1179 5 is_stmt 1 view .LVU372
 1262 002e 0423     		movs	r3, #4
 1263 0030 AB60     		str	r3, [r5, #8]
 1264              	.LVL96:
1180:Drivers/STM32L4xx_HAL_Driver/Src/stm32l4xx_hal_hcd.c ****     (void)USB_HC_Halt(hhcd->Instance, (uint8_t)ch_num);
ARM GAS  C:\Users\HP\AppData\Local\Temp\ccGJK0AZ.s 			page 57


 1265              		.loc 1 1180 5 view .LVU373
1180:Drivers/STM32L4xx_HAL_Driver/Src/stm32l4xx_hal_hcd.c ****     (void)USB_HC_Halt(hhcd->Instance, (uint8_t)ch_num);
 1266              		.loc 1 1180 28 is_stmt 0 view .LVU374
 1267 0032 2C23     		movs	r3, #44
 1268 0034 03FB0103 		mla	r3, r3, r1, r0
 1269 0038 0622     		movs	r2, #6
 1270 003a 83F86120 		strb	r2, [r3, #97]
1181:Drivers/STM32L4xx_HAL_Driver/Src/stm32l4xx_hal_hcd.c ****   }
 1271              		.loc 1 1181 5 is_stmt 1 view .LVU375
1181:Drivers/STM32L4xx_HAL_Driver/Src/stm32l4xx_hal_hcd.c ****   }
 1272              		.loc 1 1181 11 is_stmt 0 view .LVU376
 1273 003e 0068     		ldr	r0, [r0]
 1274              	.LVL97:
1181:Drivers/STM32L4xx_HAL_Driver/Src/stm32l4xx_hal_hcd.c ****   }
 1275              		.loc 1 1181 11 view .LVU377
 1276 0040 FFF7FEFF 		bl	USB_HC_Halt
 1277              	.LVL98:
 1278              	.L80:
1214:Drivers/STM32L4xx_HAL_Driver/Src/stm32l4xx_hal_hcd.c **** 
 1279              		.loc 1 1214 3 is_stmt 1 view .LVU378
1216:Drivers/STM32L4xx_HAL_Driver/Src/stm32l4xx_hal_hcd.c ****   {
 1280              		.loc 1 1216 3 view .LVU379
1216:Drivers/STM32L4xx_HAL_Driver/Src/stm32l4xx_hal_hcd.c ****   {
 1281              		.loc 1 1216 23 is_stmt 0 view .LVU380
 1282 0044 AB68     		ldr	r3, [r5, #8]
1216:Drivers/STM32L4xx_HAL_Driver/Src/stm32l4xx_hal_hcd.c ****   {
 1283              		.loc 1 1216 6 view .LVU381
 1284 0046 13F4007F 		tst	r3, #512
 1285 004a 66D1     		bne	.L107
1221:Drivers/STM32L4xx_HAL_Driver/Src/stm32l4xx_hal_hcd.c ****   {
 1286              		.loc 1 1221 8 is_stmt 1 view .LVU382
1221:Drivers/STM32L4xx_HAL_Driver/Src/stm32l4xx_hal_hcd.c ****   {
 1287              		.loc 1 1221 28 is_stmt 0 view .LVU383
 1288 004c AB68     		ldr	r3, [r5, #8]
1221:Drivers/STM32L4xx_HAL_Driver/Src/stm32l4xx_hal_hcd.c ****   {
 1289              		.loc 1 1221 11 view .LVU384
 1290 004e 13F0010F 		tst	r3, #1
 1291 0052 00F09280 		beq	.L87
1223:Drivers/STM32L4xx_HAL_Driver/Src/stm32l4xx_hal_hcd.c ****     hhcd->hc[ch_num].ErrCnt = 0U;
 1292              		.loc 1 1223 5 is_stmt 1 view .LVU385
1223:Drivers/STM32L4xx_HAL_Driver/Src/stm32l4xx_hal_hcd.c ****     hhcd->hc[ch_num].ErrCnt = 0U;
 1293              		.loc 1 1223 28 is_stmt 0 view .LVU386
 1294 0056 2C23     		movs	r3, #44
 1295 0058 03FB0643 		mla	r3, r3, r6, r4
 1296 005c 0122     		movs	r2, #1
 1297 005e 83F86120 		strb	r2, [r3, #97]
1224:Drivers/STM32L4xx_HAL_Driver/Src/stm32l4xx_hal_hcd.c ****     __HAL_HCD_CLEAR_HC_INT(ch_num, USB_OTG_HCINT_XFRC);
 1298              		.loc 1 1224 5 is_stmt 1 view .LVU387
1224:Drivers/STM32L4xx_HAL_Driver/Src/stm32l4xx_hal_hcd.c ****     __HAL_HCD_CLEAR_HC_INT(ch_num, USB_OTG_HCINT_XFRC);
 1299              		.loc 1 1224 29 is_stmt 0 view .LVU388
 1300 0062 0021     		movs	r1, #0
 1301 0064 D965     		str	r1, [r3, #92]
1225:Drivers/STM32L4xx_HAL_Driver/Src/stm32l4xx_hal_hcd.c **** 
 1302              		.loc 1 1225 5 is_stmt 1 view .LVU389
 1303 0066 AA60     		str	r2, [r5, #8]
1227:Drivers/STM32L4xx_HAL_Driver/Src/stm32l4xx_hal_hcd.c ****         (hhcd->hc[ch_num].ep_type == EP_TYPE_BULK))
 1304              		.loc 1 1227 5 view .LVU390
ARM GAS  C:\Users\HP\AppData\Local\Temp\ccGJK0AZ.s 			page 58


1227:Drivers/STM32L4xx_HAL_Driver/Src/stm32l4xx_hal_hcd.c ****         (hhcd->hc[ch_num].ep_type == EP_TYPE_BULK))
 1305              		.loc 1 1227 26 is_stmt 0 view .LVU391
 1306 0068 93F83F30 		ldrb	r3, [r3, #63]	@ zero_extendqisi2
1227:Drivers/STM32L4xx_HAL_Driver/Src/stm32l4xx_hal_hcd.c ****         (hhcd->hc[ch_num].ep_type == EP_TYPE_BULK))
 1307              		.loc 1 1227 8 view .LVU392
 1308 006c 002B     		cmp	r3, #0
 1309 006e 5CD0     		beq	.L88
1227:Drivers/STM32L4xx_HAL_Driver/Src/stm32l4xx_hal_hcd.c ****         (hhcd->hc[ch_num].ep_type == EP_TYPE_BULK))
 1310              		.loc 1 1227 52 discriminator 1 view .LVU393
 1311 0070 022B     		cmp	r3, #2
 1312 0072 5AD0     		beq	.L88
1233:Drivers/STM32L4xx_HAL_Driver/Src/stm32l4xx_hal_hcd.c ****              (hhcd->hc[ch_num].ep_type == EP_TYPE_ISOC))
 1313              		.loc 1 1233 10 is_stmt 1 view .LVU394
1233:Drivers/STM32L4xx_HAL_Driver/Src/stm32l4xx_hal_hcd.c ****              (hhcd->hc[ch_num].ep_type == EP_TYPE_ISOC))
 1314              		.loc 1 1233 13 is_stmt 0 view .LVU395
 1315 0074 032B     		cmp	r3, #3
 1316 0076 01D0     		beq	.L91
1233:Drivers/STM32L4xx_HAL_Driver/Src/stm32l4xx_hal_hcd.c ****              (hhcd->hc[ch_num].ep_type == EP_TYPE_ISOC))
 1317              		.loc 1 1233 57 discriminator 1 view .LVU396
 1318 0078 012B     		cmp	r3, #1
 1319 007a 5CD1     		bne	.L90
 1320              	.L91:
1236:Drivers/STM32L4xx_HAL_Driver/Src/stm32l4xx_hal_hcd.c ****       hhcd->hc[ch_num].urb_state = URB_DONE;
 1321              		.loc 1 1236 7 is_stmt 1 view .LVU397
1236:Drivers/STM32L4xx_HAL_Driver/Src/stm32l4xx_hal_hcd.c ****       hhcd->hc[ch_num].urb_state = URB_DONE;
 1322              		.loc 1 1236 31 is_stmt 0 view .LVU398
 1323 007c D7F80035 		ldr	r3, [r7, #1280]
 1324 0080 43F00053 		orr	r3, r3, #536870912
 1325 0084 C7F80035 		str	r3, [r7, #1280]
1237:Drivers/STM32L4xx_HAL_Driver/Src/stm32l4xx_hal_hcd.c **** 
 1326              		.loc 1 1237 7 is_stmt 1 view .LVU399
1237:Drivers/STM32L4xx_HAL_Driver/Src/stm32l4xx_hal_hcd.c **** 
 1327              		.loc 1 1237 34 is_stmt 0 view .LVU400
 1328 0088 2C23     		movs	r3, #44
 1329 008a 03FB0643 		mla	r3, r3, r6, r4
 1330 008e 0122     		movs	r2, #1
 1331 0090 83F86020 		strb	r2, [r3, #96]
1242:Drivers/STM32L4xx_HAL_Driver/Src/stm32l4xx_hal_hcd.c **** #endif /* USE_HAL_HCD_REGISTER_CALLBACKS */
 1332              		.loc 1 1242 7 is_stmt 1 view .LVU401
 1333 0094 3146     		mov	r1, r6
 1334 0096 2046     		mov	r0, r4
 1335 0098 FFF7FEFF 		bl	HAL_HCD_HC_NotifyURBChange_Callback
 1336              	.LVL99:
 1337 009c 4BE0     		b	.L90
 1338              	.LVL100:
 1339              	.L106:
1185:Drivers/STM32L4xx_HAL_Driver/Src/stm32l4xx_hal_hcd.c ****     hhcd->hc[ch_num].state = HC_BBLERR;
 1340              		.loc 1 1185 5 view .LVU402
 1341 009e 4FF48073 		mov	r3, #256
 1342 00a2 AB60     		str	r3, [r5, #8]
 1343              	.LVL101:
1186:Drivers/STM32L4xx_HAL_Driver/Src/stm32l4xx_hal_hcd.c ****     (void)USB_HC_Halt(hhcd->Instance, (uint8_t)ch_num);
 1344              		.loc 1 1186 5 view .LVU403
1186:Drivers/STM32L4xx_HAL_Driver/Src/stm32l4xx_hal_hcd.c ****     (void)USB_HC_Halt(hhcd->Instance, (uint8_t)ch_num);
 1345              		.loc 1 1186 28 is_stmt 0 view .LVU404
 1346 00a4 2C23     		movs	r3, #44
 1347 00a6 03FB0103 		mla	r3, r3, r1, r0
ARM GAS  C:\Users\HP\AppData\Local\Temp\ccGJK0AZ.s 			page 59


 1348 00aa 0722     		movs	r2, #7
 1349 00ac 83F86120 		strb	r2, [r3, #97]
1187:Drivers/STM32L4xx_HAL_Driver/Src/stm32l4xx_hal_hcd.c ****   }
 1350              		.loc 1 1187 5 is_stmt 1 view .LVU405
1187:Drivers/STM32L4xx_HAL_Driver/Src/stm32l4xx_hal_hcd.c ****   }
 1351              		.loc 1 1187 11 is_stmt 0 view .LVU406
 1352 00b0 0068     		ldr	r0, [r0]
 1353              	.LVL102:
1187:Drivers/STM32L4xx_HAL_Driver/Src/stm32l4xx_hal_hcd.c ****   }
 1354              		.loc 1 1187 11 view .LVU407
 1355 00b2 FFF7FEFF 		bl	USB_HC_Halt
 1356              	.LVL103:
1187:Drivers/STM32L4xx_HAL_Driver/Src/stm32l4xx_hal_hcd.c ****   }
 1357              		.loc 1 1187 11 view .LVU408
 1358 00b6 C5E7     		b	.L80
 1359              	.LVL104:
 1360              	.L82:
1193:Drivers/STM32L4xx_HAL_Driver/Src/stm32l4xx_hal_hcd.c ****   {
 1361              		.loc 1 1193 8 is_stmt 1 view .LVU409
1193:Drivers/STM32L4xx_HAL_Driver/Src/stm32l4xx_hal_hcd.c ****   {
 1362              		.loc 1 1193 28 is_stmt 0 view .LVU410
 1363 00b8 AB68     		ldr	r3, [r5, #8]
1193:Drivers/STM32L4xx_HAL_Driver/Src/stm32l4xx_hal_hcd.c ****   {
 1364              		.loc 1 1193 11 view .LVU411
 1365 00ba 13F0080F 		tst	r3, #8
 1366 00be 13D1     		bne	.L108
1199:Drivers/STM32L4xx_HAL_Driver/Src/stm32l4xx_hal_hcd.c ****   {
 1367              		.loc 1 1199 8 is_stmt 1 view .LVU412
1199:Drivers/STM32L4xx_HAL_Driver/Src/stm32l4xx_hal_hcd.c ****   {
 1368              		.loc 1 1199 28 is_stmt 0 view .LVU413
 1369 00c0 AB68     		ldr	r3, [r5, #8]
1199:Drivers/STM32L4xx_HAL_Driver/Src/stm32l4xx_hal_hcd.c ****   {
 1370              		.loc 1 1199 11 view .LVU414
 1371 00c2 13F4806F 		tst	r3, #1024
 1372 00c6 1BD1     		bne	.L109
1205:Drivers/STM32L4xx_HAL_Driver/Src/stm32l4xx_hal_hcd.c ****   {
 1373              		.loc 1 1205 8 is_stmt 1 view .LVU415
1205:Drivers/STM32L4xx_HAL_Driver/Src/stm32l4xx_hal_hcd.c ****   {
 1374              		.loc 1 1205 28 is_stmt 0 view .LVU416
 1375 00c8 AB68     		ldr	r3, [r5, #8]
1205:Drivers/STM32L4xx_HAL_Driver/Src/stm32l4xx_hal_hcd.c ****   {
 1376              		.loc 1 1205 11 view .LVU417
 1377 00ca 13F0800F 		tst	r3, #128
 1378 00ce B9D0     		beq	.L80
1207:Drivers/STM32L4xx_HAL_Driver/Src/stm32l4xx_hal_hcd.c ****     hhcd->hc[ch_num].state = HC_XACTERR;
 1379              		.loc 1 1207 5 is_stmt 1 view .LVU418
 1380 00d0 8023     		movs	r3, #128
 1381 00d2 AB60     		str	r3, [r5, #8]
 1382              	.LVL105:
1208:Drivers/STM32L4xx_HAL_Driver/Src/stm32l4xx_hal_hcd.c ****     (void)USB_HC_Halt(hhcd->Instance, (uint8_t)ch_num);
 1383              		.loc 1 1208 5 view .LVU419
1208:Drivers/STM32L4xx_HAL_Driver/Src/stm32l4xx_hal_hcd.c ****     (void)USB_HC_Halt(hhcd->Instance, (uint8_t)ch_num);
 1384              		.loc 1 1208 28 is_stmt 0 view .LVU420
 1385 00d4 2C23     		movs	r3, #44
 1386 00d6 03FB0103 		mla	r3, r3, r1, r0
 1387 00da 0622     		movs	r2, #6
 1388 00dc 83F86120 		strb	r2, [r3, #97]
ARM GAS  C:\Users\HP\AppData\Local\Temp\ccGJK0AZ.s 			page 60


1209:Drivers/STM32L4xx_HAL_Driver/Src/stm32l4xx_hal_hcd.c ****   }
 1389              		.loc 1 1209 5 is_stmt 1 view .LVU421
1209:Drivers/STM32L4xx_HAL_Driver/Src/stm32l4xx_hal_hcd.c ****   }
 1390              		.loc 1 1209 11 is_stmt 0 view .LVU422
 1391 00e0 0068     		ldr	r0, [r0]
 1392              	.LVL106:
1209:Drivers/STM32L4xx_HAL_Driver/Src/stm32l4xx_hal_hcd.c ****   }
 1393              		.loc 1 1209 11 view .LVU423
 1394 00e2 FFF7FEFF 		bl	USB_HC_Halt
 1395              	.LVL107:
1209:Drivers/STM32L4xx_HAL_Driver/Src/stm32l4xx_hal_hcd.c ****   }
 1396              		.loc 1 1209 11 view .LVU424
 1397 00e6 ADE7     		b	.L80
 1398              	.LVL108:
 1399              	.L108:
1195:Drivers/STM32L4xx_HAL_Driver/Src/stm32l4xx_hal_hcd.c ****     hhcd->hc[ch_num].state = HC_STALL;
 1400              		.loc 1 1195 5 is_stmt 1 view .LVU425
 1401 00e8 0823     		movs	r3, #8
 1402 00ea AB60     		str	r3, [r5, #8]
 1403              	.LVL109:
1196:Drivers/STM32L4xx_HAL_Driver/Src/stm32l4xx_hal_hcd.c ****     (void)USB_HC_Halt(hhcd->Instance, (uint8_t)ch_num);
 1404              		.loc 1 1196 5 view .LVU426
1196:Drivers/STM32L4xx_HAL_Driver/Src/stm32l4xx_hal_hcd.c ****     (void)USB_HC_Halt(hhcd->Instance, (uint8_t)ch_num);
 1405              		.loc 1 1196 28 is_stmt 0 view .LVU427
 1406 00ec 2C23     		movs	r3, #44
 1407 00ee 03FB0103 		mla	r3, r3, r1, r0
 1408 00f2 0522     		movs	r2, #5
 1409 00f4 83F86120 		strb	r2, [r3, #97]
1197:Drivers/STM32L4xx_HAL_Driver/Src/stm32l4xx_hal_hcd.c ****   }
 1410              		.loc 1 1197 5 is_stmt 1 view .LVU428
1197:Drivers/STM32L4xx_HAL_Driver/Src/stm32l4xx_hal_hcd.c ****   }
 1411              		.loc 1 1197 11 is_stmt 0 view .LVU429
 1412 00f8 0068     		ldr	r0, [r0]
 1413              	.LVL110:
1197:Drivers/STM32L4xx_HAL_Driver/Src/stm32l4xx_hal_hcd.c ****   }
 1414              		.loc 1 1197 11 view .LVU430
 1415 00fa FFF7FEFF 		bl	USB_HC_Halt
 1416              	.LVL111:
1197:Drivers/STM32L4xx_HAL_Driver/Src/stm32l4xx_hal_hcd.c ****   }
 1417              		.loc 1 1197 11 view .LVU431
 1418 00fe A1E7     		b	.L80
 1419              	.LVL112:
 1420              	.L109:
1201:Drivers/STM32L4xx_HAL_Driver/Src/stm32l4xx_hal_hcd.c ****     hhcd->hc[ch_num].state = HC_DATATGLERR;
 1421              		.loc 1 1201 5 is_stmt 1 view .LVU432
 1422 0100 4FF48063 		mov	r3, #1024
 1423 0104 AB60     		str	r3, [r5, #8]
 1424              	.LVL113:
1202:Drivers/STM32L4xx_HAL_Driver/Src/stm32l4xx_hal_hcd.c ****     (void)USB_HC_Halt(hhcd->Instance, (uint8_t)ch_num);
 1425              		.loc 1 1202 5 view .LVU433
1202:Drivers/STM32L4xx_HAL_Driver/Src/stm32l4xx_hal_hcd.c ****     (void)USB_HC_Halt(hhcd->Instance, (uint8_t)ch_num);
 1426              		.loc 1 1202 28 is_stmt 0 view .LVU434
 1427 0106 2C23     		movs	r3, #44
 1428 0108 03FB0103 		mla	r3, r3, r1, r0
 1429 010c 0822     		movs	r2, #8
 1430 010e 83F86120 		strb	r2, [r3, #97]
1203:Drivers/STM32L4xx_HAL_Driver/Src/stm32l4xx_hal_hcd.c ****   }
ARM GAS  C:\Users\HP\AppData\Local\Temp\ccGJK0AZ.s 			page 61


 1431              		.loc 1 1203 5 is_stmt 1 view .LVU435
1203:Drivers/STM32L4xx_HAL_Driver/Src/stm32l4xx_hal_hcd.c ****   }
 1432              		.loc 1 1203 11 is_stmt 0 view .LVU436
 1433 0112 0068     		ldr	r0, [r0]
 1434              	.LVL114:
1203:Drivers/STM32L4xx_HAL_Driver/Src/stm32l4xx_hal_hcd.c ****   }
 1435              		.loc 1 1203 11 view .LVU437
 1436 0114 FFF7FEFF 		bl	USB_HC_Halt
 1437              	.LVL115:
1203:Drivers/STM32L4xx_HAL_Driver/Src/stm32l4xx_hal_hcd.c ****   }
 1438              		.loc 1 1203 11 view .LVU438
 1439 0118 94E7     		b	.L80
 1440              	.L107:
1218:Drivers/STM32L4xx_HAL_Driver/Src/stm32l4xx_hal_hcd.c ****     __HAL_HCD_CLEAR_HC_INT(ch_num, USB_OTG_HCINT_FRMOR);
 1441              		.loc 1 1218 5 is_stmt 1 view .LVU439
1218:Drivers/STM32L4xx_HAL_Driver/Src/stm32l4xx_hal_hcd.c ****     __HAL_HCD_CLEAR_HC_INT(ch_num, USB_OTG_HCINT_FRMOR);
 1442              		.loc 1 1218 11 is_stmt 0 view .LVU440
 1443 011a 3146     		mov	r1, r6
 1444 011c 2068     		ldr	r0, [r4]
 1445 011e FFF7FEFF 		bl	USB_HC_Halt
 1446              	.LVL116:
1219:Drivers/STM32L4xx_HAL_Driver/Src/stm32l4xx_hal_hcd.c ****   }
 1447              		.loc 1 1219 5 is_stmt 1 view .LVU441
 1448 0122 4FF40073 		mov	r3, #512
 1449 0126 AB60     		str	r3, [r5, #8]
 1450              	.LVL117:
 1451              	.L78:
1343:Drivers/STM32L4xx_HAL_Driver/Src/stm32l4xx_hal_hcd.c **** 
 1452              		.loc 1 1343 1 is_stmt 0 view .LVU442
 1453 0128 F8BD     		pop	{r3, r4, r5, r6, r7, pc}
 1454              	.LVL118:
 1455              	.L88:
1230:Drivers/STM32L4xx_HAL_Driver/Src/stm32l4xx_hal_hcd.c ****       __HAL_HCD_CLEAR_HC_INT(ch_num, USB_OTG_HCINT_NAK);
 1456              		.loc 1 1230 7 is_stmt 1 view .LVU443
1230:Drivers/STM32L4xx_HAL_Driver/Src/stm32l4xx_hal_hcd.c ****       __HAL_HCD_CLEAR_HC_INT(ch_num, USB_OTG_HCINT_NAK);
 1457              		.loc 1 1230 13 is_stmt 0 view .LVU444
 1458 012a 3146     		mov	r1, r6
 1459 012c 2068     		ldr	r0, [r4]
 1460 012e FFF7FEFF 		bl	USB_HC_Halt
 1461              	.LVL119:
1231:Drivers/STM32L4xx_HAL_Driver/Src/stm32l4xx_hal_hcd.c ****     }
 1462              		.loc 1 1231 7 is_stmt 1 view .LVU445
 1463 0132 1023     		movs	r3, #16
 1464 0134 AB60     		str	r3, [r5, #8]
 1465              	.L90:
1250:Drivers/STM32L4xx_HAL_Driver/Src/stm32l4xx_hal_hcd.c ****     {
 1466              		.loc 1 1250 5 view .LVU446
1250:Drivers/STM32L4xx_HAL_Driver/Src/stm32l4xx_hal_hcd.c ****     {
 1467              		.loc 1 1250 19 is_stmt 0 view .LVU447
 1468 0136 2369     		ldr	r3, [r4, #16]
1250:Drivers/STM32L4xx_HAL_Driver/Src/stm32l4xx_hal_hcd.c ****     {
 1469              		.loc 1 1250 8 view .LVU448
 1470 0138 012B     		cmp	r3, #1
 1471 013a 09D0     		beq	.L110
1259:Drivers/STM32L4xx_HAL_Driver/Src/stm32l4xx_hal_hcd.c ****     }
 1472              		.loc 1 1259 7 is_stmt 1 view .LVU449
1259:Drivers/STM32L4xx_HAL_Driver/Src/stm32l4xx_hal_hcd.c ****     }
ARM GAS  C:\Users\HP\AppData\Local\Temp\ccGJK0AZ.s 			page 62


 1473              		.loc 1 1259 34 is_stmt 0 view .LVU450
 1474 013c 2C21     		movs	r1, #44
 1475 013e 01FB0644 		mla	r4, r1, r6, r4
 1476              	.LVL120:
1259:Drivers/STM32L4xx_HAL_Driver/Src/stm32l4xx_hal_hcd.c ****     }
 1477              		.loc 1 1259 34 view .LVU451
 1478 0142 94F85430 		ldrb	r3, [r4, #84]	@ zero_extendqisi2
 1479 0146 83F00103 		eor	r3, r3, #1
 1480 014a 84F85430 		strb	r3, [r4, #84]
 1481 014e EBE7     		b	.L78
 1482              	.LVL121:
 1483              	.L110:
1252:Drivers/STM32L4xx_HAL_Driver/Src/stm32l4xx_hal_hcd.c ****       {
 1484              		.loc 1 1252 7 is_stmt 1 view .LVU452
1252:Drivers/STM32L4xx_HAL_Driver/Src/stm32l4xx_hal_hcd.c ****       {
 1485              		.loc 1 1252 29 is_stmt 0 view .LVU453
 1486 0150 2C23     		movs	r3, #44
 1487 0152 03FB0643 		mla	r3, r3, r6, r4
 1488 0156 9A6C     		ldr	r2, [r3, #72]
1252:Drivers/STM32L4xx_HAL_Driver/Src/stm32l4xx_hal_hcd.c ****       {
 1489              		.loc 1 1252 57 view .LVU454
 1490 0158 B3F84030 		ldrh	r3, [r3, #64]
1252:Drivers/STM32L4xx_HAL_Driver/Src/stm32l4xx_hal_hcd.c ****       {
 1491              		.loc 1 1252 39 view .LVU455
 1492 015c B2FBF3F3 		udiv	r3, r2, r3
1252:Drivers/STM32L4xx_HAL_Driver/Src/stm32l4xx_hal_hcd.c ****       {
 1493              		.loc 1 1252 10 view .LVU456
 1494 0160 13F0010F 		tst	r3, #1
 1495 0164 E0D0     		beq	.L78
1254:Drivers/STM32L4xx_HAL_Driver/Src/stm32l4xx_hal_hcd.c ****       }
 1496              		.loc 1 1254 9 is_stmt 1 view .LVU457
1254:Drivers/STM32L4xx_HAL_Driver/Src/stm32l4xx_hal_hcd.c ****       }
 1497              		.loc 1 1254 36 is_stmt 0 view .LVU458
 1498 0166 2C23     		movs	r3, #44
 1499 0168 03FB0644 		mla	r4, r3, r6, r4
 1500              	.LVL122:
1254:Drivers/STM32L4xx_HAL_Driver/Src/stm32l4xx_hal_hcd.c ****       }
 1501              		.loc 1 1254 36 view .LVU459
 1502 016c 94F85430 		ldrb	r3, [r4, #84]	@ zero_extendqisi2
 1503 0170 83F00103 		eor	r3, r3, #1
 1504 0174 84F85430 		strb	r3, [r4, #84]
 1505 0178 D6E7     		b	.L78
 1506              	.LVL123:
 1507              	.L87:
1262:Drivers/STM32L4xx_HAL_Driver/Src/stm32l4xx_hal_hcd.c ****   {
 1508              		.loc 1 1262 8 is_stmt 1 view .LVU460
1262:Drivers/STM32L4xx_HAL_Driver/Src/stm32l4xx_hal_hcd.c ****   {
 1509              		.loc 1 1262 28 is_stmt 0 view .LVU461
 1510 017a AB68     		ldr	r3, [r5, #8]
1262:Drivers/STM32L4xx_HAL_Driver/Src/stm32l4xx_hal_hcd.c ****   {
 1511              		.loc 1 1262 11 view .LVU462
 1512 017c 13F0020F 		tst	r3, #2
 1513 0180 60D0     		beq	.L93
1264:Drivers/STM32L4xx_HAL_Driver/Src/stm32l4xx_hal_hcd.c ****     {
 1514              		.loc 1 1264 5 is_stmt 1 view .LVU463
1264:Drivers/STM32L4xx_HAL_Driver/Src/stm32l4xx_hal_hcd.c ****     {
 1515              		.loc 1 1264 25 is_stmt 0 view .LVU464
ARM GAS  C:\Users\HP\AppData\Local\Temp\ccGJK0AZ.s 			page 63


 1516 0182 2C23     		movs	r3, #44
 1517 0184 03FB0643 		mla	r3, r3, r6, r4
 1518 0188 93F86130 		ldrb	r3, [r3, #97]	@ zero_extendqisi2
1264:Drivers/STM32L4xx_HAL_Driver/Src/stm32l4xx_hal_hcd.c ****     {
 1519              		.loc 1 1264 8 view .LVU465
 1520 018c 012B     		cmp	r3, #1
 1521 018e 13D0     		beq	.L111
1268:Drivers/STM32L4xx_HAL_Driver/Src/stm32l4xx_hal_hcd.c ****     {
 1522              		.loc 1 1268 10 is_stmt 1 view .LVU466
1268:Drivers/STM32L4xx_HAL_Driver/Src/stm32l4xx_hal_hcd.c ****     {
 1523              		.loc 1 1268 13 is_stmt 0 view .LVU467
 1524 0190 052B     		cmp	r3, #5
 1525 0192 23D0     		beq	.L112
1272:Drivers/STM32L4xx_HAL_Driver/Src/stm32l4xx_hal_hcd.c ****              (hhcd->hc[ch_num].state == HC_DATATGLERR))
 1526              		.loc 1 1272 10 is_stmt 1 view .LVU468
1272:Drivers/STM32L4xx_HAL_Driver/Src/stm32l4xx_hal_hcd.c ****              (hhcd->hc[ch_num].state == HC_DATATGLERR))
 1527              		.loc 1 1272 13 is_stmt 0 view .LVU469
 1528 0194 062B     		cmp	r3, #6
 1529 0196 28D0     		beq	.L97
1272:Drivers/STM32L4xx_HAL_Driver/Src/stm32l4xx_hal_hcd.c ****              (hhcd->hc[ch_num].state == HC_DATATGLERR))
 1530              		.loc 1 1272 53 discriminator 1 view .LVU470
 1531 0198 082B     		cmp	r3, #8
 1532 019a 26D0     		beq	.L97
1292:Drivers/STM32L4xx_HAL_Driver/Src/stm32l4xx_hal_hcd.c ****     {
 1533              		.loc 1 1292 10 is_stmt 1 view .LVU471
1292:Drivers/STM32L4xx_HAL_Driver/Src/stm32l4xx_hal_hcd.c ****     {
 1534              		.loc 1 1292 13 is_stmt 0 view .LVU472
 1535 019c 032B     		cmp	r3, #3
 1536 019e 42D0     		beq	.L113
1302:Drivers/STM32L4xx_HAL_Driver/Src/stm32l4xx_hal_hcd.c ****     {
 1537              		.loc 1 1302 10 is_stmt 1 view .LVU473
1302:Drivers/STM32L4xx_HAL_Driver/Src/stm32l4xx_hal_hcd.c ****     {
 1538              		.loc 1 1302 13 is_stmt 0 view .LVU474
 1539 01a0 072B     		cmp	r3, #7
 1540 01a2 0FD1     		bne	.L95
1304:Drivers/STM32L4xx_HAL_Driver/Src/stm32l4xx_hal_hcd.c ****       hhcd->hc[ch_num].urb_state = URB_ERROR;
 1541              		.loc 1 1304 7 is_stmt 1 view .LVU475
1304:Drivers/STM32L4xx_HAL_Driver/Src/stm32l4xx_hal_hcd.c ****       hhcd->hc[ch_num].urb_state = URB_ERROR;
 1542              		.loc 1 1304 23 is_stmt 0 view .LVU476
 1543 01a4 2C23     		movs	r3, #44
 1544 01a6 03FB0643 		mla	r3, r3, r6, r4
 1545 01aa DA6D     		ldr	r2, [r3, #92]
1304:Drivers/STM32L4xx_HAL_Driver/Src/stm32l4xx_hal_hcd.c ****       hhcd->hc[ch_num].urb_state = URB_ERROR;
 1546              		.loc 1 1304 30 view .LVU477
 1547 01ac 0132     		adds	r2, r2, #1
 1548 01ae DA65     		str	r2, [r3, #92]
1305:Drivers/STM32L4xx_HAL_Driver/Src/stm32l4xx_hal_hcd.c ****     }
 1549              		.loc 1 1305 7 is_stmt 1 view .LVU478
1305:Drivers/STM32L4xx_HAL_Driver/Src/stm32l4xx_hal_hcd.c ****     }
 1550              		.loc 1 1305 34 is_stmt 0 view .LVU479
 1551 01b0 0422     		movs	r2, #4
 1552 01b2 83F86020 		strb	r2, [r3, #96]
 1553 01b6 05E0     		b	.L95
 1554              	.L111:
1266:Drivers/STM32L4xx_HAL_Driver/Src/stm32l4xx_hal_hcd.c ****     }
 1555              		.loc 1 1266 7 is_stmt 1 view .LVU480
1266:Drivers/STM32L4xx_HAL_Driver/Src/stm32l4xx_hal_hcd.c ****     }
ARM GAS  C:\Users\HP\AppData\Local\Temp\ccGJK0AZ.s 			page 64


 1556              		.loc 1 1266 34 is_stmt 0 view .LVU481
 1557 01b8 2C23     		movs	r3, #44
 1558 01ba 03FB0643 		mla	r3, r3, r6, r4
 1559 01be 0122     		movs	r2, #1
 1560 01c0 83F86020 		strb	r2, [r3, #96]
 1561              	.L95:
1310:Drivers/STM32L4xx_HAL_Driver/Src/stm32l4xx_hal_hcd.c ****     __HAL_HCD_CLEAR_HC_INT(ch_num, USB_OTG_HCINT_CHH);
 1562              		.loc 1 1310 5 is_stmt 1 view .LVU482
1311:Drivers/STM32L4xx_HAL_Driver/Src/stm32l4xx_hal_hcd.c **** 
 1563              		.loc 1 1311 5 view .LVU483
 1564 01c4 0223     		movs	r3, #2
 1565 01c6 AB60     		str	r3, [r5, #8]
1316:Drivers/STM32L4xx_HAL_Driver/Src/stm32l4xx_hal_hcd.c **** #endif /* USE_HAL_HCD_REGISTER_CALLBACKS */
 1566              		.loc 1 1316 5 view .LVU484
 1567 01c8 2C23     		movs	r3, #44
 1568 01ca 03FB0643 		mla	r3, r3, r6, r4
 1569 01ce 93F86020 		ldrb	r2, [r3, #96]	@ zero_extendqisi2
 1570 01d2 3146     		mov	r1, r6
 1571 01d4 2046     		mov	r0, r4
 1572 01d6 FFF7FEFF 		bl	HAL_HCD_HC_NotifyURBChange_Callback
 1573              	.LVL124:
 1574 01da A5E7     		b	.L78
 1575              	.L112:
1270:Drivers/STM32L4xx_HAL_Driver/Src/stm32l4xx_hal_hcd.c ****     }
 1576              		.loc 1 1270 7 view .LVU485
1270:Drivers/STM32L4xx_HAL_Driver/Src/stm32l4xx_hal_hcd.c ****     }
 1577              		.loc 1 1270 34 is_stmt 0 view .LVU486
 1578 01dc 2C23     		movs	r3, #44
 1579 01de 03FB0643 		mla	r3, r3, r6, r4
 1580 01e2 0522     		movs	r2, #5
 1581 01e4 83F86020 		strb	r2, [r3, #96]
 1582 01e8 ECE7     		b	.L95
 1583              	.L97:
1275:Drivers/STM32L4xx_HAL_Driver/Src/stm32l4xx_hal_hcd.c ****       if (hhcd->hc[ch_num].ErrCnt > 2U)
 1584              		.loc 1 1275 7 is_stmt 1 view .LVU487
1275:Drivers/STM32L4xx_HAL_Driver/Src/stm32l4xx_hal_hcd.c ****       if (hhcd->hc[ch_num].ErrCnt > 2U)
 1585              		.loc 1 1275 23 is_stmt 0 view .LVU488
 1586 01ea 2C22     		movs	r2, #44
 1587 01ec 02FB0642 		mla	r2, r2, r6, r4
 1588 01f0 D36D     		ldr	r3, [r2, #92]
1275:Drivers/STM32L4xx_HAL_Driver/Src/stm32l4xx_hal_hcd.c ****       if (hhcd->hc[ch_num].ErrCnt > 2U)
 1589              		.loc 1 1275 30 view .LVU489
 1590 01f2 0133     		adds	r3, r3, #1
 1591 01f4 D365     		str	r3, [r2, #92]
1276:Drivers/STM32L4xx_HAL_Driver/Src/stm32l4xx_hal_hcd.c ****       {
 1592              		.loc 1 1276 7 is_stmt 1 view .LVU490
1276:Drivers/STM32L4xx_HAL_Driver/Src/stm32l4xx_hal_hcd.c ****       {
 1593              		.loc 1 1276 10 is_stmt 0 view .LVU491
 1594 01f6 022B     		cmp	r3, #2
 1595 01f8 06D9     		bls	.L99
1278:Drivers/STM32L4xx_HAL_Driver/Src/stm32l4xx_hal_hcd.c ****         hhcd->hc[ch_num].urb_state = URB_ERROR;
 1596              		.loc 1 1278 9 is_stmt 1 view .LVU492
1278:Drivers/STM32L4xx_HAL_Driver/Src/stm32l4xx_hal_hcd.c ****         hhcd->hc[ch_num].urb_state = URB_ERROR;
 1597              		.loc 1 1278 33 is_stmt 0 view .LVU493
 1598 01fa 1346     		mov	r3, r2
 1599 01fc 0022     		movs	r2, #0
 1600 01fe DA65     		str	r2, [r3, #92]
ARM GAS  C:\Users\HP\AppData\Local\Temp\ccGJK0AZ.s 			page 65


1279:Drivers/STM32L4xx_HAL_Driver/Src/stm32l4xx_hal_hcd.c ****       }
 1601              		.loc 1 1279 9 is_stmt 1 view .LVU494
1279:Drivers/STM32L4xx_HAL_Driver/Src/stm32l4xx_hal_hcd.c ****       }
 1602              		.loc 1 1279 36 is_stmt 0 view .LVU495
 1603 0200 0422     		movs	r2, #4
 1604 0202 83F86020 		strb	r2, [r3, #96]
 1605 0206 DDE7     		b	.L95
 1606              	.L99:
1283:Drivers/STM32L4xx_HAL_Driver/Src/stm32l4xx_hal_hcd.c **** 
 1607              		.loc 1 1283 9 is_stmt 1 view .LVU496
1283:Drivers/STM32L4xx_HAL_Driver/Src/stm32l4xx_hal_hcd.c **** 
 1608              		.loc 1 1283 36 is_stmt 0 view .LVU497
 1609 0208 2C23     		movs	r3, #44
 1610 020a 03FB0643 		mla	r3, r3, r6, r4
 1611 020e 0222     		movs	r2, #2
 1612 0210 83F86020 		strb	r2, [r3, #96]
1286:Drivers/STM32L4xx_HAL_Driver/Src/stm32l4xx_hal_hcd.c ****         tmpreg &= ~USB_OTG_HCCHAR_CHDIS;
 1613              		.loc 1 1286 9 is_stmt 1 view .LVU498
1286:Drivers/STM32L4xx_HAL_Driver/Src/stm32l4xx_hal_hcd.c ****         tmpreg &= ~USB_OTG_HCCHAR_CHDIS;
 1614              		.loc 1 1286 16 is_stmt 0 view .LVU499
 1615 0214 D7F80035 		ldr	r3, [r7, #1280]
 1616              	.LVL125:
1287:Drivers/STM32L4xx_HAL_Driver/Src/stm32l4xx_hal_hcd.c ****         tmpreg |= USB_OTG_HCCHAR_CHENA;
 1617              		.loc 1 1287 9 is_stmt 1 view .LVU500
1287:Drivers/STM32L4xx_HAL_Driver/Src/stm32l4xx_hal_hcd.c ****         tmpreg |= USB_OTG_HCCHAR_CHENA;
 1618              		.loc 1 1287 16 is_stmt 0 view .LVU501
 1619 0218 23F08043 		bic	r3, r3, #1073741824
 1620              	.LVL126:
1288:Drivers/STM32L4xx_HAL_Driver/Src/stm32l4xx_hal_hcd.c ****         USBx_HC(ch_num)->HCCHAR = tmpreg;
 1621              		.loc 1 1288 9 is_stmt 1 view .LVU502
1288:Drivers/STM32L4xx_HAL_Driver/Src/stm32l4xx_hal_hcd.c ****         USBx_HC(ch_num)->HCCHAR = tmpreg;
 1622              		.loc 1 1288 16 is_stmt 0 view .LVU503
 1623 021c 43F00043 		orr	r3, r3, #-2147483648
 1624              	.LVL127:
1289:Drivers/STM32L4xx_HAL_Driver/Src/stm32l4xx_hal_hcd.c ****       }
 1625              		.loc 1 1289 9 is_stmt 1 view .LVU504
1289:Drivers/STM32L4xx_HAL_Driver/Src/stm32l4xx_hal_hcd.c ****       }
 1626              		.loc 1 1289 33 is_stmt 0 view .LVU505
 1627 0220 C7F80035 		str	r3, [r7, #1280]
 1628 0224 CEE7     		b	.L95
 1629              	.LVL128:
 1630              	.L113:
1294:Drivers/STM32L4xx_HAL_Driver/Src/stm32l4xx_hal_hcd.c **** 
 1631              		.loc 1 1294 7 is_stmt 1 view .LVU506
1294:Drivers/STM32L4xx_HAL_Driver/Src/stm32l4xx_hal_hcd.c **** 
 1632              		.loc 1 1294 35 is_stmt 0 view .LVU507
 1633 0226 2C23     		movs	r3, #44
 1634 0228 03FB0643 		mla	r3, r3, r6, r4
 1635 022c 0222     		movs	r2, #2
 1636 022e 83F86020 		strb	r2, [r3, #96]
1297:Drivers/STM32L4xx_HAL_Driver/Src/stm32l4xx_hal_hcd.c ****       tmpreg &= ~USB_OTG_HCCHAR_CHDIS;
 1637              		.loc 1 1297 7 is_stmt 1 view .LVU508
1297:Drivers/STM32L4xx_HAL_Driver/Src/stm32l4xx_hal_hcd.c ****       tmpreg &= ~USB_OTG_HCCHAR_CHDIS;
 1638              		.loc 1 1297 14 is_stmt 0 view .LVU509
 1639 0232 D7F80035 		ldr	r3, [r7, #1280]
 1640              	.LVL129:
1298:Drivers/STM32L4xx_HAL_Driver/Src/stm32l4xx_hal_hcd.c ****       tmpreg |= USB_OTG_HCCHAR_CHENA;
ARM GAS  C:\Users\HP\AppData\Local\Temp\ccGJK0AZ.s 			page 66


 1641              		.loc 1 1298 7 is_stmt 1 view .LVU510
1298:Drivers/STM32L4xx_HAL_Driver/Src/stm32l4xx_hal_hcd.c ****       tmpreg |= USB_OTG_HCCHAR_CHENA;
 1642              		.loc 1 1298 14 is_stmt 0 view .LVU511
 1643 0236 23F08043 		bic	r3, r3, #1073741824
 1644              	.LVL130:
1299:Drivers/STM32L4xx_HAL_Driver/Src/stm32l4xx_hal_hcd.c ****       USBx_HC(ch_num)->HCCHAR = tmpreg;
 1645              		.loc 1 1299 7 is_stmt 1 view .LVU512
1299:Drivers/STM32L4xx_HAL_Driver/Src/stm32l4xx_hal_hcd.c ****       USBx_HC(ch_num)->HCCHAR = tmpreg;
 1646              		.loc 1 1299 14 is_stmt 0 view .LVU513
 1647 023a 43F00043 		orr	r3, r3, #-2147483648
 1648              	.LVL131:
1300:Drivers/STM32L4xx_HAL_Driver/Src/stm32l4xx_hal_hcd.c ****     }
 1649              		.loc 1 1300 7 is_stmt 1 view .LVU514
1300:Drivers/STM32L4xx_HAL_Driver/Src/stm32l4xx_hal_hcd.c ****     }
 1650              		.loc 1 1300 31 is_stmt 0 view .LVU515
 1651 023e C7F80035 		str	r3, [r7, #1280]
 1652 0242 BFE7     		b	.L95
 1653              	.LVL132:
 1654              	.L93:
1319:Drivers/STM32L4xx_HAL_Driver/Src/stm32l4xx_hal_hcd.c ****   {
 1655              		.loc 1 1319 8 is_stmt 1 view .LVU516
1319:Drivers/STM32L4xx_HAL_Driver/Src/stm32l4xx_hal_hcd.c ****   {
 1656              		.loc 1 1319 28 is_stmt 0 view .LVU517
 1657 0244 AB68     		ldr	r3, [r5, #8]
1319:Drivers/STM32L4xx_HAL_Driver/Src/stm32l4xx_hal_hcd.c ****   {
 1658              		.loc 1 1319 11 view .LVU518
 1659 0246 13F0100F 		tst	r3, #16
 1660 024a 3FF46DAF 		beq	.L78
1321:Drivers/STM32L4xx_HAL_Driver/Src/stm32l4xx_hal_hcd.c ****     {
 1661              		.loc 1 1321 5 is_stmt 1 view .LVU519
1321:Drivers/STM32L4xx_HAL_Driver/Src/stm32l4xx_hal_hcd.c ****     {
 1662              		.loc 1 1321 25 is_stmt 0 view .LVU520
 1663 024e 2C23     		movs	r3, #44
 1664 0250 03FB0643 		mla	r3, r3, r6, r4
 1665 0254 93F83F30 		ldrb	r3, [r3, #63]	@ zero_extendqisi2
1321:Drivers/STM32L4xx_HAL_Driver/Src/stm32l4xx_hal_hcd.c ****     {
 1666              		.loc 1 1321 8 view .LVU521
 1667 0258 032B     		cmp	r3, #3
 1668 025a 11D0     		beq	.L114
1326:Drivers/STM32L4xx_HAL_Driver/Src/stm32l4xx_hal_hcd.c ****              (hhcd->hc[ch_num].ep_type == EP_TYPE_BULK))
 1669              		.loc 1 1326 10 is_stmt 1 view .LVU522
1326:Drivers/STM32L4xx_HAL_Driver/Src/stm32l4xx_hal_hcd.c ****              (hhcd->hc[ch_num].ep_type == EP_TYPE_BULK))
 1670              		.loc 1 1326 13 is_stmt 0 view .LVU523
 1671 025c 0BB1     		cbz	r3, .L103
1326:Drivers/STM32L4xx_HAL_Driver/Src/stm32l4xx_hal_hcd.c ****              (hhcd->hc[ch_num].ep_type == EP_TYPE_BULK))
 1672              		.loc 1 1326 57 discriminator 1 view .LVU524
 1673 025e 022B     		cmp	r3, #2
 1674 0260 0BD1     		bne	.L102
 1675              	.L103:
1329:Drivers/STM32L4xx_HAL_Driver/Src/stm32l4xx_hal_hcd.c ****       hhcd->hc[ch_num].state = HC_NAK;
 1676              		.loc 1 1329 7 is_stmt 1 view .LVU525
1329:Drivers/STM32L4xx_HAL_Driver/Src/stm32l4xx_hal_hcd.c ****       hhcd->hc[ch_num].state = HC_NAK;
 1677              		.loc 1 1329 31 is_stmt 0 view .LVU526
 1678 0262 2C23     		movs	r3, #44
 1679 0264 03FB0643 		mla	r3, r3, r6, r4
 1680 0268 0022     		movs	r2, #0
 1681 026a DA65     		str	r2, [r3, #92]
ARM GAS  C:\Users\HP\AppData\Local\Temp\ccGJK0AZ.s 			page 67


1330:Drivers/STM32L4xx_HAL_Driver/Src/stm32l4xx_hal_hcd.c ****       (void)USB_HC_Halt(hhcd->Instance, (uint8_t)ch_num);
 1682              		.loc 1 1330 7 is_stmt 1 view .LVU527
1330:Drivers/STM32L4xx_HAL_Driver/Src/stm32l4xx_hal_hcd.c ****       (void)USB_HC_Halt(hhcd->Instance, (uint8_t)ch_num);
 1683              		.loc 1 1330 30 is_stmt 0 view .LVU528
 1684 026c 0322     		movs	r2, #3
 1685 026e 83F86120 		strb	r2, [r3, #97]
1331:Drivers/STM32L4xx_HAL_Driver/Src/stm32l4xx_hal_hcd.c ****     }
 1686              		.loc 1 1331 7 is_stmt 1 view .LVU529
1331:Drivers/STM32L4xx_HAL_Driver/Src/stm32l4xx_hal_hcd.c ****     }
 1687              		.loc 1 1331 13 is_stmt 0 view .LVU530
 1688 0272 3146     		mov	r1, r6
 1689 0274 2068     		ldr	r0, [r4]
 1690 0276 FFF7FEFF 		bl	USB_HC_Halt
 1691              	.LVL133:
 1692              	.L102:
1337:Drivers/STM32L4xx_HAL_Driver/Src/stm32l4xx_hal_hcd.c ****   }
 1693              		.loc 1 1337 5 is_stmt 1 view .LVU531
 1694 027a 1023     		movs	r3, #16
 1695 027c AB60     		str	r3, [r5, #8]
1342:Drivers/STM32L4xx_HAL_Driver/Src/stm32l4xx_hal_hcd.c **** }
 1696              		.loc 1 1342 3 view .LVU532
1343:Drivers/STM32L4xx_HAL_Driver/Src/stm32l4xx_hal_hcd.c **** 
 1697              		.loc 1 1343 1 is_stmt 0 view .LVU533
 1698 027e 53E7     		b	.L78
 1699              	.L114:
1323:Drivers/STM32L4xx_HAL_Driver/Src/stm32l4xx_hal_hcd.c ****       (void)USB_HC_Halt(hhcd->Instance, (uint8_t)ch_num);
 1700              		.loc 1 1323 7 is_stmt 1 view .LVU534
1323:Drivers/STM32L4xx_HAL_Driver/Src/stm32l4xx_hal_hcd.c ****       (void)USB_HC_Halt(hhcd->Instance, (uint8_t)ch_num);
 1701              		.loc 1 1323 31 is_stmt 0 view .LVU535
 1702 0280 2C23     		movs	r3, #44
 1703 0282 03FB0643 		mla	r3, r3, r6, r4
 1704 0286 0022     		movs	r2, #0
 1705 0288 DA65     		str	r2, [r3, #92]
1324:Drivers/STM32L4xx_HAL_Driver/Src/stm32l4xx_hal_hcd.c ****     }
 1706              		.loc 1 1324 7 is_stmt 1 view .LVU536
1324:Drivers/STM32L4xx_HAL_Driver/Src/stm32l4xx_hal_hcd.c ****     }
 1707              		.loc 1 1324 13 is_stmt 0 view .LVU537
 1708 028a 3146     		mov	r1, r6
 1709 028c 2068     		ldr	r0, [r4]
 1710 028e FFF7FEFF 		bl	USB_HC_Halt
 1711              	.LVL134:
 1712 0292 F2E7     		b	.L102
 1713              		.cfi_endproc
 1714              	.LFE155:
 1716              		.section	.text.HCD_HC_OUT_IRQHandler,"ax",%progbits
 1717              		.align	1
 1718              		.syntax unified
 1719              		.thumb
 1720              		.thumb_func
 1722              	HCD_HC_OUT_IRQHandler:
 1723              	.LVL135:
 1724              	.LFB156:
1353:Drivers/STM32L4xx_HAL_Driver/Src/stm32l4xx_hal_hcd.c ****   USB_OTG_GlobalTypeDef *USBx = hhcd->Instance;
 1725              		.loc 1 1353 1 is_stmt 1 view -0
 1726              		.cfi_startproc
 1727              		@ args = 0, pretend = 0, frame = 0
 1728              		@ frame_needed = 0, uses_anonymous_args = 0
ARM GAS  C:\Users\HP\AppData\Local\Temp\ccGJK0AZ.s 			page 68


1353:Drivers/STM32L4xx_HAL_Driver/Src/stm32l4xx_hal_hcd.c ****   USB_OTG_GlobalTypeDef *USBx = hhcd->Instance;
 1729              		.loc 1 1353 1 is_stmt 0 view .LVU539
 1730 0000 38B5     		push	{r3, r4, r5, lr}
 1731              	.LCFI20:
 1732              		.cfi_def_cfa_offset 16
 1733              		.cfi_offset 3, -16
 1734              		.cfi_offset 4, -12
 1735              		.cfi_offset 5, -8
 1736              		.cfi_offset 14, -4
1354:Drivers/STM32L4xx_HAL_Driver/Src/stm32l4xx_hal_hcd.c ****   uint32_t USBx_BASE = (uint32_t)USBx;
 1737              		.loc 1 1354 3 is_stmt 1 view .LVU540
1354:Drivers/STM32L4xx_HAL_Driver/Src/stm32l4xx_hal_hcd.c ****   uint32_t USBx_BASE = (uint32_t)USBx;
 1738              		.loc 1 1354 26 is_stmt 0 view .LVU541
 1739 0002 0368     		ldr	r3, [r0]
 1740              	.LVL136:
1355:Drivers/STM32L4xx_HAL_Driver/Src/stm32l4xx_hal_hcd.c ****   uint32_t ch_num = (uint32_t)chnum;
 1741              		.loc 1 1355 3 is_stmt 1 view .LVU542
1356:Drivers/STM32L4xx_HAL_Driver/Src/stm32l4xx_hal_hcd.c ****   uint32_t tmpreg;
 1742              		.loc 1 1356 3 view .LVU543
1357:Drivers/STM32L4xx_HAL_Driver/Src/stm32l4xx_hal_hcd.c ****   uint32_t num_packets;
 1743              		.loc 1 1357 3 view .LVU544
1358:Drivers/STM32L4xx_HAL_Driver/Src/stm32l4xx_hal_hcd.c **** 
 1744              		.loc 1 1358 3 view .LVU545
1360:Drivers/STM32L4xx_HAL_Driver/Src/stm32l4xx_hal_hcd.c ****   {
 1745              		.loc 1 1360 3 view .LVU546
1360:Drivers/STM32L4xx_HAL_Driver/Src/stm32l4xx_hal_hcd.c ****   {
 1746              		.loc 1 1360 8 is_stmt 0 view .LVU547
 1747 0004 03EB4112 		add	r2, r3, r1, lsl #5
 1748 0008 02F5A065 		add	r5, r2, #1280
1360:Drivers/STM32L4xx_HAL_Driver/Src/stm32l4xx_hal_hcd.c ****   {
 1749              		.loc 1 1360 23 view .LVU548
 1750 000c AC68     		ldr	r4, [r5, #8]
1360:Drivers/STM32L4xx_HAL_Driver/Src/stm32l4xx_hal_hcd.c ****   {
 1751              		.loc 1 1360 6 view .LVU549
 1752 000e 14F0040F 		tst	r4, #4
 1753 0012 19D1     		bne	.L136
1366:Drivers/STM32L4xx_HAL_Driver/Src/stm32l4xx_hal_hcd.c ****   {
 1754              		.loc 1 1366 8 is_stmt 1 view .LVU550
1366:Drivers/STM32L4xx_HAL_Driver/Src/stm32l4xx_hal_hcd.c ****   {
 1755              		.loc 1 1366 28 is_stmt 0 view .LVU551
 1756 0014 AC68     		ldr	r4, [r5, #8]
1366:Drivers/STM32L4xx_HAL_Driver/Src/stm32l4xx_hal_hcd.c ****   {
 1757              		.loc 1 1366 11 view .LVU552
 1758 0016 14F0200F 		tst	r4, #32
 1759 001a 21D0     		beq	.L118
1368:Drivers/STM32L4xx_HAL_Driver/Src/stm32l4xx_hal_hcd.c **** 
 1760              		.loc 1 1368 5 is_stmt 1 view .LVU553
 1761 001c 2023     		movs	r3, #32
 1762              	.LVL137:
1368:Drivers/STM32L4xx_HAL_Driver/Src/stm32l4xx_hal_hcd.c **** 
 1763              		.loc 1 1368 5 is_stmt 0 view .LVU554
 1764 001e AB60     		str	r3, [r5, #8]
 1765              	.LVL138:
1370:Drivers/STM32L4xx_HAL_Driver/Src/stm32l4xx_hal_hcd.c ****     {
 1766              		.loc 1 1370 5 is_stmt 1 view .LVU555
1370:Drivers/STM32L4xx_HAL_Driver/Src/stm32l4xx_hal_hcd.c ****     {
 1767              		.loc 1 1370 25 is_stmt 0 view .LVU556
ARM GAS  C:\Users\HP\AppData\Local\Temp\ccGJK0AZ.s 			page 69


 1768 0020 2C23     		movs	r3, #44
 1769 0022 03FB0103 		mla	r3, r3, r1, r0
 1770 0026 93F83D30 		ldrb	r3, [r3, #61]	@ zero_extendqisi2
1370:Drivers/STM32L4xx_HAL_Driver/Src/stm32l4xx_hal_hcd.c ****     {
 1771              		.loc 1 1370 8 view .LVU557
 1772 002a 012B     		cmp	r3, #1
 1773 002c 17D1     		bne	.L115
1372:Drivers/STM32L4xx_HAL_Driver/Src/stm32l4xx_hal_hcd.c ****       hhcd->hc[ch_num].urb_state = URB_NOTREADY;
 1774              		.loc 1 1372 7 is_stmt 1 view .LVU558
1372:Drivers/STM32L4xx_HAL_Driver/Src/stm32l4xx_hal_hcd.c ****       hhcd->hc[ch_num].urb_state = URB_NOTREADY;
 1775              		.loc 1 1372 32 is_stmt 0 view .LVU559
 1776 002e 2C23     		movs	r3, #44
 1777 0030 03FB0103 		mla	r3, r3, r1, r0
 1778 0034 0022     		movs	r2, #0
 1779 0036 83F83D20 		strb	r2, [r3, #61]
1373:Drivers/STM32L4xx_HAL_Driver/Src/stm32l4xx_hal_hcd.c ****       (void)USB_HC_Halt(hhcd->Instance, (uint8_t)ch_num);
 1780              		.loc 1 1373 7 is_stmt 1 view .LVU560
1373:Drivers/STM32L4xx_HAL_Driver/Src/stm32l4xx_hal_hcd.c ****       (void)USB_HC_Halt(hhcd->Instance, (uint8_t)ch_num);
 1781              		.loc 1 1373 34 is_stmt 0 view .LVU561
 1782 003a 0222     		movs	r2, #2
 1783 003c 83F86020 		strb	r2, [r3, #96]
1374:Drivers/STM32L4xx_HAL_Driver/Src/stm32l4xx_hal_hcd.c ****     }
 1784              		.loc 1 1374 7 is_stmt 1 view .LVU562
1374:Drivers/STM32L4xx_HAL_Driver/Src/stm32l4xx_hal_hcd.c ****     }
 1785              		.loc 1 1374 13 is_stmt 0 view .LVU563
 1786 0040 0068     		ldr	r0, [r0]
 1787              	.LVL139:
1374:Drivers/STM32L4xx_HAL_Driver/Src/stm32l4xx_hal_hcd.c ****     }
 1788              		.loc 1 1374 13 view .LVU564
 1789 0042 FFF7FEFF 		bl	USB_HC_Halt
 1790              	.LVL140:
1374:Drivers/STM32L4xx_HAL_Driver/Src/stm32l4xx_hal_hcd.c ****     }
 1791              		.loc 1 1374 13 view .LVU565
 1792 0046 0AE0     		b	.L115
 1793              	.LVL141:
 1794              	.L136:
1362:Drivers/STM32L4xx_HAL_Driver/Src/stm32l4xx_hal_hcd.c ****     hhcd->hc[ch_num].state = HC_XACTERR;
 1795              		.loc 1 1362 5 is_stmt 1 view .LVU566
 1796 0048 0423     		movs	r3, #4
 1797              	.LVL142:
1362:Drivers/STM32L4xx_HAL_Driver/Src/stm32l4xx_hal_hcd.c ****     hhcd->hc[ch_num].state = HC_XACTERR;
 1798              		.loc 1 1362 5 is_stmt 0 view .LVU567
 1799 004a AB60     		str	r3, [r5, #8]
 1800              	.LVL143:
1363:Drivers/STM32L4xx_HAL_Driver/Src/stm32l4xx_hal_hcd.c ****     (void)USB_HC_Halt(hhcd->Instance, (uint8_t)ch_num);
 1801              		.loc 1 1363 5 is_stmt 1 view .LVU568
1363:Drivers/STM32L4xx_HAL_Driver/Src/stm32l4xx_hal_hcd.c ****     (void)USB_HC_Halt(hhcd->Instance, (uint8_t)ch_num);
 1802              		.loc 1 1363 28 is_stmt 0 view .LVU569
 1803 004c 2C23     		movs	r3, #44
 1804 004e 03FB0103 		mla	r3, r3, r1, r0
 1805 0052 0622     		movs	r2, #6
 1806 0054 83F86120 		strb	r2, [r3, #97]
1364:Drivers/STM32L4xx_HAL_Driver/Src/stm32l4xx_hal_hcd.c ****   }
 1807              		.loc 1 1364 5 is_stmt 1 view .LVU570
1364:Drivers/STM32L4xx_HAL_Driver/Src/stm32l4xx_hal_hcd.c ****   }
 1808              		.loc 1 1364 11 is_stmt 0 view .LVU571
 1809 0058 0068     		ldr	r0, [r0]
ARM GAS  C:\Users\HP\AppData\Local\Temp\ccGJK0AZ.s 			page 70


 1810              	.LVL144:
1364:Drivers/STM32L4xx_HAL_Driver/Src/stm32l4xx_hal_hcd.c ****   }
 1811              		.loc 1 1364 11 view .LVU572
 1812 005a FFF7FEFF 		bl	USB_HC_Halt
 1813              	.LVL145:
 1814              	.L115:
1503:Drivers/STM32L4xx_HAL_Driver/Src/stm32l4xx_hal_hcd.c **** 
 1815              		.loc 1 1503 1 view .LVU573
 1816 005e 38BD     		pop	{r3, r4, r5, pc}
 1817              	.LVL146:
 1818              	.L118:
1377:Drivers/STM32L4xx_HAL_Driver/Src/stm32l4xx_hal_hcd.c ****   {
 1819              		.loc 1 1377 8 is_stmt 1 view .LVU574
1377:Drivers/STM32L4xx_HAL_Driver/Src/stm32l4xx_hal_hcd.c ****   {
 1820              		.loc 1 1377 28 is_stmt 0 view .LVU575
 1821 0060 AC68     		ldr	r4, [r5, #8]
1377:Drivers/STM32L4xx_HAL_Driver/Src/stm32l4xx_hal_hcd.c ****   {
 1822              		.loc 1 1377 11 view .LVU576
 1823 0062 14F4007F 		tst	r4, #512
 1824 0066 1FD1     		bne	.L137
1382:Drivers/STM32L4xx_HAL_Driver/Src/stm32l4xx_hal_hcd.c ****   {
 1825              		.loc 1 1382 8 is_stmt 1 view .LVU577
1382:Drivers/STM32L4xx_HAL_Driver/Src/stm32l4xx_hal_hcd.c ****   {
 1826              		.loc 1 1382 28 is_stmt 0 view .LVU578
 1827 0068 AC68     		ldr	r4, [r5, #8]
1382:Drivers/STM32L4xx_HAL_Driver/Src/stm32l4xx_hal_hcd.c ****   {
 1828              		.loc 1 1382 11 view .LVU579
 1829 006a 14F0010F 		tst	r4, #1
 1830 006e 22D0     		beq	.L120
1384:Drivers/STM32L4xx_HAL_Driver/Src/stm32l4xx_hal_hcd.c **** 
 1831              		.loc 1 1384 5 is_stmt 1 view .LVU580
1384:Drivers/STM32L4xx_HAL_Driver/Src/stm32l4xx_hal_hcd.c **** 
 1832              		.loc 1 1384 29 is_stmt 0 view .LVU581
 1833 0070 2C23     		movs	r3, #44
 1834              	.LVL147:
1384:Drivers/STM32L4xx_HAL_Driver/Src/stm32l4xx_hal_hcd.c **** 
 1835              		.loc 1 1384 29 view .LVU582
 1836 0072 03FB0103 		mla	r3, r3, r1, r0
 1837 0076 0022     		movs	r2, #0
 1838 0078 DA65     		str	r2, [r3, #92]
 1839              	.LVL148:
1387:Drivers/STM32L4xx_HAL_Driver/Src/stm32l4xx_hal_hcd.c ****     {
 1840              		.loc 1 1387 5 is_stmt 1 view .LVU583
1387:Drivers/STM32L4xx_HAL_Driver/Src/stm32l4xx_hal_hcd.c ****     {
 1841              		.loc 1 1387 25 is_stmt 0 view .LVU584
 1842 007a AB68     		ldr	r3, [r5, #8]
1387:Drivers/STM32L4xx_HAL_Driver/Src/stm32l4xx_hal_hcd.c ****     {
 1843              		.loc 1 1387 8 view .LVU585
 1844 007c 13F0400F 		tst	r3, #64
 1845 0080 07D0     		beq	.L121
1389:Drivers/STM32L4xx_HAL_Driver/Src/stm32l4xx_hal_hcd.c ****       __HAL_HCD_CLEAR_HC_INT(ch_num, USB_OTG_HCINT_NYET);
 1846              		.loc 1 1389 7 is_stmt 1 view .LVU586
1389:Drivers/STM32L4xx_HAL_Driver/Src/stm32l4xx_hal_hcd.c ****       __HAL_HCD_CLEAR_HC_INT(ch_num, USB_OTG_HCINT_NYET);
 1847              		.loc 1 1389 32 is_stmt 0 view .LVU587
 1848 0082 2C23     		movs	r3, #44
 1849 0084 03FB0103 		mla	r3, r3, r1, r0
 1850 0088 0122     		movs	r2, #1
ARM GAS  C:\Users\HP\AppData\Local\Temp\ccGJK0AZ.s 			page 71


 1851 008a 83F83D20 		strb	r2, [r3, #61]
1390:Drivers/STM32L4xx_HAL_Driver/Src/stm32l4xx_hal_hcd.c ****     }
 1852              		.loc 1 1390 7 is_stmt 1 view .LVU588
 1853 008e 4023     		movs	r3, #64
 1854 0090 AB60     		str	r3, [r5, #8]
 1855              	.L121:
1392:Drivers/STM32L4xx_HAL_Driver/Src/stm32l4xx_hal_hcd.c ****     hhcd->hc[ch_num].state = HC_XFRC;
 1856              		.loc 1 1392 5 view .LVU589
 1857 0092 0122     		movs	r2, #1
 1858 0094 AA60     		str	r2, [r5, #8]
1393:Drivers/STM32L4xx_HAL_Driver/Src/stm32l4xx_hal_hcd.c ****     (void)USB_HC_Halt(hhcd->Instance, (uint8_t)ch_num);
 1859              		.loc 1 1393 5 view .LVU590
1393:Drivers/STM32L4xx_HAL_Driver/Src/stm32l4xx_hal_hcd.c ****     (void)USB_HC_Halt(hhcd->Instance, (uint8_t)ch_num);
 1860              		.loc 1 1393 28 is_stmt 0 view .LVU591
 1861 0096 2C23     		movs	r3, #44
 1862 0098 03FB0103 		mla	r3, r3, r1, r0
 1863 009c 83F86120 		strb	r2, [r3, #97]
1394:Drivers/STM32L4xx_HAL_Driver/Src/stm32l4xx_hal_hcd.c ****   }
 1864              		.loc 1 1394 5 is_stmt 1 view .LVU592
1394:Drivers/STM32L4xx_HAL_Driver/Src/stm32l4xx_hal_hcd.c ****   }
 1865              		.loc 1 1394 11 is_stmt 0 view .LVU593
 1866 00a0 0068     		ldr	r0, [r0]
 1867              	.LVL149:
1394:Drivers/STM32L4xx_HAL_Driver/Src/stm32l4xx_hal_hcd.c ****   }
 1868              		.loc 1 1394 11 view .LVU594
 1869 00a2 FFF7FEFF 		bl	USB_HC_Halt
 1870              	.LVL150:
1394:Drivers/STM32L4xx_HAL_Driver/Src/stm32l4xx_hal_hcd.c ****   }
 1871              		.loc 1 1394 11 view .LVU595
 1872 00a6 DAE7     		b	.L115
 1873              	.LVL151:
 1874              	.L137:
1379:Drivers/STM32L4xx_HAL_Driver/Src/stm32l4xx_hal_hcd.c ****     (void)USB_HC_Halt(hhcd->Instance, (uint8_t)ch_num);
 1875              		.loc 1 1379 5 is_stmt 1 view .LVU596
 1876 00a8 4FF40073 		mov	r3, #512
 1877              	.LVL152:
1379:Drivers/STM32L4xx_HAL_Driver/Src/stm32l4xx_hal_hcd.c ****     (void)USB_HC_Halt(hhcd->Instance, (uint8_t)ch_num);
 1878              		.loc 1 1379 5 is_stmt 0 view .LVU597
 1879 00ac AB60     		str	r3, [r5, #8]
 1880              	.LVL153:
1380:Drivers/STM32L4xx_HAL_Driver/Src/stm32l4xx_hal_hcd.c ****   }
 1881              		.loc 1 1380 5 is_stmt 1 view .LVU598
1380:Drivers/STM32L4xx_HAL_Driver/Src/stm32l4xx_hal_hcd.c ****   }
 1882              		.loc 1 1380 11 is_stmt 0 view .LVU599
 1883 00ae 0068     		ldr	r0, [r0]
 1884              	.LVL154:
1380:Drivers/STM32L4xx_HAL_Driver/Src/stm32l4xx_hal_hcd.c ****   }
 1885              		.loc 1 1380 11 view .LVU600
 1886 00b0 FFF7FEFF 		bl	USB_HC_Halt
 1887              	.LVL155:
1380:Drivers/STM32L4xx_HAL_Driver/Src/stm32l4xx_hal_hcd.c ****   }
 1888              		.loc 1 1380 11 view .LVU601
 1889 00b4 D3E7     		b	.L115
 1890              	.LVL156:
 1891              	.L120:
1396:Drivers/STM32L4xx_HAL_Driver/Src/stm32l4xx_hal_hcd.c ****   {
 1892              		.loc 1 1396 8 is_stmt 1 view .LVU602
ARM GAS  C:\Users\HP\AppData\Local\Temp\ccGJK0AZ.s 			page 72


1396:Drivers/STM32L4xx_HAL_Driver/Src/stm32l4xx_hal_hcd.c ****   {
 1893              		.loc 1 1396 28 is_stmt 0 view .LVU603
 1894 00b6 AC68     		ldr	r4, [r5, #8]
1396:Drivers/STM32L4xx_HAL_Driver/Src/stm32l4xx_hal_hcd.c ****   {
 1895              		.loc 1 1396 11 view .LVU604
 1896 00b8 14F0400F 		tst	r4, #64
 1897 00bc 37D1     		bne	.L138
1404:Drivers/STM32L4xx_HAL_Driver/Src/stm32l4xx_hal_hcd.c ****   {
 1898              		.loc 1 1404 8 is_stmt 1 view .LVU605
1404:Drivers/STM32L4xx_HAL_Driver/Src/stm32l4xx_hal_hcd.c ****   {
 1899              		.loc 1 1404 28 is_stmt 0 view .LVU606
 1900 00be AC68     		ldr	r4, [r5, #8]
1404:Drivers/STM32L4xx_HAL_Driver/Src/stm32l4xx_hal_hcd.c ****   {
 1901              		.loc 1 1404 11 view .LVU607
 1902 00c0 14F0080F 		tst	r4, #8
 1903 00c4 44D1     		bne	.L139
1410:Drivers/STM32L4xx_HAL_Driver/Src/stm32l4xx_hal_hcd.c ****   {
 1904              		.loc 1 1410 8 is_stmt 1 view .LVU608
1410:Drivers/STM32L4xx_HAL_Driver/Src/stm32l4xx_hal_hcd.c ****   {
 1905              		.loc 1 1410 28 is_stmt 0 view .LVU609
 1906 00c6 AC68     		ldr	r4, [r5, #8]
1410:Drivers/STM32L4xx_HAL_Driver/Src/stm32l4xx_hal_hcd.c ****   {
 1907              		.loc 1 1410 11 view .LVU610
 1908 00c8 14F0100F 		tst	r4, #16
 1909 00cc 4CD1     		bne	.L140
1418:Drivers/STM32L4xx_HAL_Driver/Src/stm32l4xx_hal_hcd.c ****   {
 1910              		.loc 1 1418 8 is_stmt 1 view .LVU611
1418:Drivers/STM32L4xx_HAL_Driver/Src/stm32l4xx_hal_hcd.c ****   {
 1911              		.loc 1 1418 28 is_stmt 0 view .LVU612
 1912 00ce AC68     		ldr	r4, [r5, #8]
1418:Drivers/STM32L4xx_HAL_Driver/Src/stm32l4xx_hal_hcd.c ****   {
 1913              		.loc 1 1418 11 view .LVU613
 1914 00d0 14F0800F 		tst	r4, #128
 1915 00d4 56D1     		bne	.L141
1424:Drivers/STM32L4xx_HAL_Driver/Src/stm32l4xx_hal_hcd.c ****   {
 1916              		.loc 1 1424 8 is_stmt 1 view .LVU614
1424:Drivers/STM32L4xx_HAL_Driver/Src/stm32l4xx_hal_hcd.c ****   {
 1917              		.loc 1 1424 28 is_stmt 0 view .LVU615
 1918 00d6 AC68     		ldr	r4, [r5, #8]
1424:Drivers/STM32L4xx_HAL_Driver/Src/stm32l4xx_hal_hcd.c ****   {
 1919              		.loc 1 1424 11 view .LVU616
 1920 00d8 14F4806F 		tst	r4, #1024
 1921 00dc 5ED1     		bne	.L142
1430:Drivers/STM32L4xx_HAL_Driver/Src/stm32l4xx_hal_hcd.c ****   {
 1922              		.loc 1 1430 8 is_stmt 1 view .LVU617
1430:Drivers/STM32L4xx_HAL_Driver/Src/stm32l4xx_hal_hcd.c ****   {
 1923              		.loc 1 1430 28 is_stmt 0 view .LVU618
 1924 00de AB68     		ldr	r3, [r5, #8]
 1925              	.LVL157:
1430:Drivers/STM32L4xx_HAL_Driver/Src/stm32l4xx_hal_hcd.c ****   {
 1926              		.loc 1 1430 11 view .LVU619
 1927 00e0 13F0020F 		tst	r3, #2
 1928 00e4 BBD0     		beq	.L115
1432:Drivers/STM32L4xx_HAL_Driver/Src/stm32l4xx_hal_hcd.c ****     {
 1929              		.loc 1 1432 5 is_stmt 1 view .LVU620
1432:Drivers/STM32L4xx_HAL_Driver/Src/stm32l4xx_hal_hcd.c ****     {
 1930              		.loc 1 1432 25 is_stmt 0 view .LVU621
ARM GAS  C:\Users\HP\AppData\Local\Temp\ccGJK0AZ.s 			page 73


 1931 00e6 2C23     		movs	r3, #44
 1932 00e8 03FB0103 		mla	r3, r3, r1, r0
 1933 00ec 93F86130 		ldrb	r3, [r3, #97]	@ zero_extendqisi2
1432:Drivers/STM32L4xx_HAL_Driver/Src/stm32l4xx_hal_hcd.c ****     {
 1934              		.loc 1 1432 8 view .LVU622
 1935 00f0 012B     		cmp	r3, #1
 1936 00f2 60D0     		beq	.L143
1454:Drivers/STM32L4xx_HAL_Driver/Src/stm32l4xx_hal_hcd.c ****     {
 1937              		.loc 1 1454 10 is_stmt 1 view .LVU623
1454:Drivers/STM32L4xx_HAL_Driver/Src/stm32l4xx_hal_hcd.c ****     {
 1938              		.loc 1 1454 13 is_stmt 0 view .LVU624
 1939 00f4 032B     		cmp	r3, #3
 1940 00f6 00F09280 		beq	.L144
1458:Drivers/STM32L4xx_HAL_Driver/Src/stm32l4xx_hal_hcd.c ****     {
 1941              		.loc 1 1458 10 is_stmt 1 view .LVU625
1458:Drivers/STM32L4xx_HAL_Driver/Src/stm32l4xx_hal_hcd.c ****     {
 1942              		.loc 1 1458 13 is_stmt 0 view .LVU626
 1943 00fa 042B     		cmp	r3, #4
 1944 00fc 00F09F80 		beq	.L145
1462:Drivers/STM32L4xx_HAL_Driver/Src/stm32l4xx_hal_hcd.c ****     {
 1945              		.loc 1 1462 10 is_stmt 1 view .LVU627
1462:Drivers/STM32L4xx_HAL_Driver/Src/stm32l4xx_hal_hcd.c ****     {
 1946              		.loc 1 1462 13 is_stmt 0 view .LVU628
 1947 0100 052B     		cmp	r3, #5
 1948 0102 00F0A380 		beq	.L146
1466:Drivers/STM32L4xx_HAL_Driver/Src/stm32l4xx_hal_hcd.c ****              (hhcd->hc[ch_num].state == HC_DATATGLERR))
 1949              		.loc 1 1466 10 is_stmt 1 view .LVU629
1466:Drivers/STM32L4xx_HAL_Driver/Src/stm32l4xx_hal_hcd.c ****              (hhcd->hc[ch_num].state == HC_DATATGLERR))
 1950              		.loc 1 1466 13 is_stmt 0 view .LVU630
 1951 0106 062B     		cmp	r3, #6
 1952 0108 02D0     		beq	.L133
1466:Drivers/STM32L4xx_HAL_Driver/Src/stm32l4xx_hal_hcd.c ****              (hhcd->hc[ch_num].state == HC_DATATGLERR))
 1953              		.loc 1 1466 53 discriminator 1 view .LVU631
 1954 010a 082B     		cmp	r3, #8
 1955 010c 40F08D80 		bne	.L128
 1956              	.L133:
1469:Drivers/STM32L4xx_HAL_Driver/Src/stm32l4xx_hal_hcd.c ****       if (hhcd->hc[ch_num].ErrCnt > 2U)
 1957              		.loc 1 1469 7 is_stmt 1 view .LVU632
1469:Drivers/STM32L4xx_HAL_Driver/Src/stm32l4xx_hal_hcd.c ****       if (hhcd->hc[ch_num].ErrCnt > 2U)
 1958              		.loc 1 1469 23 is_stmt 0 view .LVU633
 1959 0110 2C24     		movs	r4, #44
 1960 0112 04FB0104 		mla	r4, r4, r1, r0
 1961 0116 E36D     		ldr	r3, [r4, #92]
1469:Drivers/STM32L4xx_HAL_Driver/Src/stm32l4xx_hal_hcd.c ****       if (hhcd->hc[ch_num].ErrCnt > 2U)
 1962              		.loc 1 1469 30 view .LVU634
 1963 0118 0133     		adds	r3, r3, #1
 1964 011a E365     		str	r3, [r4, #92]
 1965              	.LVL158:
1470:Drivers/STM32L4xx_HAL_Driver/Src/stm32l4xx_hal_hcd.c ****       {
 1966              		.loc 1 1470 7 is_stmt 1 view .LVU635
1470:Drivers/STM32L4xx_HAL_Driver/Src/stm32l4xx_hal_hcd.c ****       {
 1967              		.loc 1 1470 10 is_stmt 0 view .LVU636
 1968 011c 022B     		cmp	r3, #2
 1969 011e 40F29C80 		bls	.L134
1472:Drivers/STM32L4xx_HAL_Driver/Src/stm32l4xx_hal_hcd.c ****         hhcd->hc[ch_num].urb_state = URB_ERROR;
 1970              		.loc 1 1472 9 is_stmt 1 view .LVU637
1472:Drivers/STM32L4xx_HAL_Driver/Src/stm32l4xx_hal_hcd.c ****         hhcd->hc[ch_num].urb_state = URB_ERROR;
ARM GAS  C:\Users\HP\AppData\Local\Temp\ccGJK0AZ.s 			page 74


 1971              		.loc 1 1472 33 is_stmt 0 view .LVU638
 1972 0122 0022     		movs	r2, #0
 1973 0124 E265     		str	r2, [r4, #92]
1473:Drivers/STM32L4xx_HAL_Driver/Src/stm32l4xx_hal_hcd.c ****       }
 1974              		.loc 1 1473 9 is_stmt 1 view .LVU639
1473:Drivers/STM32L4xx_HAL_Driver/Src/stm32l4xx_hal_hcd.c ****       }
 1975              		.loc 1 1473 36 is_stmt 0 view .LVU640
 1976 0126 0422     		movs	r2, #4
 1977 0128 84F86020 		strb	r2, [r4, #96]
 1978 012c 7DE0     		b	.L128
 1979              	.LVL159:
 1980              	.L138:
1398:Drivers/STM32L4xx_HAL_Driver/Src/stm32l4xx_hal_hcd.c ****     hhcd->hc[ch_num].do_ping = 1U;
 1981              		.loc 1 1398 5 is_stmt 1 view .LVU641
1398:Drivers/STM32L4xx_HAL_Driver/Src/stm32l4xx_hal_hcd.c ****     hhcd->hc[ch_num].do_ping = 1U;
 1982              		.loc 1 1398 28 is_stmt 0 view .LVU642
 1983 012e 2C22     		movs	r2, #44
 1984 0130 02FB0100 		mla	r0, r2, r1, r0
 1985              	.LVL160:
1398:Drivers/STM32L4xx_HAL_Driver/Src/stm32l4xx_hal_hcd.c ****     hhcd->hc[ch_num].do_ping = 1U;
 1986              		.loc 1 1398 28 view .LVU643
 1987 0134 0422     		movs	r2, #4
 1988 0136 80F86120 		strb	r2, [r0, #97]
1399:Drivers/STM32L4xx_HAL_Driver/Src/stm32l4xx_hal_hcd.c ****     hhcd->hc[ch_num].ErrCnt = 0U;
 1989              		.loc 1 1399 5 is_stmt 1 view .LVU644
1399:Drivers/STM32L4xx_HAL_Driver/Src/stm32l4xx_hal_hcd.c ****     hhcd->hc[ch_num].ErrCnt = 0U;
 1990              		.loc 1 1399 30 is_stmt 0 view .LVU645
 1991 013a 0122     		movs	r2, #1
 1992 013c 80F83D20 		strb	r2, [r0, #61]
1400:Drivers/STM32L4xx_HAL_Driver/Src/stm32l4xx_hal_hcd.c ****     (void)USB_HC_Halt(hhcd->Instance, (uint8_t)ch_num);
 1993              		.loc 1 1400 5 is_stmt 1 view .LVU646
1400:Drivers/STM32L4xx_HAL_Driver/Src/stm32l4xx_hal_hcd.c ****     (void)USB_HC_Halt(hhcd->Instance, (uint8_t)ch_num);
 1994              		.loc 1 1400 29 is_stmt 0 view .LVU647
 1995 0140 0022     		movs	r2, #0
 1996 0142 C265     		str	r2, [r0, #92]
1401:Drivers/STM32L4xx_HAL_Driver/Src/stm32l4xx_hal_hcd.c ****     __HAL_HCD_CLEAR_HC_INT(ch_num, USB_OTG_HCINT_NYET);
 1997              		.loc 1 1401 5 is_stmt 1 view .LVU648
1401:Drivers/STM32L4xx_HAL_Driver/Src/stm32l4xx_hal_hcd.c ****     __HAL_HCD_CLEAR_HC_INT(ch_num, USB_OTG_HCINT_NYET);
 1998              		.loc 1 1401 11 is_stmt 0 view .LVU649
 1999 0144 1846     		mov	r0, r3
 2000 0146 FFF7FEFF 		bl	USB_HC_Halt
 2001              	.LVL161:
1402:Drivers/STM32L4xx_HAL_Driver/Src/stm32l4xx_hal_hcd.c ****   }
 2002              		.loc 1 1402 5 is_stmt 1 view .LVU650
 2003 014a 4023     		movs	r3, #64
 2004 014c AB60     		str	r3, [r5, #8]
 2005 014e 86E7     		b	.L115
 2006              	.LVL162:
 2007              	.L139:
1406:Drivers/STM32L4xx_HAL_Driver/Src/stm32l4xx_hal_hcd.c ****     hhcd->hc[ch_num].state = HC_STALL;
 2008              		.loc 1 1406 5 view .LVU651
 2009 0150 0823     		movs	r3, #8
 2010              	.LVL163:
1406:Drivers/STM32L4xx_HAL_Driver/Src/stm32l4xx_hal_hcd.c ****     hhcd->hc[ch_num].state = HC_STALL;
 2011              		.loc 1 1406 5 is_stmt 0 view .LVU652
 2012 0152 AB60     		str	r3, [r5, #8]
 2013              	.LVL164:
ARM GAS  C:\Users\HP\AppData\Local\Temp\ccGJK0AZ.s 			page 75


1407:Drivers/STM32L4xx_HAL_Driver/Src/stm32l4xx_hal_hcd.c ****     (void)USB_HC_Halt(hhcd->Instance, (uint8_t)ch_num);
 2014              		.loc 1 1407 5 is_stmt 1 view .LVU653
1407:Drivers/STM32L4xx_HAL_Driver/Src/stm32l4xx_hal_hcd.c ****     (void)USB_HC_Halt(hhcd->Instance, (uint8_t)ch_num);
 2015              		.loc 1 1407 28 is_stmt 0 view .LVU654
 2016 0154 2C23     		movs	r3, #44
 2017 0156 03FB0103 		mla	r3, r3, r1, r0
 2018 015a 0522     		movs	r2, #5
 2019 015c 83F86120 		strb	r2, [r3, #97]
1408:Drivers/STM32L4xx_HAL_Driver/Src/stm32l4xx_hal_hcd.c ****   }
 2020              		.loc 1 1408 5 is_stmt 1 view .LVU655
1408:Drivers/STM32L4xx_HAL_Driver/Src/stm32l4xx_hal_hcd.c ****   }
 2021              		.loc 1 1408 11 is_stmt 0 view .LVU656
 2022 0160 0068     		ldr	r0, [r0]
 2023              	.LVL165:
1408:Drivers/STM32L4xx_HAL_Driver/Src/stm32l4xx_hal_hcd.c ****   }
 2024              		.loc 1 1408 11 view .LVU657
 2025 0162 FFF7FEFF 		bl	USB_HC_Halt
 2026              	.LVL166:
1408:Drivers/STM32L4xx_HAL_Driver/Src/stm32l4xx_hal_hcd.c ****   }
 2027              		.loc 1 1408 11 view .LVU658
 2028 0166 7AE7     		b	.L115
 2029              	.LVL167:
 2030              	.L140:
1412:Drivers/STM32L4xx_HAL_Driver/Src/stm32l4xx_hal_hcd.c ****     hhcd->hc[ch_num].state = HC_NAK;
 2031              		.loc 1 1412 5 is_stmt 1 view .LVU659
1412:Drivers/STM32L4xx_HAL_Driver/Src/stm32l4xx_hal_hcd.c ****     hhcd->hc[ch_num].state = HC_NAK;
 2032              		.loc 1 1412 29 is_stmt 0 view .LVU660
 2033 0168 2C22     		movs	r2, #44
 2034 016a 02FB0100 		mla	r0, r2, r1, r0
 2035              	.LVL168:
1412:Drivers/STM32L4xx_HAL_Driver/Src/stm32l4xx_hal_hcd.c ****     hhcd->hc[ch_num].state = HC_NAK;
 2036              		.loc 1 1412 29 view .LVU661
 2037 016e 0022     		movs	r2, #0
 2038 0170 C265     		str	r2, [r0, #92]
1413:Drivers/STM32L4xx_HAL_Driver/Src/stm32l4xx_hal_hcd.c **** 
 2039              		.loc 1 1413 5 is_stmt 1 view .LVU662
1413:Drivers/STM32L4xx_HAL_Driver/Src/stm32l4xx_hal_hcd.c **** 
 2040              		.loc 1 1413 28 is_stmt 0 view .LVU663
 2041 0172 0322     		movs	r2, #3
 2042 0174 80F86120 		strb	r2, [r0, #97]
1415:Drivers/STM32L4xx_HAL_Driver/Src/stm32l4xx_hal_hcd.c ****     __HAL_HCD_CLEAR_HC_INT(ch_num, USB_OTG_HCINT_NAK);
 2043              		.loc 1 1415 5 is_stmt 1 view .LVU664
1415:Drivers/STM32L4xx_HAL_Driver/Src/stm32l4xx_hal_hcd.c ****     __HAL_HCD_CLEAR_HC_INT(ch_num, USB_OTG_HCINT_NAK);
 2044              		.loc 1 1415 11 is_stmt 0 view .LVU665
 2045 0178 1846     		mov	r0, r3
 2046 017a FFF7FEFF 		bl	USB_HC_Halt
 2047              	.LVL169:
1416:Drivers/STM32L4xx_HAL_Driver/Src/stm32l4xx_hal_hcd.c ****   }
 2048              		.loc 1 1416 5 is_stmt 1 view .LVU666
 2049 017e 1023     		movs	r3, #16
 2050 0180 AB60     		str	r3, [r5, #8]
 2051 0182 6CE7     		b	.L115
 2052              	.LVL170:
 2053              	.L141:
1420:Drivers/STM32L4xx_HAL_Driver/Src/stm32l4xx_hal_hcd.c ****     (void)USB_HC_Halt(hhcd->Instance, (uint8_t)ch_num);
 2054              		.loc 1 1420 5 view .LVU667
1420:Drivers/STM32L4xx_HAL_Driver/Src/stm32l4xx_hal_hcd.c ****     (void)USB_HC_Halt(hhcd->Instance, (uint8_t)ch_num);
ARM GAS  C:\Users\HP\AppData\Local\Temp\ccGJK0AZ.s 			page 76


 2055              		.loc 1 1420 28 is_stmt 0 view .LVU668
 2056 0184 2C22     		movs	r2, #44
 2057 0186 02FB0102 		mla	r2, r2, r1, r0
 2058 018a 0620     		movs	r0, #6
 2059              	.LVL171:
1420:Drivers/STM32L4xx_HAL_Driver/Src/stm32l4xx_hal_hcd.c ****     (void)USB_HC_Halt(hhcd->Instance, (uint8_t)ch_num);
 2060              		.loc 1 1420 28 view .LVU669
 2061 018c 82F86100 		strb	r0, [r2, #97]
1421:Drivers/STM32L4xx_HAL_Driver/Src/stm32l4xx_hal_hcd.c ****     __HAL_HCD_CLEAR_HC_INT(ch_num, USB_OTG_HCINT_TXERR);
 2062              		.loc 1 1421 5 is_stmt 1 view .LVU670
1421:Drivers/STM32L4xx_HAL_Driver/Src/stm32l4xx_hal_hcd.c ****     __HAL_HCD_CLEAR_HC_INT(ch_num, USB_OTG_HCINT_TXERR);
 2063              		.loc 1 1421 11 is_stmt 0 view .LVU671
 2064 0190 1846     		mov	r0, r3
 2065 0192 FFF7FEFF 		bl	USB_HC_Halt
 2066              	.LVL172:
1422:Drivers/STM32L4xx_HAL_Driver/Src/stm32l4xx_hal_hcd.c ****   }
 2067              		.loc 1 1422 5 is_stmt 1 view .LVU672
 2068 0196 8023     		movs	r3, #128
 2069 0198 AB60     		str	r3, [r5, #8]
 2070 019a 60E7     		b	.L115
 2071              	.LVL173:
 2072              	.L142:
1426:Drivers/STM32L4xx_HAL_Driver/Src/stm32l4xx_hal_hcd.c ****     (void)USB_HC_Halt(hhcd->Instance, (uint8_t)ch_num);
 2073              		.loc 1 1426 5 view .LVU673
1426:Drivers/STM32L4xx_HAL_Driver/Src/stm32l4xx_hal_hcd.c ****     (void)USB_HC_Halt(hhcd->Instance, (uint8_t)ch_num);
 2074              		.loc 1 1426 28 is_stmt 0 view .LVU674
 2075 019c 2C22     		movs	r2, #44
 2076 019e 02FB0102 		mla	r2, r2, r1, r0
 2077 01a2 0820     		movs	r0, #8
 2078              	.LVL174:
1426:Drivers/STM32L4xx_HAL_Driver/Src/stm32l4xx_hal_hcd.c ****     (void)USB_HC_Halt(hhcd->Instance, (uint8_t)ch_num);
 2079              		.loc 1 1426 28 view .LVU675
 2080 01a4 82F86100 		strb	r0, [r2, #97]
1427:Drivers/STM32L4xx_HAL_Driver/Src/stm32l4xx_hal_hcd.c ****     __HAL_HCD_CLEAR_HC_INT(ch_num, USB_OTG_HCINT_DTERR);
 2081              		.loc 1 1427 5 is_stmt 1 view .LVU676
1427:Drivers/STM32L4xx_HAL_Driver/Src/stm32l4xx_hal_hcd.c ****     __HAL_HCD_CLEAR_HC_INT(ch_num, USB_OTG_HCINT_DTERR);
 2082              		.loc 1 1427 11 is_stmt 0 view .LVU677
 2083 01a8 1846     		mov	r0, r3
 2084 01aa FFF7FEFF 		bl	USB_HC_Halt
 2085              	.LVL175:
1428:Drivers/STM32L4xx_HAL_Driver/Src/stm32l4xx_hal_hcd.c ****   }
 2086              		.loc 1 1428 5 is_stmt 1 view .LVU678
 2087 01ae 4FF48063 		mov	r3, #1024
 2088 01b2 AB60     		str	r3, [r5, #8]
 2089 01b4 53E7     		b	.L115
 2090              	.LVL176:
 2091              	.L143:
1434:Drivers/STM32L4xx_HAL_Driver/Src/stm32l4xx_hal_hcd.c ****       if ((hhcd->hc[ch_num].ep_type == EP_TYPE_BULK) ||
 2092              		.loc 1 1434 7 view .LVU679
1434:Drivers/STM32L4xx_HAL_Driver/Src/stm32l4xx_hal_hcd.c ****       if ((hhcd->hc[ch_num].ep_type == EP_TYPE_BULK) ||
 2093              		.loc 1 1434 35 is_stmt 0 view .LVU680
 2094 01b6 2C23     		movs	r3, #44
 2095 01b8 03FB0103 		mla	r3, r3, r1, r0
 2096 01bc 0122     		movs	r2, #1
 2097 01be 83F86020 		strb	r2, [r3, #96]
 2098              	.LVL177:
1435:Drivers/STM32L4xx_HAL_Driver/Src/stm32l4xx_hal_hcd.c ****           (hhcd->hc[ch_num].ep_type == EP_TYPE_INTR))
ARM GAS  C:\Users\HP\AppData\Local\Temp\ccGJK0AZ.s 			page 77


 2099              		.loc 1 1435 7 is_stmt 1 view .LVU681
1435:Drivers/STM32L4xx_HAL_Driver/Src/stm32l4xx_hal_hcd.c ****           (hhcd->hc[ch_num].ep_type == EP_TYPE_INTR))
 2100              		.loc 1 1435 28 is_stmt 0 view .LVU682
 2101 01c2 93F83F30 		ldrb	r3, [r3, #63]	@ zero_extendqisi2
1435:Drivers/STM32L4xx_HAL_Driver/Src/stm32l4xx_hal_hcd.c ****           (hhcd->hc[ch_num].ep_type == EP_TYPE_INTR))
 2102              		.loc 1 1435 54 view .LVU683
 2103 01c6 023B     		subs	r3, r3, #2
 2104 01c8 DBB2     		uxtb	r3, r3
1435:Drivers/STM32L4xx_HAL_Driver/Src/stm32l4xx_hal_hcd.c ****           (hhcd->hc[ch_num].ep_type == EP_TYPE_INTR))
 2105              		.loc 1 1435 10 view .LVU684
 2106 01ca 9342     		cmp	r3, r2
 2107 01cc 2DD8     		bhi	.L128
1438:Drivers/STM32L4xx_HAL_Driver/Src/stm32l4xx_hal_hcd.c ****         {
 2108              		.loc 1 1438 9 is_stmt 1 view .LVU685
1438:Drivers/STM32L4xx_HAL_Driver/Src/stm32l4xx_hal_hcd.c ****         {
 2109              		.loc 1 1438 23 is_stmt 0 view .LVU686
 2110 01ce 0469     		ldr	r4, [r0, #16]
1438:Drivers/STM32L4xx_HAL_Driver/Src/stm32l4xx_hal_hcd.c ****         {
 2111              		.loc 1 1438 12 view .LVU687
 2112 01d0 44B9     		cbnz	r4, .L129
1440:Drivers/STM32L4xx_HAL_Driver/Src/stm32l4xx_hal_hcd.c ****         }
 2113              		.loc 1 1440 11 is_stmt 1 view .LVU688
1440:Drivers/STM32L4xx_HAL_Driver/Src/stm32l4xx_hal_hcd.c ****         }
 2114              		.loc 1 1440 39 is_stmt 0 view .LVU689
 2115 01d2 2C23     		movs	r3, #44
 2116 01d4 03FB0103 		mla	r3, r3, r1, r0
 2117 01d8 93F85520 		ldrb	r2, [r3, #85]	@ zero_extendqisi2
 2118 01dc 82F00102 		eor	r2, r2, #1
 2119 01e0 83F85520 		strb	r2, [r3, #85]
 2120              	.L129:
1443:Drivers/STM32L4xx_HAL_Driver/Src/stm32l4xx_hal_hcd.c ****         {
 2121              		.loc 1 1443 9 is_stmt 1 view .LVU690
1443:Drivers/STM32L4xx_HAL_Driver/Src/stm32l4xx_hal_hcd.c ****         {
 2122              		.loc 1 1443 12 is_stmt 0 view .LVU691
 2123 01e4 012C     		cmp	r4, #1
 2124 01e6 20D1     		bne	.L128
1443:Drivers/STM32L4xx_HAL_Driver/Src/stm32l4xx_hal_hcd.c ****         {
 2125              		.loc 1 1443 63 discriminator 1 view .LVU692
 2126 01e8 2C23     		movs	r3, #44
 2127 01ea 03FB0103 		mla	r3, r3, r1, r0
 2128 01ee DB6C     		ldr	r3, [r3, #76]
1443:Drivers/STM32L4xx_HAL_Driver/Src/stm32l4xx_hal_hcd.c ****         {
 2129              		.loc 1 1443 43 discriminator 1 view .LVU693
 2130 01f0 DBB1     		cbz	r3, .L128
1445:Drivers/STM32L4xx_HAL_Driver/Src/stm32l4xx_hal_hcd.c **** 
 2131              		.loc 1 1445 11 is_stmt 1 view .LVU694
1445:Drivers/STM32L4xx_HAL_Driver/Src/stm32l4xx_hal_hcd.c **** 
 2132              		.loc 1 1445 70 is_stmt 0 view .LVU695
 2133 01f2 2C22     		movs	r2, #44
 2134 01f4 02FB0102 		mla	r2, r2, r1, r0
 2135 01f8 B2F84020 		ldrh	r2, [r2, #64]
1445:Drivers/STM32L4xx_HAL_Driver/Src/stm32l4xx_hal_hcd.c **** 
 2136              		.loc 1 1445 52 view .LVU696
 2137 01fc 1344     		add	r3, r3, r2
1445:Drivers/STM32L4xx_HAL_Driver/Src/stm32l4xx_hal_hcd.c **** 
 2138              		.loc 1 1445 82 view .LVU697
 2139 01fe 013B     		subs	r3, r3, #1
ARM GAS  C:\Users\HP\AppData\Local\Temp\ccGJK0AZ.s 			page 78


1445:Drivers/STM32L4xx_HAL_Driver/Src/stm32l4xx_hal_hcd.c **** 
 2140              		.loc 1 1445 23 view .LVU698
 2141 0200 B3FBF2F3 		udiv	r3, r3, r2
 2142              	.LVL178:
1447:Drivers/STM32L4xx_HAL_Driver/Src/stm32l4xx_hal_hcd.c ****           {
 2143              		.loc 1 1447 11 is_stmt 1 view .LVU699
1447:Drivers/STM32L4xx_HAL_Driver/Src/stm32l4xx_hal_hcd.c ****           {
 2144              		.loc 1 1447 14 is_stmt 0 view .LVU700
 2145 0204 13F0010F 		tst	r3, #1
 2146 0208 0FD0     		beq	.L128
1449:Drivers/STM32L4xx_HAL_Driver/Src/stm32l4xx_hal_hcd.c ****           }
 2147              		.loc 1 1449 13 is_stmt 1 view .LVU701
1449:Drivers/STM32L4xx_HAL_Driver/Src/stm32l4xx_hal_hcd.c ****           }
 2148              		.loc 1 1449 41 is_stmt 0 view .LVU702
 2149 020a 2C23     		movs	r3, #44
 2150              	.LVL179:
1449:Drivers/STM32L4xx_HAL_Driver/Src/stm32l4xx_hal_hcd.c ****           }
 2151              		.loc 1 1449 41 view .LVU703
 2152 020c 03FB0103 		mla	r3, r3, r1, r0
 2153              	.LVL180:
1449:Drivers/STM32L4xx_HAL_Driver/Src/stm32l4xx_hal_hcd.c ****           }
 2154              		.loc 1 1449 41 view .LVU704
 2155 0210 93F85520 		ldrb	r2, [r3, #85]	@ zero_extendqisi2
 2156              	.LVL181:
1449:Drivers/STM32L4xx_HAL_Driver/Src/stm32l4xx_hal_hcd.c ****           }
 2157              		.loc 1 1449 41 view .LVU705
 2158 0214 82F00102 		eor	r2, r2, #1
 2159 0218 83F85520 		strb	r2, [r3, #85]
 2160 021c 05E0     		b	.L128
 2161              	.LVL182:
 2162              	.L144:
1456:Drivers/STM32L4xx_HAL_Driver/Src/stm32l4xx_hal_hcd.c ****     }
 2163              		.loc 1 1456 7 is_stmt 1 view .LVU706
1456:Drivers/STM32L4xx_HAL_Driver/Src/stm32l4xx_hal_hcd.c ****     }
 2164              		.loc 1 1456 34 is_stmt 0 view .LVU707
 2165 021e 2C23     		movs	r3, #44
 2166 0220 03FB0103 		mla	r3, r3, r1, r0
 2167 0224 0222     		movs	r2, #2
 2168 0226 83F86020 		strb	r2, [r3, #96]
 2169              	.LVL183:
 2170              	.L128:
1491:Drivers/STM32L4xx_HAL_Driver/Src/stm32l4xx_hal_hcd.c **** 
 2171              		.loc 1 1491 5 is_stmt 1 view .LVU708
 2172 022a 0223     		movs	r3, #2
 2173 022c AB60     		str	r3, [r5, #8]
1496:Drivers/STM32L4xx_HAL_Driver/Src/stm32l4xx_hal_hcd.c **** #endif /* USE_HAL_HCD_REGISTER_CALLBACKS */
 2174              		.loc 1 1496 5 view .LVU709
 2175 022e 2C23     		movs	r3, #44
 2176 0230 03FB0103 		mla	r3, r3, r1, r0
 2177 0234 93F86020 		ldrb	r2, [r3, #96]	@ zero_extendqisi2
 2178 0238 FFF7FEFF 		bl	HAL_HCD_HC_NotifyURBChange_Callback
 2179              	.LVL184:
1502:Drivers/STM32L4xx_HAL_Driver/Src/stm32l4xx_hal_hcd.c **** }
 2180              		.loc 1 1502 3 view .LVU710
1503:Drivers/STM32L4xx_HAL_Driver/Src/stm32l4xx_hal_hcd.c **** 
 2181              		.loc 1 1503 1 is_stmt 0 view .LVU711
 2182 023c 0FE7     		b	.L115
ARM GAS  C:\Users\HP\AppData\Local\Temp\ccGJK0AZ.s 			page 79


 2183              	.LVL185:
 2184              	.L145:
1460:Drivers/STM32L4xx_HAL_Driver/Src/stm32l4xx_hal_hcd.c ****     }
 2185              		.loc 1 1460 7 is_stmt 1 view .LVU712
1460:Drivers/STM32L4xx_HAL_Driver/Src/stm32l4xx_hal_hcd.c ****     }
 2186              		.loc 1 1460 35 is_stmt 0 view .LVU713
 2187 023e 2C23     		movs	r3, #44
 2188 0240 03FB0103 		mla	r3, r3, r1, r0
 2189 0244 0222     		movs	r2, #2
 2190 0246 83F86020 		strb	r2, [r3, #96]
 2191              	.LVL186:
1460:Drivers/STM32L4xx_HAL_Driver/Src/stm32l4xx_hal_hcd.c ****     }
 2192              		.loc 1 1460 35 view .LVU714
 2193 024a EEE7     		b	.L128
 2194              	.LVL187:
 2195              	.L146:
1464:Drivers/STM32L4xx_HAL_Driver/Src/stm32l4xx_hal_hcd.c ****     }
 2196              		.loc 1 1464 7 is_stmt 1 view .LVU715
1464:Drivers/STM32L4xx_HAL_Driver/Src/stm32l4xx_hal_hcd.c ****     }
 2197              		.loc 1 1464 35 is_stmt 0 view .LVU716
 2198 024c 2C23     		movs	r3, #44
 2199 024e 03FB0103 		mla	r3, r3, r1, r0
 2200 0252 0522     		movs	r2, #5
 2201 0254 83F86020 		strb	r2, [r3, #96]
 2202              	.LVL188:
1464:Drivers/STM32L4xx_HAL_Driver/Src/stm32l4xx_hal_hcd.c ****     }
 2203              		.loc 1 1464 35 view .LVU717
 2204 0258 E7E7     		b	.L128
 2205              	.L134:
1477:Drivers/STM32L4xx_HAL_Driver/Src/stm32l4xx_hal_hcd.c **** 
 2206              		.loc 1 1477 9 is_stmt 1 view .LVU718
1477:Drivers/STM32L4xx_HAL_Driver/Src/stm32l4xx_hal_hcd.c **** 
 2207              		.loc 1 1477 36 is_stmt 0 view .LVU719
 2208 025a 2C23     		movs	r3, #44
 2209 025c 03FB0103 		mla	r3, r3, r1, r0
 2210 0260 0224     		movs	r4, #2
 2211 0262 83F86040 		strb	r4, [r3, #96]
1480:Drivers/STM32L4xx_HAL_Driver/Src/stm32l4xx_hal_hcd.c ****         tmpreg &= ~USB_OTG_HCCHAR_CHDIS;
 2212              		.loc 1 1480 9 is_stmt 1 view .LVU720
1480:Drivers/STM32L4xx_HAL_Driver/Src/stm32l4xx_hal_hcd.c ****         tmpreg &= ~USB_OTG_HCCHAR_CHDIS;
 2213              		.loc 1 1480 16 is_stmt 0 view .LVU721
 2214 0266 D2F80035 		ldr	r3, [r2, #1280]
 2215              	.LVL189:
1481:Drivers/STM32L4xx_HAL_Driver/Src/stm32l4xx_hal_hcd.c ****         tmpreg |= USB_OTG_HCCHAR_CHENA;
 2216              		.loc 1 1481 9 is_stmt 1 view .LVU722
1481:Drivers/STM32L4xx_HAL_Driver/Src/stm32l4xx_hal_hcd.c ****         tmpreg |= USB_OTG_HCCHAR_CHENA;
 2217              		.loc 1 1481 16 is_stmt 0 view .LVU723
 2218 026a 23F08043 		bic	r3, r3, #1073741824
 2219              	.LVL190:
1482:Drivers/STM32L4xx_HAL_Driver/Src/stm32l4xx_hal_hcd.c ****         USBx_HC(ch_num)->HCCHAR = tmpreg;
 2220              		.loc 1 1482 9 is_stmt 1 view .LVU724
1482:Drivers/STM32L4xx_HAL_Driver/Src/stm32l4xx_hal_hcd.c ****         USBx_HC(ch_num)->HCCHAR = tmpreg;
 2221              		.loc 1 1482 16 is_stmt 0 view .LVU725
 2222 026e 43F00043 		orr	r3, r3, #-2147483648
 2223              	.LVL191:
1483:Drivers/STM32L4xx_HAL_Driver/Src/stm32l4xx_hal_hcd.c ****       }
 2224              		.loc 1 1483 9 is_stmt 1 view .LVU726
ARM GAS  C:\Users\HP\AppData\Local\Temp\ccGJK0AZ.s 			page 80


1483:Drivers/STM32L4xx_HAL_Driver/Src/stm32l4xx_hal_hcd.c ****       }
 2225              		.loc 1 1483 33 is_stmt 0 view .LVU727
 2226 0272 C2F80035 		str	r3, [r2, #1280]
 2227 0276 D8E7     		b	.L128
 2228              		.cfi_endproc
 2229              	.LFE156:
 2231              		.section	.text.HAL_HCD_IRQHandler,"ax",%progbits
 2232              		.align	1
 2233              		.global	HAL_HCD_IRQHandler
 2234              		.syntax unified
 2235              		.thumb
 2236              		.thumb_func
 2238              	HAL_HCD_IRQHandler:
 2239              	.LVL192:
 2240              	.LFB139:
 490:Drivers/STM32L4xx_HAL_Driver/Src/stm32l4xx_hal_hcd.c ****   USB_OTG_GlobalTypeDef *USBx = hhcd->Instance;
 2241              		.loc 1 490 1 is_stmt 1 view -0
 2242              		.cfi_startproc
 2243              		@ args = 0, pretend = 0, frame = 0
 2244              		@ frame_needed = 0, uses_anonymous_args = 0
 490:Drivers/STM32L4xx_HAL_Driver/Src/stm32l4xx_hal_hcd.c ****   USB_OTG_GlobalTypeDef *USBx = hhcd->Instance;
 2245              		.loc 1 490 1 is_stmt 0 view .LVU729
 2246 0000 F8B5     		push	{r3, r4, r5, r6, r7, lr}
 2247              	.LCFI21:
 2248              		.cfi_def_cfa_offset 24
 2249              		.cfi_offset 3, -24
 2250              		.cfi_offset 4, -20
 2251              		.cfi_offset 5, -16
 2252              		.cfi_offset 6, -12
 2253              		.cfi_offset 7, -8
 2254              		.cfi_offset 14, -4
 2255 0002 0446     		mov	r4, r0
 491:Drivers/STM32L4xx_HAL_Driver/Src/stm32l4xx_hal_hcd.c ****   uint32_t USBx_BASE = (uint32_t)USBx;
 2256              		.loc 1 491 3 is_stmt 1 view .LVU730
 491:Drivers/STM32L4xx_HAL_Driver/Src/stm32l4xx_hal_hcd.c ****   uint32_t USBx_BASE = (uint32_t)USBx;
 2257              		.loc 1 491 26 is_stmt 0 view .LVU731
 2258 0004 0568     		ldr	r5, [r0]
 2259              	.LVL193:
 492:Drivers/STM32L4xx_HAL_Driver/Src/stm32l4xx_hal_hcd.c ****   uint32_t i;
 2260              		.loc 1 492 3 is_stmt 1 view .LVU732
 493:Drivers/STM32L4xx_HAL_Driver/Src/stm32l4xx_hal_hcd.c ****   uint32_t interrupt;
 2261              		.loc 1 493 3 view .LVU733
 494:Drivers/STM32L4xx_HAL_Driver/Src/stm32l4xx_hal_hcd.c **** 
 2262              		.loc 1 494 3 view .LVU734
 497:Drivers/STM32L4xx_HAL_Driver/Src/stm32l4xx_hal_hcd.c ****   {
 2263              		.loc 1 497 3 view .LVU735
 497:Drivers/STM32L4xx_HAL_Driver/Src/stm32l4xx_hal_hcd.c ****   {
 2264              		.loc 1 497 7 is_stmt 0 view .LVU736
 2265 0006 2846     		mov	r0, r5
 2266              	.LVL194:
 497:Drivers/STM32L4xx_HAL_Driver/Src/stm32l4xx_hal_hcd.c ****   {
 2267              		.loc 1 497 7 view .LVU737
 2268 0008 FFF7FEFF 		bl	USB_GetMode
 2269              	.LVL195:
 497:Drivers/STM32L4xx_HAL_Driver/Src/stm32l4xx_hal_hcd.c ****   {
 2270              		.loc 1 497 6 view .LVU738
 2271 000c 0128     		cmp	r0, #1
ARM GAS  C:\Users\HP\AppData\Local\Temp\ccGJK0AZ.s 			page 81


 2272 000e 00D0     		beq	.L162
 2273              	.L147:
 601:Drivers/STM32L4xx_HAL_Driver/Src/stm32l4xx_hal_hcd.c **** 
 2274              		.loc 1 601 1 view .LVU739
 2275 0010 F8BD     		pop	{r3, r4, r5, r6, r7, pc}
 2276              	.LVL196:
 2277              	.L162:
 500:Drivers/STM32L4xx_HAL_Driver/Src/stm32l4xx_hal_hcd.c ****     {
 2278              		.loc 1 500 5 is_stmt 1 view .LVU740
 500:Drivers/STM32L4xx_HAL_Driver/Src/stm32l4xx_hal_hcd.c ****     {
 2279              		.loc 1 500 9 is_stmt 0 view .LVU741
 2280 0012 2068     		ldr	r0, [r4]
 2281 0014 FFF7FEFF 		bl	USB_ReadInterrupts
 2282              	.LVL197:
 500:Drivers/STM32L4xx_HAL_Driver/Src/stm32l4xx_hal_hcd.c ****     {
 2283              		.loc 1 500 8 view .LVU742
 2284 0018 0028     		cmp	r0, #0
 2285 001a F9D0     		beq	.L147
 505:Drivers/STM32L4xx_HAL_Driver/Src/stm32l4xx_hal_hcd.c ****     {
 2286              		.loc 1 505 5 is_stmt 1 view .LVU743
 505:Drivers/STM32L4xx_HAL_Driver/Src/stm32l4xx_hal_hcd.c ****     {
 2287              		.loc 1 505 9 is_stmt 0 view .LVU744
 2288 001c 2068     		ldr	r0, [r4]
 2289 001e FFF7FEFF 		bl	USB_ReadInterrupts
 2290              	.LVL198:
 505:Drivers/STM32L4xx_HAL_Driver/Src/stm32l4xx_hal_hcd.c ****     {
 2291              		.loc 1 505 8 view .LVU745
 2292 0022 10F4001F 		tst	r0, #2097152
 2293 0026 03D0     		beq	.L149
 508:Drivers/STM32L4xx_HAL_Driver/Src/stm32l4xx_hal_hcd.c ****     }
 2294              		.loc 1 508 7 is_stmt 1 view .LVU746
 2295 0028 2368     		ldr	r3, [r4]
 2296 002a 4FF40012 		mov	r2, #2097152
 2297 002e 5A61     		str	r2, [r3, #20]
 2298              	.L149:
 511:Drivers/STM32L4xx_HAL_Driver/Src/stm32l4xx_hal_hcd.c ****     {
 2299              		.loc 1 511 5 view .LVU747
 511:Drivers/STM32L4xx_HAL_Driver/Src/stm32l4xx_hal_hcd.c ****     {
 2300              		.loc 1 511 9 is_stmt 0 view .LVU748
 2301 0030 2068     		ldr	r0, [r4]
 2302 0032 FFF7FEFF 		bl	USB_ReadInterrupts
 2303              	.LVL199:
 511:Drivers/STM32L4xx_HAL_Driver/Src/stm32l4xx_hal_hcd.c ****     {
 2304              		.loc 1 511 8 view .LVU749
 2305 0036 10F4801F 		tst	r0, #1048576
 2306 003a 03D0     		beq	.L150
 514:Drivers/STM32L4xx_HAL_Driver/Src/stm32l4xx_hal_hcd.c ****     }
 2307              		.loc 1 514 7 is_stmt 1 view .LVU750
 2308 003c 2368     		ldr	r3, [r4]
 2309 003e 4FF48012 		mov	r2, #1048576
 2310 0042 5A61     		str	r2, [r3, #20]
 2311              	.L150:
 517:Drivers/STM32L4xx_HAL_Driver/Src/stm32l4xx_hal_hcd.c ****     {
 2312              		.loc 1 517 5 view .LVU751
 517:Drivers/STM32L4xx_HAL_Driver/Src/stm32l4xx_hal_hcd.c ****     {
 2313              		.loc 1 517 9 is_stmt 0 view .LVU752
 2314 0044 2068     		ldr	r0, [r4]
ARM GAS  C:\Users\HP\AppData\Local\Temp\ccGJK0AZ.s 			page 82


 2315 0046 FFF7FEFF 		bl	USB_ReadInterrupts
 2316              	.LVL200:
 517:Drivers/STM32L4xx_HAL_Driver/Src/stm32l4xx_hal_hcd.c ****     {
 2317              		.loc 1 517 8 view .LVU753
 2318 004a 10F0806F 		tst	r0, #67108864
 2319 004e 03D0     		beq	.L151
 520:Drivers/STM32L4xx_HAL_Driver/Src/stm32l4xx_hal_hcd.c ****     }
 2320              		.loc 1 520 7 is_stmt 1 view .LVU754
 2321 0050 2368     		ldr	r3, [r4]
 2322 0052 4FF08062 		mov	r2, #67108864
 2323 0056 5A61     		str	r2, [r3, #20]
 2324              	.L151:
 523:Drivers/STM32L4xx_HAL_Driver/Src/stm32l4xx_hal_hcd.c ****     {
 2325              		.loc 1 523 5 view .LVU755
 523:Drivers/STM32L4xx_HAL_Driver/Src/stm32l4xx_hal_hcd.c ****     {
 2326              		.loc 1 523 9 is_stmt 0 view .LVU756
 2327 0058 2068     		ldr	r0, [r4]
 2328 005a FFF7FEFF 		bl	USB_ReadInterrupts
 2329              	.LVL201:
 523:Drivers/STM32L4xx_HAL_Driver/Src/stm32l4xx_hal_hcd.c ****     {
 2330              		.loc 1 523 8 view .LVU757
 2331 005e 10F0020F 		tst	r0, #2
 2332 0062 02D0     		beq	.L152
 526:Drivers/STM32L4xx_HAL_Driver/Src/stm32l4xx_hal_hcd.c ****     }
 2333              		.loc 1 526 7 is_stmt 1 view .LVU758
 2334 0064 2368     		ldr	r3, [r4]
 2335 0066 0222     		movs	r2, #2
 2336 0068 5A61     		str	r2, [r3, #20]
 2337              	.L152:
 530:Drivers/STM32L4xx_HAL_Driver/Src/stm32l4xx_hal_hcd.c ****     {
 2338              		.loc 1 530 5 view .LVU759
 530:Drivers/STM32L4xx_HAL_Driver/Src/stm32l4xx_hal_hcd.c ****     {
 2339              		.loc 1 530 9 is_stmt 0 view .LVU760
 2340 006a 2068     		ldr	r0, [r4]
 2341 006c FFF7FEFF 		bl	USB_ReadInterrupts
 2342              	.LVL202:
 530:Drivers/STM32L4xx_HAL_Driver/Src/stm32l4xx_hal_hcd.c ****     {
 2343              		.loc 1 530 8 view .LVU761
 2344 0070 10F0005F 		tst	r0, #536870912
 2345 0074 08D0     		beq	.L153
 532:Drivers/STM32L4xx_HAL_Driver/Src/stm32l4xx_hal_hcd.c **** 
 2346              		.loc 1 532 7 is_stmt 1 view .LVU762
 2347 0076 2368     		ldr	r3, [r4]
 2348 0078 4FF00052 		mov	r2, #536870912
 2349 007c 5A61     		str	r2, [r3, #20]
 534:Drivers/STM32L4xx_HAL_Driver/Src/stm32l4xx_hal_hcd.c ****       {
 2350              		.loc 1 534 7 view .LVU763
 534:Drivers/STM32L4xx_HAL_Driver/Src/stm32l4xx_hal_hcd.c ****       {
 2351              		.loc 1 534 12 is_stmt 0 view .LVU764
 2352 007e D5F84034 		ldr	r3, [r5, #1088]
 534:Drivers/STM32L4xx_HAL_Driver/Src/stm32l4xx_hal_hcd.c ****       {
 2353              		.loc 1 534 10 view .LVU765
 2354 0082 13F0010F 		tst	r3, #1
 2355 0086 1DD0     		beq	.L163
 2356              	.L153:
 553:Drivers/STM32L4xx_HAL_Driver/Src/stm32l4xx_hal_hcd.c ****     {
 2357              		.loc 1 553 5 is_stmt 1 view .LVU766
ARM GAS  C:\Users\HP\AppData\Local\Temp\ccGJK0AZ.s 			page 83


 553:Drivers/STM32L4xx_HAL_Driver/Src/stm32l4xx_hal_hcd.c ****     {
 2358              		.loc 1 553 9 is_stmt 0 view .LVU767
 2359 0088 2068     		ldr	r0, [r4]
 2360 008a FFF7FEFF 		bl	USB_ReadInterrupts
 2361              	.LVL203:
 553:Drivers/STM32L4xx_HAL_Driver/Src/stm32l4xx_hal_hcd.c ****     {
 2362              		.loc 1 553 8 view .LVU768
 2363 008e 10F0807F 		tst	r0, #16777216
 2364 0092 26D1     		bne	.L164
 2365              	.L154:
 559:Drivers/STM32L4xx_HAL_Driver/Src/stm32l4xx_hal_hcd.c ****     {
 2366              		.loc 1 559 5 is_stmt 1 view .LVU769
 559:Drivers/STM32L4xx_HAL_Driver/Src/stm32l4xx_hal_hcd.c ****     {
 2367              		.loc 1 559 9 is_stmt 0 view .LVU770
 2368 0094 2068     		ldr	r0, [r4]
 2369 0096 FFF7FEFF 		bl	USB_ReadInterrupts
 2370              	.LVL204:
 559:Drivers/STM32L4xx_HAL_Driver/Src/stm32l4xx_hal_hcd.c ****     {
 2371              		.loc 1 559 8 view .LVU771
 2372 009a 10F0080F 		tst	r0, #8
 2373 009e 24D1     		bne	.L165
 2374              	.L155:
 571:Drivers/STM32L4xx_HAL_Driver/Src/stm32l4xx_hal_hcd.c ****     {
 2375              		.loc 1 571 5 is_stmt 1 view .LVU772
 571:Drivers/STM32L4xx_HAL_Driver/Src/stm32l4xx_hal_hcd.c ****     {
 2376              		.loc 1 571 10 is_stmt 0 view .LVU773
 2377 00a0 2068     		ldr	r0, [r4]
 2378 00a2 FFF7FEFF 		bl	USB_ReadInterrupts
 2379              	.LVL205:
 571:Drivers/STM32L4xx_HAL_Driver/Src/stm32l4xx_hal_hcd.c ****     {
 2380              		.loc 1 571 60 view .LVU774
 2381 00a6 10F0100F 		tst	r0, #16
 2382 00aa 25D1     		bne	.L166
 2383              	.L156:
 581:Drivers/STM32L4xx_HAL_Driver/Src/stm32l4xx_hal_hcd.c ****     {
 2384              		.loc 1 581 5 is_stmt 1 view .LVU775
 581:Drivers/STM32L4xx_HAL_Driver/Src/stm32l4xx_hal_hcd.c ****     {
 2385              		.loc 1 581 9 is_stmt 0 view .LVU776
 2386 00ac 2068     		ldr	r0, [r4]
 2387 00ae FFF7FEFF 		bl	USB_ReadInterrupts
 2388              	.LVL206:
 581:Drivers/STM32L4xx_HAL_Driver/Src/stm32l4xx_hal_hcd.c ****     {
 2389              		.loc 1 581 8 view .LVU777
 2390 00b2 10F0007F 		tst	r0, #33554432
 2391 00b6 ABD0     		beq	.L147
 583:Drivers/STM32L4xx_HAL_Driver/Src/stm32l4xx_hal_hcd.c ****       for (i = 0U; i < hhcd->Init.Host_channels; i++)
 2392              		.loc 1 583 7 is_stmt 1 view .LVU778
 583:Drivers/STM32L4xx_HAL_Driver/Src/stm32l4xx_hal_hcd.c ****       for (i = 0U; i < hhcd->Init.Host_channels; i++)
 2393              		.loc 1 583 19 is_stmt 0 view .LVU779
 2394 00b8 2068     		ldr	r0, [r4]
 2395 00ba FFF7FEFF 		bl	USB_HC_ReadInterrupt
 2396              	.LVL207:
 2397 00be 0746     		mov	r7, r0
 2398              	.LVL208:
 584:Drivers/STM32L4xx_HAL_Driver/Src/stm32l4xx_hal_hcd.c ****       {
 2399              		.loc 1 584 7 is_stmt 1 view .LVU780
 584:Drivers/STM32L4xx_HAL_Driver/Src/stm32l4xx_hal_hcd.c ****       {
ARM GAS  C:\Users\HP\AppData\Local\Temp\ccGJK0AZ.s 			page 84


 2400              		.loc 1 584 14 is_stmt 0 view .LVU781
 2401 00c0 0026     		movs	r6, #0
 584:Drivers/STM32L4xx_HAL_Driver/Src/stm32l4xx_hal_hcd.c ****       {
 2402              		.loc 1 584 7 view .LVU782
 2403 00c2 2CE0     		b	.L157
 2404              	.LVL209:
 2405              	.L163:
 537:Drivers/STM32L4xx_HAL_Driver/Src/stm32l4xx_hal_hcd.c ****         (void)USB_FlushRxFifo(USBx);
 2406              		.loc 1 537 9 is_stmt 1 view .LVU783
 537:Drivers/STM32L4xx_HAL_Driver/Src/stm32l4xx_hal_hcd.c ****         (void)USB_FlushRxFifo(USBx);
 2407              		.loc 1 537 15 is_stmt 0 view .LVU784
 2408 00c4 1021     		movs	r1, #16
 2409 00c6 2846     		mov	r0, r5
 2410 00c8 FFF7FEFF 		bl	USB_FlushTxFifo
 2411              	.LVL210:
 538:Drivers/STM32L4xx_HAL_Driver/Src/stm32l4xx_hal_hcd.c **** 
 2412              		.loc 1 538 9 is_stmt 1 view .LVU785
 538:Drivers/STM32L4xx_HAL_Driver/Src/stm32l4xx_hal_hcd.c **** 
 2413              		.loc 1 538 15 is_stmt 0 view .LVU786
 2414 00cc 2846     		mov	r0, r5
 2415 00ce FFF7FEFF 		bl	USB_FlushRxFifo
 2416              	.LVL211:
 541:Drivers/STM32L4xx_HAL_Driver/Src/stm32l4xx_hal_hcd.c **** 
 2417              		.loc 1 541 9 is_stmt 1 view .LVU787
 541:Drivers/STM32L4xx_HAL_Driver/Src/stm32l4xx_hal_hcd.c **** 
 2418              		.loc 1 541 15 is_stmt 0 view .LVU788
 2419 00d2 0121     		movs	r1, #1
 2420 00d4 2068     		ldr	r0, [r4]
 2421 00d6 FFF7FEFF 		bl	USB_InitFSLSPClkSel
 2422              	.LVL212:
 547:Drivers/STM32L4xx_HAL_Driver/Src/stm32l4xx_hal_hcd.c **** #endif /* USE_HAL_HCD_REGISTER_CALLBACKS */
 2423              		.loc 1 547 9 is_stmt 1 view .LVU789
 2424 00da 2046     		mov	r0, r4
 2425 00dc FFF7FEFF 		bl	HAL_HCD_Disconnect_Callback
 2426              	.LVL213:
 2427 00e0 D2E7     		b	.L153
 2428              	.L164:
 555:Drivers/STM32L4xx_HAL_Driver/Src/stm32l4xx_hal_hcd.c ****     }
 2429              		.loc 1 555 7 view .LVU790
 2430 00e2 2046     		mov	r0, r4
 2431 00e4 FFF7FEFF 		bl	HCD_Port_IRQHandler
 2432              	.LVL214:
 2433 00e8 D4E7     		b	.L154
 2434              	.L165:
 564:Drivers/STM32L4xx_HAL_Driver/Src/stm32l4xx_hal_hcd.c **** #endif /* USE_HAL_HCD_REGISTER_CALLBACKS */
 2435              		.loc 1 564 7 view .LVU791
 2436 00ea 2046     		mov	r0, r4
 2437 00ec FFF7FEFF 		bl	HAL_HCD_SOF_Callback
 2438              	.LVL215:
 567:Drivers/STM32L4xx_HAL_Driver/Src/stm32l4xx_hal_hcd.c ****     }
 2439              		.loc 1 567 7 view .LVU792
 2440 00f0 2368     		ldr	r3, [r4]
 2441 00f2 0822     		movs	r2, #8
 2442 00f4 5A61     		str	r2, [r3, #20]
 2443 00f6 D3E7     		b	.L155
 2444              	.L166:
 573:Drivers/STM32L4xx_HAL_Driver/Src/stm32l4xx_hal_hcd.c **** 
ARM GAS  C:\Users\HP\AppData\Local\Temp\ccGJK0AZ.s 			page 85


 2445              		.loc 1 573 7 view .LVU793
 2446 00f8 2268     		ldr	r2, [r4]
 2447 00fa 9369     		ldr	r3, [r2, #24]
 2448 00fc 23F01003 		bic	r3, r3, #16
 2449 0100 9361     		str	r3, [r2, #24]
 575:Drivers/STM32L4xx_HAL_Driver/Src/stm32l4xx_hal_hcd.c **** 
 2450              		.loc 1 575 7 view .LVU794
 2451 0102 2046     		mov	r0, r4
 2452 0104 FFF7FEFF 		bl	HCD_RXQLVL_IRQHandler
 2453              	.LVL216:
 577:Drivers/STM32L4xx_HAL_Driver/Src/stm32l4xx_hal_hcd.c ****     }
 2454              		.loc 1 577 7 view .LVU795
 2455 0108 2268     		ldr	r2, [r4]
 2456 010a 9369     		ldr	r3, [r2, #24]
 2457 010c 43F01003 		orr	r3, r3, #16
 2458 0110 9361     		str	r3, [r2, #24]
 2459 0112 CBE7     		b	.L156
 2460              	.LVL217:
 2461              	.L159:
 594:Drivers/STM32L4xx_HAL_Driver/Src/stm32l4xx_hal_hcd.c ****           }
 2462              		.loc 1 594 13 view .LVU796
 2463 0114 F1B2     		uxtb	r1, r6
 2464 0116 2046     		mov	r0, r4
 2465 0118 FFF7FEFF 		bl	HCD_HC_OUT_IRQHandler
 2466              	.LVL218:
 2467              	.L158:
 584:Drivers/STM32L4xx_HAL_Driver/Src/stm32l4xx_hal_hcd.c ****       {
 2468              		.loc 1 584 50 discriminator 2 view .LVU797
 584:Drivers/STM32L4xx_HAL_Driver/Src/stm32l4xx_hal_hcd.c ****       {
 2469              		.loc 1 584 51 is_stmt 0 discriminator 2 view .LVU798
 2470 011c 0136     		adds	r6, r6, #1
 2471              	.LVL219:
 2472              	.L157:
 584:Drivers/STM32L4xx_HAL_Driver/Src/stm32l4xx_hal_hcd.c ****       {
 2473              		.loc 1 584 20 is_stmt 1 discriminator 1 view .LVU799
 584:Drivers/STM32L4xx_HAL_Driver/Src/stm32l4xx_hal_hcd.c ****       {
 2474              		.loc 1 584 34 is_stmt 0 discriminator 1 view .LVU800
 2475 011e A368     		ldr	r3, [r4, #8]
 584:Drivers/STM32L4xx_HAL_Driver/Src/stm32l4xx_hal_hcd.c ****       {
 2476              		.loc 1 584 7 discriminator 1 view .LVU801
 2477 0120 B342     		cmp	r3, r6
 2478 0122 12D9     		bls	.L167
 586:Drivers/STM32L4xx_HAL_Driver/Src/stm32l4xx_hal_hcd.c ****         {
 2479              		.loc 1 586 9 is_stmt 1 view .LVU802
 586:Drivers/STM32L4xx_HAL_Driver/Src/stm32l4xx_hal_hcd.c ****         {
 2480              		.loc 1 586 37 is_stmt 0 view .LVU803
 2481 0124 06F00F03 		and	r3, r6, #15
 586:Drivers/STM32L4xx_HAL_Driver/Src/stm32l4xx_hal_hcd.c ****         {
 2482              		.loc 1 586 47 view .LVU804
 2483 0128 27FA03F3 		lsr	r3, r7, r3
 586:Drivers/STM32L4xx_HAL_Driver/Src/stm32l4xx_hal_hcd.c ****         {
 2484              		.loc 1 586 12 view .LVU805
 2485 012c 13F0010F 		tst	r3, #1
 2486 0130 F4D0     		beq	.L158
 588:Drivers/STM32L4xx_HAL_Driver/Src/stm32l4xx_hal_hcd.c ****           {
 2487              		.loc 1 588 11 is_stmt 1 view .LVU806
 588:Drivers/STM32L4xx_HAL_Driver/Src/stm32l4xx_hal_hcd.c ****           {
ARM GAS  C:\Users\HP\AppData\Local\Temp\ccGJK0AZ.s 			page 86


 2488              		.loc 1 588 16 is_stmt 0 view .LVU807
 2489 0132 05EB4613 		add	r3, r5, r6, lsl #5
 588:Drivers/STM32L4xx_HAL_Driver/Src/stm32l4xx_hal_hcd.c ****           {
 2490              		.loc 1 588 26 view .LVU808
 2491 0136 D3F80035 		ldr	r3, [r3, #1280]
 588:Drivers/STM32L4xx_HAL_Driver/Src/stm32l4xx_hal_hcd.c ****           {
 2492              		.loc 1 588 14 view .LVU809
 2493 013a 13F4004F 		tst	r3, #32768
 2494 013e E9D0     		beq	.L159
 590:Drivers/STM32L4xx_HAL_Driver/Src/stm32l4xx_hal_hcd.c ****           }
 2495              		.loc 1 590 13 is_stmt 1 view .LVU810
 2496 0140 F1B2     		uxtb	r1, r6
 2497 0142 2046     		mov	r0, r4
 2498 0144 FFF7FEFF 		bl	HCD_HC_IN_IRQHandler
 2499              	.LVL220:
 2500 0148 E8E7     		b	.L158
 2501              	.L167:
 598:Drivers/STM32L4xx_HAL_Driver/Src/stm32l4xx_hal_hcd.c ****     }
 2502              		.loc 1 598 7 view .LVU811
 2503 014a 2368     		ldr	r3, [r4]
 2504 014c 4FF00072 		mov	r2, #33554432
 2505 0150 5A61     		str	r2, [r3, #20]
 2506 0152 5DE7     		b	.L147
 2507              		.cfi_endproc
 2508              	.LFE139:
 2510              		.section	.text.HAL_HCD_Start,"ax",%progbits
 2511              		.align	1
 2512              		.global	HAL_HCD_Start
 2513              		.syntax unified
 2514              		.thumb
 2515              		.thumb_func
 2517              	HAL_HCD_Start:
 2518              	.LVL221:
 2519              	.LFB146:
1011:Drivers/STM32L4xx_HAL_Driver/Src/stm32l4xx_hal_hcd.c ****   __HAL_LOCK(hhcd);
 2520              		.loc 1 1011 1 view -0
 2521              		.cfi_startproc
 2522              		@ args = 0, pretend = 0, frame = 0
 2523              		@ frame_needed = 0, uses_anonymous_args = 0
1012:Drivers/STM32L4xx_HAL_Driver/Src/stm32l4xx_hal_hcd.c ****   /* Enable port power */
 2524              		.loc 1 1012 3 view .LVU813
1012:Drivers/STM32L4xx_HAL_Driver/Src/stm32l4xx_hal_hcd.c ****   /* Enable port power */
 2525              		.loc 1 1012 3 view .LVU814
 2526 0000 90F8F832 		ldrb	r3, [r0, #760]	@ zero_extendqisi2
 2527 0004 012B     		cmp	r3, #1
 2528 0006 0ED0     		beq	.L170
1011:Drivers/STM32L4xx_HAL_Driver/Src/stm32l4xx_hal_hcd.c ****   __HAL_LOCK(hhcd);
 2529              		.loc 1 1011 1 is_stmt 0 discriminator 2 view .LVU815
 2530 0008 10B5     		push	{r4, lr}
 2531              	.LCFI22:
 2532              		.cfi_def_cfa_offset 8
 2533              		.cfi_offset 4, -8
 2534              		.cfi_offset 14, -4
 2535 000a 0446     		mov	r4, r0
1012:Drivers/STM32L4xx_HAL_Driver/Src/stm32l4xx_hal_hcd.c ****   /* Enable port power */
 2536              		.loc 1 1012 3 is_stmt 1 discriminator 2 view .LVU816
 2537 000c 0121     		movs	r1, #1
ARM GAS  C:\Users\HP\AppData\Local\Temp\ccGJK0AZ.s 			page 87


 2538 000e 80F8F812 		strb	r1, [r0, #760]
1012:Drivers/STM32L4xx_HAL_Driver/Src/stm32l4xx_hal_hcd.c ****   /* Enable port power */
 2539              		.loc 1 1012 3 discriminator 2 view .LVU817
1014:Drivers/STM32L4xx_HAL_Driver/Src/stm32l4xx_hal_hcd.c **** 
 2540              		.loc 1 1014 3 discriminator 2 view .LVU818
1014:Drivers/STM32L4xx_HAL_Driver/Src/stm32l4xx_hal_hcd.c **** 
 2541              		.loc 1 1014 9 is_stmt 0 discriminator 2 view .LVU819
 2542 0012 0068     		ldr	r0, [r0]
 2543              	.LVL222:
1014:Drivers/STM32L4xx_HAL_Driver/Src/stm32l4xx_hal_hcd.c **** 
 2544              		.loc 1 1014 9 discriminator 2 view .LVU820
 2545 0014 FFF7FEFF 		bl	USB_DriveVbus
 2546              	.LVL223:
1017:Drivers/STM32L4xx_HAL_Driver/Src/stm32l4xx_hal_hcd.c ****   __HAL_UNLOCK(hhcd);
 2547              		.loc 1 1017 3 is_stmt 1 discriminator 2 view .LVU821
 2548 0018 2068     		ldr	r0, [r4]
 2549 001a FFF7FEFF 		bl	USB_EnableGlobalInt
 2550              	.LVL224:
1018:Drivers/STM32L4xx_HAL_Driver/Src/stm32l4xx_hal_hcd.c **** 
 2551              		.loc 1 1018 3 discriminator 2 view .LVU822
1018:Drivers/STM32L4xx_HAL_Driver/Src/stm32l4xx_hal_hcd.c **** 
 2552              		.loc 1 1018 3 discriminator 2 view .LVU823
 2553 001e 0020     		movs	r0, #0
 2554 0020 84F8F802 		strb	r0, [r4, #760]
1018:Drivers/STM32L4xx_HAL_Driver/Src/stm32l4xx_hal_hcd.c **** 
 2555              		.loc 1 1018 3 discriminator 2 view .LVU824
1020:Drivers/STM32L4xx_HAL_Driver/Src/stm32l4xx_hal_hcd.c **** }
 2556              		.loc 1 1020 3 discriminator 2 view .LVU825
1021:Drivers/STM32L4xx_HAL_Driver/Src/stm32l4xx_hal_hcd.c **** 
 2557              		.loc 1 1021 1 is_stmt 0 discriminator 2 view .LVU826
 2558 0024 10BD     		pop	{r4, pc}
 2559              	.LVL225:
 2560              	.L170:
 2561              	.LCFI23:
 2562              		.cfi_def_cfa_offset 0
 2563              		.cfi_restore 4
 2564              		.cfi_restore 14
1012:Drivers/STM32L4xx_HAL_Driver/Src/stm32l4xx_hal_hcd.c ****   /* Enable port power */
 2565              		.loc 1 1012 3 view .LVU827
 2566 0026 0220     		movs	r0, #2
 2567              	.LVL226:
1021:Drivers/STM32L4xx_HAL_Driver/Src/stm32l4xx_hal_hcd.c **** 
 2568              		.loc 1 1021 1 view .LVU828
 2569 0028 7047     		bx	lr
 2570              		.cfi_endproc
 2571              	.LFE146:
 2573              		.section	.text.HAL_HCD_Stop,"ax",%progbits
 2574              		.align	1
 2575              		.global	HAL_HCD_Stop
 2576              		.syntax unified
 2577              		.thumb
 2578              		.thumb_func
 2580              	HAL_HCD_Stop:
 2581              	.LVL227:
 2582              	.LFB147:
1030:Drivers/STM32L4xx_HAL_Driver/Src/stm32l4xx_hal_hcd.c ****   __HAL_LOCK(hhcd);
 2583              		.loc 1 1030 1 is_stmt 1 view -0
ARM GAS  C:\Users\HP\AppData\Local\Temp\ccGJK0AZ.s 			page 88


 2584              		.cfi_startproc
 2585              		@ args = 0, pretend = 0, frame = 0
 2586              		@ frame_needed = 0, uses_anonymous_args = 0
1031:Drivers/STM32L4xx_HAL_Driver/Src/stm32l4xx_hal_hcd.c ****   (void)USB_StopHost(hhcd->Instance);
 2587              		.loc 1 1031 3 view .LVU830
1031:Drivers/STM32L4xx_HAL_Driver/Src/stm32l4xx_hal_hcd.c ****   (void)USB_StopHost(hhcd->Instance);
 2588              		.loc 1 1031 3 view .LVU831
 2589 0000 90F8F832 		ldrb	r3, [r0, #760]	@ zero_extendqisi2
 2590 0004 012B     		cmp	r3, #1
 2591 0006 0BD0     		beq	.L177
1030:Drivers/STM32L4xx_HAL_Driver/Src/stm32l4xx_hal_hcd.c ****   __HAL_LOCK(hhcd);
 2592              		.loc 1 1030 1 is_stmt 0 discriminator 2 view .LVU832
 2593 0008 10B5     		push	{r4, lr}
 2594              	.LCFI24:
 2595              		.cfi_def_cfa_offset 8
 2596              		.cfi_offset 4, -8
 2597              		.cfi_offset 14, -4
 2598 000a 0446     		mov	r4, r0
1031:Drivers/STM32L4xx_HAL_Driver/Src/stm32l4xx_hal_hcd.c ****   (void)USB_StopHost(hhcd->Instance);
 2599              		.loc 1 1031 3 is_stmt 1 discriminator 2 view .LVU833
 2600 000c 0123     		movs	r3, #1
 2601 000e 80F8F832 		strb	r3, [r0, #760]
1031:Drivers/STM32L4xx_HAL_Driver/Src/stm32l4xx_hal_hcd.c ****   (void)USB_StopHost(hhcd->Instance);
 2602              		.loc 1 1031 3 discriminator 2 view .LVU834
1032:Drivers/STM32L4xx_HAL_Driver/Src/stm32l4xx_hal_hcd.c ****   __HAL_UNLOCK(hhcd);
 2603              		.loc 1 1032 3 discriminator 2 view .LVU835
1032:Drivers/STM32L4xx_HAL_Driver/Src/stm32l4xx_hal_hcd.c ****   __HAL_UNLOCK(hhcd);
 2604              		.loc 1 1032 9 is_stmt 0 discriminator 2 view .LVU836
 2605 0012 0068     		ldr	r0, [r0]
 2606              	.LVL228:
1032:Drivers/STM32L4xx_HAL_Driver/Src/stm32l4xx_hal_hcd.c ****   __HAL_UNLOCK(hhcd);
 2607              		.loc 1 1032 9 discriminator 2 view .LVU837
 2608 0014 FFF7FEFF 		bl	USB_StopHost
 2609              	.LVL229:
1033:Drivers/STM32L4xx_HAL_Driver/Src/stm32l4xx_hal_hcd.c **** 
 2610              		.loc 1 1033 3 is_stmt 1 discriminator 2 view .LVU838
1033:Drivers/STM32L4xx_HAL_Driver/Src/stm32l4xx_hal_hcd.c **** 
 2611              		.loc 1 1033 3 discriminator 2 view .LVU839
 2612 0018 0020     		movs	r0, #0
 2613 001a 84F8F802 		strb	r0, [r4, #760]
1033:Drivers/STM32L4xx_HAL_Driver/Src/stm32l4xx_hal_hcd.c **** 
 2614              		.loc 1 1033 3 discriminator 2 view .LVU840
1035:Drivers/STM32L4xx_HAL_Driver/Src/stm32l4xx_hal_hcd.c **** }
 2615              		.loc 1 1035 3 discriminator 2 view .LVU841
1036:Drivers/STM32L4xx_HAL_Driver/Src/stm32l4xx_hal_hcd.c **** 
 2616              		.loc 1 1036 1 is_stmt 0 discriminator 2 view .LVU842
 2617 001e 10BD     		pop	{r4, pc}
 2618              	.LVL230:
 2619              	.L177:
 2620              	.LCFI25:
 2621              		.cfi_def_cfa_offset 0
 2622              		.cfi_restore 4
 2623              		.cfi_restore 14
1031:Drivers/STM32L4xx_HAL_Driver/Src/stm32l4xx_hal_hcd.c ****   (void)USB_StopHost(hhcd->Instance);
 2624              		.loc 1 1031 3 view .LVU843
 2625 0020 0220     		movs	r0, #2
 2626              	.LVL231:
ARM GAS  C:\Users\HP\AppData\Local\Temp\ccGJK0AZ.s 			page 89


1036:Drivers/STM32L4xx_HAL_Driver/Src/stm32l4xx_hal_hcd.c **** 
 2627              		.loc 1 1036 1 view .LVU844
 2628 0022 7047     		bx	lr
 2629              		.cfi_endproc
 2630              	.LFE147:
 2632              		.section	.text.HAL_HCD_ResetPort,"ax",%progbits
 2633              		.align	1
 2634              		.global	HAL_HCD_ResetPort
 2635              		.syntax unified
 2636              		.thumb
 2637              		.thumb_func
 2639              	HAL_HCD_ResetPort:
 2640              	.LVL232:
 2641              	.LFB148:
1044:Drivers/STM32L4xx_HAL_Driver/Src/stm32l4xx_hal_hcd.c ****   return (USB_ResetPort(hhcd->Instance));
 2642              		.loc 1 1044 1 is_stmt 1 view -0
 2643              		.cfi_startproc
 2644              		@ args = 0, pretend = 0, frame = 0
 2645              		@ frame_needed = 0, uses_anonymous_args = 0
1044:Drivers/STM32L4xx_HAL_Driver/Src/stm32l4xx_hal_hcd.c ****   return (USB_ResetPort(hhcd->Instance));
 2646              		.loc 1 1044 1 is_stmt 0 view .LVU846
 2647 0000 08B5     		push	{r3, lr}
 2648              	.LCFI26:
 2649              		.cfi_def_cfa_offset 8
 2650              		.cfi_offset 3, -8
 2651              		.cfi_offset 14, -4
1045:Drivers/STM32L4xx_HAL_Driver/Src/stm32l4xx_hal_hcd.c **** }
 2652              		.loc 1 1045 3 is_stmt 1 view .LVU847
1045:Drivers/STM32L4xx_HAL_Driver/Src/stm32l4xx_hal_hcd.c **** }
 2653              		.loc 1 1045 11 is_stmt 0 view .LVU848
 2654 0002 0068     		ldr	r0, [r0]
 2655              	.LVL233:
1045:Drivers/STM32L4xx_HAL_Driver/Src/stm32l4xx_hal_hcd.c **** }
 2656              		.loc 1 1045 11 view .LVU849
 2657 0004 FFF7FEFF 		bl	USB_ResetPort
 2658              	.LVL234:
1046:Drivers/STM32L4xx_HAL_Driver/Src/stm32l4xx_hal_hcd.c **** 
 2659              		.loc 1 1046 1 view .LVU850
 2660 0008 08BD     		pop	{r3, pc}
 2661              		.cfi_endproc
 2662              	.LFE148:
 2664              		.section	.text.HAL_HCD_GetState,"ax",%progbits
 2665              		.align	1
 2666              		.global	HAL_HCD_GetState
 2667              		.syntax unified
 2668              		.thumb
 2669              		.thumb_func
 2671              	HAL_HCD_GetState:
 2672              	.LVL235:
 2673              	.LFB149:
1073:Drivers/STM32L4xx_HAL_Driver/Src/stm32l4xx_hal_hcd.c ****   return hhcd->State;
 2674              		.loc 1 1073 1 is_stmt 1 view -0
 2675              		.cfi_startproc
 2676              		@ args = 0, pretend = 0, frame = 0
 2677              		@ frame_needed = 0, uses_anonymous_args = 0
 2678              		@ link register save eliminated.
1074:Drivers/STM32L4xx_HAL_Driver/Src/stm32l4xx_hal_hcd.c **** }
ARM GAS  C:\Users\HP\AppData\Local\Temp\ccGJK0AZ.s 			page 90


 2679              		.loc 1 1074 3 view .LVU852
1074:Drivers/STM32L4xx_HAL_Driver/Src/stm32l4xx_hal_hcd.c **** }
 2680              		.loc 1 1074 14 is_stmt 0 view .LVU853
 2681 0000 90F8F902 		ldrb	r0, [r0, #761]	@ zero_extendqisi2
 2682              	.LVL236:
1075:Drivers/STM32L4xx_HAL_Driver/Src/stm32l4xx_hal_hcd.c **** 
 2683              		.loc 1 1075 1 view .LVU854
 2684 0004 7047     		bx	lr
 2685              		.cfi_endproc
 2686              	.LFE149:
 2688              		.section	.text.HAL_HCD_HC_GetURBState,"ax",%progbits
 2689              		.align	1
 2690              		.global	HAL_HCD_HC_GetURBState
 2691              		.syntax unified
 2692              		.thumb
 2693              		.thumb_func
 2695              	HAL_HCD_HC_GetURBState:
 2696              	.LVL237:
 2697              	.LFB150:
1092:Drivers/STM32L4xx_HAL_Driver/Src/stm32l4xx_hal_hcd.c ****   return hhcd->hc[chnum].urb_state;
 2698              		.loc 1 1092 1 is_stmt 1 view -0
 2699              		.cfi_startproc
 2700              		@ args = 0, pretend = 0, frame = 0
 2701              		@ frame_needed = 0, uses_anonymous_args = 0
 2702              		@ link register save eliminated.
1093:Drivers/STM32L4xx_HAL_Driver/Src/stm32l4xx_hal_hcd.c **** }
 2703              		.loc 1 1093 3 view .LVU856
1093:Drivers/STM32L4xx_HAL_Driver/Src/stm32l4xx_hal_hcd.c **** }
 2704              		.loc 1 1093 25 is_stmt 0 view .LVU857
 2705 0000 2C23     		movs	r3, #44
 2706 0002 03FB0100 		mla	r0, r3, r1, r0
 2707              	.LVL238:
1094:Drivers/STM32L4xx_HAL_Driver/Src/stm32l4xx_hal_hcd.c **** 
 2708              		.loc 1 1094 1 view .LVU858
 2709 0006 90F86000 		ldrb	r0, [r0, #96]	@ zero_extendqisi2
 2710 000a 7047     		bx	lr
 2711              		.cfi_endproc
 2712              	.LFE150:
 2714              		.section	.text.HAL_HCD_HC_GetXferCount,"ax",%progbits
 2715              		.align	1
 2716              		.global	HAL_HCD_HC_GetXferCount
 2717              		.syntax unified
 2718              		.thumb
 2719              		.thumb_func
 2721              	HAL_HCD_HC_GetXferCount:
 2722              	.LVL239:
 2723              	.LFB151:
1105:Drivers/STM32L4xx_HAL_Driver/Src/stm32l4xx_hal_hcd.c ****   return hhcd->hc[chnum].xfer_count;
 2724              		.loc 1 1105 1 is_stmt 1 view -0
 2725              		.cfi_startproc
 2726              		@ args = 0, pretend = 0, frame = 0
 2727              		@ frame_needed = 0, uses_anonymous_args = 0
 2728              		@ link register save eliminated.
1106:Drivers/STM32L4xx_HAL_Driver/Src/stm32l4xx_hal_hcd.c **** }
 2729              		.loc 1 1106 3 view .LVU860
1106:Drivers/STM32L4xx_HAL_Driver/Src/stm32l4xx_hal_hcd.c **** }
 2730              		.loc 1 1106 25 is_stmt 0 view .LVU861
ARM GAS  C:\Users\HP\AppData\Local\Temp\ccGJK0AZ.s 			page 91


 2731 0000 2C23     		movs	r3, #44
 2732 0002 03FB0100 		mla	r0, r3, r1, r0
 2733              	.LVL240:
1107:Drivers/STM32L4xx_HAL_Driver/Src/stm32l4xx_hal_hcd.c **** 
 2734              		.loc 1 1107 1 view .LVU862
 2735 0006 006D     		ldr	r0, [r0, #80]
 2736 0008 7047     		bx	lr
 2737              		.cfi_endproc
 2738              	.LFE151:
 2740              		.section	.text.HAL_HCD_HC_GetState,"ax",%progbits
 2741              		.align	1
 2742              		.global	HAL_HCD_HC_GetState
 2743              		.syntax unified
 2744              		.thumb
 2745              		.thumb_func
 2747              	HAL_HCD_HC_GetState:
 2748              	.LVL241:
 2749              	.LFB152:
1127:Drivers/STM32L4xx_HAL_Driver/Src/stm32l4xx_hal_hcd.c ****   return hhcd->hc[chnum].state;
 2750              		.loc 1 1127 1 is_stmt 1 view -0
 2751              		.cfi_startproc
 2752              		@ args = 0, pretend = 0, frame = 0
 2753              		@ frame_needed = 0, uses_anonymous_args = 0
 2754              		@ link register save eliminated.
1128:Drivers/STM32L4xx_HAL_Driver/Src/stm32l4xx_hal_hcd.c **** }
 2755              		.loc 1 1128 3 view .LVU864
1128:Drivers/STM32L4xx_HAL_Driver/Src/stm32l4xx_hal_hcd.c **** }
 2756              		.loc 1 1128 25 is_stmt 0 view .LVU865
 2757 0000 2C23     		movs	r3, #44
 2758 0002 03FB0100 		mla	r0, r3, r1, r0
 2759              	.LVL242:
1129:Drivers/STM32L4xx_HAL_Driver/Src/stm32l4xx_hal_hcd.c **** 
 2760              		.loc 1 1129 1 view .LVU866
 2761 0006 90F86100 		ldrb	r0, [r0, #97]	@ zero_extendqisi2
 2762 000a 7047     		bx	lr
 2763              		.cfi_endproc
 2764              	.LFE152:
 2766              		.section	.text.HAL_HCD_GetCurrentFrame,"ax",%progbits
 2767              		.align	1
 2768              		.global	HAL_HCD_GetCurrentFrame
 2769              		.syntax unified
 2770              		.thumb
 2771              		.thumb_func
 2773              	HAL_HCD_GetCurrentFrame:
 2774              	.LVL243:
 2775              	.LFB153:
1137:Drivers/STM32L4xx_HAL_Driver/Src/stm32l4xx_hal_hcd.c ****   return (USB_GetCurrentFrame(hhcd->Instance));
 2776              		.loc 1 1137 1 is_stmt 1 view -0
 2777              		.cfi_startproc
 2778              		@ args = 0, pretend = 0, frame = 0
 2779              		@ frame_needed = 0, uses_anonymous_args = 0
1137:Drivers/STM32L4xx_HAL_Driver/Src/stm32l4xx_hal_hcd.c ****   return (USB_GetCurrentFrame(hhcd->Instance));
 2780              		.loc 1 1137 1 is_stmt 0 view .LVU868
 2781 0000 08B5     		push	{r3, lr}
 2782              	.LCFI27:
 2783              		.cfi_def_cfa_offset 8
 2784              		.cfi_offset 3, -8
ARM GAS  C:\Users\HP\AppData\Local\Temp\ccGJK0AZ.s 			page 92


 2785              		.cfi_offset 14, -4
1138:Drivers/STM32L4xx_HAL_Driver/Src/stm32l4xx_hal_hcd.c **** }
 2786              		.loc 1 1138 3 is_stmt 1 view .LVU869
1138:Drivers/STM32L4xx_HAL_Driver/Src/stm32l4xx_hal_hcd.c **** }
 2787              		.loc 1 1138 11 is_stmt 0 view .LVU870
 2788 0002 0068     		ldr	r0, [r0]
 2789              	.LVL244:
1138:Drivers/STM32L4xx_HAL_Driver/Src/stm32l4xx_hal_hcd.c **** }
 2790              		.loc 1 1138 11 view .LVU871
 2791 0004 FFF7FEFF 		bl	USB_GetCurrentFrame
 2792              	.LVL245:
1139:Drivers/STM32L4xx_HAL_Driver/Src/stm32l4xx_hal_hcd.c **** 
 2793              		.loc 1 1139 1 view .LVU872
 2794 0008 08BD     		pop	{r3, pc}
 2795              		.cfi_endproc
 2796              	.LFE153:
 2798              		.section	.text.HAL_HCD_GetCurrentSpeed,"ax",%progbits
 2799              		.align	1
 2800              		.global	HAL_HCD_GetCurrentSpeed
 2801              		.syntax unified
 2802              		.thumb
 2803              		.thumb_func
 2805              	HAL_HCD_GetCurrentSpeed:
 2806              	.LVL246:
 2807              	.LFB154:
1147:Drivers/STM32L4xx_HAL_Driver/Src/stm32l4xx_hal_hcd.c ****   return (USB_GetHostSpeed(hhcd->Instance));
 2808              		.loc 1 1147 1 is_stmt 1 view -0
 2809              		.cfi_startproc
 2810              		@ args = 0, pretend = 0, frame = 0
 2811              		@ frame_needed = 0, uses_anonymous_args = 0
1147:Drivers/STM32L4xx_HAL_Driver/Src/stm32l4xx_hal_hcd.c ****   return (USB_GetHostSpeed(hhcd->Instance));
 2812              		.loc 1 1147 1 is_stmt 0 view .LVU874
 2813 0000 08B5     		push	{r3, lr}
 2814              	.LCFI28:
 2815              		.cfi_def_cfa_offset 8
 2816              		.cfi_offset 3, -8
 2817              		.cfi_offset 14, -4
1148:Drivers/STM32L4xx_HAL_Driver/Src/stm32l4xx_hal_hcd.c **** }
 2818              		.loc 1 1148 3 is_stmt 1 view .LVU875
1148:Drivers/STM32L4xx_HAL_Driver/Src/stm32l4xx_hal_hcd.c **** }
 2819              		.loc 1 1148 11 is_stmt 0 view .LVU876
 2820 0002 0068     		ldr	r0, [r0]
 2821              	.LVL247:
1148:Drivers/STM32L4xx_HAL_Driver/Src/stm32l4xx_hal_hcd.c **** }
 2822              		.loc 1 1148 11 view .LVU877
 2823 0004 FFF7FEFF 		bl	USB_GetHostSpeed
 2824              	.LVL248:
1149:Drivers/STM32L4xx_HAL_Driver/Src/stm32l4xx_hal_hcd.c **** 
 2825              		.loc 1 1149 1 view .LVU878
 2826 0008 08BD     		pop	{r3, pc}
 2827              		.cfi_endproc
 2828              	.LFE154:
 2830              		.text
 2831              	.Letext0:
 2832              		.file 2 "c:\\gcc-arm-none-eabi\\arm-none-eabi\\include\\machine\\_default_types.h"
 2833              		.file 3 "c:\\gcc-arm-none-eabi\\arm-none-eabi\\include\\sys\\_stdint.h"
 2834              		.file 4 "Drivers/CMSIS/Device/ST/STM32L4xx/Include/stm32l4r5xx.h"
ARM GAS  C:\Users\HP\AppData\Local\Temp\ccGJK0AZ.s 			page 93


 2835              		.file 5 "Drivers/STM32L4xx_HAL_Driver/Inc/stm32l4xx_hal_def.h"
 2836              		.file 6 "Drivers/STM32L4xx_HAL_Driver/Inc/stm32l4xx_ll_usb.h"
 2837              		.file 7 "Drivers/STM32L4xx_HAL_Driver/Inc/stm32l4xx_hal_hcd.h"
ARM GAS  C:\Users\HP\AppData\Local\Temp\ccGJK0AZ.s 			page 94


DEFINED SYMBOLS
                            *ABS*:00000000 stm32l4xx_hal_hcd.c
C:\Users\HP\AppData\Local\Temp\ccGJK0AZ.s:20     .text.HCD_RXQLVL_IRQHandler:00000000 $t
C:\Users\HP\AppData\Local\Temp\ccGJK0AZ.s:25     .text.HCD_RXQLVL_IRQHandler:00000000 HCD_RXQLVL_IRQHandler
C:\Users\HP\AppData\Local\Temp\ccGJK0AZ.s:191    .text.HAL_HCD_HC_Init:00000000 $t
C:\Users\HP\AppData\Local\Temp\ccGJK0AZ.s:197    .text.HAL_HCD_HC_Init:00000000 HAL_HCD_HC_Init
C:\Users\HP\AppData\Local\Temp\ccGJK0AZ.s:313    .text.HAL_HCD_HC_Halt:00000000 $t
C:\Users\HP\AppData\Local\Temp\ccGJK0AZ.s:319    .text.HAL_HCD_HC_Halt:00000000 HAL_HCD_HC_Halt
C:\Users\HP\AppData\Local\Temp\ccGJK0AZ.s:373    .text.HAL_HCD_MspInit:00000000 $t
C:\Users\HP\AppData\Local\Temp\ccGJK0AZ.s:379    .text.HAL_HCD_MspInit:00000000 HAL_HCD_MspInit
C:\Users\HP\AppData\Local\Temp\ccGJK0AZ.s:394    .text.HAL_HCD_Init:00000000 $t
C:\Users\HP\AppData\Local\Temp\ccGJK0AZ.s:400    .text.HAL_HCD_Init:00000000 HAL_HCD_Init
C:\Users\HP\AppData\Local\Temp\ccGJK0AZ.s:540    .text.HAL_HCD_MspDeInit:00000000 $t
C:\Users\HP\AppData\Local\Temp\ccGJK0AZ.s:546    .text.HAL_HCD_MspDeInit:00000000 HAL_HCD_MspDeInit
C:\Users\HP\AppData\Local\Temp\ccGJK0AZ.s:561    .text.HAL_HCD_DeInit:00000000 $t
C:\Users\HP\AppData\Local\Temp\ccGJK0AZ.s:567    .text.HAL_HCD_DeInit:00000000 HAL_HCD_DeInit
C:\Users\HP\AppData\Local\Temp\ccGJK0AZ.s:617    .text.HAL_HCD_HC_SubmitRequest:00000000 $t
C:\Users\HP\AppData\Local\Temp\ccGJK0AZ.s:623    .text.HAL_HCD_HC_SubmitRequest:00000000 HAL_HCD_HC_SubmitRequest
C:\Users\HP\AppData\Local\Temp\ccGJK0AZ.s:666    .text.HAL_HCD_HC_SubmitRequest:00000038 $d
C:\Users\HP\AppData\Local\Temp\ccGJK0AZ.s:670    .text.HAL_HCD_HC_SubmitRequest:0000003c $t
C:\Users\HP\AppData\Local\Temp\ccGJK0AZ.s:900    .text.HAL_HCD_SOF_Callback:00000000 $t
C:\Users\HP\AppData\Local\Temp\ccGJK0AZ.s:906    .text.HAL_HCD_SOF_Callback:00000000 HAL_HCD_SOF_Callback
C:\Users\HP\AppData\Local\Temp\ccGJK0AZ.s:921    .text.HAL_HCD_Connect_Callback:00000000 $t
C:\Users\HP\AppData\Local\Temp\ccGJK0AZ.s:927    .text.HAL_HCD_Connect_Callback:00000000 HAL_HCD_Connect_Callback
C:\Users\HP\AppData\Local\Temp\ccGJK0AZ.s:942    .text.HAL_HCD_Disconnect_Callback:00000000 $t
C:\Users\HP\AppData\Local\Temp\ccGJK0AZ.s:948    .text.HAL_HCD_Disconnect_Callback:00000000 HAL_HCD_Disconnect_Callback
C:\Users\HP\AppData\Local\Temp\ccGJK0AZ.s:963    .text.HAL_HCD_PortEnabled_Callback:00000000 $t
C:\Users\HP\AppData\Local\Temp\ccGJK0AZ.s:969    .text.HAL_HCD_PortEnabled_Callback:00000000 HAL_HCD_PortEnabled_Callback
C:\Users\HP\AppData\Local\Temp\ccGJK0AZ.s:984    .text.HAL_HCD_PortDisabled_Callback:00000000 $t
C:\Users\HP\AppData\Local\Temp\ccGJK0AZ.s:990    .text.HAL_HCD_PortDisabled_Callback:00000000 HAL_HCD_PortDisabled_Callback
C:\Users\HP\AppData\Local\Temp\ccGJK0AZ.s:1005   .text.HCD_Port_IRQHandler:00000000 $t
C:\Users\HP\AppData\Local\Temp\ccGJK0AZ.s:1010   .text.HCD_Port_IRQHandler:00000000 HCD_Port_IRQHandler
C:\Users\HP\AppData\Local\Temp\ccGJK0AZ.s:1176   .text.HAL_HCD_HC_NotifyURBChange_Callback:00000000 $t
C:\Users\HP\AppData\Local\Temp\ccGJK0AZ.s:1182   .text.HAL_HCD_HC_NotifyURBChange_Callback:00000000 HAL_HCD_HC_NotifyURBChange_Callback
C:\Users\HP\AppData\Local\Temp\ccGJK0AZ.s:1199   .text.HCD_HC_IN_IRQHandler:00000000 $t
C:\Users\HP\AppData\Local\Temp\ccGJK0AZ.s:1204   .text.HCD_HC_IN_IRQHandler:00000000 HCD_HC_IN_IRQHandler
C:\Users\HP\AppData\Local\Temp\ccGJK0AZ.s:1717   .text.HCD_HC_OUT_IRQHandler:00000000 $t
C:\Users\HP\AppData\Local\Temp\ccGJK0AZ.s:1722   .text.HCD_HC_OUT_IRQHandler:00000000 HCD_HC_OUT_IRQHandler
C:\Users\HP\AppData\Local\Temp\ccGJK0AZ.s:2232   .text.HAL_HCD_IRQHandler:00000000 $t
C:\Users\HP\AppData\Local\Temp\ccGJK0AZ.s:2238   .text.HAL_HCD_IRQHandler:00000000 HAL_HCD_IRQHandler
C:\Users\HP\AppData\Local\Temp\ccGJK0AZ.s:2511   .text.HAL_HCD_Start:00000000 $t
C:\Users\HP\AppData\Local\Temp\ccGJK0AZ.s:2517   .text.HAL_HCD_Start:00000000 HAL_HCD_Start
C:\Users\HP\AppData\Local\Temp\ccGJK0AZ.s:2574   .text.HAL_HCD_Stop:00000000 $t
C:\Users\HP\AppData\Local\Temp\ccGJK0AZ.s:2580   .text.HAL_HCD_Stop:00000000 HAL_HCD_Stop
C:\Users\HP\AppData\Local\Temp\ccGJK0AZ.s:2633   .text.HAL_HCD_ResetPort:00000000 $t
C:\Users\HP\AppData\Local\Temp\ccGJK0AZ.s:2639   .text.HAL_HCD_ResetPort:00000000 HAL_HCD_ResetPort
C:\Users\HP\AppData\Local\Temp\ccGJK0AZ.s:2665   .text.HAL_HCD_GetState:00000000 $t
C:\Users\HP\AppData\Local\Temp\ccGJK0AZ.s:2671   .text.HAL_HCD_GetState:00000000 HAL_HCD_GetState
C:\Users\HP\AppData\Local\Temp\ccGJK0AZ.s:2689   .text.HAL_HCD_HC_GetURBState:00000000 $t
C:\Users\HP\AppData\Local\Temp\ccGJK0AZ.s:2695   .text.HAL_HCD_HC_GetURBState:00000000 HAL_HCD_HC_GetURBState
C:\Users\HP\AppData\Local\Temp\ccGJK0AZ.s:2715   .text.HAL_HCD_HC_GetXferCount:00000000 $t
C:\Users\HP\AppData\Local\Temp\ccGJK0AZ.s:2721   .text.HAL_HCD_HC_GetXferCount:00000000 HAL_HCD_HC_GetXferCount
C:\Users\HP\AppData\Local\Temp\ccGJK0AZ.s:2741   .text.HAL_HCD_HC_GetState:00000000 $t
C:\Users\HP\AppData\Local\Temp\ccGJK0AZ.s:2747   .text.HAL_HCD_HC_GetState:00000000 HAL_HCD_HC_GetState
C:\Users\HP\AppData\Local\Temp\ccGJK0AZ.s:2767   .text.HAL_HCD_GetCurrentFrame:00000000 $t
C:\Users\HP\AppData\Local\Temp\ccGJK0AZ.s:2773   .text.HAL_HCD_GetCurrentFrame:00000000 HAL_HCD_GetCurrentFrame
C:\Users\HP\AppData\Local\Temp\ccGJK0AZ.s:2799   .text.HAL_HCD_GetCurrentSpeed:00000000 $t
ARM GAS  C:\Users\HP\AppData\Local\Temp\ccGJK0AZ.s 			page 95


C:\Users\HP\AppData\Local\Temp\ccGJK0AZ.s:2805   .text.HAL_HCD_GetCurrentSpeed:00000000 HAL_HCD_GetCurrentSpeed

UNDEFINED SYMBOLS
USB_ReadPacket
USB_HC_Init
USB_HC_Halt
USB_DisableGlobalInt
USB_CoreInit
USB_SetCurrentMode
USB_HostInit
USB_HC_StartXfer
USB_InitFSLSPClkSel
USB_GetMode
USB_ReadInterrupts
USB_HC_ReadInterrupt
USB_FlushTxFifo
USB_FlushRxFifo
USB_DriveVbus
USB_EnableGlobalInt
USB_StopHost
USB_ResetPort
USB_GetCurrentFrame
USB_GetHostSpeed
