ARM GAS  C:\Users\HP\AppData\Local\Temp\ccTBk3CI.s 			page 1


   1              		.cpu cortex-m4
   2              		.arch armv7e-m
   3              		.fpu fpv4-sp-d16
   4              		.eabi_attribute 27, 1
   5              		.eabi_attribute 28, 1
   6              		.eabi_attribute 20, 1
   7              		.eabi_attribute 21, 1
   8              		.eabi_attribute 23, 3
   9              		.eabi_attribute 24, 1
  10              		.eabi_attribute 25, 1
  11              		.eabi_attribute 26, 1
  12              		.eabi_attribute 30, 1
  13              		.eabi_attribute 34, 1
  14              		.eabi_attribute 18, 4
  15              		.file	"stm32l4xx_hal_pwr_ex.c"
  16              		.text
  17              	.Ltext0:
  18              		.cfi_sections	.debug_frame
  19              		.section	.text.HAL_PWREx_GetVoltageRange,"ax",%progbits
  20              		.align	1
  21              		.global	HAL_PWREx_GetVoltageRange
  22              		.syntax unified
  23              		.thumb
  24              		.thumb_func
  26              	HAL_PWREx_GetVoltageRange:
  27              	.LFB132:
  28              		.file 1 "Drivers/STM32L4xx_HAL_Driver/Src/stm32l4xx_hal_pwr_ex.c"
   1:Drivers/STM32L4xx_HAL_Driver/Src/stm32l4xx_hal_pwr_ex.c **** /**
   2:Drivers/STM32L4xx_HAL_Driver/Src/stm32l4xx_hal_pwr_ex.c ****   ******************************************************************************
   3:Drivers/STM32L4xx_HAL_Driver/Src/stm32l4xx_hal_pwr_ex.c ****   * @file    stm32l4xx_hal_pwr_ex.c
   4:Drivers/STM32L4xx_HAL_Driver/Src/stm32l4xx_hal_pwr_ex.c ****   * @author  MCD Application Team
   5:Drivers/STM32L4xx_HAL_Driver/Src/stm32l4xx_hal_pwr_ex.c ****   * @brief   Extended PWR HAL module driver.
   6:Drivers/STM32L4xx_HAL_Driver/Src/stm32l4xx_hal_pwr_ex.c ****   *          This file provides firmware functions to manage the following
   7:Drivers/STM32L4xx_HAL_Driver/Src/stm32l4xx_hal_pwr_ex.c ****   *          functionalities of the Power Controller (PWR) peripheral:
   8:Drivers/STM32L4xx_HAL_Driver/Src/stm32l4xx_hal_pwr_ex.c ****   *           + Extended Initialization and de-initialization functions
   9:Drivers/STM32L4xx_HAL_Driver/Src/stm32l4xx_hal_pwr_ex.c ****   *           + Extended Peripheral Control functions
  10:Drivers/STM32L4xx_HAL_Driver/Src/stm32l4xx_hal_pwr_ex.c ****   *
  11:Drivers/STM32L4xx_HAL_Driver/Src/stm32l4xx_hal_pwr_ex.c ****   ******************************************************************************
  12:Drivers/STM32L4xx_HAL_Driver/Src/stm32l4xx_hal_pwr_ex.c ****   * @attention
  13:Drivers/STM32L4xx_HAL_Driver/Src/stm32l4xx_hal_pwr_ex.c ****   *
  14:Drivers/STM32L4xx_HAL_Driver/Src/stm32l4xx_hal_pwr_ex.c ****   * Copyright (c) 2017 STMicroelectronics.
  15:Drivers/STM32L4xx_HAL_Driver/Src/stm32l4xx_hal_pwr_ex.c ****   * All rights reserved.
  16:Drivers/STM32L4xx_HAL_Driver/Src/stm32l4xx_hal_pwr_ex.c ****   *
  17:Drivers/STM32L4xx_HAL_Driver/Src/stm32l4xx_hal_pwr_ex.c ****   * This software is licensed under terms that can be found in the LICENSE file
  18:Drivers/STM32L4xx_HAL_Driver/Src/stm32l4xx_hal_pwr_ex.c ****   * in the root directory of this software component.
  19:Drivers/STM32L4xx_HAL_Driver/Src/stm32l4xx_hal_pwr_ex.c ****   * If no LICENSE file comes with this software, it is provided AS-IS.
  20:Drivers/STM32L4xx_HAL_Driver/Src/stm32l4xx_hal_pwr_ex.c ****   *
  21:Drivers/STM32L4xx_HAL_Driver/Src/stm32l4xx_hal_pwr_ex.c ****   ******************************************************************************
  22:Drivers/STM32L4xx_HAL_Driver/Src/stm32l4xx_hal_pwr_ex.c ****   */
  23:Drivers/STM32L4xx_HAL_Driver/Src/stm32l4xx_hal_pwr_ex.c **** 
  24:Drivers/STM32L4xx_HAL_Driver/Src/stm32l4xx_hal_pwr_ex.c **** /* Includes ------------------------------------------------------------------*/
  25:Drivers/STM32L4xx_HAL_Driver/Src/stm32l4xx_hal_pwr_ex.c **** #include "stm32l4xx_hal.h"
  26:Drivers/STM32L4xx_HAL_Driver/Src/stm32l4xx_hal_pwr_ex.c **** 
  27:Drivers/STM32L4xx_HAL_Driver/Src/stm32l4xx_hal_pwr_ex.c **** /** @addtogroup STM32L4xx_HAL_Driver
  28:Drivers/STM32L4xx_HAL_Driver/Src/stm32l4xx_hal_pwr_ex.c ****   * @{
  29:Drivers/STM32L4xx_HAL_Driver/Src/stm32l4xx_hal_pwr_ex.c ****   */
  30:Drivers/STM32L4xx_HAL_Driver/Src/stm32l4xx_hal_pwr_ex.c **** 
ARM GAS  C:\Users\HP\AppData\Local\Temp\ccTBk3CI.s 			page 2


  31:Drivers/STM32L4xx_HAL_Driver/Src/stm32l4xx_hal_pwr_ex.c **** /** @defgroup PWREx PWREx
  32:Drivers/STM32L4xx_HAL_Driver/Src/stm32l4xx_hal_pwr_ex.c ****   * @brief PWR Extended HAL module driver
  33:Drivers/STM32L4xx_HAL_Driver/Src/stm32l4xx_hal_pwr_ex.c ****   * @{
  34:Drivers/STM32L4xx_HAL_Driver/Src/stm32l4xx_hal_pwr_ex.c ****   */
  35:Drivers/STM32L4xx_HAL_Driver/Src/stm32l4xx_hal_pwr_ex.c **** 
  36:Drivers/STM32L4xx_HAL_Driver/Src/stm32l4xx_hal_pwr_ex.c **** #ifdef HAL_PWR_MODULE_ENABLED
  37:Drivers/STM32L4xx_HAL_Driver/Src/stm32l4xx_hal_pwr_ex.c **** 
  38:Drivers/STM32L4xx_HAL_Driver/Src/stm32l4xx_hal_pwr_ex.c **** /* Private typedef -----------------------------------------------------------*/
  39:Drivers/STM32L4xx_HAL_Driver/Src/stm32l4xx_hal_pwr_ex.c **** /* Private define ------------------------------------------------------------*/
  40:Drivers/STM32L4xx_HAL_Driver/Src/stm32l4xx_hal_pwr_ex.c **** 
  41:Drivers/STM32L4xx_HAL_Driver/Src/stm32l4xx_hal_pwr_ex.c **** #if defined (STM32L412xx) || defined (STM32L422xx) || defined (STM32L431xx) || defined (STM32L432xx
  42:Drivers/STM32L4xx_HAL_Driver/Src/stm32l4xx_hal_pwr_ex.c **** #define PWR_PORTH_AVAILABLE_PINS   ((uint32_t)0x0000000B) /* PH0/PH1/PH3 */
  43:Drivers/STM32L4xx_HAL_Driver/Src/stm32l4xx_hal_pwr_ex.c **** #elif defined (STM32L451xx) || defined (STM32L452xx) || defined (STM32L462xx)
  44:Drivers/STM32L4xx_HAL_Driver/Src/stm32l4xx_hal_pwr_ex.c **** #define PWR_PORTH_AVAILABLE_PINS   ((uint32_t)0x0000000B) /* PH0/PH1/PH3 */
  45:Drivers/STM32L4xx_HAL_Driver/Src/stm32l4xx_hal_pwr_ex.c **** #elif defined (STM32L471xx) || defined (STM32L475xx) || defined (STM32L476xx) || defined (STM32L485
  46:Drivers/STM32L4xx_HAL_Driver/Src/stm32l4xx_hal_pwr_ex.c **** #define PWR_PORTH_AVAILABLE_PINS   ((uint32_t)0x00000003) /* PH0/PH1 */
  47:Drivers/STM32L4xx_HAL_Driver/Src/stm32l4xx_hal_pwr_ex.c **** #elif defined (STM32L496xx) || defined (STM32L4A6xx) || defined (STM32L4P5xx) || defined (STM32L4Q5
  48:Drivers/STM32L4xx_HAL_Driver/Src/stm32l4xx_hal_pwr_ex.c **** #define PWR_PORTH_AVAILABLE_PINS   ((uint32_t)0x0000FFFF) /* PH0..PH15 */
  49:Drivers/STM32L4xx_HAL_Driver/Src/stm32l4xx_hal_pwr_ex.c **** #endif
  50:Drivers/STM32L4xx_HAL_Driver/Src/stm32l4xx_hal_pwr_ex.c **** 
  51:Drivers/STM32L4xx_HAL_Driver/Src/stm32l4xx_hal_pwr_ex.c **** #if defined (STM32L496xx) || defined (STM32L4A6xx) || defined (STM32L4P5xx) || defined (STM32L4Q5xx
  52:Drivers/STM32L4xx_HAL_Driver/Src/stm32l4xx_hal_pwr_ex.c **** #define PWR_PORTI_AVAILABLE_PINS   ((uint32_t)0x00000FFF) /* PI0..PI11 */
  53:Drivers/STM32L4xx_HAL_Driver/Src/stm32l4xx_hal_pwr_ex.c **** #endif
  54:Drivers/STM32L4xx_HAL_Driver/Src/stm32l4xx_hal_pwr_ex.c **** 
  55:Drivers/STM32L4xx_HAL_Driver/Src/stm32l4xx_hal_pwr_ex.c **** /** @defgroup PWR_Extended_Private_Defines PWR Extended Private Defines
  56:Drivers/STM32L4xx_HAL_Driver/Src/stm32l4xx_hal_pwr_ex.c ****   * @{
  57:Drivers/STM32L4xx_HAL_Driver/Src/stm32l4xx_hal_pwr_ex.c ****   */
  58:Drivers/STM32L4xx_HAL_Driver/Src/stm32l4xx_hal_pwr_ex.c **** 
  59:Drivers/STM32L4xx_HAL_Driver/Src/stm32l4xx_hal_pwr_ex.c **** /** @defgroup PWREx_PVM_Mode_Mask PWR PVM Mode Mask
  60:Drivers/STM32L4xx_HAL_Driver/Src/stm32l4xx_hal_pwr_ex.c ****   * @{
  61:Drivers/STM32L4xx_HAL_Driver/Src/stm32l4xx_hal_pwr_ex.c ****   */
  62:Drivers/STM32L4xx_HAL_Driver/Src/stm32l4xx_hal_pwr_ex.c **** #define PVM_MODE_IT               ((uint32_t)0x00010000)  /*!< Mask for interruption yielded by PVM
  63:Drivers/STM32L4xx_HAL_Driver/Src/stm32l4xx_hal_pwr_ex.c **** #define PVM_MODE_EVT              ((uint32_t)0x00020000)  /*!< Mask for event yielded by PVM thresh
  64:Drivers/STM32L4xx_HAL_Driver/Src/stm32l4xx_hal_pwr_ex.c **** #define PVM_RISING_EDGE           ((uint32_t)0x00000001)  /*!< Mask for rising edge set as PVM trig
  65:Drivers/STM32L4xx_HAL_Driver/Src/stm32l4xx_hal_pwr_ex.c **** #define PVM_FALLING_EDGE          ((uint32_t)0x00000002)  /*!< Mask for falling edge set as PVM tri
  66:Drivers/STM32L4xx_HAL_Driver/Src/stm32l4xx_hal_pwr_ex.c **** /**
  67:Drivers/STM32L4xx_HAL_Driver/Src/stm32l4xx_hal_pwr_ex.c ****   * @}
  68:Drivers/STM32L4xx_HAL_Driver/Src/stm32l4xx_hal_pwr_ex.c ****   */
  69:Drivers/STM32L4xx_HAL_Driver/Src/stm32l4xx_hal_pwr_ex.c **** 
  70:Drivers/STM32L4xx_HAL_Driver/Src/stm32l4xx_hal_pwr_ex.c **** /** @defgroup PWREx_TimeOut_Value PWR Extended Flag Setting Time Out Value
  71:Drivers/STM32L4xx_HAL_Driver/Src/stm32l4xx_hal_pwr_ex.c ****   * @{
  72:Drivers/STM32L4xx_HAL_Driver/Src/stm32l4xx_hal_pwr_ex.c ****   */
  73:Drivers/STM32L4xx_HAL_Driver/Src/stm32l4xx_hal_pwr_ex.c **** #define PWR_FLAG_SETTING_DELAY_US                      50UL   /*!< Time out value for REGLPF and VO
  74:Drivers/STM32L4xx_HAL_Driver/Src/stm32l4xx_hal_pwr_ex.c **** /**
  75:Drivers/STM32L4xx_HAL_Driver/Src/stm32l4xx_hal_pwr_ex.c ****   * @}
  76:Drivers/STM32L4xx_HAL_Driver/Src/stm32l4xx_hal_pwr_ex.c ****   */
  77:Drivers/STM32L4xx_HAL_Driver/Src/stm32l4xx_hal_pwr_ex.c **** 
  78:Drivers/STM32L4xx_HAL_Driver/Src/stm32l4xx_hal_pwr_ex.c **** 
  79:Drivers/STM32L4xx_HAL_Driver/Src/stm32l4xx_hal_pwr_ex.c **** 
  80:Drivers/STM32L4xx_HAL_Driver/Src/stm32l4xx_hal_pwr_ex.c **** /**
  81:Drivers/STM32L4xx_HAL_Driver/Src/stm32l4xx_hal_pwr_ex.c ****   * @}
  82:Drivers/STM32L4xx_HAL_Driver/Src/stm32l4xx_hal_pwr_ex.c ****   */
  83:Drivers/STM32L4xx_HAL_Driver/Src/stm32l4xx_hal_pwr_ex.c **** 
  84:Drivers/STM32L4xx_HAL_Driver/Src/stm32l4xx_hal_pwr_ex.c **** 
  85:Drivers/STM32L4xx_HAL_Driver/Src/stm32l4xx_hal_pwr_ex.c **** 
  86:Drivers/STM32L4xx_HAL_Driver/Src/stm32l4xx_hal_pwr_ex.c **** /* Private macro -------------------------------------------------------------*/
  87:Drivers/STM32L4xx_HAL_Driver/Src/stm32l4xx_hal_pwr_ex.c **** /* Private variables ---------------------------------------------------------*/
ARM GAS  C:\Users\HP\AppData\Local\Temp\ccTBk3CI.s 			page 3


  88:Drivers/STM32L4xx_HAL_Driver/Src/stm32l4xx_hal_pwr_ex.c **** /* Private function prototypes -----------------------------------------------*/
  89:Drivers/STM32L4xx_HAL_Driver/Src/stm32l4xx_hal_pwr_ex.c **** /* Exported functions --------------------------------------------------------*/
  90:Drivers/STM32L4xx_HAL_Driver/Src/stm32l4xx_hal_pwr_ex.c **** 
  91:Drivers/STM32L4xx_HAL_Driver/Src/stm32l4xx_hal_pwr_ex.c **** /** @defgroup PWREx_Exported_Functions PWR Extended Exported Functions
  92:Drivers/STM32L4xx_HAL_Driver/Src/stm32l4xx_hal_pwr_ex.c ****   * @{
  93:Drivers/STM32L4xx_HAL_Driver/Src/stm32l4xx_hal_pwr_ex.c ****   */
  94:Drivers/STM32L4xx_HAL_Driver/Src/stm32l4xx_hal_pwr_ex.c **** 
  95:Drivers/STM32L4xx_HAL_Driver/Src/stm32l4xx_hal_pwr_ex.c **** /** @defgroup PWREx_Exported_Functions_Group1 Extended Peripheral Control functions
  96:Drivers/STM32L4xx_HAL_Driver/Src/stm32l4xx_hal_pwr_ex.c ****   *  @brief   Extended Peripheral Control functions
  97:Drivers/STM32L4xx_HAL_Driver/Src/stm32l4xx_hal_pwr_ex.c ****   *
  98:Drivers/STM32L4xx_HAL_Driver/Src/stm32l4xx_hal_pwr_ex.c **** @verbatim
  99:Drivers/STM32L4xx_HAL_Driver/Src/stm32l4xx_hal_pwr_ex.c ****  ===============================================================================
 100:Drivers/STM32L4xx_HAL_Driver/Src/stm32l4xx_hal_pwr_ex.c ****               ##### Extended Peripheral Initialization and de-initialization functions #####
 101:Drivers/STM32L4xx_HAL_Driver/Src/stm32l4xx_hal_pwr_ex.c ****  ===============================================================================
 102:Drivers/STM32L4xx_HAL_Driver/Src/stm32l4xx_hal_pwr_ex.c ****     [..]
 103:Drivers/STM32L4xx_HAL_Driver/Src/stm32l4xx_hal_pwr_ex.c **** 
 104:Drivers/STM32L4xx_HAL_Driver/Src/stm32l4xx_hal_pwr_ex.c **** @endverbatim
 105:Drivers/STM32L4xx_HAL_Driver/Src/stm32l4xx_hal_pwr_ex.c ****   * @{
 106:Drivers/STM32L4xx_HAL_Driver/Src/stm32l4xx_hal_pwr_ex.c ****   */
 107:Drivers/STM32L4xx_HAL_Driver/Src/stm32l4xx_hal_pwr_ex.c **** 
 108:Drivers/STM32L4xx_HAL_Driver/Src/stm32l4xx_hal_pwr_ex.c **** 
 109:Drivers/STM32L4xx_HAL_Driver/Src/stm32l4xx_hal_pwr_ex.c **** /**
 110:Drivers/STM32L4xx_HAL_Driver/Src/stm32l4xx_hal_pwr_ex.c ****   * @brief Return Voltage Scaling Range.
 111:Drivers/STM32L4xx_HAL_Driver/Src/stm32l4xx_hal_pwr_ex.c ****   * @retval VOS bit field (PWR_REGULATOR_VOLTAGE_SCALE1 or PWR_REGULATOR_VOLTAGE_SCALE2
 112:Drivers/STM32L4xx_HAL_Driver/Src/stm32l4xx_hal_pwr_ex.c ****   *         or PWR_REGULATOR_VOLTAGE_SCALE1_BOOST when applicable)
 113:Drivers/STM32L4xx_HAL_Driver/Src/stm32l4xx_hal_pwr_ex.c ****   */
 114:Drivers/STM32L4xx_HAL_Driver/Src/stm32l4xx_hal_pwr_ex.c **** uint32_t HAL_PWREx_GetVoltageRange(void)
 115:Drivers/STM32L4xx_HAL_Driver/Src/stm32l4xx_hal_pwr_ex.c **** {
  29              		.loc 1 115 1 view -0
  30              		.cfi_startproc
  31              		@ args = 0, pretend = 0, frame = 0
  32              		@ frame_needed = 0, uses_anonymous_args = 0
  33              		@ link register save eliminated.
 116:Drivers/STM32L4xx_HAL_Driver/Src/stm32l4xx_hal_pwr_ex.c **** #if defined(PWR_CR5_R1MODE)
 117:Drivers/STM32L4xx_HAL_Driver/Src/stm32l4xx_hal_pwr_ex.c ****     if (READ_BIT(PWR->CR1, PWR_CR1_VOS) == PWR_REGULATOR_VOLTAGE_SCALE2)
  34              		.loc 1 117 5 view .LVU1
  35              		.loc 1 117 9 is_stmt 0 view .LVU2
  36 0000 074B     		ldr	r3, .L4
  37 0002 1868     		ldr	r0, [r3]
  38 0004 00F4C060 		and	r0, r0, #1536
  39              		.loc 1 117 8 view .LVU3
  40 0008 B0F5806F 		cmp	r0, #1024
  41 000c 04D0     		beq	.L1
 118:Drivers/STM32L4xx_HAL_Driver/Src/stm32l4xx_hal_pwr_ex.c ****     {
 119:Drivers/STM32L4xx_HAL_Driver/Src/stm32l4xx_hal_pwr_ex.c ****       return PWR_REGULATOR_VOLTAGE_SCALE2;
 120:Drivers/STM32L4xx_HAL_Driver/Src/stm32l4xx_hal_pwr_ex.c ****     }
 121:Drivers/STM32L4xx_HAL_Driver/Src/stm32l4xx_hal_pwr_ex.c ****     else if (READ_BIT(PWR->CR5, PWR_CR5_R1MODE) == PWR_CR5_R1MODE)
  42              		.loc 1 121 10 is_stmt 1 view .LVU4
  43              		.loc 1 121 14 is_stmt 0 view .LVU5
  44 000e D3F88000 		ldr	r0, [r3, #128]
  45              		.loc 1 121 13 view .LVU6
  46 0012 10F48070 		ands	r0, r0, #256
  47 0016 00D1     		bne	.L3
  48              	.L1:
 122:Drivers/STM32L4xx_HAL_Driver/Src/stm32l4xx_hal_pwr_ex.c ****     {
 123:Drivers/STM32L4xx_HAL_Driver/Src/stm32l4xx_hal_pwr_ex.c ****       /* PWR_CR5_R1MODE bit set means that Range 1 Boost is disabled */
 124:Drivers/STM32L4xx_HAL_Driver/Src/stm32l4xx_hal_pwr_ex.c ****       return PWR_REGULATOR_VOLTAGE_SCALE1;
ARM GAS  C:\Users\HP\AppData\Local\Temp\ccTBk3CI.s 			page 4


 125:Drivers/STM32L4xx_HAL_Driver/Src/stm32l4xx_hal_pwr_ex.c ****     }
 126:Drivers/STM32L4xx_HAL_Driver/Src/stm32l4xx_hal_pwr_ex.c ****     else
 127:Drivers/STM32L4xx_HAL_Driver/Src/stm32l4xx_hal_pwr_ex.c ****     {
 128:Drivers/STM32L4xx_HAL_Driver/Src/stm32l4xx_hal_pwr_ex.c ****       return PWR_REGULATOR_VOLTAGE_SCALE1_BOOST;
 129:Drivers/STM32L4xx_HAL_Driver/Src/stm32l4xx_hal_pwr_ex.c ****     }
 130:Drivers/STM32L4xx_HAL_Driver/Src/stm32l4xx_hal_pwr_ex.c **** #else
 131:Drivers/STM32L4xx_HAL_Driver/Src/stm32l4xx_hal_pwr_ex.c ****   return  (PWR->CR1 & PWR_CR1_VOS);
 132:Drivers/STM32L4xx_HAL_Driver/Src/stm32l4xx_hal_pwr_ex.c **** #endif
 133:Drivers/STM32L4xx_HAL_Driver/Src/stm32l4xx_hal_pwr_ex.c **** }
  49              		.loc 1 133 1 view .LVU7
  50 0018 7047     		bx	lr
  51              	.L3:
 124:Drivers/STM32L4xx_HAL_Driver/Src/stm32l4xx_hal_pwr_ex.c ****     }
  52              		.loc 1 124 14 view .LVU8
  53 001a 4FF40070 		mov	r0, #512
  54 001e FBE7     		b	.L1
  55              	.L5:
  56              		.align	2
  57              	.L4:
  58 0020 00700040 		.word	1073770496
  59              		.cfi_endproc
  60              	.LFE132:
  62              		.section	.text.HAL_PWREx_ControlVoltageScaling,"ax",%progbits
  63              		.align	1
  64              		.global	HAL_PWREx_ControlVoltageScaling
  65              		.syntax unified
  66              		.thumb
  67              		.thumb_func
  69              	HAL_PWREx_ControlVoltageScaling:
  70              	.LVL0:
  71              	.LFB133:
 134:Drivers/STM32L4xx_HAL_Driver/Src/stm32l4xx_hal_pwr_ex.c **** 
 135:Drivers/STM32L4xx_HAL_Driver/Src/stm32l4xx_hal_pwr_ex.c **** 
 136:Drivers/STM32L4xx_HAL_Driver/Src/stm32l4xx_hal_pwr_ex.c **** 
 137:Drivers/STM32L4xx_HAL_Driver/Src/stm32l4xx_hal_pwr_ex.c **** /**
 138:Drivers/STM32L4xx_HAL_Driver/Src/stm32l4xx_hal_pwr_ex.c ****   * @brief Configure the main internal regulator output voltage.
 139:Drivers/STM32L4xx_HAL_Driver/Src/stm32l4xx_hal_pwr_ex.c ****   * @param  VoltageScaling specifies the regulator output voltage to achieve
 140:Drivers/STM32L4xx_HAL_Driver/Src/stm32l4xx_hal_pwr_ex.c ****   *         a tradeoff between performance and power consumption.
 141:Drivers/STM32L4xx_HAL_Driver/Src/stm32l4xx_hal_pwr_ex.c ****   *          This parameter can be one of the following values:
 142:Drivers/STM32L4xx_HAL_Driver/Src/stm32l4xx_hal_pwr_ex.c ****   @if STM32L4S9xx
 143:Drivers/STM32L4xx_HAL_Driver/Src/stm32l4xx_hal_pwr_ex.c ****   *            @arg @ref PWR_REGULATOR_VOLTAGE_SCALE1_BOOST when available, Regulator voltage outpu
 144:Drivers/STM32L4xx_HAL_Driver/Src/stm32l4xx_hal_pwr_ex.c ****   *                                                typical output voltage at 1.2 V,
 145:Drivers/STM32L4xx_HAL_Driver/Src/stm32l4xx_hal_pwr_ex.c ****   *                                                system frequency up to 120 MHz.
 146:Drivers/STM32L4xx_HAL_Driver/Src/stm32l4xx_hal_pwr_ex.c ****   @endif
 147:Drivers/STM32L4xx_HAL_Driver/Src/stm32l4xx_hal_pwr_ex.c ****   *            @arg @ref PWR_REGULATOR_VOLTAGE_SCALE1 Regulator voltage output range 1 mode,
 148:Drivers/STM32L4xx_HAL_Driver/Src/stm32l4xx_hal_pwr_ex.c ****   *                                                typical output voltage at 1.2 V,
 149:Drivers/STM32L4xx_HAL_Driver/Src/stm32l4xx_hal_pwr_ex.c ****   *                                                system frequency up to 80 MHz.
 150:Drivers/STM32L4xx_HAL_Driver/Src/stm32l4xx_hal_pwr_ex.c ****   *            @arg @ref PWR_REGULATOR_VOLTAGE_SCALE2 Regulator voltage output range 2 mode,
 151:Drivers/STM32L4xx_HAL_Driver/Src/stm32l4xx_hal_pwr_ex.c ****   *                                                typical output voltage at 1.0 V,
 152:Drivers/STM32L4xx_HAL_Driver/Src/stm32l4xx_hal_pwr_ex.c ****   *                                                system frequency up to 26 MHz.
 153:Drivers/STM32L4xx_HAL_Driver/Src/stm32l4xx_hal_pwr_ex.c ****   * @note  When moving from Range 1 to Range 2, the system frequency must be decreased to
 154:Drivers/STM32L4xx_HAL_Driver/Src/stm32l4xx_hal_pwr_ex.c ****   *        a value below 26 MHz before calling HAL_PWREx_ControlVoltageScaling() API.
 155:Drivers/STM32L4xx_HAL_Driver/Src/stm32l4xx_hal_pwr_ex.c ****   *        When moving from Range 2 to Range 1, the system frequency can be increased to
 156:Drivers/STM32L4xx_HAL_Driver/Src/stm32l4xx_hal_pwr_ex.c ****   *        a value up to 80 MHz after calling HAL_PWREx_ControlVoltageScaling() API. For
 157:Drivers/STM32L4xx_HAL_Driver/Src/stm32l4xx_hal_pwr_ex.c ****   *        some devices, the system frequency can be increased up to 120 MHz.
 158:Drivers/STM32L4xx_HAL_Driver/Src/stm32l4xx_hal_pwr_ex.c ****   * @note  When moving from Range 2 to Range 1, the API waits for VOSF flag to be
 159:Drivers/STM32L4xx_HAL_Driver/Src/stm32l4xx_hal_pwr_ex.c ****   *        cleared before returning the status. If the flag is not cleared within
ARM GAS  C:\Users\HP\AppData\Local\Temp\ccTBk3CI.s 			page 5


 160:Drivers/STM32L4xx_HAL_Driver/Src/stm32l4xx_hal_pwr_ex.c ****   *        50 microseconds, HAL_TIMEOUT status is reported.
 161:Drivers/STM32L4xx_HAL_Driver/Src/stm32l4xx_hal_pwr_ex.c ****   * @retval HAL Status
 162:Drivers/STM32L4xx_HAL_Driver/Src/stm32l4xx_hal_pwr_ex.c ****   */
 163:Drivers/STM32L4xx_HAL_Driver/Src/stm32l4xx_hal_pwr_ex.c **** HAL_StatusTypeDef HAL_PWREx_ControlVoltageScaling(uint32_t VoltageScaling)
 164:Drivers/STM32L4xx_HAL_Driver/Src/stm32l4xx_hal_pwr_ex.c **** {
  72              		.loc 1 164 1 is_stmt 1 view -0
  73              		.cfi_startproc
  74              		@ args = 0, pretend = 0, frame = 0
  75              		@ frame_needed = 0, uses_anonymous_args = 0
  76              		@ link register save eliminated.
 165:Drivers/STM32L4xx_HAL_Driver/Src/stm32l4xx_hal_pwr_ex.c ****   uint32_t wait_loop_index;
  77              		.loc 1 165 3 view .LVU10
 166:Drivers/STM32L4xx_HAL_Driver/Src/stm32l4xx_hal_pwr_ex.c **** 
 167:Drivers/STM32L4xx_HAL_Driver/Src/stm32l4xx_hal_pwr_ex.c ****   assert_param(IS_PWR_VOLTAGE_SCALING_RANGE(VoltageScaling));
  78              		.loc 1 167 3 view .LVU11
 168:Drivers/STM32L4xx_HAL_Driver/Src/stm32l4xx_hal_pwr_ex.c **** 
 169:Drivers/STM32L4xx_HAL_Driver/Src/stm32l4xx_hal_pwr_ex.c **** #if defined(PWR_CR5_R1MODE)
 170:Drivers/STM32L4xx_HAL_Driver/Src/stm32l4xx_hal_pwr_ex.c ****   if (VoltageScaling == PWR_REGULATOR_VOLTAGE_SCALE1_BOOST)
  79              		.loc 1 170 3 view .LVU12
  80              		.loc 1 170 6 is_stmt 0 view .LVU13
  81 0000 0028     		cmp	r0, #0
  82 0002 36D1     		bne	.L7
 171:Drivers/STM32L4xx_HAL_Driver/Src/stm32l4xx_hal_pwr_ex.c ****   {
 172:Drivers/STM32L4xx_HAL_Driver/Src/stm32l4xx_hal_pwr_ex.c ****     /* If current range is range 2 */
 173:Drivers/STM32L4xx_HAL_Driver/Src/stm32l4xx_hal_pwr_ex.c ****     if (READ_BIT(PWR->CR1, PWR_CR1_VOS) == PWR_REGULATOR_VOLTAGE_SCALE2)
  83              		.loc 1 173 5 is_stmt 1 view .LVU14
  84              		.loc 1 173 9 is_stmt 0 view .LVU15
  85 0004 3E4B     		ldr	r3, .L23
  86 0006 1B68     		ldr	r3, [r3]
  87 0008 03F4C063 		and	r3, r3, #1536
  88              		.loc 1 173 8 view .LVU16
  89 000c B3F5806F 		cmp	r3, #1024
  90 0010 08D0     		beq	.L20
 174:Drivers/STM32L4xx_HAL_Driver/Src/stm32l4xx_hal_pwr_ex.c ****     {
 175:Drivers/STM32L4xx_HAL_Driver/Src/stm32l4xx_hal_pwr_ex.c ****       /* Make sure Range 1 Boost is enabled */
 176:Drivers/STM32L4xx_HAL_Driver/Src/stm32l4xx_hal_pwr_ex.c ****       CLEAR_BIT(PWR->CR5, PWR_CR5_R1MODE);
 177:Drivers/STM32L4xx_HAL_Driver/Src/stm32l4xx_hal_pwr_ex.c **** 
 178:Drivers/STM32L4xx_HAL_Driver/Src/stm32l4xx_hal_pwr_ex.c ****       /* Set Range 1 */
 179:Drivers/STM32L4xx_HAL_Driver/Src/stm32l4xx_hal_pwr_ex.c ****       MODIFY_REG(PWR->CR1, PWR_CR1_VOS, PWR_REGULATOR_VOLTAGE_SCALE1);
 180:Drivers/STM32L4xx_HAL_Driver/Src/stm32l4xx_hal_pwr_ex.c **** 
 181:Drivers/STM32L4xx_HAL_Driver/Src/stm32l4xx_hal_pwr_ex.c ****       /* Wait until VOSF is cleared */
 182:Drivers/STM32L4xx_HAL_Driver/Src/stm32l4xx_hal_pwr_ex.c ****       wait_loop_index = ((PWR_FLAG_SETTING_DELAY_US * SystemCoreClock) / 1000000U) + 1;
 183:Drivers/STM32L4xx_HAL_Driver/Src/stm32l4xx_hal_pwr_ex.c ****       while ((HAL_IS_BIT_SET(PWR->SR2, PWR_SR2_VOSF)) && (wait_loop_index != 0U))
 184:Drivers/STM32L4xx_HAL_Driver/Src/stm32l4xx_hal_pwr_ex.c ****       {
 185:Drivers/STM32L4xx_HAL_Driver/Src/stm32l4xx_hal_pwr_ex.c ****         wait_loop_index--;
 186:Drivers/STM32L4xx_HAL_Driver/Src/stm32l4xx_hal_pwr_ex.c ****       }
 187:Drivers/STM32L4xx_HAL_Driver/Src/stm32l4xx_hal_pwr_ex.c ****       if (HAL_IS_BIT_SET(PWR->SR2, PWR_SR2_VOSF))
 188:Drivers/STM32L4xx_HAL_Driver/Src/stm32l4xx_hal_pwr_ex.c ****       {
 189:Drivers/STM32L4xx_HAL_Driver/Src/stm32l4xx_hal_pwr_ex.c ****         return HAL_TIMEOUT;
 190:Drivers/STM32L4xx_HAL_Driver/Src/stm32l4xx_hal_pwr_ex.c ****       }
 191:Drivers/STM32L4xx_HAL_Driver/Src/stm32l4xx_hal_pwr_ex.c ****     }
 192:Drivers/STM32L4xx_HAL_Driver/Src/stm32l4xx_hal_pwr_ex.c ****     /* If current range is range 1 normal or boost mode */
 193:Drivers/STM32L4xx_HAL_Driver/Src/stm32l4xx_hal_pwr_ex.c ****     else
 194:Drivers/STM32L4xx_HAL_Driver/Src/stm32l4xx_hal_pwr_ex.c ****     {
 195:Drivers/STM32L4xx_HAL_Driver/Src/stm32l4xx_hal_pwr_ex.c ****       /* Enable Range 1 Boost (no issue if bit already reset) */
 196:Drivers/STM32L4xx_HAL_Driver/Src/stm32l4xx_hal_pwr_ex.c ****       CLEAR_BIT(PWR->CR5, PWR_CR5_R1MODE);
  91              		.loc 1 196 7 is_stmt 1 view .LVU17
ARM GAS  C:\Users\HP\AppData\Local\Temp\ccTBk3CI.s 			page 6


  92 0012 3B4A     		ldr	r2, .L23
  93 0014 D2F88030 		ldr	r3, [r2, #128]
  94 0018 23F48073 		bic	r3, r3, #256
  95 001c C2F88030 		str	r3, [r2, #128]
 197:Drivers/STM32L4xx_HAL_Driver/Src/stm32l4xx_hal_pwr_ex.c ****     }
 198:Drivers/STM32L4xx_HAL_Driver/Src/stm32l4xx_hal_pwr_ex.c ****   }
 199:Drivers/STM32L4xx_HAL_Driver/Src/stm32l4xx_hal_pwr_ex.c ****   else if (VoltageScaling == PWR_REGULATOR_VOLTAGE_SCALE1)
 200:Drivers/STM32L4xx_HAL_Driver/Src/stm32l4xx_hal_pwr_ex.c ****   {
 201:Drivers/STM32L4xx_HAL_Driver/Src/stm32l4xx_hal_pwr_ex.c ****     /* If current range is range 2 */
 202:Drivers/STM32L4xx_HAL_Driver/Src/stm32l4xx_hal_pwr_ex.c ****     if (READ_BIT(PWR->CR1, PWR_CR1_VOS) == PWR_REGULATOR_VOLTAGE_SCALE2)
 203:Drivers/STM32L4xx_HAL_Driver/Src/stm32l4xx_hal_pwr_ex.c ****     {
 204:Drivers/STM32L4xx_HAL_Driver/Src/stm32l4xx_hal_pwr_ex.c ****       /* Make sure Range 1 Boost is disabled */
 205:Drivers/STM32L4xx_HAL_Driver/Src/stm32l4xx_hal_pwr_ex.c ****       SET_BIT(PWR->CR5, PWR_CR5_R1MODE);
 206:Drivers/STM32L4xx_HAL_Driver/Src/stm32l4xx_hal_pwr_ex.c **** 
 207:Drivers/STM32L4xx_HAL_Driver/Src/stm32l4xx_hal_pwr_ex.c ****       /* Set Range 1 */
 208:Drivers/STM32L4xx_HAL_Driver/Src/stm32l4xx_hal_pwr_ex.c ****       MODIFY_REG(PWR->CR1, PWR_CR1_VOS, PWR_REGULATOR_VOLTAGE_SCALE1);
 209:Drivers/STM32L4xx_HAL_Driver/Src/stm32l4xx_hal_pwr_ex.c **** 
 210:Drivers/STM32L4xx_HAL_Driver/Src/stm32l4xx_hal_pwr_ex.c ****       /* Wait until VOSF is cleared */
 211:Drivers/STM32L4xx_HAL_Driver/Src/stm32l4xx_hal_pwr_ex.c ****       wait_loop_index = ((PWR_FLAG_SETTING_DELAY_US * SystemCoreClock) / 1000000U) + 1;
 212:Drivers/STM32L4xx_HAL_Driver/Src/stm32l4xx_hal_pwr_ex.c ****       while ((HAL_IS_BIT_SET(PWR->SR2, PWR_SR2_VOSF)) && (wait_loop_index != 0U))
 213:Drivers/STM32L4xx_HAL_Driver/Src/stm32l4xx_hal_pwr_ex.c ****       {
 214:Drivers/STM32L4xx_HAL_Driver/Src/stm32l4xx_hal_pwr_ex.c ****         wait_loop_index--;
 215:Drivers/STM32L4xx_HAL_Driver/Src/stm32l4xx_hal_pwr_ex.c ****       }
 216:Drivers/STM32L4xx_HAL_Driver/Src/stm32l4xx_hal_pwr_ex.c ****       if (HAL_IS_BIT_SET(PWR->SR2, PWR_SR2_VOSF))
 217:Drivers/STM32L4xx_HAL_Driver/Src/stm32l4xx_hal_pwr_ex.c ****       {
 218:Drivers/STM32L4xx_HAL_Driver/Src/stm32l4xx_hal_pwr_ex.c ****         return HAL_TIMEOUT;
 219:Drivers/STM32L4xx_HAL_Driver/Src/stm32l4xx_hal_pwr_ex.c ****       }
 220:Drivers/STM32L4xx_HAL_Driver/Src/stm32l4xx_hal_pwr_ex.c ****     }
 221:Drivers/STM32L4xx_HAL_Driver/Src/stm32l4xx_hal_pwr_ex.c ****      /* If current range is range 1 normal or boost mode */
 222:Drivers/STM32L4xx_HAL_Driver/Src/stm32l4xx_hal_pwr_ex.c ****     else
 223:Drivers/STM32L4xx_HAL_Driver/Src/stm32l4xx_hal_pwr_ex.c ****     {
 224:Drivers/STM32L4xx_HAL_Driver/Src/stm32l4xx_hal_pwr_ex.c ****       /* Disable Range 1 Boost (no issue if bit already set) */
 225:Drivers/STM32L4xx_HAL_Driver/Src/stm32l4xx_hal_pwr_ex.c ****       SET_BIT(PWR->CR5, PWR_CR5_R1MODE);
 226:Drivers/STM32L4xx_HAL_Driver/Src/stm32l4xx_hal_pwr_ex.c ****     }
 227:Drivers/STM32L4xx_HAL_Driver/Src/stm32l4xx_hal_pwr_ex.c ****   }
 228:Drivers/STM32L4xx_HAL_Driver/Src/stm32l4xx_hal_pwr_ex.c ****   else
 229:Drivers/STM32L4xx_HAL_Driver/Src/stm32l4xx_hal_pwr_ex.c ****   {
 230:Drivers/STM32L4xx_HAL_Driver/Src/stm32l4xx_hal_pwr_ex.c ****     /* Set Range 2 */
 231:Drivers/STM32L4xx_HAL_Driver/Src/stm32l4xx_hal_pwr_ex.c ****     MODIFY_REG(PWR->CR1, PWR_CR1_VOS, PWR_REGULATOR_VOLTAGE_SCALE2);
 232:Drivers/STM32L4xx_HAL_Driver/Src/stm32l4xx_hal_pwr_ex.c ****     /* No need to wait for VOSF to be cleared for this transition */
 233:Drivers/STM32L4xx_HAL_Driver/Src/stm32l4xx_hal_pwr_ex.c ****     /* PWR_CR5_R1MODE bit setting has no effect in Range 2        */
 234:Drivers/STM32L4xx_HAL_Driver/Src/stm32l4xx_hal_pwr_ex.c ****   }
 235:Drivers/STM32L4xx_HAL_Driver/Src/stm32l4xx_hal_pwr_ex.c **** 
 236:Drivers/STM32L4xx_HAL_Driver/Src/stm32l4xx_hal_pwr_ex.c **** #else
 237:Drivers/STM32L4xx_HAL_Driver/Src/stm32l4xx_hal_pwr_ex.c **** 
 238:Drivers/STM32L4xx_HAL_Driver/Src/stm32l4xx_hal_pwr_ex.c ****   /* If Set Range 1 */
 239:Drivers/STM32L4xx_HAL_Driver/Src/stm32l4xx_hal_pwr_ex.c ****   if (VoltageScaling == PWR_REGULATOR_VOLTAGE_SCALE1)
 240:Drivers/STM32L4xx_HAL_Driver/Src/stm32l4xx_hal_pwr_ex.c ****   {
 241:Drivers/STM32L4xx_HAL_Driver/Src/stm32l4xx_hal_pwr_ex.c ****     if (READ_BIT(PWR->CR1, PWR_CR1_VOS) != PWR_REGULATOR_VOLTAGE_SCALE1)
 242:Drivers/STM32L4xx_HAL_Driver/Src/stm32l4xx_hal_pwr_ex.c ****     {
 243:Drivers/STM32L4xx_HAL_Driver/Src/stm32l4xx_hal_pwr_ex.c ****       /* Set Range 1 */
 244:Drivers/STM32L4xx_HAL_Driver/Src/stm32l4xx_hal_pwr_ex.c ****       MODIFY_REG(PWR->CR1, PWR_CR1_VOS, PWR_REGULATOR_VOLTAGE_SCALE1);
 245:Drivers/STM32L4xx_HAL_Driver/Src/stm32l4xx_hal_pwr_ex.c **** 
 246:Drivers/STM32L4xx_HAL_Driver/Src/stm32l4xx_hal_pwr_ex.c ****       /* Wait until VOSF is cleared */
 247:Drivers/STM32L4xx_HAL_Driver/Src/stm32l4xx_hal_pwr_ex.c ****       wait_loop_index = ((PWR_FLAG_SETTING_DELAY_US * SystemCoreClock) / 1000000U) + 1U;
 248:Drivers/STM32L4xx_HAL_Driver/Src/stm32l4xx_hal_pwr_ex.c ****       while ((HAL_IS_BIT_SET(PWR->SR2, PWR_SR2_VOSF)) && (wait_loop_index != 0U))
 249:Drivers/STM32L4xx_HAL_Driver/Src/stm32l4xx_hal_pwr_ex.c ****       {
ARM GAS  C:\Users\HP\AppData\Local\Temp\ccTBk3CI.s 			page 7


 250:Drivers/STM32L4xx_HAL_Driver/Src/stm32l4xx_hal_pwr_ex.c ****         wait_loop_index--;
 251:Drivers/STM32L4xx_HAL_Driver/Src/stm32l4xx_hal_pwr_ex.c ****       }
 252:Drivers/STM32L4xx_HAL_Driver/Src/stm32l4xx_hal_pwr_ex.c ****       if (HAL_IS_BIT_SET(PWR->SR2, PWR_SR2_VOSF))
 253:Drivers/STM32L4xx_HAL_Driver/Src/stm32l4xx_hal_pwr_ex.c ****       {
 254:Drivers/STM32L4xx_HAL_Driver/Src/stm32l4xx_hal_pwr_ex.c ****         return HAL_TIMEOUT;
 255:Drivers/STM32L4xx_HAL_Driver/Src/stm32l4xx_hal_pwr_ex.c ****       }
 256:Drivers/STM32L4xx_HAL_Driver/Src/stm32l4xx_hal_pwr_ex.c ****     }
 257:Drivers/STM32L4xx_HAL_Driver/Src/stm32l4xx_hal_pwr_ex.c ****   }
 258:Drivers/STM32L4xx_HAL_Driver/Src/stm32l4xx_hal_pwr_ex.c ****   else
 259:Drivers/STM32L4xx_HAL_Driver/Src/stm32l4xx_hal_pwr_ex.c ****   {
 260:Drivers/STM32L4xx_HAL_Driver/Src/stm32l4xx_hal_pwr_ex.c ****     if (READ_BIT(PWR->CR1, PWR_CR1_VOS) != PWR_REGULATOR_VOLTAGE_SCALE2)
 261:Drivers/STM32L4xx_HAL_Driver/Src/stm32l4xx_hal_pwr_ex.c ****     {
 262:Drivers/STM32L4xx_HAL_Driver/Src/stm32l4xx_hal_pwr_ex.c ****       /* Set Range 2 */
 263:Drivers/STM32L4xx_HAL_Driver/Src/stm32l4xx_hal_pwr_ex.c ****       MODIFY_REG(PWR->CR1, PWR_CR1_VOS, PWR_REGULATOR_VOLTAGE_SCALE2);
 264:Drivers/STM32L4xx_HAL_Driver/Src/stm32l4xx_hal_pwr_ex.c ****       /* No need to wait for VOSF to be cleared for this transition */
 265:Drivers/STM32L4xx_HAL_Driver/Src/stm32l4xx_hal_pwr_ex.c ****     }
 266:Drivers/STM32L4xx_HAL_Driver/Src/stm32l4xx_hal_pwr_ex.c ****   }
 267:Drivers/STM32L4xx_HAL_Driver/Src/stm32l4xx_hal_pwr_ex.c **** #endif
 268:Drivers/STM32L4xx_HAL_Driver/Src/stm32l4xx_hal_pwr_ex.c **** 
 269:Drivers/STM32L4xx_HAL_Driver/Src/stm32l4xx_hal_pwr_ex.c ****   return HAL_OK;
  96              		.loc 1 269 10 is_stmt 0 view .LVU18
  97 0020 0020     		movs	r0, #0
  98              	.LVL1:
  99              		.loc 1 269 10 view .LVU19
 100 0022 7047     		bx	lr
 101              	.LVL2:
 102              	.L20:
 176:Drivers/STM32L4xx_HAL_Driver/Src/stm32l4xx_hal_pwr_ex.c **** 
 103              		.loc 1 176 7 is_stmt 1 view .LVU20
 104 0024 364A     		ldr	r2, .L23
 105 0026 D2F88030 		ldr	r3, [r2, #128]
 106 002a 23F48073 		bic	r3, r3, #256
 107 002e C2F88030 		str	r3, [r2, #128]
 179:Drivers/STM32L4xx_HAL_Driver/Src/stm32l4xx_hal_pwr_ex.c **** 
 108              		.loc 1 179 7 view .LVU21
 109 0032 1368     		ldr	r3, [r2]
 110 0034 23F4C063 		bic	r3, r3, #1536
 111 0038 43F40073 		orr	r3, r3, #512
 112 003c 1360     		str	r3, [r2]
 182:Drivers/STM32L4xx_HAL_Driver/Src/stm32l4xx_hal_pwr_ex.c ****       while ((HAL_IS_BIT_SET(PWR->SR2, PWR_SR2_VOSF)) && (wait_loop_index != 0U))
 113              		.loc 1 182 7 view .LVU22
 182:Drivers/STM32L4xx_HAL_Driver/Src/stm32l4xx_hal_pwr_ex.c ****       while ((HAL_IS_BIT_SET(PWR->SR2, PWR_SR2_VOSF)) && (wait_loop_index != 0U))
 114              		.loc 1 182 53 is_stmt 0 view .LVU23
 115 003e 314B     		ldr	r3, .L23+4
 116 0040 1B68     		ldr	r3, [r3]
 117 0042 3222     		movs	r2, #50
 118 0044 02FB03F3 		mul	r3, r2, r3
 182:Drivers/STM32L4xx_HAL_Driver/Src/stm32l4xx_hal_pwr_ex.c ****       while ((HAL_IS_BIT_SET(PWR->SR2, PWR_SR2_VOSF)) && (wait_loop_index != 0U))
 119              		.loc 1 182 72 view .LVU24
 120 0048 2F4A     		ldr	r2, .L23+8
 121 004a A2FB0323 		umull	r2, r3, r2, r3
 122 004e 9B0C     		lsrs	r3, r3, #18
 182:Drivers/STM32L4xx_HAL_Driver/Src/stm32l4xx_hal_pwr_ex.c ****       while ((HAL_IS_BIT_SET(PWR->SR2, PWR_SR2_VOSF)) && (wait_loop_index != 0U))
 123              		.loc 1 182 23 view .LVU25
 124 0050 0133     		adds	r3, r3, #1
 125              	.LVL3:
 183:Drivers/STM32L4xx_HAL_Driver/Src/stm32l4xx_hal_pwr_ex.c ****       {
ARM GAS  C:\Users\HP\AppData\Local\Temp\ccTBk3CI.s 			page 8


 126              		.loc 1 183 7 is_stmt 1 view .LVU26
 183:Drivers/STM32L4xx_HAL_Driver/Src/stm32l4xx_hal_pwr_ex.c ****       {
 127              		.loc 1 183 13 is_stmt 0 view .LVU27
 128 0052 00E0     		b	.L9
 129              	.L11:
 185:Drivers/STM32L4xx_HAL_Driver/Src/stm32l4xx_hal_pwr_ex.c ****       }
 130              		.loc 1 185 9 is_stmt 1 view .LVU28
 185:Drivers/STM32L4xx_HAL_Driver/Src/stm32l4xx_hal_pwr_ex.c ****       }
 131              		.loc 1 185 24 is_stmt 0 view .LVU29
 132 0054 013B     		subs	r3, r3, #1
 133              	.LVL4:
 134              	.L9:
 183:Drivers/STM32L4xx_HAL_Driver/Src/stm32l4xx_hal_pwr_ex.c ****       {
 135              		.loc 1 183 13 is_stmt 1 view .LVU30
 183:Drivers/STM32L4xx_HAL_Driver/Src/stm32l4xx_hal_pwr_ex.c ****       {
 136              		.loc 1 183 15 is_stmt 0 view .LVU31
 137 0056 2A4A     		ldr	r2, .L23
 138 0058 5269     		ldr	r2, [r2, #20]
 183:Drivers/STM32L4xx_HAL_Driver/Src/stm32l4xx_hal_pwr_ex.c ****       {
 139              		.loc 1 183 13 view .LVU32
 140 005a 12F4806F 		tst	r2, #1024
 141 005e 01D0     		beq	.L10
 183:Drivers/STM32L4xx_HAL_Driver/Src/stm32l4xx_hal_pwr_ex.c ****       {
 142              		.loc 1 183 55 discriminator 1 view .LVU33
 143 0060 002B     		cmp	r3, #0
 144 0062 F7D1     		bne	.L11
 145              	.L10:
 187:Drivers/STM32L4xx_HAL_Driver/Src/stm32l4xx_hal_pwr_ex.c ****       {
 146              		.loc 1 187 7 is_stmt 1 view .LVU34
 187:Drivers/STM32L4xx_HAL_Driver/Src/stm32l4xx_hal_pwr_ex.c ****       {
 147              		.loc 1 187 11 is_stmt 0 view .LVU35
 148 0064 264B     		ldr	r3, .L23
 149              	.LVL5:
 187:Drivers/STM32L4xx_HAL_Driver/Src/stm32l4xx_hal_pwr_ex.c ****       {
 150              		.loc 1 187 11 view .LVU36
 151 0066 5B69     		ldr	r3, [r3, #20]
 187:Drivers/STM32L4xx_HAL_Driver/Src/stm32l4xx_hal_pwr_ex.c ****       {
 152              		.loc 1 187 10 view .LVU37
 153 0068 13F4806F 		tst	r3, #1024
 154 006c 44D1     		bne	.L18
 155              		.loc 1 269 10 view .LVU38
 156 006e 0020     		movs	r0, #0
 157              	.LVL6:
 158              		.loc 1 269 10 view .LVU39
 159 0070 7047     		bx	lr
 160              	.LVL7:
 161              	.L7:
 199:Drivers/STM32L4xx_HAL_Driver/Src/stm32l4xx_hal_pwr_ex.c ****   {
 162              		.loc 1 199 8 is_stmt 1 view .LVU40
 199:Drivers/STM32L4xx_HAL_Driver/Src/stm32l4xx_hal_pwr_ex.c ****   {
 163              		.loc 1 199 11 is_stmt 0 view .LVU41
 164 0072 B0F5007F 		cmp	r0, #512
 165 0076 08D0     		beq	.L21
 231:Drivers/STM32L4xx_HAL_Driver/Src/stm32l4xx_hal_pwr_ex.c ****     /* No need to wait for VOSF to be cleared for this transition */
 166              		.loc 1 231 5 is_stmt 1 view .LVU42
 167 0078 214A     		ldr	r2, .L23
 168 007a 1368     		ldr	r3, [r2]
ARM GAS  C:\Users\HP\AppData\Local\Temp\ccTBk3CI.s 			page 9


 169 007c 23F4C063 		bic	r3, r3, #1536
 170 0080 43F48063 		orr	r3, r3, #1024
 171 0084 1360     		str	r3, [r2]
 172              		.loc 1 269 10 is_stmt 0 view .LVU43
 173 0086 0020     		movs	r0, #0
 174              	.LVL8:
 175              		.loc 1 269 10 view .LVU44
 176 0088 7047     		bx	lr
 177              	.LVL9:
 178              	.L21:
 202:Drivers/STM32L4xx_HAL_Driver/Src/stm32l4xx_hal_pwr_ex.c ****     {
 179              		.loc 1 202 5 is_stmt 1 view .LVU45
 202:Drivers/STM32L4xx_HAL_Driver/Src/stm32l4xx_hal_pwr_ex.c ****     {
 180              		.loc 1 202 9 is_stmt 0 view .LVU46
 181 008a 1D4B     		ldr	r3, .L23
 182 008c 1B68     		ldr	r3, [r3]
 183 008e 03F4C063 		and	r3, r3, #1536
 202:Drivers/STM32L4xx_HAL_Driver/Src/stm32l4xx_hal_pwr_ex.c ****     {
 184              		.loc 1 202 8 view .LVU47
 185 0092 B3F5806F 		cmp	r3, #1024
 186 0096 08D0     		beq	.L22
 225:Drivers/STM32L4xx_HAL_Driver/Src/stm32l4xx_hal_pwr_ex.c ****     }
 187              		.loc 1 225 7 is_stmt 1 view .LVU48
 188 0098 194A     		ldr	r2, .L23
 189 009a D2F88030 		ldr	r3, [r2, #128]
 190 009e 43F48073 		orr	r3, r3, #256
 191 00a2 C2F88030 		str	r3, [r2, #128]
 192              		.loc 1 269 10 is_stmt 0 view .LVU49
 193 00a6 0020     		movs	r0, #0
 194              	.LVL10:
 195              		.loc 1 269 10 view .LVU50
 196 00a8 7047     		bx	lr
 197              	.LVL11:
 198              	.L22:
 205:Drivers/STM32L4xx_HAL_Driver/Src/stm32l4xx_hal_pwr_ex.c **** 
 199              		.loc 1 205 7 is_stmt 1 view .LVU51
 200 00aa 154A     		ldr	r2, .L23
 201 00ac D2F88030 		ldr	r3, [r2, #128]
 202 00b0 43F48073 		orr	r3, r3, #256
 203 00b4 C2F88030 		str	r3, [r2, #128]
 208:Drivers/STM32L4xx_HAL_Driver/Src/stm32l4xx_hal_pwr_ex.c **** 
 204              		.loc 1 208 7 view .LVU52
 205 00b8 1368     		ldr	r3, [r2]
 206 00ba 23F4C063 		bic	r3, r3, #1536
 207 00be 43F40073 		orr	r3, r3, #512
 208 00c2 1360     		str	r3, [r2]
 211:Drivers/STM32L4xx_HAL_Driver/Src/stm32l4xx_hal_pwr_ex.c ****       while ((HAL_IS_BIT_SET(PWR->SR2, PWR_SR2_VOSF)) && (wait_loop_index != 0U))
 209              		.loc 1 211 7 view .LVU53
 211:Drivers/STM32L4xx_HAL_Driver/Src/stm32l4xx_hal_pwr_ex.c ****       while ((HAL_IS_BIT_SET(PWR->SR2, PWR_SR2_VOSF)) && (wait_loop_index != 0U))
 210              		.loc 1 211 53 is_stmt 0 view .LVU54
 211 00c4 0F4B     		ldr	r3, .L23+4
 212 00c6 1B68     		ldr	r3, [r3]
 213 00c8 3222     		movs	r2, #50
 214 00ca 02FB03F3 		mul	r3, r2, r3
 211:Drivers/STM32L4xx_HAL_Driver/Src/stm32l4xx_hal_pwr_ex.c ****       while ((HAL_IS_BIT_SET(PWR->SR2, PWR_SR2_VOSF)) && (wait_loop_index != 0U))
 215              		.loc 1 211 72 view .LVU55
 216 00ce 0E4A     		ldr	r2, .L23+8
ARM GAS  C:\Users\HP\AppData\Local\Temp\ccTBk3CI.s 			page 10


 217 00d0 A2FB0323 		umull	r2, r3, r2, r3
 218 00d4 9B0C     		lsrs	r3, r3, #18
 211:Drivers/STM32L4xx_HAL_Driver/Src/stm32l4xx_hal_pwr_ex.c ****       while ((HAL_IS_BIT_SET(PWR->SR2, PWR_SR2_VOSF)) && (wait_loop_index != 0U))
 219              		.loc 1 211 23 view .LVU56
 220 00d6 0133     		adds	r3, r3, #1
 221              	.LVL12:
 212:Drivers/STM32L4xx_HAL_Driver/Src/stm32l4xx_hal_pwr_ex.c ****       {
 222              		.loc 1 212 7 is_stmt 1 view .LVU57
 212:Drivers/STM32L4xx_HAL_Driver/Src/stm32l4xx_hal_pwr_ex.c ****       {
 223              		.loc 1 212 13 is_stmt 0 view .LVU58
 224 00d8 00E0     		b	.L15
 225              	.L17:
 214:Drivers/STM32L4xx_HAL_Driver/Src/stm32l4xx_hal_pwr_ex.c ****       }
 226              		.loc 1 214 9 is_stmt 1 view .LVU59
 214:Drivers/STM32L4xx_HAL_Driver/Src/stm32l4xx_hal_pwr_ex.c ****       }
 227              		.loc 1 214 24 is_stmt 0 view .LVU60
 228 00da 013B     		subs	r3, r3, #1
 229              	.LVL13:
 230              	.L15:
 212:Drivers/STM32L4xx_HAL_Driver/Src/stm32l4xx_hal_pwr_ex.c ****       {
 231              		.loc 1 212 13 is_stmt 1 view .LVU61
 212:Drivers/STM32L4xx_HAL_Driver/Src/stm32l4xx_hal_pwr_ex.c ****       {
 232              		.loc 1 212 15 is_stmt 0 view .LVU62
 233 00dc 084A     		ldr	r2, .L23
 234 00de 5269     		ldr	r2, [r2, #20]
 212:Drivers/STM32L4xx_HAL_Driver/Src/stm32l4xx_hal_pwr_ex.c ****       {
 235              		.loc 1 212 13 view .LVU63
 236 00e0 12F4806F 		tst	r2, #1024
 237 00e4 01D0     		beq	.L16
 212:Drivers/STM32L4xx_HAL_Driver/Src/stm32l4xx_hal_pwr_ex.c ****       {
 238              		.loc 1 212 55 discriminator 1 view .LVU64
 239 00e6 002B     		cmp	r3, #0
 240 00e8 F7D1     		bne	.L17
 241              	.L16:
 216:Drivers/STM32L4xx_HAL_Driver/Src/stm32l4xx_hal_pwr_ex.c ****       {
 242              		.loc 1 216 7 is_stmt 1 view .LVU65
 216:Drivers/STM32L4xx_HAL_Driver/Src/stm32l4xx_hal_pwr_ex.c ****       {
 243              		.loc 1 216 11 is_stmt 0 view .LVU66
 244 00ea 054B     		ldr	r3, .L23
 245              	.LVL14:
 216:Drivers/STM32L4xx_HAL_Driver/Src/stm32l4xx_hal_pwr_ex.c ****       {
 246              		.loc 1 216 11 view .LVU67
 247 00ec 5B69     		ldr	r3, [r3, #20]
 216:Drivers/STM32L4xx_HAL_Driver/Src/stm32l4xx_hal_pwr_ex.c ****       {
 248              		.loc 1 216 10 view .LVU68
 249 00ee 13F4806F 		tst	r3, #1024
 250 00f2 03D1     		bne	.L19
 251              		.loc 1 269 10 view .LVU69
 252 00f4 0020     		movs	r0, #0
 253              	.LVL15:
 254              		.loc 1 269 10 view .LVU70
 255 00f6 7047     		bx	lr
 256              	.LVL16:
 257              	.L18:
 189:Drivers/STM32L4xx_HAL_Driver/Src/stm32l4xx_hal_pwr_ex.c ****       }
 258              		.loc 1 189 16 view .LVU71
 259 00f8 0320     		movs	r0, #3
ARM GAS  C:\Users\HP\AppData\Local\Temp\ccTBk3CI.s 			page 11


 260              	.LVL17:
 189:Drivers/STM32L4xx_HAL_Driver/Src/stm32l4xx_hal_pwr_ex.c ****       }
 261              		.loc 1 189 16 view .LVU72
 262 00fa 7047     		bx	lr
 263              	.LVL18:
 264              	.L19:
 218:Drivers/STM32L4xx_HAL_Driver/Src/stm32l4xx_hal_pwr_ex.c ****       }
 265              		.loc 1 218 16 view .LVU73
 266 00fc 0320     		movs	r0, #3
 267              	.LVL19:
 270:Drivers/STM32L4xx_HAL_Driver/Src/stm32l4xx_hal_pwr_ex.c **** }
 268              		.loc 1 270 1 view .LVU74
 269 00fe 7047     		bx	lr
 270              	.L24:
 271              		.align	2
 272              	.L23:
 273 0100 00700040 		.word	1073770496
 274 0104 00000000 		.word	SystemCoreClock
 275 0108 83DE1B43 		.word	1125899907
 276              		.cfi_endproc
 277              	.LFE133:
 279              		.section	.text.HAL_PWREx_EnableBatteryCharging,"ax",%progbits
 280              		.align	1
 281              		.global	HAL_PWREx_EnableBatteryCharging
 282              		.syntax unified
 283              		.thumb
 284              		.thumb_func
 286              	HAL_PWREx_EnableBatteryCharging:
 287              	.LVL20:
 288              	.LFB134:
 271:Drivers/STM32L4xx_HAL_Driver/Src/stm32l4xx_hal_pwr_ex.c **** 
 272:Drivers/STM32L4xx_HAL_Driver/Src/stm32l4xx_hal_pwr_ex.c **** 
 273:Drivers/STM32L4xx_HAL_Driver/Src/stm32l4xx_hal_pwr_ex.c **** /**
 274:Drivers/STM32L4xx_HAL_Driver/Src/stm32l4xx_hal_pwr_ex.c ****   * @brief Enable battery charging.
 275:Drivers/STM32L4xx_HAL_Driver/Src/stm32l4xx_hal_pwr_ex.c ****   *        When VDD is present, charge the external battery on VBAT thru an internal resistor.
 276:Drivers/STM32L4xx_HAL_Driver/Src/stm32l4xx_hal_pwr_ex.c ****   * @param  ResistorSelection specifies the resistor impedance.
 277:Drivers/STM32L4xx_HAL_Driver/Src/stm32l4xx_hal_pwr_ex.c ****   *          This parameter can be one of the following values:
 278:Drivers/STM32L4xx_HAL_Driver/Src/stm32l4xx_hal_pwr_ex.c ****   *            @arg @ref PWR_BATTERY_CHARGING_RESISTOR_5     5 kOhms resistor
 279:Drivers/STM32L4xx_HAL_Driver/Src/stm32l4xx_hal_pwr_ex.c ****   *            @arg @ref PWR_BATTERY_CHARGING_RESISTOR_1_5 1.5 kOhms resistor
 280:Drivers/STM32L4xx_HAL_Driver/Src/stm32l4xx_hal_pwr_ex.c ****   * @retval None
 281:Drivers/STM32L4xx_HAL_Driver/Src/stm32l4xx_hal_pwr_ex.c ****   */
 282:Drivers/STM32L4xx_HAL_Driver/Src/stm32l4xx_hal_pwr_ex.c **** void HAL_PWREx_EnableBatteryCharging(uint32_t ResistorSelection)
 283:Drivers/STM32L4xx_HAL_Driver/Src/stm32l4xx_hal_pwr_ex.c **** {
 289              		.loc 1 283 1 is_stmt 1 view -0
 290              		.cfi_startproc
 291              		@ args = 0, pretend = 0, frame = 0
 292              		@ frame_needed = 0, uses_anonymous_args = 0
 293              		@ link register save eliminated.
 284:Drivers/STM32L4xx_HAL_Driver/Src/stm32l4xx_hal_pwr_ex.c ****   assert_param(IS_PWR_BATTERY_RESISTOR_SELECT(ResistorSelection));
 294              		.loc 1 284 3 view .LVU76
 285:Drivers/STM32L4xx_HAL_Driver/Src/stm32l4xx_hal_pwr_ex.c **** 
 286:Drivers/STM32L4xx_HAL_Driver/Src/stm32l4xx_hal_pwr_ex.c ****   /* Specify resistor selection */
 287:Drivers/STM32L4xx_HAL_Driver/Src/stm32l4xx_hal_pwr_ex.c ****   MODIFY_REG(PWR->CR4, PWR_CR4_VBRS, ResistorSelection);
 295              		.loc 1 287 3 view .LVU77
 296 0000 054A     		ldr	r2, .L26
 297 0002 D368     		ldr	r3, [r2, #12]
 298 0004 23F40073 		bic	r3, r3, #512
ARM GAS  C:\Users\HP\AppData\Local\Temp\ccTBk3CI.s 			page 12


 299 0008 0343     		orrs	r3, r3, r0
 300 000a D360     		str	r3, [r2, #12]
 288:Drivers/STM32L4xx_HAL_Driver/Src/stm32l4xx_hal_pwr_ex.c **** 
 289:Drivers/STM32L4xx_HAL_Driver/Src/stm32l4xx_hal_pwr_ex.c ****   /* Enable battery charging */
 290:Drivers/STM32L4xx_HAL_Driver/Src/stm32l4xx_hal_pwr_ex.c ****   SET_BIT(PWR->CR4, PWR_CR4_VBE);
 301              		.loc 1 290 3 view .LVU78
 302 000c D368     		ldr	r3, [r2, #12]
 303 000e 43F48073 		orr	r3, r3, #256
 304 0012 D360     		str	r3, [r2, #12]
 291:Drivers/STM32L4xx_HAL_Driver/Src/stm32l4xx_hal_pwr_ex.c **** }
 305              		.loc 1 291 1 is_stmt 0 view .LVU79
 306 0014 7047     		bx	lr
 307              	.L27:
 308 0016 00BF     		.align	2
 309              	.L26:
 310 0018 00700040 		.word	1073770496
 311              		.cfi_endproc
 312              	.LFE134:
 314              		.section	.text.HAL_PWREx_DisableBatteryCharging,"ax",%progbits
 315              		.align	1
 316              		.global	HAL_PWREx_DisableBatteryCharging
 317              		.syntax unified
 318              		.thumb
 319              		.thumb_func
 321              	HAL_PWREx_DisableBatteryCharging:
 322              	.LFB135:
 292:Drivers/STM32L4xx_HAL_Driver/Src/stm32l4xx_hal_pwr_ex.c **** 
 293:Drivers/STM32L4xx_HAL_Driver/Src/stm32l4xx_hal_pwr_ex.c **** 
 294:Drivers/STM32L4xx_HAL_Driver/Src/stm32l4xx_hal_pwr_ex.c **** /**
 295:Drivers/STM32L4xx_HAL_Driver/Src/stm32l4xx_hal_pwr_ex.c ****   * @brief Disable battery charging.
 296:Drivers/STM32L4xx_HAL_Driver/Src/stm32l4xx_hal_pwr_ex.c ****   * @retval None
 297:Drivers/STM32L4xx_HAL_Driver/Src/stm32l4xx_hal_pwr_ex.c ****   */
 298:Drivers/STM32L4xx_HAL_Driver/Src/stm32l4xx_hal_pwr_ex.c **** void HAL_PWREx_DisableBatteryCharging(void)
 299:Drivers/STM32L4xx_HAL_Driver/Src/stm32l4xx_hal_pwr_ex.c **** {
 323              		.loc 1 299 1 is_stmt 1 view -0
 324              		.cfi_startproc
 325              		@ args = 0, pretend = 0, frame = 0
 326              		@ frame_needed = 0, uses_anonymous_args = 0
 327              		@ link register save eliminated.
 300:Drivers/STM32L4xx_HAL_Driver/Src/stm32l4xx_hal_pwr_ex.c ****   CLEAR_BIT(PWR->CR4, PWR_CR4_VBE);
 328              		.loc 1 300 3 view .LVU81
 329 0000 024A     		ldr	r2, .L29
 330 0002 D368     		ldr	r3, [r2, #12]
 331 0004 23F48073 		bic	r3, r3, #256
 332 0008 D360     		str	r3, [r2, #12]
 301:Drivers/STM32L4xx_HAL_Driver/Src/stm32l4xx_hal_pwr_ex.c **** }
 333              		.loc 1 301 1 is_stmt 0 view .LVU82
 334 000a 7047     		bx	lr
 335              	.L30:
 336              		.align	2
 337              	.L29:
 338 000c 00700040 		.word	1073770496
 339              		.cfi_endproc
 340              	.LFE135:
 342              		.section	.text.HAL_PWREx_EnableVddUSB,"ax",%progbits
 343              		.align	1
 344              		.global	HAL_PWREx_EnableVddUSB
ARM GAS  C:\Users\HP\AppData\Local\Temp\ccTBk3CI.s 			page 13


 345              		.syntax unified
 346              		.thumb
 347              		.thumb_func
 349              	HAL_PWREx_EnableVddUSB:
 350              	.LFB136:
 302:Drivers/STM32L4xx_HAL_Driver/Src/stm32l4xx_hal_pwr_ex.c **** 
 303:Drivers/STM32L4xx_HAL_Driver/Src/stm32l4xx_hal_pwr_ex.c **** 
 304:Drivers/STM32L4xx_HAL_Driver/Src/stm32l4xx_hal_pwr_ex.c **** #if defined(PWR_CR2_USV)
 305:Drivers/STM32L4xx_HAL_Driver/Src/stm32l4xx_hal_pwr_ex.c **** /**
 306:Drivers/STM32L4xx_HAL_Driver/Src/stm32l4xx_hal_pwr_ex.c ****   * @brief Enable VDDUSB supply.
 307:Drivers/STM32L4xx_HAL_Driver/Src/stm32l4xx_hal_pwr_ex.c ****   * @note  Remove VDDUSB electrical and logical isolation, once VDDUSB supply is present.
 308:Drivers/STM32L4xx_HAL_Driver/Src/stm32l4xx_hal_pwr_ex.c ****   * @retval None
 309:Drivers/STM32L4xx_HAL_Driver/Src/stm32l4xx_hal_pwr_ex.c ****   */
 310:Drivers/STM32L4xx_HAL_Driver/Src/stm32l4xx_hal_pwr_ex.c **** void HAL_PWREx_EnableVddUSB(void)
 311:Drivers/STM32L4xx_HAL_Driver/Src/stm32l4xx_hal_pwr_ex.c **** {
 351              		.loc 1 311 1 is_stmt 1 view -0
 352              		.cfi_startproc
 353              		@ args = 0, pretend = 0, frame = 0
 354              		@ frame_needed = 0, uses_anonymous_args = 0
 355              		@ link register save eliminated.
 312:Drivers/STM32L4xx_HAL_Driver/Src/stm32l4xx_hal_pwr_ex.c ****   SET_BIT(PWR->CR2, PWR_CR2_USV);
 356              		.loc 1 312 3 view .LVU84
 357 0000 024A     		ldr	r2, .L32
 358 0002 5368     		ldr	r3, [r2, #4]
 359 0004 43F48063 		orr	r3, r3, #1024
 360 0008 5360     		str	r3, [r2, #4]
 313:Drivers/STM32L4xx_HAL_Driver/Src/stm32l4xx_hal_pwr_ex.c **** }
 361              		.loc 1 313 1 is_stmt 0 view .LVU85
 362 000a 7047     		bx	lr
 363              	.L33:
 364              		.align	2
 365              	.L32:
 366 000c 00700040 		.word	1073770496
 367              		.cfi_endproc
 368              	.LFE136:
 370              		.section	.text.HAL_PWREx_DisableVddUSB,"ax",%progbits
 371              		.align	1
 372              		.global	HAL_PWREx_DisableVddUSB
 373              		.syntax unified
 374              		.thumb
 375              		.thumb_func
 377              	HAL_PWREx_DisableVddUSB:
 378              	.LFB137:
 314:Drivers/STM32L4xx_HAL_Driver/Src/stm32l4xx_hal_pwr_ex.c **** 
 315:Drivers/STM32L4xx_HAL_Driver/Src/stm32l4xx_hal_pwr_ex.c **** 
 316:Drivers/STM32L4xx_HAL_Driver/Src/stm32l4xx_hal_pwr_ex.c **** /**
 317:Drivers/STM32L4xx_HAL_Driver/Src/stm32l4xx_hal_pwr_ex.c ****   * @brief Disable VDDUSB supply.
 318:Drivers/STM32L4xx_HAL_Driver/Src/stm32l4xx_hal_pwr_ex.c ****   * @retval None
 319:Drivers/STM32L4xx_HAL_Driver/Src/stm32l4xx_hal_pwr_ex.c ****   */
 320:Drivers/STM32L4xx_HAL_Driver/Src/stm32l4xx_hal_pwr_ex.c **** void HAL_PWREx_DisableVddUSB(void)
 321:Drivers/STM32L4xx_HAL_Driver/Src/stm32l4xx_hal_pwr_ex.c **** {
 379              		.loc 1 321 1 is_stmt 1 view -0
 380              		.cfi_startproc
 381              		@ args = 0, pretend = 0, frame = 0
 382              		@ frame_needed = 0, uses_anonymous_args = 0
 383              		@ link register save eliminated.
 322:Drivers/STM32L4xx_HAL_Driver/Src/stm32l4xx_hal_pwr_ex.c ****   CLEAR_BIT(PWR->CR2, PWR_CR2_USV);
ARM GAS  C:\Users\HP\AppData\Local\Temp\ccTBk3CI.s 			page 14


 384              		.loc 1 322 3 view .LVU87
 385 0000 024A     		ldr	r2, .L35
 386 0002 5368     		ldr	r3, [r2, #4]
 387 0004 23F48063 		bic	r3, r3, #1024
 388 0008 5360     		str	r3, [r2, #4]
 323:Drivers/STM32L4xx_HAL_Driver/Src/stm32l4xx_hal_pwr_ex.c **** }
 389              		.loc 1 323 1 is_stmt 0 view .LVU88
 390 000a 7047     		bx	lr
 391              	.L36:
 392              		.align	2
 393              	.L35:
 394 000c 00700040 		.word	1073770496
 395              		.cfi_endproc
 396              	.LFE137:
 398              		.section	.text.HAL_PWREx_EnableVddIO2,"ax",%progbits
 399              		.align	1
 400              		.global	HAL_PWREx_EnableVddIO2
 401              		.syntax unified
 402              		.thumb
 403              		.thumb_func
 405              	HAL_PWREx_EnableVddIO2:
 406              	.LFB138:
 324:Drivers/STM32L4xx_HAL_Driver/Src/stm32l4xx_hal_pwr_ex.c **** #endif /* PWR_CR2_USV */
 325:Drivers/STM32L4xx_HAL_Driver/Src/stm32l4xx_hal_pwr_ex.c **** 
 326:Drivers/STM32L4xx_HAL_Driver/Src/stm32l4xx_hal_pwr_ex.c **** #if defined(PWR_CR2_IOSV)
 327:Drivers/STM32L4xx_HAL_Driver/Src/stm32l4xx_hal_pwr_ex.c **** /**
 328:Drivers/STM32L4xx_HAL_Driver/Src/stm32l4xx_hal_pwr_ex.c ****   * @brief Enable VDDIO2 supply.
 329:Drivers/STM32L4xx_HAL_Driver/Src/stm32l4xx_hal_pwr_ex.c ****   * @note  Remove VDDIO2 electrical and logical isolation, once VDDIO2 supply is present.
 330:Drivers/STM32L4xx_HAL_Driver/Src/stm32l4xx_hal_pwr_ex.c ****   * @retval None
 331:Drivers/STM32L4xx_HAL_Driver/Src/stm32l4xx_hal_pwr_ex.c ****   */
 332:Drivers/STM32L4xx_HAL_Driver/Src/stm32l4xx_hal_pwr_ex.c **** void HAL_PWREx_EnableVddIO2(void)
 333:Drivers/STM32L4xx_HAL_Driver/Src/stm32l4xx_hal_pwr_ex.c **** {
 407              		.loc 1 333 1 is_stmt 1 view -0
 408              		.cfi_startproc
 409              		@ args = 0, pretend = 0, frame = 0
 410              		@ frame_needed = 0, uses_anonymous_args = 0
 411              		@ link register save eliminated.
 334:Drivers/STM32L4xx_HAL_Driver/Src/stm32l4xx_hal_pwr_ex.c ****   SET_BIT(PWR->CR2, PWR_CR2_IOSV);
 412              		.loc 1 334 3 view .LVU90
 413 0000 024A     		ldr	r2, .L38
 414 0002 5368     		ldr	r3, [r2, #4]
 415 0004 43F40073 		orr	r3, r3, #512
 416 0008 5360     		str	r3, [r2, #4]
 335:Drivers/STM32L4xx_HAL_Driver/Src/stm32l4xx_hal_pwr_ex.c **** }
 417              		.loc 1 335 1 is_stmt 0 view .LVU91
 418 000a 7047     		bx	lr
 419              	.L39:
 420              		.align	2
 421              	.L38:
 422 000c 00700040 		.word	1073770496
 423              		.cfi_endproc
 424              	.LFE138:
 426              		.section	.text.HAL_PWREx_DisableVddIO2,"ax",%progbits
 427              		.align	1
 428              		.global	HAL_PWREx_DisableVddIO2
 429              		.syntax unified
 430              		.thumb
ARM GAS  C:\Users\HP\AppData\Local\Temp\ccTBk3CI.s 			page 15


 431              		.thumb_func
 433              	HAL_PWREx_DisableVddIO2:
 434              	.LFB139:
 336:Drivers/STM32L4xx_HAL_Driver/Src/stm32l4xx_hal_pwr_ex.c **** 
 337:Drivers/STM32L4xx_HAL_Driver/Src/stm32l4xx_hal_pwr_ex.c **** 
 338:Drivers/STM32L4xx_HAL_Driver/Src/stm32l4xx_hal_pwr_ex.c **** /**
 339:Drivers/STM32L4xx_HAL_Driver/Src/stm32l4xx_hal_pwr_ex.c ****   * @brief Disable VDDIO2 supply.
 340:Drivers/STM32L4xx_HAL_Driver/Src/stm32l4xx_hal_pwr_ex.c ****   * @retval None
 341:Drivers/STM32L4xx_HAL_Driver/Src/stm32l4xx_hal_pwr_ex.c ****   */
 342:Drivers/STM32L4xx_HAL_Driver/Src/stm32l4xx_hal_pwr_ex.c **** void HAL_PWREx_DisableVddIO2(void)
 343:Drivers/STM32L4xx_HAL_Driver/Src/stm32l4xx_hal_pwr_ex.c **** {
 435              		.loc 1 343 1 is_stmt 1 view -0
 436              		.cfi_startproc
 437              		@ args = 0, pretend = 0, frame = 0
 438              		@ frame_needed = 0, uses_anonymous_args = 0
 439              		@ link register save eliminated.
 344:Drivers/STM32L4xx_HAL_Driver/Src/stm32l4xx_hal_pwr_ex.c ****   CLEAR_BIT(PWR->CR2, PWR_CR2_IOSV);
 440              		.loc 1 344 3 view .LVU93
 441 0000 024A     		ldr	r2, .L41
 442 0002 5368     		ldr	r3, [r2, #4]
 443 0004 23F40073 		bic	r3, r3, #512
 444 0008 5360     		str	r3, [r2, #4]
 345:Drivers/STM32L4xx_HAL_Driver/Src/stm32l4xx_hal_pwr_ex.c **** }
 445              		.loc 1 345 1 is_stmt 0 view .LVU94
 446 000a 7047     		bx	lr
 447              	.L42:
 448              		.align	2
 449              	.L41:
 450 000c 00700040 		.word	1073770496
 451              		.cfi_endproc
 452              	.LFE139:
 454              		.section	.text.HAL_PWREx_EnableInternalWakeUpLine,"ax",%progbits
 455              		.align	1
 456              		.global	HAL_PWREx_EnableInternalWakeUpLine
 457              		.syntax unified
 458              		.thumb
 459              		.thumb_func
 461              	HAL_PWREx_EnableInternalWakeUpLine:
 462              	.LFB140:
 346:Drivers/STM32L4xx_HAL_Driver/Src/stm32l4xx_hal_pwr_ex.c **** #endif /* PWR_CR2_IOSV */
 347:Drivers/STM32L4xx_HAL_Driver/Src/stm32l4xx_hal_pwr_ex.c **** 
 348:Drivers/STM32L4xx_HAL_Driver/Src/stm32l4xx_hal_pwr_ex.c **** 
 349:Drivers/STM32L4xx_HAL_Driver/Src/stm32l4xx_hal_pwr_ex.c **** /**
 350:Drivers/STM32L4xx_HAL_Driver/Src/stm32l4xx_hal_pwr_ex.c ****   * @brief Enable Internal Wake-up Line.
 351:Drivers/STM32L4xx_HAL_Driver/Src/stm32l4xx_hal_pwr_ex.c ****   * @retval None
 352:Drivers/STM32L4xx_HAL_Driver/Src/stm32l4xx_hal_pwr_ex.c ****   */
 353:Drivers/STM32L4xx_HAL_Driver/Src/stm32l4xx_hal_pwr_ex.c **** void HAL_PWREx_EnableInternalWakeUpLine(void)
 354:Drivers/STM32L4xx_HAL_Driver/Src/stm32l4xx_hal_pwr_ex.c **** {
 463              		.loc 1 354 1 is_stmt 1 view -0
 464              		.cfi_startproc
 465              		@ args = 0, pretend = 0, frame = 0
 466              		@ frame_needed = 0, uses_anonymous_args = 0
 467              		@ link register save eliminated.
 355:Drivers/STM32L4xx_HAL_Driver/Src/stm32l4xx_hal_pwr_ex.c ****   SET_BIT(PWR->CR3, PWR_CR3_EIWF);
 468              		.loc 1 355 3 view .LVU96
 469 0000 024A     		ldr	r2, .L44
 470 0002 9368     		ldr	r3, [r2, #8]
ARM GAS  C:\Users\HP\AppData\Local\Temp\ccTBk3CI.s 			page 16


 471 0004 43F40043 		orr	r3, r3, #32768
 472 0008 9360     		str	r3, [r2, #8]
 356:Drivers/STM32L4xx_HAL_Driver/Src/stm32l4xx_hal_pwr_ex.c **** }
 473              		.loc 1 356 1 is_stmt 0 view .LVU97
 474 000a 7047     		bx	lr
 475              	.L45:
 476              		.align	2
 477              	.L44:
 478 000c 00700040 		.word	1073770496
 479              		.cfi_endproc
 480              	.LFE140:
 482              		.section	.text.HAL_PWREx_DisableInternalWakeUpLine,"ax",%progbits
 483              		.align	1
 484              		.global	HAL_PWREx_DisableInternalWakeUpLine
 485              		.syntax unified
 486              		.thumb
 487              		.thumb_func
 489              	HAL_PWREx_DisableInternalWakeUpLine:
 490              	.LFB141:
 357:Drivers/STM32L4xx_HAL_Driver/Src/stm32l4xx_hal_pwr_ex.c **** 
 358:Drivers/STM32L4xx_HAL_Driver/Src/stm32l4xx_hal_pwr_ex.c **** 
 359:Drivers/STM32L4xx_HAL_Driver/Src/stm32l4xx_hal_pwr_ex.c **** /**
 360:Drivers/STM32L4xx_HAL_Driver/Src/stm32l4xx_hal_pwr_ex.c ****   * @brief Disable Internal Wake-up Line.
 361:Drivers/STM32L4xx_HAL_Driver/Src/stm32l4xx_hal_pwr_ex.c ****   * @retval None
 362:Drivers/STM32L4xx_HAL_Driver/Src/stm32l4xx_hal_pwr_ex.c ****   */
 363:Drivers/STM32L4xx_HAL_Driver/Src/stm32l4xx_hal_pwr_ex.c **** void HAL_PWREx_DisableInternalWakeUpLine(void)
 364:Drivers/STM32L4xx_HAL_Driver/Src/stm32l4xx_hal_pwr_ex.c **** {
 491              		.loc 1 364 1 is_stmt 1 view -0
 492              		.cfi_startproc
 493              		@ args = 0, pretend = 0, frame = 0
 494              		@ frame_needed = 0, uses_anonymous_args = 0
 495              		@ link register save eliminated.
 365:Drivers/STM32L4xx_HAL_Driver/Src/stm32l4xx_hal_pwr_ex.c ****   CLEAR_BIT(PWR->CR3, PWR_CR3_EIWF);
 496              		.loc 1 365 3 view .LVU99
 497 0000 024A     		ldr	r2, .L47
 498 0002 9368     		ldr	r3, [r2, #8]
 499 0004 23F40043 		bic	r3, r3, #32768
 500 0008 9360     		str	r3, [r2, #8]
 366:Drivers/STM32L4xx_HAL_Driver/Src/stm32l4xx_hal_pwr_ex.c **** }
 501              		.loc 1 366 1 is_stmt 0 view .LVU100
 502 000a 7047     		bx	lr
 503              	.L48:
 504              		.align	2
 505              	.L47:
 506 000c 00700040 		.word	1073770496
 507              		.cfi_endproc
 508              	.LFE141:
 510              		.section	.text.HAL_PWREx_EnableGPIOPullUp,"ax",%progbits
 511              		.align	1
 512              		.global	HAL_PWREx_EnableGPIOPullUp
 513              		.syntax unified
 514              		.thumb
 515              		.thumb_func
 517              	HAL_PWREx_EnableGPIOPullUp:
 518              	.LVL21:
 519              	.LFB142:
 367:Drivers/STM32L4xx_HAL_Driver/Src/stm32l4xx_hal_pwr_ex.c **** 
ARM GAS  C:\Users\HP\AppData\Local\Temp\ccTBk3CI.s 			page 17


 368:Drivers/STM32L4xx_HAL_Driver/Src/stm32l4xx_hal_pwr_ex.c **** 
 369:Drivers/STM32L4xx_HAL_Driver/Src/stm32l4xx_hal_pwr_ex.c **** 
 370:Drivers/STM32L4xx_HAL_Driver/Src/stm32l4xx_hal_pwr_ex.c **** /**
 371:Drivers/STM32L4xx_HAL_Driver/Src/stm32l4xx_hal_pwr_ex.c ****   * @brief Enable GPIO pull-up state in Standby and Shutdown modes.
 372:Drivers/STM32L4xx_HAL_Driver/Src/stm32l4xx_hal_pwr_ex.c ****   * @note  Set the relevant PUy bits of PWR_PUCRx register to configure the I/O in
 373:Drivers/STM32L4xx_HAL_Driver/Src/stm32l4xx_hal_pwr_ex.c ****   *        pull-up state in Standby and Shutdown modes.
 374:Drivers/STM32L4xx_HAL_Driver/Src/stm32l4xx_hal_pwr_ex.c ****   * @note  This state is effective in Standby and Shutdown modes only if APC bit
 375:Drivers/STM32L4xx_HAL_Driver/Src/stm32l4xx_hal_pwr_ex.c ****   *        is set through HAL_PWREx_EnablePullUpPullDownConfig() API.
 376:Drivers/STM32L4xx_HAL_Driver/Src/stm32l4xx_hal_pwr_ex.c ****   * @note  The configuration is lost when exiting the Shutdown mode due to the
 377:Drivers/STM32L4xx_HAL_Driver/Src/stm32l4xx_hal_pwr_ex.c ****   *        power-on reset, maintained when exiting the Standby mode.
 378:Drivers/STM32L4xx_HAL_Driver/Src/stm32l4xx_hal_pwr_ex.c ****   * @note  To avoid any conflict at Standby and Shutdown modes exits, the corresponding
 379:Drivers/STM32L4xx_HAL_Driver/Src/stm32l4xx_hal_pwr_ex.c ****   *        PDy bit of PWR_PDCRx register is cleared unless it is reserved.
 380:Drivers/STM32L4xx_HAL_Driver/Src/stm32l4xx_hal_pwr_ex.c ****   * @note  Even if a PUy bit to set is reserved, the other PUy bits entered as input
 381:Drivers/STM32L4xx_HAL_Driver/Src/stm32l4xx_hal_pwr_ex.c ****   *        parameter at the same time are set.
 382:Drivers/STM32L4xx_HAL_Driver/Src/stm32l4xx_hal_pwr_ex.c ****   * @param  GPIO Specify the IO port. This parameter can be PWR_GPIO_A, ..., PWR_GPIO_H
 383:Drivers/STM32L4xx_HAL_Driver/Src/stm32l4xx_hal_pwr_ex.c ****   *         (or PWR_GPIO_I depending on the devices) to select the GPIO peripheral.
 384:Drivers/STM32L4xx_HAL_Driver/Src/stm32l4xx_hal_pwr_ex.c ****   * @param  GPIONumber Specify the I/O pins numbers.
 385:Drivers/STM32L4xx_HAL_Driver/Src/stm32l4xx_hal_pwr_ex.c ****   *         This parameter can be one of the following values:
 386:Drivers/STM32L4xx_HAL_Driver/Src/stm32l4xx_hal_pwr_ex.c ****   *         PWR_GPIO_BIT_0, ..., PWR_GPIO_BIT_15 (except for the port where less
 387:Drivers/STM32L4xx_HAL_Driver/Src/stm32l4xx_hal_pwr_ex.c ****   *         I/O pins are available) or the logical OR of several of them to set
 388:Drivers/STM32L4xx_HAL_Driver/Src/stm32l4xx_hal_pwr_ex.c ****   *         several bits for a given port in a single API call.
 389:Drivers/STM32L4xx_HAL_Driver/Src/stm32l4xx_hal_pwr_ex.c ****   * @retval HAL Status
 390:Drivers/STM32L4xx_HAL_Driver/Src/stm32l4xx_hal_pwr_ex.c ****   */
 391:Drivers/STM32L4xx_HAL_Driver/Src/stm32l4xx_hal_pwr_ex.c **** HAL_StatusTypeDef HAL_PWREx_EnableGPIOPullUp(uint32_t GPIO, uint32_t GPIONumber)
 392:Drivers/STM32L4xx_HAL_Driver/Src/stm32l4xx_hal_pwr_ex.c **** {
 520              		.loc 1 392 1 is_stmt 1 view -0
 521              		.cfi_startproc
 522              		@ args = 0, pretend = 0, frame = 0
 523              		@ frame_needed = 0, uses_anonymous_args = 0
 524              		@ link register save eliminated.
 393:Drivers/STM32L4xx_HAL_Driver/Src/stm32l4xx_hal_pwr_ex.c ****   HAL_StatusTypeDef status = HAL_OK;
 525              		.loc 1 393 3 view .LVU102
 394:Drivers/STM32L4xx_HAL_Driver/Src/stm32l4xx_hal_pwr_ex.c **** 
 395:Drivers/STM32L4xx_HAL_Driver/Src/stm32l4xx_hal_pwr_ex.c ****   assert_param(IS_PWR_GPIO(GPIO));
 526              		.loc 1 395 3 view .LVU103
 396:Drivers/STM32L4xx_HAL_Driver/Src/stm32l4xx_hal_pwr_ex.c ****   assert_param(IS_PWR_GPIO_BIT_NUMBER(GPIONumber));
 527              		.loc 1 396 3 view .LVU104
 397:Drivers/STM32L4xx_HAL_Driver/Src/stm32l4xx_hal_pwr_ex.c **** 
 398:Drivers/STM32L4xx_HAL_Driver/Src/stm32l4xx_hal_pwr_ex.c ****   switch (GPIO)
 528              		.loc 1 398 3 view .LVU105
 529 0000 0828     		cmp	r0, #8
 530 0002 69D8     		bhi	.L61
 531 0004 DFE800F0 		tbb	[pc, r0]
 532              	.L52:
 533 0008 05       		.byte	(.L60-.L52)/2
 534 0009 13       		.byte	(.L59-.L52)/2
 535 000a 1F       		.byte	(.L58-.L52)/2
 536 000b 29       		.byte	(.L57-.L52)/2
 537 000c 33       		.byte	(.L56-.L52)/2
 538 000d 3D       		.byte	(.L55-.L52)/2
 539 000e 47       		.byte	(.L54-.L52)/2
 540 000f 51       		.byte	(.L53-.L52)/2
 541 0010 5C       		.byte	(.L51-.L52)/2
 542 0011 00       		.p2align 1
 543              	.L60:
 399:Drivers/STM32L4xx_HAL_Driver/Src/stm32l4xx_hal_pwr_ex.c ****   {
 400:Drivers/STM32L4xx_HAL_Driver/Src/stm32l4xx_hal_pwr_ex.c ****     case PWR_GPIO_A:
ARM GAS  C:\Users\HP\AppData\Local\Temp\ccTBk3CI.s 			page 18


 401:Drivers/STM32L4xx_HAL_Driver/Src/stm32l4xx_hal_pwr_ex.c ****        SET_BIT(PWR->PUCRA, (GPIONumber & (~(PWR_GPIO_BIT_14))));
 544              		.loc 1 401 8 view .LVU106
 545 0012 324B     		ldr	r3, .L62
 546 0014 1A6A     		ldr	r2, [r3, #32]
 547 0016 21F48040 		bic	r0, r1, #16384
 548              	.LVL22:
 549              		.loc 1 401 8 is_stmt 0 view .LVU107
 550 001a 0243     		orrs	r2, r2, r0
 551 001c 1A62     		str	r2, [r3, #32]
 402:Drivers/STM32L4xx_HAL_Driver/Src/stm32l4xx_hal_pwr_ex.c ****        CLEAR_BIT(PWR->PDCRA, (GPIONumber & (~(PWR_GPIO_BIT_13|PWR_GPIO_BIT_15))));
 552              		.loc 1 402 8 is_stmt 1 view .LVU108
 553 001e 5A6A     		ldr	r2, [r3, #36]
 554 0020 21F42041 		bic	r1, r1, #40960
 555              	.LVL23:
 556              		.loc 1 402 8 is_stmt 0 view .LVU109
 557 0024 22EA0101 		bic	r1, r2, r1
 558 0028 5962     		str	r1, [r3, #36]
 403:Drivers/STM32L4xx_HAL_Driver/Src/stm32l4xx_hal_pwr_ex.c ****        break;
 559              		.loc 1 403 8 is_stmt 1 view .LVU110
 393:Drivers/STM32L4xx_HAL_Driver/Src/stm32l4xx_hal_pwr_ex.c **** 
 560              		.loc 1 393 21 is_stmt 0 view .LVU111
 561 002a 0020     		movs	r0, #0
 562              		.loc 1 403 8 view .LVU112
 563 002c 7047     		bx	lr
 564              	.LVL24:
 565              	.L59:
 404:Drivers/STM32L4xx_HAL_Driver/Src/stm32l4xx_hal_pwr_ex.c ****     case PWR_GPIO_B:
 405:Drivers/STM32L4xx_HAL_Driver/Src/stm32l4xx_hal_pwr_ex.c ****        SET_BIT(PWR->PUCRB, GPIONumber);
 566              		.loc 1 405 8 is_stmt 1 view .LVU113
 567 002e 2B4B     		ldr	r3, .L62
 568 0030 9A6A     		ldr	r2, [r3, #40]
 569 0032 0A43     		orrs	r2, r2, r1
 570 0034 9A62     		str	r2, [r3, #40]
 406:Drivers/STM32L4xx_HAL_Driver/Src/stm32l4xx_hal_pwr_ex.c ****        CLEAR_BIT(PWR->PDCRB, (GPIONumber & (~(PWR_GPIO_BIT_4))));
 571              		.loc 1 406 8 view .LVU114
 572 0036 DA6A     		ldr	r2, [r3, #44]
 573 0038 21F01001 		bic	r1, r1, #16
 574              	.LVL25:
 575              		.loc 1 406 8 is_stmt 0 view .LVU115
 576 003c 22EA0101 		bic	r1, r2, r1
 577 0040 D962     		str	r1, [r3, #44]
 407:Drivers/STM32L4xx_HAL_Driver/Src/stm32l4xx_hal_pwr_ex.c ****        break;
 578              		.loc 1 407 8 is_stmt 1 view .LVU116
 393:Drivers/STM32L4xx_HAL_Driver/Src/stm32l4xx_hal_pwr_ex.c **** 
 579              		.loc 1 393 21 is_stmt 0 view .LVU117
 580 0042 0020     		movs	r0, #0
 581              	.LVL26:
 582              		.loc 1 407 8 view .LVU118
 583 0044 7047     		bx	lr
 584              	.LVL27:
 585              	.L58:
 408:Drivers/STM32L4xx_HAL_Driver/Src/stm32l4xx_hal_pwr_ex.c ****     case PWR_GPIO_C:
 409:Drivers/STM32L4xx_HAL_Driver/Src/stm32l4xx_hal_pwr_ex.c ****        SET_BIT(PWR->PUCRC, GPIONumber);
 586              		.loc 1 409 8 is_stmt 1 view .LVU119
 587 0046 254B     		ldr	r3, .L62
 588 0048 1A6B     		ldr	r2, [r3, #48]
 589 004a 0A43     		orrs	r2, r2, r1
ARM GAS  C:\Users\HP\AppData\Local\Temp\ccTBk3CI.s 			page 19


 590 004c 1A63     		str	r2, [r3, #48]
 410:Drivers/STM32L4xx_HAL_Driver/Src/stm32l4xx_hal_pwr_ex.c ****        CLEAR_BIT(PWR->PDCRC, GPIONumber);
 591              		.loc 1 410 8 view .LVU120
 592 004e 5A6B     		ldr	r2, [r3, #52]
 593 0050 22EA0101 		bic	r1, r2, r1
 594              	.LVL28:
 595              		.loc 1 410 8 is_stmt 0 view .LVU121
 596 0054 5963     		str	r1, [r3, #52]
 411:Drivers/STM32L4xx_HAL_Driver/Src/stm32l4xx_hal_pwr_ex.c ****        break;
 597              		.loc 1 411 8 is_stmt 1 view .LVU122
 393:Drivers/STM32L4xx_HAL_Driver/Src/stm32l4xx_hal_pwr_ex.c **** 
 598              		.loc 1 393 21 is_stmt 0 view .LVU123
 599 0056 0020     		movs	r0, #0
 600              	.LVL29:
 601              		.loc 1 411 8 view .LVU124
 602 0058 7047     		bx	lr
 603              	.LVL30:
 604              	.L57:
 412:Drivers/STM32L4xx_HAL_Driver/Src/stm32l4xx_hal_pwr_ex.c **** #if defined(GPIOD)
 413:Drivers/STM32L4xx_HAL_Driver/Src/stm32l4xx_hal_pwr_ex.c ****     case PWR_GPIO_D:
 414:Drivers/STM32L4xx_HAL_Driver/Src/stm32l4xx_hal_pwr_ex.c ****        SET_BIT(PWR->PUCRD, GPIONumber);
 605              		.loc 1 414 8 is_stmt 1 view .LVU125
 606 005a 204B     		ldr	r3, .L62
 607 005c 9A6B     		ldr	r2, [r3, #56]
 608 005e 0A43     		orrs	r2, r2, r1
 609 0060 9A63     		str	r2, [r3, #56]
 415:Drivers/STM32L4xx_HAL_Driver/Src/stm32l4xx_hal_pwr_ex.c ****        CLEAR_BIT(PWR->PDCRD, GPIONumber);
 610              		.loc 1 415 8 view .LVU126
 611 0062 DA6B     		ldr	r2, [r3, #60]
 612 0064 22EA0101 		bic	r1, r2, r1
 613              	.LVL31:
 614              		.loc 1 415 8 is_stmt 0 view .LVU127
 615 0068 D963     		str	r1, [r3, #60]
 416:Drivers/STM32L4xx_HAL_Driver/Src/stm32l4xx_hal_pwr_ex.c ****        break;
 616              		.loc 1 416 8 is_stmt 1 view .LVU128
 393:Drivers/STM32L4xx_HAL_Driver/Src/stm32l4xx_hal_pwr_ex.c **** 
 617              		.loc 1 393 21 is_stmt 0 view .LVU129
 618 006a 0020     		movs	r0, #0
 619              	.LVL32:
 620              		.loc 1 416 8 view .LVU130
 621 006c 7047     		bx	lr
 622              	.LVL33:
 623              	.L56:
 417:Drivers/STM32L4xx_HAL_Driver/Src/stm32l4xx_hal_pwr_ex.c **** #endif
 418:Drivers/STM32L4xx_HAL_Driver/Src/stm32l4xx_hal_pwr_ex.c **** #if defined(GPIOE)
 419:Drivers/STM32L4xx_HAL_Driver/Src/stm32l4xx_hal_pwr_ex.c ****     case PWR_GPIO_E:
 420:Drivers/STM32L4xx_HAL_Driver/Src/stm32l4xx_hal_pwr_ex.c ****        SET_BIT(PWR->PUCRE, GPIONumber);
 624              		.loc 1 420 8 is_stmt 1 view .LVU131
 625 006e 1B4B     		ldr	r3, .L62
 626 0070 1A6C     		ldr	r2, [r3, #64]
 627 0072 0A43     		orrs	r2, r2, r1
 628 0074 1A64     		str	r2, [r3, #64]
 421:Drivers/STM32L4xx_HAL_Driver/Src/stm32l4xx_hal_pwr_ex.c ****        CLEAR_BIT(PWR->PDCRE, GPIONumber);
 629              		.loc 1 421 8 view .LVU132
 630 0076 5A6C     		ldr	r2, [r3, #68]
 631 0078 22EA0101 		bic	r1, r2, r1
 632              	.LVL34:
ARM GAS  C:\Users\HP\AppData\Local\Temp\ccTBk3CI.s 			page 20


 633              		.loc 1 421 8 is_stmt 0 view .LVU133
 634 007c 5964     		str	r1, [r3, #68]
 422:Drivers/STM32L4xx_HAL_Driver/Src/stm32l4xx_hal_pwr_ex.c ****        break;
 635              		.loc 1 422 8 is_stmt 1 view .LVU134
 393:Drivers/STM32L4xx_HAL_Driver/Src/stm32l4xx_hal_pwr_ex.c **** 
 636              		.loc 1 393 21 is_stmt 0 view .LVU135
 637 007e 0020     		movs	r0, #0
 638              	.LVL35:
 639              		.loc 1 422 8 view .LVU136
 640 0080 7047     		bx	lr
 641              	.LVL36:
 642              	.L55:
 423:Drivers/STM32L4xx_HAL_Driver/Src/stm32l4xx_hal_pwr_ex.c **** #endif
 424:Drivers/STM32L4xx_HAL_Driver/Src/stm32l4xx_hal_pwr_ex.c **** #if defined(GPIOF)
 425:Drivers/STM32L4xx_HAL_Driver/Src/stm32l4xx_hal_pwr_ex.c ****     case PWR_GPIO_F:
 426:Drivers/STM32L4xx_HAL_Driver/Src/stm32l4xx_hal_pwr_ex.c ****        SET_BIT(PWR->PUCRF, GPIONumber);
 643              		.loc 1 426 8 is_stmt 1 view .LVU137
 644 0082 164B     		ldr	r3, .L62
 645 0084 9A6C     		ldr	r2, [r3, #72]
 646 0086 0A43     		orrs	r2, r2, r1
 647 0088 9A64     		str	r2, [r3, #72]
 427:Drivers/STM32L4xx_HAL_Driver/Src/stm32l4xx_hal_pwr_ex.c ****        CLEAR_BIT(PWR->PDCRF, GPIONumber);
 648              		.loc 1 427 8 view .LVU138
 649 008a DA6C     		ldr	r2, [r3, #76]
 650 008c 22EA0101 		bic	r1, r2, r1
 651              	.LVL37:
 652              		.loc 1 427 8 is_stmt 0 view .LVU139
 653 0090 D964     		str	r1, [r3, #76]
 428:Drivers/STM32L4xx_HAL_Driver/Src/stm32l4xx_hal_pwr_ex.c ****        break;
 654              		.loc 1 428 8 is_stmt 1 view .LVU140
 393:Drivers/STM32L4xx_HAL_Driver/Src/stm32l4xx_hal_pwr_ex.c **** 
 655              		.loc 1 393 21 is_stmt 0 view .LVU141
 656 0092 0020     		movs	r0, #0
 657              	.LVL38:
 658              		.loc 1 428 8 view .LVU142
 659 0094 7047     		bx	lr
 660              	.LVL39:
 661              	.L54:
 429:Drivers/STM32L4xx_HAL_Driver/Src/stm32l4xx_hal_pwr_ex.c **** #endif
 430:Drivers/STM32L4xx_HAL_Driver/Src/stm32l4xx_hal_pwr_ex.c **** #if defined(GPIOG)
 431:Drivers/STM32L4xx_HAL_Driver/Src/stm32l4xx_hal_pwr_ex.c ****     case PWR_GPIO_G:
 432:Drivers/STM32L4xx_HAL_Driver/Src/stm32l4xx_hal_pwr_ex.c ****        SET_BIT(PWR->PUCRG, GPIONumber);
 662              		.loc 1 432 8 is_stmt 1 view .LVU143
 663 0096 114B     		ldr	r3, .L62
 664 0098 1A6D     		ldr	r2, [r3, #80]
 665 009a 0A43     		orrs	r2, r2, r1
 666 009c 1A65     		str	r2, [r3, #80]
 433:Drivers/STM32L4xx_HAL_Driver/Src/stm32l4xx_hal_pwr_ex.c ****        CLEAR_BIT(PWR->PDCRG, GPIONumber);
 667              		.loc 1 433 8 view .LVU144
 668 009e 5A6D     		ldr	r2, [r3, #84]
 669 00a0 22EA0101 		bic	r1, r2, r1
 670              	.LVL40:
 671              		.loc 1 433 8 is_stmt 0 view .LVU145
 672 00a4 5965     		str	r1, [r3, #84]
 434:Drivers/STM32L4xx_HAL_Driver/Src/stm32l4xx_hal_pwr_ex.c ****        break;
 673              		.loc 1 434 8 is_stmt 1 view .LVU146
 393:Drivers/STM32L4xx_HAL_Driver/Src/stm32l4xx_hal_pwr_ex.c **** 
ARM GAS  C:\Users\HP\AppData\Local\Temp\ccTBk3CI.s 			page 21


 674              		.loc 1 393 21 is_stmt 0 view .LVU147
 675 00a6 0020     		movs	r0, #0
 676              	.LVL41:
 677              		.loc 1 434 8 view .LVU148
 678 00a8 7047     		bx	lr
 679              	.LVL42:
 680              	.L53:
 435:Drivers/STM32L4xx_HAL_Driver/Src/stm32l4xx_hal_pwr_ex.c **** #endif
 436:Drivers/STM32L4xx_HAL_Driver/Src/stm32l4xx_hal_pwr_ex.c ****     case PWR_GPIO_H:
 437:Drivers/STM32L4xx_HAL_Driver/Src/stm32l4xx_hal_pwr_ex.c ****        SET_BIT(PWR->PUCRH, (GPIONumber & PWR_PORTH_AVAILABLE_PINS));
 681              		.loc 1 437 8 is_stmt 1 view .LVU149
 682 00aa 0C4B     		ldr	r3, .L62
 683 00ac 9A6D     		ldr	r2, [r3, #88]
 684 00ae 89B2     		uxth	r1, r1
 685              	.LVL43:
 686              		.loc 1 437 8 is_stmt 0 view .LVU150
 687 00b0 0A43     		orrs	r2, r2, r1
 688 00b2 9A65     		str	r2, [r3, #88]
 438:Drivers/STM32L4xx_HAL_Driver/Src/stm32l4xx_hal_pwr_ex.c **** #if defined (STM32L496xx) || defined (STM32L4A6xx)
 439:Drivers/STM32L4xx_HAL_Driver/Src/stm32l4xx_hal_pwr_ex.c ****        CLEAR_BIT(PWR->PDCRH, ((GPIONumber & PWR_PORTH_AVAILABLE_PINS) & (~(PWR_GPIO_BIT_3))));
 440:Drivers/STM32L4xx_HAL_Driver/Src/stm32l4xx_hal_pwr_ex.c **** #else
 441:Drivers/STM32L4xx_HAL_Driver/Src/stm32l4xx_hal_pwr_ex.c ****        CLEAR_BIT(PWR->PDCRH, (GPIONumber & PWR_PORTH_AVAILABLE_PINS));
 689              		.loc 1 441 8 is_stmt 1 view .LVU151
 690 00b4 DA6D     		ldr	r2, [r3, #92]
 691 00b6 22EA0101 		bic	r1, r2, r1
 692 00ba D965     		str	r1, [r3, #92]
 442:Drivers/STM32L4xx_HAL_Driver/Src/stm32l4xx_hal_pwr_ex.c **** #endif
 443:Drivers/STM32L4xx_HAL_Driver/Src/stm32l4xx_hal_pwr_ex.c ****        break;
 693              		.loc 1 443 8 view .LVU152
 393:Drivers/STM32L4xx_HAL_Driver/Src/stm32l4xx_hal_pwr_ex.c **** 
 694              		.loc 1 393 21 is_stmt 0 view .LVU153
 695 00bc 0020     		movs	r0, #0
 696              	.LVL44:
 697              		.loc 1 443 8 view .LVU154
 698 00be 7047     		bx	lr
 699              	.LVL45:
 700              	.L51:
 444:Drivers/STM32L4xx_HAL_Driver/Src/stm32l4xx_hal_pwr_ex.c **** #if defined(GPIOI)
 445:Drivers/STM32L4xx_HAL_Driver/Src/stm32l4xx_hal_pwr_ex.c ****     case PWR_GPIO_I:
 446:Drivers/STM32L4xx_HAL_Driver/Src/stm32l4xx_hal_pwr_ex.c ****        SET_BIT(PWR->PUCRI, (GPIONumber & PWR_PORTI_AVAILABLE_PINS));
 701              		.loc 1 446 8 is_stmt 1 view .LVU155
 702 00c0 064B     		ldr	r3, .L62
 703 00c2 1A6E     		ldr	r2, [r3, #96]
 704 00c4 C1F30B01 		ubfx	r1, r1, #0, #12
 705              	.LVL46:
 706              		.loc 1 446 8 is_stmt 0 view .LVU156
 707 00c8 0A43     		orrs	r2, r2, r1
 708 00ca 1A66     		str	r2, [r3, #96]
 447:Drivers/STM32L4xx_HAL_Driver/Src/stm32l4xx_hal_pwr_ex.c ****        CLEAR_BIT(PWR->PDCRI, (GPIONumber & PWR_PORTI_AVAILABLE_PINS));
 709              		.loc 1 447 8 is_stmt 1 view .LVU157
 710 00cc 5A6E     		ldr	r2, [r3, #100]
 711 00ce 22EA0101 		bic	r1, r2, r1
 712 00d2 5966     		str	r1, [r3, #100]
 448:Drivers/STM32L4xx_HAL_Driver/Src/stm32l4xx_hal_pwr_ex.c ****        break;
 713              		.loc 1 448 8 view .LVU158
 393:Drivers/STM32L4xx_HAL_Driver/Src/stm32l4xx_hal_pwr_ex.c **** 
 714              		.loc 1 393 21 is_stmt 0 view .LVU159
ARM GAS  C:\Users\HP\AppData\Local\Temp\ccTBk3CI.s 			page 22


 715 00d4 0020     		movs	r0, #0
 716              	.LVL47:
 717              		.loc 1 448 8 view .LVU160
 718 00d6 7047     		bx	lr
 719              	.LVL48:
 720              	.L61:
 398:Drivers/STM32L4xx_HAL_Driver/Src/stm32l4xx_hal_pwr_ex.c ****   {
 721              		.loc 1 398 3 view .LVU161
 722 00d8 0120     		movs	r0, #1
 723              	.LVL49:
 449:Drivers/STM32L4xx_HAL_Driver/Src/stm32l4xx_hal_pwr_ex.c **** #endif
 450:Drivers/STM32L4xx_HAL_Driver/Src/stm32l4xx_hal_pwr_ex.c ****     default:
 451:Drivers/STM32L4xx_HAL_Driver/Src/stm32l4xx_hal_pwr_ex.c ****       status = HAL_ERROR;
 452:Drivers/STM32L4xx_HAL_Driver/Src/stm32l4xx_hal_pwr_ex.c ****       break;
 453:Drivers/STM32L4xx_HAL_Driver/Src/stm32l4xx_hal_pwr_ex.c ****   }
 454:Drivers/STM32L4xx_HAL_Driver/Src/stm32l4xx_hal_pwr_ex.c **** 
 455:Drivers/STM32L4xx_HAL_Driver/Src/stm32l4xx_hal_pwr_ex.c ****   return status;
 724              		.loc 1 455 3 is_stmt 1 view .LVU162
 456:Drivers/STM32L4xx_HAL_Driver/Src/stm32l4xx_hal_pwr_ex.c **** }
 725              		.loc 1 456 1 is_stmt 0 view .LVU163
 726 00da 7047     		bx	lr
 727              	.L63:
 728              		.align	2
 729              	.L62:
 730 00dc 00700040 		.word	1073770496
 731              		.cfi_endproc
 732              	.LFE142:
 734              		.section	.text.HAL_PWREx_DisableGPIOPullUp,"ax",%progbits
 735              		.align	1
 736              		.global	HAL_PWREx_DisableGPIOPullUp
 737              		.syntax unified
 738              		.thumb
 739              		.thumb_func
 741              	HAL_PWREx_DisableGPIOPullUp:
 742              	.LVL50:
 743              	.LFB143:
 457:Drivers/STM32L4xx_HAL_Driver/Src/stm32l4xx_hal_pwr_ex.c **** 
 458:Drivers/STM32L4xx_HAL_Driver/Src/stm32l4xx_hal_pwr_ex.c **** 
 459:Drivers/STM32L4xx_HAL_Driver/Src/stm32l4xx_hal_pwr_ex.c **** /**
 460:Drivers/STM32L4xx_HAL_Driver/Src/stm32l4xx_hal_pwr_ex.c ****   * @brief Disable GPIO pull-up state in Standby mode and Shutdown modes.
 461:Drivers/STM32L4xx_HAL_Driver/Src/stm32l4xx_hal_pwr_ex.c ****   * @note  Reset the relevant PUy bits of PWR_PUCRx register used to configure the I/O
 462:Drivers/STM32L4xx_HAL_Driver/Src/stm32l4xx_hal_pwr_ex.c ****   *        in pull-up state in Standby and Shutdown modes.
 463:Drivers/STM32L4xx_HAL_Driver/Src/stm32l4xx_hal_pwr_ex.c ****   * @note  Even if a PUy bit to reset is reserved, the other PUy bits entered as input
 464:Drivers/STM32L4xx_HAL_Driver/Src/stm32l4xx_hal_pwr_ex.c ****   *        parameter at the same time are reset.
 465:Drivers/STM32L4xx_HAL_Driver/Src/stm32l4xx_hal_pwr_ex.c ****   * @param  GPIO Specifies the IO port. This parameter can be PWR_GPIO_A, ..., PWR_GPIO_H
 466:Drivers/STM32L4xx_HAL_Driver/Src/stm32l4xx_hal_pwr_ex.c ****   *          (or PWR_GPIO_I depending on the devices) to select the GPIO peripheral.
 467:Drivers/STM32L4xx_HAL_Driver/Src/stm32l4xx_hal_pwr_ex.c ****   * @param  GPIONumber Specify the I/O pins numbers.
 468:Drivers/STM32L4xx_HAL_Driver/Src/stm32l4xx_hal_pwr_ex.c ****   *         This parameter can be one of the following values:
 469:Drivers/STM32L4xx_HAL_Driver/Src/stm32l4xx_hal_pwr_ex.c ****   *         PWR_GPIO_BIT_0, ..., PWR_GPIO_BIT_15 (except for the port where less
 470:Drivers/STM32L4xx_HAL_Driver/Src/stm32l4xx_hal_pwr_ex.c ****   *         I/O pins are available) or the logical OR of several of them to reset
 471:Drivers/STM32L4xx_HAL_Driver/Src/stm32l4xx_hal_pwr_ex.c ****   *         several bits for a given port in a single API call.
 472:Drivers/STM32L4xx_HAL_Driver/Src/stm32l4xx_hal_pwr_ex.c ****   * @retval HAL Status
 473:Drivers/STM32L4xx_HAL_Driver/Src/stm32l4xx_hal_pwr_ex.c ****   */
 474:Drivers/STM32L4xx_HAL_Driver/Src/stm32l4xx_hal_pwr_ex.c **** HAL_StatusTypeDef HAL_PWREx_DisableGPIOPullUp(uint32_t GPIO, uint32_t GPIONumber)
 475:Drivers/STM32L4xx_HAL_Driver/Src/stm32l4xx_hal_pwr_ex.c **** {
 744              		.loc 1 475 1 is_stmt 1 view -0
 745              		.cfi_startproc
ARM GAS  C:\Users\HP\AppData\Local\Temp\ccTBk3CI.s 			page 23


 746              		@ args = 0, pretend = 0, frame = 0
 747              		@ frame_needed = 0, uses_anonymous_args = 0
 748              		@ link register save eliminated.
 476:Drivers/STM32L4xx_HAL_Driver/Src/stm32l4xx_hal_pwr_ex.c ****   HAL_StatusTypeDef status = HAL_OK;
 749              		.loc 1 476 3 view .LVU165
 477:Drivers/STM32L4xx_HAL_Driver/Src/stm32l4xx_hal_pwr_ex.c **** 
 478:Drivers/STM32L4xx_HAL_Driver/Src/stm32l4xx_hal_pwr_ex.c ****   assert_param(IS_PWR_GPIO(GPIO));
 750              		.loc 1 478 3 view .LVU166
 479:Drivers/STM32L4xx_HAL_Driver/Src/stm32l4xx_hal_pwr_ex.c ****   assert_param(IS_PWR_GPIO_BIT_NUMBER(GPIONumber));
 751              		.loc 1 479 3 view .LVU167
 480:Drivers/STM32L4xx_HAL_Driver/Src/stm32l4xx_hal_pwr_ex.c **** 
 481:Drivers/STM32L4xx_HAL_Driver/Src/stm32l4xx_hal_pwr_ex.c ****   switch (GPIO)
 752              		.loc 1 481 3 view .LVU168
 753 0000 0828     		cmp	r0, #8
 754 0002 4AD8     		bhi	.L76
 755 0004 DFE800F0 		tbb	[pc, r0]
 756              	.L67:
 757 0008 05       		.byte	(.L75-.L67)/2
 758 0009 0E       		.byte	(.L74-.L67)/2
 759 000a 15       		.byte	(.L73-.L67)/2
 760 000b 1C       		.byte	(.L72-.L67)/2
 761 000c 23       		.byte	(.L71-.L67)/2
 762 000d 2A       		.byte	(.L70-.L67)/2
 763 000e 31       		.byte	(.L69-.L67)/2
 764 000f 38       		.byte	(.L68-.L67)/2
 765 0010 40       		.byte	(.L66-.L67)/2
 766 0011 00       		.p2align 1
 767              	.L75:
 482:Drivers/STM32L4xx_HAL_Driver/Src/stm32l4xx_hal_pwr_ex.c ****   {
 483:Drivers/STM32L4xx_HAL_Driver/Src/stm32l4xx_hal_pwr_ex.c ****     case PWR_GPIO_A:
 484:Drivers/STM32L4xx_HAL_Driver/Src/stm32l4xx_hal_pwr_ex.c ****        CLEAR_BIT(PWR->PUCRA, (GPIONumber & (~(PWR_GPIO_BIT_14))));
 768              		.loc 1 484 8 view .LVU169
 769 0012 234A     		ldr	r2, .L77
 770 0014 136A     		ldr	r3, [r2, #32]
 771 0016 21F48041 		bic	r1, r1, #16384
 772              	.LVL51:
 773              		.loc 1 484 8 is_stmt 0 view .LVU170
 774 001a 23EA0101 		bic	r1, r3, r1
 775 001e 1162     		str	r1, [r2, #32]
 485:Drivers/STM32L4xx_HAL_Driver/Src/stm32l4xx_hal_pwr_ex.c ****        break;
 776              		.loc 1 485 8 is_stmt 1 view .LVU171
 476:Drivers/STM32L4xx_HAL_Driver/Src/stm32l4xx_hal_pwr_ex.c **** 
 777              		.loc 1 476 21 is_stmt 0 view .LVU172
 778 0020 0020     		movs	r0, #0
 779              	.LVL52:
 780              		.loc 1 485 8 view .LVU173
 781 0022 7047     		bx	lr
 782              	.LVL53:
 783              	.L74:
 486:Drivers/STM32L4xx_HAL_Driver/Src/stm32l4xx_hal_pwr_ex.c ****     case PWR_GPIO_B:
 487:Drivers/STM32L4xx_HAL_Driver/Src/stm32l4xx_hal_pwr_ex.c ****        CLEAR_BIT(PWR->PUCRB, GPIONumber);
 784              		.loc 1 487 8 is_stmt 1 view .LVU174
 785 0024 1E4A     		ldr	r2, .L77
 786 0026 936A     		ldr	r3, [r2, #40]
 787 0028 23EA0101 		bic	r1, r3, r1
 788              	.LVL54:
 789              		.loc 1 487 8 is_stmt 0 view .LVU175
ARM GAS  C:\Users\HP\AppData\Local\Temp\ccTBk3CI.s 			page 24


 790 002c 9162     		str	r1, [r2, #40]
 488:Drivers/STM32L4xx_HAL_Driver/Src/stm32l4xx_hal_pwr_ex.c ****        break;
 791              		.loc 1 488 8 is_stmt 1 view .LVU176
 476:Drivers/STM32L4xx_HAL_Driver/Src/stm32l4xx_hal_pwr_ex.c **** 
 792              		.loc 1 476 21 is_stmt 0 view .LVU177
 793 002e 0020     		movs	r0, #0
 794              	.LVL55:
 795              		.loc 1 488 8 view .LVU178
 796 0030 7047     		bx	lr
 797              	.LVL56:
 798              	.L73:
 489:Drivers/STM32L4xx_HAL_Driver/Src/stm32l4xx_hal_pwr_ex.c ****     case PWR_GPIO_C:
 490:Drivers/STM32L4xx_HAL_Driver/Src/stm32l4xx_hal_pwr_ex.c ****        CLEAR_BIT(PWR->PUCRC, GPIONumber);
 799              		.loc 1 490 8 is_stmt 1 view .LVU179
 800 0032 1B4A     		ldr	r2, .L77
 801 0034 136B     		ldr	r3, [r2, #48]
 802 0036 23EA0101 		bic	r1, r3, r1
 803              	.LVL57:
 804              		.loc 1 490 8 is_stmt 0 view .LVU180
 805 003a 1163     		str	r1, [r2, #48]
 491:Drivers/STM32L4xx_HAL_Driver/Src/stm32l4xx_hal_pwr_ex.c ****        break;
 806              		.loc 1 491 8 is_stmt 1 view .LVU181
 476:Drivers/STM32L4xx_HAL_Driver/Src/stm32l4xx_hal_pwr_ex.c **** 
 807              		.loc 1 476 21 is_stmt 0 view .LVU182
 808 003c 0020     		movs	r0, #0
 809              	.LVL58:
 810              		.loc 1 491 8 view .LVU183
 811 003e 7047     		bx	lr
 812              	.LVL59:
 813              	.L72:
 492:Drivers/STM32L4xx_HAL_Driver/Src/stm32l4xx_hal_pwr_ex.c **** #if defined(GPIOD)
 493:Drivers/STM32L4xx_HAL_Driver/Src/stm32l4xx_hal_pwr_ex.c ****     case PWR_GPIO_D:
 494:Drivers/STM32L4xx_HAL_Driver/Src/stm32l4xx_hal_pwr_ex.c ****        CLEAR_BIT(PWR->PUCRD, GPIONumber);
 814              		.loc 1 494 8 is_stmt 1 view .LVU184
 815 0040 174A     		ldr	r2, .L77
 816 0042 936B     		ldr	r3, [r2, #56]
 817 0044 23EA0101 		bic	r1, r3, r1
 818              	.LVL60:
 819              		.loc 1 494 8 is_stmt 0 view .LVU185
 820 0048 9163     		str	r1, [r2, #56]
 495:Drivers/STM32L4xx_HAL_Driver/Src/stm32l4xx_hal_pwr_ex.c ****        break;
 821              		.loc 1 495 8 is_stmt 1 view .LVU186
 476:Drivers/STM32L4xx_HAL_Driver/Src/stm32l4xx_hal_pwr_ex.c **** 
 822              		.loc 1 476 21 is_stmt 0 view .LVU187
 823 004a 0020     		movs	r0, #0
 824              	.LVL61:
 825              		.loc 1 495 8 view .LVU188
 826 004c 7047     		bx	lr
 827              	.LVL62:
 828              	.L71:
 496:Drivers/STM32L4xx_HAL_Driver/Src/stm32l4xx_hal_pwr_ex.c **** #endif
 497:Drivers/STM32L4xx_HAL_Driver/Src/stm32l4xx_hal_pwr_ex.c **** #if defined(GPIOE)
 498:Drivers/STM32L4xx_HAL_Driver/Src/stm32l4xx_hal_pwr_ex.c ****     case PWR_GPIO_E:
 499:Drivers/STM32L4xx_HAL_Driver/Src/stm32l4xx_hal_pwr_ex.c ****        CLEAR_BIT(PWR->PUCRE, GPIONumber);
 829              		.loc 1 499 8 is_stmt 1 view .LVU189
 830 004e 144A     		ldr	r2, .L77
 831 0050 136C     		ldr	r3, [r2, #64]
ARM GAS  C:\Users\HP\AppData\Local\Temp\ccTBk3CI.s 			page 25


 832 0052 23EA0101 		bic	r1, r3, r1
 833              	.LVL63:
 834              		.loc 1 499 8 is_stmt 0 view .LVU190
 835 0056 1164     		str	r1, [r2, #64]
 500:Drivers/STM32L4xx_HAL_Driver/Src/stm32l4xx_hal_pwr_ex.c ****        break;
 836              		.loc 1 500 8 is_stmt 1 view .LVU191
 476:Drivers/STM32L4xx_HAL_Driver/Src/stm32l4xx_hal_pwr_ex.c **** 
 837              		.loc 1 476 21 is_stmt 0 view .LVU192
 838 0058 0020     		movs	r0, #0
 839              	.LVL64:
 840              		.loc 1 500 8 view .LVU193
 841 005a 7047     		bx	lr
 842              	.LVL65:
 843              	.L70:
 501:Drivers/STM32L4xx_HAL_Driver/Src/stm32l4xx_hal_pwr_ex.c **** #endif
 502:Drivers/STM32L4xx_HAL_Driver/Src/stm32l4xx_hal_pwr_ex.c **** #if defined(GPIOF)
 503:Drivers/STM32L4xx_HAL_Driver/Src/stm32l4xx_hal_pwr_ex.c ****     case PWR_GPIO_F:
 504:Drivers/STM32L4xx_HAL_Driver/Src/stm32l4xx_hal_pwr_ex.c ****        CLEAR_BIT(PWR->PUCRF, GPIONumber);
 844              		.loc 1 504 8 is_stmt 1 view .LVU194
 845 005c 104A     		ldr	r2, .L77
 846 005e 936C     		ldr	r3, [r2, #72]
 847 0060 23EA0101 		bic	r1, r3, r1
 848              	.LVL66:
 849              		.loc 1 504 8 is_stmt 0 view .LVU195
 850 0064 9164     		str	r1, [r2, #72]
 505:Drivers/STM32L4xx_HAL_Driver/Src/stm32l4xx_hal_pwr_ex.c ****        break;
 851              		.loc 1 505 8 is_stmt 1 view .LVU196
 476:Drivers/STM32L4xx_HAL_Driver/Src/stm32l4xx_hal_pwr_ex.c **** 
 852              		.loc 1 476 21 is_stmt 0 view .LVU197
 853 0066 0020     		movs	r0, #0
 854              	.LVL67:
 855              		.loc 1 505 8 view .LVU198
 856 0068 7047     		bx	lr
 857              	.LVL68:
 858              	.L69:
 506:Drivers/STM32L4xx_HAL_Driver/Src/stm32l4xx_hal_pwr_ex.c **** #endif
 507:Drivers/STM32L4xx_HAL_Driver/Src/stm32l4xx_hal_pwr_ex.c **** #if defined(GPIOG)
 508:Drivers/STM32L4xx_HAL_Driver/Src/stm32l4xx_hal_pwr_ex.c ****     case PWR_GPIO_G:
 509:Drivers/STM32L4xx_HAL_Driver/Src/stm32l4xx_hal_pwr_ex.c ****        CLEAR_BIT(PWR->PUCRG, GPIONumber);
 859              		.loc 1 509 8 is_stmt 1 view .LVU199
 860 006a 0D4A     		ldr	r2, .L77
 861 006c 136D     		ldr	r3, [r2, #80]
 862 006e 23EA0101 		bic	r1, r3, r1
 863              	.LVL69:
 864              		.loc 1 509 8 is_stmt 0 view .LVU200
 865 0072 1165     		str	r1, [r2, #80]
 510:Drivers/STM32L4xx_HAL_Driver/Src/stm32l4xx_hal_pwr_ex.c ****        break;
 866              		.loc 1 510 8 is_stmt 1 view .LVU201
 476:Drivers/STM32L4xx_HAL_Driver/Src/stm32l4xx_hal_pwr_ex.c **** 
 867              		.loc 1 476 21 is_stmt 0 view .LVU202
 868 0074 0020     		movs	r0, #0
 869              	.LVL70:
 870              		.loc 1 510 8 view .LVU203
 871 0076 7047     		bx	lr
 872              	.LVL71:
 873              	.L68:
 511:Drivers/STM32L4xx_HAL_Driver/Src/stm32l4xx_hal_pwr_ex.c **** #endif
ARM GAS  C:\Users\HP\AppData\Local\Temp\ccTBk3CI.s 			page 26


 512:Drivers/STM32L4xx_HAL_Driver/Src/stm32l4xx_hal_pwr_ex.c ****     case PWR_GPIO_H:
 513:Drivers/STM32L4xx_HAL_Driver/Src/stm32l4xx_hal_pwr_ex.c ****        CLEAR_BIT(PWR->PUCRH, (GPIONumber & PWR_PORTH_AVAILABLE_PINS));
 874              		.loc 1 513 8 is_stmt 1 view .LVU204
 875 0078 094A     		ldr	r2, .L77
 876 007a 936D     		ldr	r3, [r2, #88]
 877 007c 89B2     		uxth	r1, r1
 878              	.LVL72:
 879              		.loc 1 513 8 is_stmt 0 view .LVU205
 880 007e 23EA0101 		bic	r1, r3, r1
 881 0082 9165     		str	r1, [r2, #88]
 514:Drivers/STM32L4xx_HAL_Driver/Src/stm32l4xx_hal_pwr_ex.c ****        break;
 882              		.loc 1 514 8 is_stmt 1 view .LVU206
 476:Drivers/STM32L4xx_HAL_Driver/Src/stm32l4xx_hal_pwr_ex.c **** 
 883              		.loc 1 476 21 is_stmt 0 view .LVU207
 884 0084 0020     		movs	r0, #0
 885              	.LVL73:
 886              		.loc 1 514 8 view .LVU208
 887 0086 7047     		bx	lr
 888              	.LVL74:
 889              	.L66:
 515:Drivers/STM32L4xx_HAL_Driver/Src/stm32l4xx_hal_pwr_ex.c **** #if defined(GPIOI)
 516:Drivers/STM32L4xx_HAL_Driver/Src/stm32l4xx_hal_pwr_ex.c ****     case PWR_GPIO_I:
 517:Drivers/STM32L4xx_HAL_Driver/Src/stm32l4xx_hal_pwr_ex.c ****        CLEAR_BIT(PWR->PUCRI, (GPIONumber & PWR_PORTI_AVAILABLE_PINS));
 890              		.loc 1 517 8 is_stmt 1 view .LVU209
 891 0088 054A     		ldr	r2, .L77
 892 008a 136E     		ldr	r3, [r2, #96]
 893 008c C1F30B01 		ubfx	r1, r1, #0, #12
 894              	.LVL75:
 895              		.loc 1 517 8 is_stmt 0 view .LVU210
 896 0090 23EA0101 		bic	r1, r3, r1
 897 0094 1166     		str	r1, [r2, #96]
 518:Drivers/STM32L4xx_HAL_Driver/Src/stm32l4xx_hal_pwr_ex.c ****        break;
 898              		.loc 1 518 8 is_stmt 1 view .LVU211
 476:Drivers/STM32L4xx_HAL_Driver/Src/stm32l4xx_hal_pwr_ex.c **** 
 899              		.loc 1 476 21 is_stmt 0 view .LVU212
 900 0096 0020     		movs	r0, #0
 901              	.LVL76:
 902              		.loc 1 518 8 view .LVU213
 903 0098 7047     		bx	lr
 904              	.LVL77:
 905              	.L76:
 481:Drivers/STM32L4xx_HAL_Driver/Src/stm32l4xx_hal_pwr_ex.c ****   {
 906              		.loc 1 481 3 view .LVU214
 907 009a 0120     		movs	r0, #1
 908              	.LVL78:
 519:Drivers/STM32L4xx_HAL_Driver/Src/stm32l4xx_hal_pwr_ex.c **** #endif
 520:Drivers/STM32L4xx_HAL_Driver/Src/stm32l4xx_hal_pwr_ex.c ****     default:
 521:Drivers/STM32L4xx_HAL_Driver/Src/stm32l4xx_hal_pwr_ex.c ****        status = HAL_ERROR;
 522:Drivers/STM32L4xx_HAL_Driver/Src/stm32l4xx_hal_pwr_ex.c ****        break;
 523:Drivers/STM32L4xx_HAL_Driver/Src/stm32l4xx_hal_pwr_ex.c ****   }
 524:Drivers/STM32L4xx_HAL_Driver/Src/stm32l4xx_hal_pwr_ex.c **** 
 525:Drivers/STM32L4xx_HAL_Driver/Src/stm32l4xx_hal_pwr_ex.c ****   return status;
 909              		.loc 1 525 3 is_stmt 1 view .LVU215
 526:Drivers/STM32L4xx_HAL_Driver/Src/stm32l4xx_hal_pwr_ex.c **** }
 910              		.loc 1 526 1 is_stmt 0 view .LVU216
 911 009c 7047     		bx	lr
 912              	.L78:
ARM GAS  C:\Users\HP\AppData\Local\Temp\ccTBk3CI.s 			page 27


 913 009e 00BF     		.align	2
 914              	.L77:
 915 00a0 00700040 		.word	1073770496
 916              		.cfi_endproc
 917              	.LFE143:
 919              		.section	.text.HAL_PWREx_EnableGPIOPullDown,"ax",%progbits
 920              		.align	1
 921              		.global	HAL_PWREx_EnableGPIOPullDown
 922              		.syntax unified
 923              		.thumb
 924              		.thumb_func
 926              	HAL_PWREx_EnableGPIOPullDown:
 927              	.LVL79:
 928              	.LFB144:
 527:Drivers/STM32L4xx_HAL_Driver/Src/stm32l4xx_hal_pwr_ex.c **** 
 528:Drivers/STM32L4xx_HAL_Driver/Src/stm32l4xx_hal_pwr_ex.c **** 
 529:Drivers/STM32L4xx_HAL_Driver/Src/stm32l4xx_hal_pwr_ex.c **** 
 530:Drivers/STM32L4xx_HAL_Driver/Src/stm32l4xx_hal_pwr_ex.c **** /**
 531:Drivers/STM32L4xx_HAL_Driver/Src/stm32l4xx_hal_pwr_ex.c ****   * @brief Enable GPIO pull-down state in Standby and Shutdown modes.
 532:Drivers/STM32L4xx_HAL_Driver/Src/stm32l4xx_hal_pwr_ex.c ****   * @note  Set the relevant PDy bits of PWR_PDCRx register to configure the I/O in
 533:Drivers/STM32L4xx_HAL_Driver/Src/stm32l4xx_hal_pwr_ex.c ****   *        pull-down state in Standby and Shutdown modes.
 534:Drivers/STM32L4xx_HAL_Driver/Src/stm32l4xx_hal_pwr_ex.c ****   * @note  This state is effective in Standby and Shutdown modes only if APC bit
 535:Drivers/STM32L4xx_HAL_Driver/Src/stm32l4xx_hal_pwr_ex.c ****   *        is set through HAL_PWREx_EnablePullUpPullDownConfig() API.
 536:Drivers/STM32L4xx_HAL_Driver/Src/stm32l4xx_hal_pwr_ex.c ****   * @note  The configuration is lost when exiting the Shutdown mode due to the
 537:Drivers/STM32L4xx_HAL_Driver/Src/stm32l4xx_hal_pwr_ex.c ****   *        power-on reset, maintained when exiting the Standby mode.
 538:Drivers/STM32L4xx_HAL_Driver/Src/stm32l4xx_hal_pwr_ex.c ****   * @note  To avoid any conflict at Standby and Shutdown modes exits, the corresponding
 539:Drivers/STM32L4xx_HAL_Driver/Src/stm32l4xx_hal_pwr_ex.c ****   *        PUy bit of PWR_PUCRx register is cleared unless it is reserved.
 540:Drivers/STM32L4xx_HAL_Driver/Src/stm32l4xx_hal_pwr_ex.c ****   * @note  Even if a PDy bit to set is reserved, the other PDy bits entered as input
 541:Drivers/STM32L4xx_HAL_Driver/Src/stm32l4xx_hal_pwr_ex.c ****   *        parameter at the same time are set.
 542:Drivers/STM32L4xx_HAL_Driver/Src/stm32l4xx_hal_pwr_ex.c ****   * @param  GPIO Specify the IO port. This parameter can be PWR_GPIO_A..PWR_GPIO_H
 543:Drivers/STM32L4xx_HAL_Driver/Src/stm32l4xx_hal_pwr_ex.c ****   *         (or PWR_GPIO_I depending on the devices) to select the GPIO peripheral.
 544:Drivers/STM32L4xx_HAL_Driver/Src/stm32l4xx_hal_pwr_ex.c ****   * @param  GPIONumber Specify the I/O pins numbers.
 545:Drivers/STM32L4xx_HAL_Driver/Src/stm32l4xx_hal_pwr_ex.c ****   *         This parameter can be one of the following values:
 546:Drivers/STM32L4xx_HAL_Driver/Src/stm32l4xx_hal_pwr_ex.c ****   *         PWR_GPIO_BIT_0, ..., PWR_GPIO_BIT_15 (except for the port where less
 547:Drivers/STM32L4xx_HAL_Driver/Src/stm32l4xx_hal_pwr_ex.c ****   *         I/O pins are available) or the logical OR of several of them to set
 548:Drivers/STM32L4xx_HAL_Driver/Src/stm32l4xx_hal_pwr_ex.c ****   *         several bits for a given port in a single API call.
 549:Drivers/STM32L4xx_HAL_Driver/Src/stm32l4xx_hal_pwr_ex.c ****   * @retval HAL Status
 550:Drivers/STM32L4xx_HAL_Driver/Src/stm32l4xx_hal_pwr_ex.c ****   */
 551:Drivers/STM32L4xx_HAL_Driver/Src/stm32l4xx_hal_pwr_ex.c **** HAL_StatusTypeDef HAL_PWREx_EnableGPIOPullDown(uint32_t GPIO, uint32_t GPIONumber)
 552:Drivers/STM32L4xx_HAL_Driver/Src/stm32l4xx_hal_pwr_ex.c **** {
 929              		.loc 1 552 1 is_stmt 1 view -0
 930              		.cfi_startproc
 931              		@ args = 0, pretend = 0, frame = 0
 932              		@ frame_needed = 0, uses_anonymous_args = 0
 933              		@ link register save eliminated.
 553:Drivers/STM32L4xx_HAL_Driver/Src/stm32l4xx_hal_pwr_ex.c ****   HAL_StatusTypeDef status = HAL_OK;
 934              		.loc 1 553 3 view .LVU218
 554:Drivers/STM32L4xx_HAL_Driver/Src/stm32l4xx_hal_pwr_ex.c **** 
 555:Drivers/STM32L4xx_HAL_Driver/Src/stm32l4xx_hal_pwr_ex.c ****   assert_param(IS_PWR_GPIO(GPIO));
 935              		.loc 1 555 3 view .LVU219
 556:Drivers/STM32L4xx_HAL_Driver/Src/stm32l4xx_hal_pwr_ex.c ****   assert_param(IS_PWR_GPIO_BIT_NUMBER(GPIONumber));
 936              		.loc 1 556 3 view .LVU220
 557:Drivers/STM32L4xx_HAL_Driver/Src/stm32l4xx_hal_pwr_ex.c **** 
 558:Drivers/STM32L4xx_HAL_Driver/Src/stm32l4xx_hal_pwr_ex.c ****   switch (GPIO)
 937              		.loc 1 558 3 view .LVU221
 938 0000 0828     		cmp	r0, #8
 939 0002 69D8     		bhi	.L91
ARM GAS  C:\Users\HP\AppData\Local\Temp\ccTBk3CI.s 			page 28


 940 0004 DFE800F0 		tbb	[pc, r0]
 941              	.L82:
 942 0008 05       		.byte	(.L90-.L82)/2
 943 0009 13       		.byte	(.L89-.L82)/2
 944 000a 1F       		.byte	(.L88-.L82)/2
 945 000b 29       		.byte	(.L87-.L82)/2
 946 000c 33       		.byte	(.L86-.L82)/2
 947 000d 3D       		.byte	(.L85-.L82)/2
 948 000e 47       		.byte	(.L84-.L82)/2
 949 000f 51       		.byte	(.L83-.L82)/2
 950 0010 5C       		.byte	(.L81-.L82)/2
 951 0011 00       		.p2align 1
 952              	.L90:
 559:Drivers/STM32L4xx_HAL_Driver/Src/stm32l4xx_hal_pwr_ex.c ****   {
 560:Drivers/STM32L4xx_HAL_Driver/Src/stm32l4xx_hal_pwr_ex.c ****     case PWR_GPIO_A:
 561:Drivers/STM32L4xx_HAL_Driver/Src/stm32l4xx_hal_pwr_ex.c ****        SET_BIT(PWR->PDCRA, (GPIONumber & (~(PWR_GPIO_BIT_13|PWR_GPIO_BIT_15))));
 953              		.loc 1 561 8 view .LVU222
 954 0012 324B     		ldr	r3, .L92
 955 0014 5A6A     		ldr	r2, [r3, #36]
 956 0016 21F42040 		bic	r0, r1, #40960
 957              	.LVL80:
 958              		.loc 1 561 8 is_stmt 0 view .LVU223
 959 001a 0243     		orrs	r2, r2, r0
 960 001c 5A62     		str	r2, [r3, #36]
 562:Drivers/STM32L4xx_HAL_Driver/Src/stm32l4xx_hal_pwr_ex.c ****        CLEAR_BIT(PWR->PUCRA, (GPIONumber & (~(PWR_GPIO_BIT_14))));
 961              		.loc 1 562 8 is_stmt 1 view .LVU224
 962 001e 1A6A     		ldr	r2, [r3, #32]
 963 0020 21F48041 		bic	r1, r1, #16384
 964              	.LVL81:
 965              		.loc 1 562 8 is_stmt 0 view .LVU225
 966 0024 22EA0101 		bic	r1, r2, r1
 967 0028 1962     		str	r1, [r3, #32]
 563:Drivers/STM32L4xx_HAL_Driver/Src/stm32l4xx_hal_pwr_ex.c ****        break;
 968              		.loc 1 563 8 is_stmt 1 view .LVU226
 553:Drivers/STM32L4xx_HAL_Driver/Src/stm32l4xx_hal_pwr_ex.c **** 
 969              		.loc 1 553 21 is_stmt 0 view .LVU227
 970 002a 0020     		movs	r0, #0
 971              		.loc 1 563 8 view .LVU228
 972 002c 7047     		bx	lr
 973              	.LVL82:
 974              	.L89:
 564:Drivers/STM32L4xx_HAL_Driver/Src/stm32l4xx_hal_pwr_ex.c ****     case PWR_GPIO_B:
 565:Drivers/STM32L4xx_HAL_Driver/Src/stm32l4xx_hal_pwr_ex.c ****        SET_BIT(PWR->PDCRB, (GPIONumber & (~(PWR_GPIO_BIT_4))));
 975              		.loc 1 565 8 is_stmt 1 view .LVU229
 976 002e 2B4B     		ldr	r3, .L92
 977 0030 DA6A     		ldr	r2, [r3, #44]
 978 0032 21F01000 		bic	r0, r1, #16
 979              	.LVL83:
 980              		.loc 1 565 8 is_stmt 0 view .LVU230
 981 0036 0243     		orrs	r2, r2, r0
 982 0038 DA62     		str	r2, [r3, #44]
 566:Drivers/STM32L4xx_HAL_Driver/Src/stm32l4xx_hal_pwr_ex.c ****        CLEAR_BIT(PWR->PUCRB, GPIONumber);
 983              		.loc 1 566 8 is_stmt 1 view .LVU231
 984 003a 9A6A     		ldr	r2, [r3, #40]
 985 003c 22EA0101 		bic	r1, r2, r1
 986              	.LVL84:
 987              		.loc 1 566 8 is_stmt 0 view .LVU232
ARM GAS  C:\Users\HP\AppData\Local\Temp\ccTBk3CI.s 			page 29


 988 0040 9962     		str	r1, [r3, #40]
 567:Drivers/STM32L4xx_HAL_Driver/Src/stm32l4xx_hal_pwr_ex.c ****        break;
 989              		.loc 1 567 8 is_stmt 1 view .LVU233
 553:Drivers/STM32L4xx_HAL_Driver/Src/stm32l4xx_hal_pwr_ex.c **** 
 990              		.loc 1 553 21 is_stmt 0 view .LVU234
 991 0042 0020     		movs	r0, #0
 992              		.loc 1 567 8 view .LVU235
 993 0044 7047     		bx	lr
 994              	.LVL85:
 995              	.L88:
 568:Drivers/STM32L4xx_HAL_Driver/Src/stm32l4xx_hal_pwr_ex.c ****     case PWR_GPIO_C:
 569:Drivers/STM32L4xx_HAL_Driver/Src/stm32l4xx_hal_pwr_ex.c ****        SET_BIT(PWR->PDCRC, GPIONumber);
 996              		.loc 1 569 8 is_stmt 1 view .LVU236
 997 0046 254B     		ldr	r3, .L92
 998 0048 5A6B     		ldr	r2, [r3, #52]
 999 004a 0A43     		orrs	r2, r2, r1
 1000 004c 5A63     		str	r2, [r3, #52]
 570:Drivers/STM32L4xx_HAL_Driver/Src/stm32l4xx_hal_pwr_ex.c ****        CLEAR_BIT(PWR->PUCRC, GPIONumber);
 1001              		.loc 1 570 8 view .LVU237
 1002 004e 1A6B     		ldr	r2, [r3, #48]
 1003 0050 22EA0101 		bic	r1, r2, r1
 1004              	.LVL86:
 1005              		.loc 1 570 8 is_stmt 0 view .LVU238
 1006 0054 1963     		str	r1, [r3, #48]
 571:Drivers/STM32L4xx_HAL_Driver/Src/stm32l4xx_hal_pwr_ex.c ****        break;
 1007              		.loc 1 571 8 is_stmt 1 view .LVU239
 553:Drivers/STM32L4xx_HAL_Driver/Src/stm32l4xx_hal_pwr_ex.c **** 
 1008              		.loc 1 553 21 is_stmt 0 view .LVU240
 1009 0056 0020     		movs	r0, #0
 1010              	.LVL87:
 1011              		.loc 1 571 8 view .LVU241
 1012 0058 7047     		bx	lr
 1013              	.LVL88:
 1014              	.L87:
 572:Drivers/STM32L4xx_HAL_Driver/Src/stm32l4xx_hal_pwr_ex.c **** #if defined(GPIOD)
 573:Drivers/STM32L4xx_HAL_Driver/Src/stm32l4xx_hal_pwr_ex.c ****     case PWR_GPIO_D:
 574:Drivers/STM32L4xx_HAL_Driver/Src/stm32l4xx_hal_pwr_ex.c ****        SET_BIT(PWR->PDCRD, GPIONumber);
 1015              		.loc 1 574 8 is_stmt 1 view .LVU242
 1016 005a 204B     		ldr	r3, .L92
 1017 005c DA6B     		ldr	r2, [r3, #60]
 1018 005e 0A43     		orrs	r2, r2, r1
 1019 0060 DA63     		str	r2, [r3, #60]
 575:Drivers/STM32L4xx_HAL_Driver/Src/stm32l4xx_hal_pwr_ex.c ****        CLEAR_BIT(PWR->PUCRD, GPIONumber);
 1020              		.loc 1 575 8 view .LVU243
 1021 0062 9A6B     		ldr	r2, [r3, #56]
 1022 0064 22EA0101 		bic	r1, r2, r1
 1023              	.LVL89:
 1024              		.loc 1 575 8 is_stmt 0 view .LVU244
 1025 0068 9963     		str	r1, [r3, #56]
 576:Drivers/STM32L4xx_HAL_Driver/Src/stm32l4xx_hal_pwr_ex.c ****        break;
 1026              		.loc 1 576 8 is_stmt 1 view .LVU245
 553:Drivers/STM32L4xx_HAL_Driver/Src/stm32l4xx_hal_pwr_ex.c **** 
 1027              		.loc 1 553 21 is_stmt 0 view .LVU246
 1028 006a 0020     		movs	r0, #0
 1029              	.LVL90:
 1030              		.loc 1 576 8 view .LVU247
 1031 006c 7047     		bx	lr
ARM GAS  C:\Users\HP\AppData\Local\Temp\ccTBk3CI.s 			page 30


 1032              	.LVL91:
 1033              	.L86:
 577:Drivers/STM32L4xx_HAL_Driver/Src/stm32l4xx_hal_pwr_ex.c **** #endif
 578:Drivers/STM32L4xx_HAL_Driver/Src/stm32l4xx_hal_pwr_ex.c **** #if defined(GPIOE)
 579:Drivers/STM32L4xx_HAL_Driver/Src/stm32l4xx_hal_pwr_ex.c ****     case PWR_GPIO_E:
 580:Drivers/STM32L4xx_HAL_Driver/Src/stm32l4xx_hal_pwr_ex.c ****        SET_BIT(PWR->PDCRE, GPIONumber);
 1034              		.loc 1 580 8 is_stmt 1 view .LVU248
 1035 006e 1B4B     		ldr	r3, .L92
 1036 0070 5A6C     		ldr	r2, [r3, #68]
 1037 0072 0A43     		orrs	r2, r2, r1
 1038 0074 5A64     		str	r2, [r3, #68]
 581:Drivers/STM32L4xx_HAL_Driver/Src/stm32l4xx_hal_pwr_ex.c ****        CLEAR_BIT(PWR->PUCRE, GPIONumber);
 1039              		.loc 1 581 8 view .LVU249
 1040 0076 1A6C     		ldr	r2, [r3, #64]
 1041 0078 22EA0101 		bic	r1, r2, r1
 1042              	.LVL92:
 1043              		.loc 1 581 8 is_stmt 0 view .LVU250
 1044 007c 1964     		str	r1, [r3, #64]
 582:Drivers/STM32L4xx_HAL_Driver/Src/stm32l4xx_hal_pwr_ex.c ****        break;
 1045              		.loc 1 582 8 is_stmt 1 view .LVU251
 553:Drivers/STM32L4xx_HAL_Driver/Src/stm32l4xx_hal_pwr_ex.c **** 
 1046              		.loc 1 553 21 is_stmt 0 view .LVU252
 1047 007e 0020     		movs	r0, #0
 1048              	.LVL93:
 1049              		.loc 1 582 8 view .LVU253
 1050 0080 7047     		bx	lr
 1051              	.LVL94:
 1052              	.L85:
 583:Drivers/STM32L4xx_HAL_Driver/Src/stm32l4xx_hal_pwr_ex.c **** #endif
 584:Drivers/STM32L4xx_HAL_Driver/Src/stm32l4xx_hal_pwr_ex.c **** #if defined(GPIOF)
 585:Drivers/STM32L4xx_HAL_Driver/Src/stm32l4xx_hal_pwr_ex.c ****     case PWR_GPIO_F:
 586:Drivers/STM32L4xx_HAL_Driver/Src/stm32l4xx_hal_pwr_ex.c ****        SET_BIT(PWR->PDCRF, GPIONumber);
 1053              		.loc 1 586 8 is_stmt 1 view .LVU254
 1054 0082 164B     		ldr	r3, .L92
 1055 0084 DA6C     		ldr	r2, [r3, #76]
 1056 0086 0A43     		orrs	r2, r2, r1
 1057 0088 DA64     		str	r2, [r3, #76]
 587:Drivers/STM32L4xx_HAL_Driver/Src/stm32l4xx_hal_pwr_ex.c ****        CLEAR_BIT(PWR->PUCRF, GPIONumber);
 1058              		.loc 1 587 8 view .LVU255
 1059 008a 9A6C     		ldr	r2, [r3, #72]
 1060 008c 22EA0101 		bic	r1, r2, r1
 1061              	.LVL95:
 1062              		.loc 1 587 8 is_stmt 0 view .LVU256
 1063 0090 9964     		str	r1, [r3, #72]
 588:Drivers/STM32L4xx_HAL_Driver/Src/stm32l4xx_hal_pwr_ex.c ****        break;
 1064              		.loc 1 588 8 is_stmt 1 view .LVU257
 553:Drivers/STM32L4xx_HAL_Driver/Src/stm32l4xx_hal_pwr_ex.c **** 
 1065              		.loc 1 553 21 is_stmt 0 view .LVU258
 1066 0092 0020     		movs	r0, #0
 1067              	.LVL96:
 1068              		.loc 1 588 8 view .LVU259
 1069 0094 7047     		bx	lr
 1070              	.LVL97:
 1071              	.L84:
 589:Drivers/STM32L4xx_HAL_Driver/Src/stm32l4xx_hal_pwr_ex.c **** #endif
 590:Drivers/STM32L4xx_HAL_Driver/Src/stm32l4xx_hal_pwr_ex.c **** #if defined(GPIOG)
 591:Drivers/STM32L4xx_HAL_Driver/Src/stm32l4xx_hal_pwr_ex.c ****     case PWR_GPIO_G:
ARM GAS  C:\Users\HP\AppData\Local\Temp\ccTBk3CI.s 			page 31


 592:Drivers/STM32L4xx_HAL_Driver/Src/stm32l4xx_hal_pwr_ex.c ****        SET_BIT(PWR->PDCRG, GPIONumber);
 1072              		.loc 1 592 8 is_stmt 1 view .LVU260
 1073 0096 114B     		ldr	r3, .L92
 1074 0098 5A6D     		ldr	r2, [r3, #84]
 1075 009a 0A43     		orrs	r2, r2, r1
 1076 009c 5A65     		str	r2, [r3, #84]
 593:Drivers/STM32L4xx_HAL_Driver/Src/stm32l4xx_hal_pwr_ex.c ****        CLEAR_BIT(PWR->PUCRG, GPIONumber);
 1077              		.loc 1 593 8 view .LVU261
 1078 009e 1A6D     		ldr	r2, [r3, #80]
 1079 00a0 22EA0101 		bic	r1, r2, r1
 1080              	.LVL98:
 1081              		.loc 1 593 8 is_stmt 0 view .LVU262
 1082 00a4 1965     		str	r1, [r3, #80]
 594:Drivers/STM32L4xx_HAL_Driver/Src/stm32l4xx_hal_pwr_ex.c ****        break;
 1083              		.loc 1 594 8 is_stmt 1 view .LVU263
 553:Drivers/STM32L4xx_HAL_Driver/Src/stm32l4xx_hal_pwr_ex.c **** 
 1084              		.loc 1 553 21 is_stmt 0 view .LVU264
 1085 00a6 0020     		movs	r0, #0
 1086              	.LVL99:
 1087              		.loc 1 594 8 view .LVU265
 1088 00a8 7047     		bx	lr
 1089              	.LVL100:
 1090              	.L83:
 595:Drivers/STM32L4xx_HAL_Driver/Src/stm32l4xx_hal_pwr_ex.c **** #endif
 596:Drivers/STM32L4xx_HAL_Driver/Src/stm32l4xx_hal_pwr_ex.c ****     case PWR_GPIO_H:
 597:Drivers/STM32L4xx_HAL_Driver/Src/stm32l4xx_hal_pwr_ex.c **** #if defined (STM32L496xx) || defined (STM32L4A6xx)
 598:Drivers/STM32L4xx_HAL_Driver/Src/stm32l4xx_hal_pwr_ex.c ****        SET_BIT(PWR->PDCRH, ((GPIONumber & PWR_PORTH_AVAILABLE_PINS) & (~(PWR_GPIO_BIT_3))));
 599:Drivers/STM32L4xx_HAL_Driver/Src/stm32l4xx_hal_pwr_ex.c **** #else
 600:Drivers/STM32L4xx_HAL_Driver/Src/stm32l4xx_hal_pwr_ex.c ****        SET_BIT(PWR->PDCRH, (GPIONumber & PWR_PORTH_AVAILABLE_PINS));
 1091              		.loc 1 600 8 is_stmt 1 view .LVU266
 1092 00aa 0C4B     		ldr	r3, .L92
 1093 00ac DA6D     		ldr	r2, [r3, #92]
 1094 00ae 89B2     		uxth	r1, r1
 1095              	.LVL101:
 1096              		.loc 1 600 8 is_stmt 0 view .LVU267
 1097 00b0 0A43     		orrs	r2, r2, r1
 1098 00b2 DA65     		str	r2, [r3, #92]
 601:Drivers/STM32L4xx_HAL_Driver/Src/stm32l4xx_hal_pwr_ex.c **** #endif
 602:Drivers/STM32L4xx_HAL_Driver/Src/stm32l4xx_hal_pwr_ex.c ****        CLEAR_BIT(PWR->PUCRH, (GPIONumber & PWR_PORTH_AVAILABLE_PINS));
 1099              		.loc 1 602 8 is_stmt 1 view .LVU268
 1100 00b4 9A6D     		ldr	r2, [r3, #88]
 1101 00b6 22EA0101 		bic	r1, r2, r1
 1102 00ba 9965     		str	r1, [r3, #88]
 603:Drivers/STM32L4xx_HAL_Driver/Src/stm32l4xx_hal_pwr_ex.c ****        break;
 1103              		.loc 1 603 8 view .LVU269
 553:Drivers/STM32L4xx_HAL_Driver/Src/stm32l4xx_hal_pwr_ex.c **** 
 1104              		.loc 1 553 21 is_stmt 0 view .LVU270
 1105 00bc 0020     		movs	r0, #0
 1106              	.LVL102:
 1107              		.loc 1 603 8 view .LVU271
 1108 00be 7047     		bx	lr
 1109              	.LVL103:
 1110              	.L81:
 604:Drivers/STM32L4xx_HAL_Driver/Src/stm32l4xx_hal_pwr_ex.c **** #if defined(GPIOI)
 605:Drivers/STM32L4xx_HAL_Driver/Src/stm32l4xx_hal_pwr_ex.c ****     case PWR_GPIO_I:
 606:Drivers/STM32L4xx_HAL_Driver/Src/stm32l4xx_hal_pwr_ex.c ****        SET_BIT(PWR->PDCRI, (GPIONumber & PWR_PORTI_AVAILABLE_PINS));
 1111              		.loc 1 606 8 is_stmt 1 view .LVU272
ARM GAS  C:\Users\HP\AppData\Local\Temp\ccTBk3CI.s 			page 32


 1112 00c0 064B     		ldr	r3, .L92
 1113 00c2 5A6E     		ldr	r2, [r3, #100]
 1114 00c4 C1F30B01 		ubfx	r1, r1, #0, #12
 1115              	.LVL104:
 1116              		.loc 1 606 8 is_stmt 0 view .LVU273
 1117 00c8 0A43     		orrs	r2, r2, r1
 1118 00ca 5A66     		str	r2, [r3, #100]
 607:Drivers/STM32L4xx_HAL_Driver/Src/stm32l4xx_hal_pwr_ex.c ****        CLEAR_BIT(PWR->PUCRI, (GPIONumber & PWR_PORTI_AVAILABLE_PINS));
 1119              		.loc 1 607 8 is_stmt 1 view .LVU274
 1120 00cc 1A6E     		ldr	r2, [r3, #96]
 1121 00ce 22EA0101 		bic	r1, r2, r1
 1122 00d2 1966     		str	r1, [r3, #96]
 608:Drivers/STM32L4xx_HAL_Driver/Src/stm32l4xx_hal_pwr_ex.c ****        break;
 1123              		.loc 1 608 8 view .LVU275
 553:Drivers/STM32L4xx_HAL_Driver/Src/stm32l4xx_hal_pwr_ex.c **** 
 1124              		.loc 1 553 21 is_stmt 0 view .LVU276
 1125 00d4 0020     		movs	r0, #0
 1126              	.LVL105:
 1127              		.loc 1 608 8 view .LVU277
 1128 00d6 7047     		bx	lr
 1129              	.LVL106:
 1130              	.L91:
 558:Drivers/STM32L4xx_HAL_Driver/Src/stm32l4xx_hal_pwr_ex.c ****   {
 1131              		.loc 1 558 3 view .LVU278
 1132 00d8 0120     		movs	r0, #1
 1133              	.LVL107:
 609:Drivers/STM32L4xx_HAL_Driver/Src/stm32l4xx_hal_pwr_ex.c **** #endif
 610:Drivers/STM32L4xx_HAL_Driver/Src/stm32l4xx_hal_pwr_ex.c ****     default:
 611:Drivers/STM32L4xx_HAL_Driver/Src/stm32l4xx_hal_pwr_ex.c ****       status = HAL_ERROR;
 612:Drivers/STM32L4xx_HAL_Driver/Src/stm32l4xx_hal_pwr_ex.c ****       break;
 613:Drivers/STM32L4xx_HAL_Driver/Src/stm32l4xx_hal_pwr_ex.c ****   }
 614:Drivers/STM32L4xx_HAL_Driver/Src/stm32l4xx_hal_pwr_ex.c **** 
 615:Drivers/STM32L4xx_HAL_Driver/Src/stm32l4xx_hal_pwr_ex.c ****   return status;
 1134              		.loc 1 615 3 is_stmt 1 view .LVU279
 616:Drivers/STM32L4xx_HAL_Driver/Src/stm32l4xx_hal_pwr_ex.c **** }
 1135              		.loc 1 616 1 is_stmt 0 view .LVU280
 1136 00da 7047     		bx	lr
 1137              	.L93:
 1138              		.align	2
 1139              	.L92:
 1140 00dc 00700040 		.word	1073770496
 1141              		.cfi_endproc
 1142              	.LFE144:
 1144              		.section	.text.HAL_PWREx_DisableGPIOPullDown,"ax",%progbits
 1145              		.align	1
 1146              		.global	HAL_PWREx_DisableGPIOPullDown
 1147              		.syntax unified
 1148              		.thumb
 1149              		.thumb_func
 1151              	HAL_PWREx_DisableGPIOPullDown:
 1152              	.LVL108:
 1153              	.LFB145:
 617:Drivers/STM32L4xx_HAL_Driver/Src/stm32l4xx_hal_pwr_ex.c **** 
 618:Drivers/STM32L4xx_HAL_Driver/Src/stm32l4xx_hal_pwr_ex.c **** 
 619:Drivers/STM32L4xx_HAL_Driver/Src/stm32l4xx_hal_pwr_ex.c **** /**
 620:Drivers/STM32L4xx_HAL_Driver/Src/stm32l4xx_hal_pwr_ex.c ****   * @brief Disable GPIO pull-down state in Standby and Shutdown modes.
 621:Drivers/STM32L4xx_HAL_Driver/Src/stm32l4xx_hal_pwr_ex.c ****   * @note  Reset the relevant PDy bits of PWR_PDCRx register used to configure the I/O
ARM GAS  C:\Users\HP\AppData\Local\Temp\ccTBk3CI.s 			page 33


 622:Drivers/STM32L4xx_HAL_Driver/Src/stm32l4xx_hal_pwr_ex.c ****   *        in pull-down state in Standby and Shutdown modes.
 623:Drivers/STM32L4xx_HAL_Driver/Src/stm32l4xx_hal_pwr_ex.c ****   * @note  Even if a PDy bit to reset is reserved, the other PDy bits entered as input
 624:Drivers/STM32L4xx_HAL_Driver/Src/stm32l4xx_hal_pwr_ex.c ****   *        parameter at the same time are reset.
 625:Drivers/STM32L4xx_HAL_Driver/Src/stm32l4xx_hal_pwr_ex.c ****   * @param  GPIO Specifies the IO port. This parameter can be PWR_GPIO_A..PWR_GPIO_H
 626:Drivers/STM32L4xx_HAL_Driver/Src/stm32l4xx_hal_pwr_ex.c ****   *         (or PWR_GPIO_I depending on the devices) to select the GPIO peripheral.
 627:Drivers/STM32L4xx_HAL_Driver/Src/stm32l4xx_hal_pwr_ex.c ****   * @param  GPIONumber Specify the I/O pins numbers.
 628:Drivers/STM32L4xx_HAL_Driver/Src/stm32l4xx_hal_pwr_ex.c ****   *         This parameter can be one of the following values:
 629:Drivers/STM32L4xx_HAL_Driver/Src/stm32l4xx_hal_pwr_ex.c ****   *         PWR_GPIO_BIT_0, ..., PWR_GPIO_BIT_15 (except for the port where less
 630:Drivers/STM32L4xx_HAL_Driver/Src/stm32l4xx_hal_pwr_ex.c ****   *         I/O pins are available) or the logical OR of several of them to reset
 631:Drivers/STM32L4xx_HAL_Driver/Src/stm32l4xx_hal_pwr_ex.c ****   *         several bits for a given port in a single API call.
 632:Drivers/STM32L4xx_HAL_Driver/Src/stm32l4xx_hal_pwr_ex.c ****   * @retval HAL Status
 633:Drivers/STM32L4xx_HAL_Driver/Src/stm32l4xx_hal_pwr_ex.c ****   */
 634:Drivers/STM32L4xx_HAL_Driver/Src/stm32l4xx_hal_pwr_ex.c **** HAL_StatusTypeDef HAL_PWREx_DisableGPIOPullDown(uint32_t GPIO, uint32_t GPIONumber)
 635:Drivers/STM32L4xx_HAL_Driver/Src/stm32l4xx_hal_pwr_ex.c **** {
 1154              		.loc 1 635 1 is_stmt 1 view -0
 1155              		.cfi_startproc
 1156              		@ args = 0, pretend = 0, frame = 0
 1157              		@ frame_needed = 0, uses_anonymous_args = 0
 1158              		@ link register save eliminated.
 636:Drivers/STM32L4xx_HAL_Driver/Src/stm32l4xx_hal_pwr_ex.c ****   HAL_StatusTypeDef status = HAL_OK;
 1159              		.loc 1 636 3 view .LVU282
 637:Drivers/STM32L4xx_HAL_Driver/Src/stm32l4xx_hal_pwr_ex.c **** 
 638:Drivers/STM32L4xx_HAL_Driver/Src/stm32l4xx_hal_pwr_ex.c ****   assert_param(IS_PWR_GPIO(GPIO));
 1160              		.loc 1 638 3 view .LVU283
 639:Drivers/STM32L4xx_HAL_Driver/Src/stm32l4xx_hal_pwr_ex.c ****   assert_param(IS_PWR_GPIO_BIT_NUMBER(GPIONumber));
 1161              		.loc 1 639 3 view .LVU284
 640:Drivers/STM32L4xx_HAL_Driver/Src/stm32l4xx_hal_pwr_ex.c **** 
 641:Drivers/STM32L4xx_HAL_Driver/Src/stm32l4xx_hal_pwr_ex.c ****   switch (GPIO)
 1162              		.loc 1 641 3 view .LVU285
 1163 0000 0828     		cmp	r0, #8
 1164 0002 4CD8     		bhi	.L106
 1165 0004 DFE800F0 		tbb	[pc, r0]
 1166              	.L97:
 1167 0008 05       		.byte	(.L105-.L97)/2
 1168 0009 0E       		.byte	(.L104-.L97)/2
 1169 000a 17       		.byte	(.L103-.L97)/2
 1170 000b 1E       		.byte	(.L102-.L97)/2
 1171 000c 25       		.byte	(.L101-.L97)/2
 1172 000d 2C       		.byte	(.L100-.L97)/2
 1173 000e 33       		.byte	(.L99-.L97)/2
 1174 000f 3A       		.byte	(.L98-.L97)/2
 1175 0010 42       		.byte	(.L96-.L97)/2
 1176 0011 00       		.p2align 1
 1177              	.L105:
 642:Drivers/STM32L4xx_HAL_Driver/Src/stm32l4xx_hal_pwr_ex.c ****   {
 643:Drivers/STM32L4xx_HAL_Driver/Src/stm32l4xx_hal_pwr_ex.c ****     case PWR_GPIO_A:
 644:Drivers/STM32L4xx_HAL_Driver/Src/stm32l4xx_hal_pwr_ex.c ****        CLEAR_BIT(PWR->PDCRA, (GPIONumber & (~(PWR_GPIO_BIT_13|PWR_GPIO_BIT_15))));
 1178              		.loc 1 644 8 view .LVU286
 1179 0012 244A     		ldr	r2, .L107
 1180 0014 536A     		ldr	r3, [r2, #36]
 1181 0016 21F42041 		bic	r1, r1, #40960
 1182              	.LVL109:
 1183              		.loc 1 644 8 is_stmt 0 view .LVU287
 1184 001a 23EA0101 		bic	r1, r3, r1
 1185 001e 5162     		str	r1, [r2, #36]
 645:Drivers/STM32L4xx_HAL_Driver/Src/stm32l4xx_hal_pwr_ex.c ****        break;
 1186              		.loc 1 645 8 is_stmt 1 view .LVU288
ARM GAS  C:\Users\HP\AppData\Local\Temp\ccTBk3CI.s 			page 34


 636:Drivers/STM32L4xx_HAL_Driver/Src/stm32l4xx_hal_pwr_ex.c **** 
 1187              		.loc 1 636 21 is_stmt 0 view .LVU289
 1188 0020 0020     		movs	r0, #0
 1189              	.LVL110:
 1190              		.loc 1 645 8 view .LVU290
 1191 0022 7047     		bx	lr
 1192              	.LVL111:
 1193              	.L104:
 646:Drivers/STM32L4xx_HAL_Driver/Src/stm32l4xx_hal_pwr_ex.c ****     case PWR_GPIO_B:
 647:Drivers/STM32L4xx_HAL_Driver/Src/stm32l4xx_hal_pwr_ex.c ****        CLEAR_BIT(PWR->PDCRB, (GPIONumber & (~(PWR_GPIO_BIT_4))));
 1194              		.loc 1 647 8 is_stmt 1 view .LVU291
 1195 0024 1F4A     		ldr	r2, .L107
 1196 0026 D36A     		ldr	r3, [r2, #44]
 1197 0028 21F01001 		bic	r1, r1, #16
 1198              	.LVL112:
 1199              		.loc 1 647 8 is_stmt 0 view .LVU292
 1200 002c 23EA0101 		bic	r1, r3, r1
 1201 0030 D162     		str	r1, [r2, #44]
 648:Drivers/STM32L4xx_HAL_Driver/Src/stm32l4xx_hal_pwr_ex.c ****        break;
 1202              		.loc 1 648 8 is_stmt 1 view .LVU293
 636:Drivers/STM32L4xx_HAL_Driver/Src/stm32l4xx_hal_pwr_ex.c **** 
 1203              		.loc 1 636 21 is_stmt 0 view .LVU294
 1204 0032 0020     		movs	r0, #0
 1205              	.LVL113:
 1206              		.loc 1 648 8 view .LVU295
 1207 0034 7047     		bx	lr
 1208              	.LVL114:
 1209              	.L103:
 649:Drivers/STM32L4xx_HAL_Driver/Src/stm32l4xx_hal_pwr_ex.c ****     case PWR_GPIO_C:
 650:Drivers/STM32L4xx_HAL_Driver/Src/stm32l4xx_hal_pwr_ex.c ****        CLEAR_BIT(PWR->PDCRC, GPIONumber);
 1210              		.loc 1 650 8 is_stmt 1 view .LVU296
 1211 0036 1B4A     		ldr	r2, .L107
 1212 0038 536B     		ldr	r3, [r2, #52]
 1213 003a 23EA0101 		bic	r1, r3, r1
 1214              	.LVL115:
 1215              		.loc 1 650 8 is_stmt 0 view .LVU297
 1216 003e 5163     		str	r1, [r2, #52]
 651:Drivers/STM32L4xx_HAL_Driver/Src/stm32l4xx_hal_pwr_ex.c ****        break;
 1217              		.loc 1 651 8 is_stmt 1 view .LVU298
 636:Drivers/STM32L4xx_HAL_Driver/Src/stm32l4xx_hal_pwr_ex.c **** 
 1218              		.loc 1 636 21 is_stmt 0 view .LVU299
 1219 0040 0020     		movs	r0, #0
 1220              	.LVL116:
 1221              		.loc 1 651 8 view .LVU300
 1222 0042 7047     		bx	lr
 1223              	.LVL117:
 1224              	.L102:
 652:Drivers/STM32L4xx_HAL_Driver/Src/stm32l4xx_hal_pwr_ex.c **** #if defined(GPIOD)
 653:Drivers/STM32L4xx_HAL_Driver/Src/stm32l4xx_hal_pwr_ex.c ****     case PWR_GPIO_D:
 654:Drivers/STM32L4xx_HAL_Driver/Src/stm32l4xx_hal_pwr_ex.c ****        CLEAR_BIT(PWR->PDCRD, GPIONumber);
 1225              		.loc 1 654 8 is_stmt 1 view .LVU301
 1226 0044 174A     		ldr	r2, .L107
 1227 0046 D36B     		ldr	r3, [r2, #60]
 1228 0048 23EA0101 		bic	r1, r3, r1
 1229              	.LVL118:
 1230              		.loc 1 654 8 is_stmt 0 view .LVU302
 1231 004c D163     		str	r1, [r2, #60]
ARM GAS  C:\Users\HP\AppData\Local\Temp\ccTBk3CI.s 			page 35


 655:Drivers/STM32L4xx_HAL_Driver/Src/stm32l4xx_hal_pwr_ex.c ****        break;
 1232              		.loc 1 655 8 is_stmt 1 view .LVU303
 636:Drivers/STM32L4xx_HAL_Driver/Src/stm32l4xx_hal_pwr_ex.c **** 
 1233              		.loc 1 636 21 is_stmt 0 view .LVU304
 1234 004e 0020     		movs	r0, #0
 1235              	.LVL119:
 1236              		.loc 1 655 8 view .LVU305
 1237 0050 7047     		bx	lr
 1238              	.LVL120:
 1239              	.L101:
 656:Drivers/STM32L4xx_HAL_Driver/Src/stm32l4xx_hal_pwr_ex.c **** #endif
 657:Drivers/STM32L4xx_HAL_Driver/Src/stm32l4xx_hal_pwr_ex.c **** #if defined(GPIOE)
 658:Drivers/STM32L4xx_HAL_Driver/Src/stm32l4xx_hal_pwr_ex.c ****     case PWR_GPIO_E:
 659:Drivers/STM32L4xx_HAL_Driver/Src/stm32l4xx_hal_pwr_ex.c ****        CLEAR_BIT(PWR->PDCRE, GPIONumber);
 1240              		.loc 1 659 8 is_stmt 1 view .LVU306
 1241 0052 144A     		ldr	r2, .L107
 1242 0054 536C     		ldr	r3, [r2, #68]
 1243 0056 23EA0101 		bic	r1, r3, r1
 1244              	.LVL121:
 1245              		.loc 1 659 8 is_stmt 0 view .LVU307
 1246 005a 5164     		str	r1, [r2, #68]
 660:Drivers/STM32L4xx_HAL_Driver/Src/stm32l4xx_hal_pwr_ex.c ****        break;
 1247              		.loc 1 660 8 is_stmt 1 view .LVU308
 636:Drivers/STM32L4xx_HAL_Driver/Src/stm32l4xx_hal_pwr_ex.c **** 
 1248              		.loc 1 636 21 is_stmt 0 view .LVU309
 1249 005c 0020     		movs	r0, #0
 1250              	.LVL122:
 1251              		.loc 1 660 8 view .LVU310
 1252 005e 7047     		bx	lr
 1253              	.LVL123:
 1254              	.L100:
 661:Drivers/STM32L4xx_HAL_Driver/Src/stm32l4xx_hal_pwr_ex.c **** #endif
 662:Drivers/STM32L4xx_HAL_Driver/Src/stm32l4xx_hal_pwr_ex.c **** #if defined(GPIOF)
 663:Drivers/STM32L4xx_HAL_Driver/Src/stm32l4xx_hal_pwr_ex.c ****     case PWR_GPIO_F:
 664:Drivers/STM32L4xx_HAL_Driver/Src/stm32l4xx_hal_pwr_ex.c ****        CLEAR_BIT(PWR->PDCRF, GPIONumber);
 1255              		.loc 1 664 8 is_stmt 1 view .LVU311
 1256 0060 104A     		ldr	r2, .L107
 1257 0062 D36C     		ldr	r3, [r2, #76]
 1258 0064 23EA0101 		bic	r1, r3, r1
 1259              	.LVL124:
 1260              		.loc 1 664 8 is_stmt 0 view .LVU312
 1261 0068 D164     		str	r1, [r2, #76]
 665:Drivers/STM32L4xx_HAL_Driver/Src/stm32l4xx_hal_pwr_ex.c ****        break;
 1262              		.loc 1 665 8 is_stmt 1 view .LVU313
 636:Drivers/STM32L4xx_HAL_Driver/Src/stm32l4xx_hal_pwr_ex.c **** 
 1263              		.loc 1 636 21 is_stmt 0 view .LVU314
 1264 006a 0020     		movs	r0, #0
 1265              	.LVL125:
 1266              		.loc 1 665 8 view .LVU315
 1267 006c 7047     		bx	lr
 1268              	.LVL126:
 1269              	.L99:
 666:Drivers/STM32L4xx_HAL_Driver/Src/stm32l4xx_hal_pwr_ex.c **** #endif
 667:Drivers/STM32L4xx_HAL_Driver/Src/stm32l4xx_hal_pwr_ex.c **** #if defined(GPIOG)
 668:Drivers/STM32L4xx_HAL_Driver/Src/stm32l4xx_hal_pwr_ex.c ****     case PWR_GPIO_G:
 669:Drivers/STM32L4xx_HAL_Driver/Src/stm32l4xx_hal_pwr_ex.c ****        CLEAR_BIT(PWR->PDCRG, GPIONumber);
 1270              		.loc 1 669 8 is_stmt 1 view .LVU316
ARM GAS  C:\Users\HP\AppData\Local\Temp\ccTBk3CI.s 			page 36


 1271 006e 0D4A     		ldr	r2, .L107
 1272 0070 536D     		ldr	r3, [r2, #84]
 1273 0072 23EA0101 		bic	r1, r3, r1
 1274              	.LVL127:
 1275              		.loc 1 669 8 is_stmt 0 view .LVU317
 1276 0076 5165     		str	r1, [r2, #84]
 670:Drivers/STM32L4xx_HAL_Driver/Src/stm32l4xx_hal_pwr_ex.c ****        break;
 1277              		.loc 1 670 8 is_stmt 1 view .LVU318
 636:Drivers/STM32L4xx_HAL_Driver/Src/stm32l4xx_hal_pwr_ex.c **** 
 1278              		.loc 1 636 21 is_stmt 0 view .LVU319
 1279 0078 0020     		movs	r0, #0
 1280              	.LVL128:
 1281              		.loc 1 670 8 view .LVU320
 1282 007a 7047     		bx	lr
 1283              	.LVL129:
 1284              	.L98:
 671:Drivers/STM32L4xx_HAL_Driver/Src/stm32l4xx_hal_pwr_ex.c **** #endif
 672:Drivers/STM32L4xx_HAL_Driver/Src/stm32l4xx_hal_pwr_ex.c ****     case PWR_GPIO_H:
 673:Drivers/STM32L4xx_HAL_Driver/Src/stm32l4xx_hal_pwr_ex.c **** #if defined (STM32L496xx) || defined (STM32L4A6xx)
 674:Drivers/STM32L4xx_HAL_Driver/Src/stm32l4xx_hal_pwr_ex.c ****        CLEAR_BIT(PWR->PDCRH, ((GPIONumber & PWR_PORTH_AVAILABLE_PINS) & (~(PWR_GPIO_BIT_3))));
 675:Drivers/STM32L4xx_HAL_Driver/Src/stm32l4xx_hal_pwr_ex.c **** #else
 676:Drivers/STM32L4xx_HAL_Driver/Src/stm32l4xx_hal_pwr_ex.c ****        CLEAR_BIT(PWR->PDCRH, (GPIONumber & PWR_PORTH_AVAILABLE_PINS));
 1285              		.loc 1 676 8 is_stmt 1 view .LVU321
 1286 007c 094A     		ldr	r2, .L107
 1287 007e D36D     		ldr	r3, [r2, #92]
 1288 0080 89B2     		uxth	r1, r1
 1289              	.LVL130:
 1290              		.loc 1 676 8 is_stmt 0 view .LVU322
 1291 0082 23EA0101 		bic	r1, r3, r1
 1292 0086 D165     		str	r1, [r2, #92]
 677:Drivers/STM32L4xx_HAL_Driver/Src/stm32l4xx_hal_pwr_ex.c **** #endif
 678:Drivers/STM32L4xx_HAL_Driver/Src/stm32l4xx_hal_pwr_ex.c ****        break;
 1293              		.loc 1 678 8 is_stmt 1 view .LVU323
 636:Drivers/STM32L4xx_HAL_Driver/Src/stm32l4xx_hal_pwr_ex.c **** 
 1294              		.loc 1 636 21 is_stmt 0 view .LVU324
 1295 0088 0020     		movs	r0, #0
 1296              	.LVL131:
 1297              		.loc 1 678 8 view .LVU325
 1298 008a 7047     		bx	lr
 1299              	.LVL132:
 1300              	.L96:
 679:Drivers/STM32L4xx_HAL_Driver/Src/stm32l4xx_hal_pwr_ex.c **** #if defined(GPIOI)
 680:Drivers/STM32L4xx_HAL_Driver/Src/stm32l4xx_hal_pwr_ex.c ****     case PWR_GPIO_I:
 681:Drivers/STM32L4xx_HAL_Driver/Src/stm32l4xx_hal_pwr_ex.c ****        CLEAR_BIT(PWR->PDCRI, (GPIONumber & PWR_PORTI_AVAILABLE_PINS));
 1301              		.loc 1 681 8 is_stmt 1 view .LVU326
 1302 008c 054A     		ldr	r2, .L107
 1303 008e 536E     		ldr	r3, [r2, #100]
 1304 0090 C1F30B01 		ubfx	r1, r1, #0, #12
 1305              	.LVL133:
 1306              		.loc 1 681 8 is_stmt 0 view .LVU327
 1307 0094 23EA0101 		bic	r1, r3, r1
 1308 0098 5166     		str	r1, [r2, #100]
 682:Drivers/STM32L4xx_HAL_Driver/Src/stm32l4xx_hal_pwr_ex.c ****        break;
 1309              		.loc 1 682 8 is_stmt 1 view .LVU328
 636:Drivers/STM32L4xx_HAL_Driver/Src/stm32l4xx_hal_pwr_ex.c **** 
 1310              		.loc 1 636 21 is_stmt 0 view .LVU329
 1311 009a 0020     		movs	r0, #0
ARM GAS  C:\Users\HP\AppData\Local\Temp\ccTBk3CI.s 			page 37


 1312              	.LVL134:
 1313              		.loc 1 682 8 view .LVU330
 1314 009c 7047     		bx	lr
 1315              	.LVL135:
 1316              	.L106:
 641:Drivers/STM32L4xx_HAL_Driver/Src/stm32l4xx_hal_pwr_ex.c ****   {
 1317              		.loc 1 641 3 view .LVU331
 1318 009e 0120     		movs	r0, #1
 1319              	.LVL136:
 683:Drivers/STM32L4xx_HAL_Driver/Src/stm32l4xx_hal_pwr_ex.c **** #endif
 684:Drivers/STM32L4xx_HAL_Driver/Src/stm32l4xx_hal_pwr_ex.c ****     default:
 685:Drivers/STM32L4xx_HAL_Driver/Src/stm32l4xx_hal_pwr_ex.c ****       status = HAL_ERROR;
 686:Drivers/STM32L4xx_HAL_Driver/Src/stm32l4xx_hal_pwr_ex.c ****       break;
 687:Drivers/STM32L4xx_HAL_Driver/Src/stm32l4xx_hal_pwr_ex.c ****   }
 688:Drivers/STM32L4xx_HAL_Driver/Src/stm32l4xx_hal_pwr_ex.c **** 
 689:Drivers/STM32L4xx_HAL_Driver/Src/stm32l4xx_hal_pwr_ex.c ****   return status;
 1320              		.loc 1 689 3 is_stmt 1 view .LVU332
 690:Drivers/STM32L4xx_HAL_Driver/Src/stm32l4xx_hal_pwr_ex.c **** }
 1321              		.loc 1 690 1 is_stmt 0 view .LVU333
 1322 00a0 7047     		bx	lr
 1323              	.L108:
 1324 00a2 00BF     		.align	2
 1325              	.L107:
 1326 00a4 00700040 		.word	1073770496
 1327              		.cfi_endproc
 1328              	.LFE145:
 1330              		.section	.text.HAL_PWREx_EnablePullUpPullDownConfig,"ax",%progbits
 1331              		.align	1
 1332              		.global	HAL_PWREx_EnablePullUpPullDownConfig
 1333              		.syntax unified
 1334              		.thumb
 1335              		.thumb_func
 1337              	HAL_PWREx_EnablePullUpPullDownConfig:
 1338              	.LFB146:
 691:Drivers/STM32L4xx_HAL_Driver/Src/stm32l4xx_hal_pwr_ex.c **** 
 692:Drivers/STM32L4xx_HAL_Driver/Src/stm32l4xx_hal_pwr_ex.c **** 
 693:Drivers/STM32L4xx_HAL_Driver/Src/stm32l4xx_hal_pwr_ex.c **** 
 694:Drivers/STM32L4xx_HAL_Driver/Src/stm32l4xx_hal_pwr_ex.c **** /**
 695:Drivers/STM32L4xx_HAL_Driver/Src/stm32l4xx_hal_pwr_ex.c ****   * @brief Enable pull-up and pull-down configuration.
 696:Drivers/STM32L4xx_HAL_Driver/Src/stm32l4xx_hal_pwr_ex.c ****   * @note  When APC bit is set, the I/O pull-up and pull-down configurations defined in
 697:Drivers/STM32L4xx_HAL_Driver/Src/stm32l4xx_hal_pwr_ex.c ****   *        PWR_PUCRx and PWR_PDCRx registers are applied in Standby and Shutdown modes.
 698:Drivers/STM32L4xx_HAL_Driver/Src/stm32l4xx_hal_pwr_ex.c ****   * @note  Pull-up set by PUy bit of PWR_PUCRx register is not activated if the corresponding
 699:Drivers/STM32L4xx_HAL_Driver/Src/stm32l4xx_hal_pwr_ex.c ****   *        PDy bit of PWR_PDCRx register is also set (pull-down configuration priority is higher).
 700:Drivers/STM32L4xx_HAL_Driver/Src/stm32l4xx_hal_pwr_ex.c ****   *        HAL_PWREx_EnableGPIOPullUp() and HAL_PWREx_EnableGPIOPullDown() API's ensure there
 701:Drivers/STM32L4xx_HAL_Driver/Src/stm32l4xx_hal_pwr_ex.c ****   *        is no conflict when setting PUy or PDy bit.
 702:Drivers/STM32L4xx_HAL_Driver/Src/stm32l4xx_hal_pwr_ex.c ****   * @retval None
 703:Drivers/STM32L4xx_HAL_Driver/Src/stm32l4xx_hal_pwr_ex.c ****   */
 704:Drivers/STM32L4xx_HAL_Driver/Src/stm32l4xx_hal_pwr_ex.c **** void HAL_PWREx_EnablePullUpPullDownConfig(void)
 705:Drivers/STM32L4xx_HAL_Driver/Src/stm32l4xx_hal_pwr_ex.c **** {
 1339              		.loc 1 705 1 is_stmt 1 view -0
 1340              		.cfi_startproc
 1341              		@ args = 0, pretend = 0, frame = 0
 1342              		@ frame_needed = 0, uses_anonymous_args = 0
 1343              		@ link register save eliminated.
 706:Drivers/STM32L4xx_HAL_Driver/Src/stm32l4xx_hal_pwr_ex.c ****   SET_BIT(PWR->CR3, PWR_CR3_APC);
 1344              		.loc 1 706 3 view .LVU335
 1345 0000 024A     		ldr	r2, .L110
ARM GAS  C:\Users\HP\AppData\Local\Temp\ccTBk3CI.s 			page 38


 1346 0002 9368     		ldr	r3, [r2, #8]
 1347 0004 43F48063 		orr	r3, r3, #1024
 1348 0008 9360     		str	r3, [r2, #8]
 707:Drivers/STM32L4xx_HAL_Driver/Src/stm32l4xx_hal_pwr_ex.c **** }
 1349              		.loc 1 707 1 is_stmt 0 view .LVU336
 1350 000a 7047     		bx	lr
 1351              	.L111:
 1352              		.align	2
 1353              	.L110:
 1354 000c 00700040 		.word	1073770496
 1355              		.cfi_endproc
 1356              	.LFE146:
 1358              		.section	.text.HAL_PWREx_DisablePullUpPullDownConfig,"ax",%progbits
 1359              		.align	1
 1360              		.global	HAL_PWREx_DisablePullUpPullDownConfig
 1361              		.syntax unified
 1362              		.thumb
 1363              		.thumb_func
 1365              	HAL_PWREx_DisablePullUpPullDownConfig:
 1366              	.LFB147:
 708:Drivers/STM32L4xx_HAL_Driver/Src/stm32l4xx_hal_pwr_ex.c **** 
 709:Drivers/STM32L4xx_HAL_Driver/Src/stm32l4xx_hal_pwr_ex.c **** 
 710:Drivers/STM32L4xx_HAL_Driver/Src/stm32l4xx_hal_pwr_ex.c **** /**
 711:Drivers/STM32L4xx_HAL_Driver/Src/stm32l4xx_hal_pwr_ex.c ****   * @brief Disable pull-up and pull-down configuration.
 712:Drivers/STM32L4xx_HAL_Driver/Src/stm32l4xx_hal_pwr_ex.c ****   * @note  When APC bit is cleared, the I/O pull-up and pull-down configurations defined in
 713:Drivers/STM32L4xx_HAL_Driver/Src/stm32l4xx_hal_pwr_ex.c ****   *        PWR_PUCRx and PWR_PDCRx registers are not applied in Standby and Shutdown modes.
 714:Drivers/STM32L4xx_HAL_Driver/Src/stm32l4xx_hal_pwr_ex.c ****   * @retval None
 715:Drivers/STM32L4xx_HAL_Driver/Src/stm32l4xx_hal_pwr_ex.c ****   */
 716:Drivers/STM32L4xx_HAL_Driver/Src/stm32l4xx_hal_pwr_ex.c **** void HAL_PWREx_DisablePullUpPullDownConfig(void)
 717:Drivers/STM32L4xx_HAL_Driver/Src/stm32l4xx_hal_pwr_ex.c **** {
 1367              		.loc 1 717 1 is_stmt 1 view -0
 1368              		.cfi_startproc
 1369              		@ args = 0, pretend = 0, frame = 0
 1370              		@ frame_needed = 0, uses_anonymous_args = 0
 1371              		@ link register save eliminated.
 718:Drivers/STM32L4xx_HAL_Driver/Src/stm32l4xx_hal_pwr_ex.c ****   CLEAR_BIT(PWR->CR3, PWR_CR3_APC);
 1372              		.loc 1 718 3 view .LVU338
 1373 0000 024A     		ldr	r2, .L113
 1374 0002 9368     		ldr	r3, [r2, #8]
 1375 0004 23F48063 		bic	r3, r3, #1024
 1376 0008 9360     		str	r3, [r2, #8]
 719:Drivers/STM32L4xx_HAL_Driver/Src/stm32l4xx_hal_pwr_ex.c **** }
 1377              		.loc 1 719 1 is_stmt 0 view .LVU339
 1378 000a 7047     		bx	lr
 1379              	.L114:
 1380              		.align	2
 1381              	.L113:
 1382 000c 00700040 		.word	1073770496
 1383              		.cfi_endproc
 1384              	.LFE147:
 1386              		.section	.text.HAL_PWREx_SetSRAM2ContentRetention,"ax",%progbits
 1387              		.align	1
 1388              		.global	HAL_PWREx_SetSRAM2ContentRetention
 1389              		.syntax unified
 1390              		.thumb
 1391              		.thumb_func
 1393              	HAL_PWREx_SetSRAM2ContentRetention:
ARM GAS  C:\Users\HP\AppData\Local\Temp\ccTBk3CI.s 			page 39


 1394              	.LVL137:
 1395              	.LFB150:
 720:Drivers/STM32L4xx_HAL_Driver/Src/stm32l4xx_hal_pwr_ex.c **** 
 721:Drivers/STM32L4xx_HAL_Driver/Src/stm32l4xx_hal_pwr_ex.c **** 
 722:Drivers/STM32L4xx_HAL_Driver/Src/stm32l4xx_hal_pwr_ex.c **** 
 723:Drivers/STM32L4xx_HAL_Driver/Src/stm32l4xx_hal_pwr_ex.c **** /**
 724:Drivers/STM32L4xx_HAL_Driver/Src/stm32l4xx_hal_pwr_ex.c ****   * @brief Enable Full SRAM2 content retention in Standby mode.
 725:Drivers/STM32L4xx_HAL_Driver/Src/stm32l4xx_hal_pwr_ex.c ****   * @retval None
 726:Drivers/STM32L4xx_HAL_Driver/Src/stm32l4xx_hal_pwr_ex.c ****   */
 727:Drivers/STM32L4xx_HAL_Driver/Src/stm32l4xx_hal_pwr_ex.c **** void HAL_PWREx_EnableSRAM2ContentRetention(void)
 728:Drivers/STM32L4xx_HAL_Driver/Src/stm32l4xx_hal_pwr_ex.c **** {
 729:Drivers/STM32L4xx_HAL_Driver/Src/stm32l4xx_hal_pwr_ex.c ****   (void) HAL_PWREx_SetSRAM2ContentRetention(PWR_FULL_SRAM2_RETENTION);
 730:Drivers/STM32L4xx_HAL_Driver/Src/stm32l4xx_hal_pwr_ex.c **** }
 731:Drivers/STM32L4xx_HAL_Driver/Src/stm32l4xx_hal_pwr_ex.c **** 
 732:Drivers/STM32L4xx_HAL_Driver/Src/stm32l4xx_hal_pwr_ex.c **** /**
 733:Drivers/STM32L4xx_HAL_Driver/Src/stm32l4xx_hal_pwr_ex.c ****   * @brief Disable SRAM2 content retention in Standby mode.
 734:Drivers/STM32L4xx_HAL_Driver/Src/stm32l4xx_hal_pwr_ex.c ****   * @retval None
 735:Drivers/STM32L4xx_HAL_Driver/Src/stm32l4xx_hal_pwr_ex.c ****   */
 736:Drivers/STM32L4xx_HAL_Driver/Src/stm32l4xx_hal_pwr_ex.c **** void HAL_PWREx_DisableSRAM2ContentRetention(void)
 737:Drivers/STM32L4xx_HAL_Driver/Src/stm32l4xx_hal_pwr_ex.c **** {
 738:Drivers/STM32L4xx_HAL_Driver/Src/stm32l4xx_hal_pwr_ex.c ****   (void) HAL_PWREx_SetSRAM2ContentRetention(PWR_NO_SRAM2_RETENTION);
 739:Drivers/STM32L4xx_HAL_Driver/Src/stm32l4xx_hal_pwr_ex.c **** }
 740:Drivers/STM32L4xx_HAL_Driver/Src/stm32l4xx_hal_pwr_ex.c **** 
 741:Drivers/STM32L4xx_HAL_Driver/Src/stm32l4xx_hal_pwr_ex.c **** /**
 742:Drivers/STM32L4xx_HAL_Driver/Src/stm32l4xx_hal_pwr_ex.c ****   * @brief Enable SRAM2 content retention in Standby mode.
 743:Drivers/STM32L4xx_HAL_Driver/Src/stm32l4xx_hal_pwr_ex.c ****   * @param  SRAM2Size: specifies the SRAM2 size kept in Standby mode
 744:Drivers/STM32L4xx_HAL_Driver/Src/stm32l4xx_hal_pwr_ex.c ****   *          This parameter can be one of the following values:
 745:Drivers/STM32L4xx_HAL_Driver/Src/stm32l4xx_hal_pwr_ex.c ****   *            @arg @ref PWR_NO_SRAM2_RETENTION        SRAM2 is powered off in Standby mode (SRAM2 
 746:Drivers/STM32L4xx_HAL_Driver/Src/stm32l4xx_hal_pwr_ex.c ****   *            @arg @ref PWR_FULL_SRAM2_RETENTION      Full SRAM2 is powered by the low-power regul
 747:Drivers/STM32L4xx_HAL_Driver/Src/stm32l4xx_hal_pwr_ex.c ****   *            @arg @ref PWR_4KBYTES_SRAM2_RETENTION   Only 4 Kbytes of SRAM2 is powered by the low
 748:Drivers/STM32L4xx_HAL_Driver/Src/stm32l4xx_hal_pwr_ex.c ****   * @note  PWR_4KBYTES_SRAM2_RETENTION parameter is not available on all devices
 749:Drivers/STM32L4xx_HAL_Driver/Src/stm32l4xx_hal_pwr_ex.c ****   * @retval HAL Status
 750:Drivers/STM32L4xx_HAL_Driver/Src/stm32l4xx_hal_pwr_ex.c ****   */
 751:Drivers/STM32L4xx_HAL_Driver/Src/stm32l4xx_hal_pwr_ex.c **** HAL_StatusTypeDef HAL_PWREx_SetSRAM2ContentRetention(uint32_t SRAM2Size)
 752:Drivers/STM32L4xx_HAL_Driver/Src/stm32l4xx_hal_pwr_ex.c **** {
 1396              		.loc 1 752 1 is_stmt 1 view -0
 1397              		.cfi_startproc
 1398              		@ args = 0, pretend = 0, frame = 0
 1399              		@ frame_needed = 0, uses_anonymous_args = 0
 1400              		@ link register save eliminated.
 753:Drivers/STM32L4xx_HAL_Driver/Src/stm32l4xx_hal_pwr_ex.c ****   assert_param(IS_PWR_SRAM2_RETENTION(SRAM2Size));
 1401              		.loc 1 753 3 view .LVU341
 754:Drivers/STM32L4xx_HAL_Driver/Src/stm32l4xx_hal_pwr_ex.c **** 
 755:Drivers/STM32L4xx_HAL_Driver/Src/stm32l4xx_hal_pwr_ex.c ****   if (SRAM2Size == PWR_NO_SRAM2_RETENTION)
 1402              		.loc 1 755 3 view .LVU342
 1403              		.loc 1 755 6 is_stmt 0 view .LVU343
 1404 0000 28B9     		cbnz	r0, .L116
 756:Drivers/STM32L4xx_HAL_Driver/Src/stm32l4xx_hal_pwr_ex.c ****   {
 757:Drivers/STM32L4xx_HAL_Driver/Src/stm32l4xx_hal_pwr_ex.c ****     CLEAR_BIT(PWR->CR3, PWR_CR3_RRS);
 1405              		.loc 1 757 5 is_stmt 1 view .LVU344
 1406 0002 094A     		ldr	r2, .L119
 1407 0004 9368     		ldr	r3, [r2, #8]
 1408 0006 23F48073 		bic	r3, r3, #256
 1409 000a 9360     		str	r3, [r2, #8]
 1410 000c 7047     		bx	lr
 1411              	.L116:
 758:Drivers/STM32L4xx_HAL_Driver/Src/stm32l4xx_hal_pwr_ex.c ****   }
ARM GAS  C:\Users\HP\AppData\Local\Temp\ccTBk3CI.s 			page 40


 759:Drivers/STM32L4xx_HAL_Driver/Src/stm32l4xx_hal_pwr_ex.c ****   else if (SRAM2Size == PWR_FULL_SRAM2_RETENTION)
 1412              		.loc 1 759 8 view .LVU345
 1413              		.loc 1 759 11 is_stmt 0 view .LVU346
 1414 000e B0F5807F 		cmp	r0, #256
 1415 0012 06D1     		bne	.L118
 760:Drivers/STM32L4xx_HAL_Driver/Src/stm32l4xx_hal_pwr_ex.c ****   {
 761:Drivers/STM32L4xx_HAL_Driver/Src/stm32l4xx_hal_pwr_ex.c ****     MODIFY_REG(PWR->CR3, PWR_CR3_RRS, PWR_FULL_SRAM2_RETENTION);
 1416              		.loc 1 761 5 is_stmt 1 view .LVU347
 1417 0014 044A     		ldr	r2, .L119
 1418 0016 9368     		ldr	r3, [r2, #8]
 1419 0018 43F48073 		orr	r3, r3, #256
 1420 001c 9360     		str	r3, [r2, #8]
 762:Drivers/STM32L4xx_HAL_Driver/Src/stm32l4xx_hal_pwr_ex.c ****   }
 763:Drivers/STM32L4xx_HAL_Driver/Src/stm32l4xx_hal_pwr_ex.c **** #if defined(PWR_CR3_RRS_1)
 764:Drivers/STM32L4xx_HAL_Driver/Src/stm32l4xx_hal_pwr_ex.c ****   else if (SRAM2Size == PWR_4KBYTES_SRAM2_RETENTION)
 765:Drivers/STM32L4xx_HAL_Driver/Src/stm32l4xx_hal_pwr_ex.c ****   {
 766:Drivers/STM32L4xx_HAL_Driver/Src/stm32l4xx_hal_pwr_ex.c ****     MODIFY_REG(PWR->CR3, PWR_CR3_RRS, PWR_4KBYTES_SRAM2_RETENTION);
 767:Drivers/STM32L4xx_HAL_Driver/Src/stm32l4xx_hal_pwr_ex.c ****   }
 768:Drivers/STM32L4xx_HAL_Driver/Src/stm32l4xx_hal_pwr_ex.c **** #endif /* PWR_CR3_RRS_1 */
 769:Drivers/STM32L4xx_HAL_Driver/Src/stm32l4xx_hal_pwr_ex.c ****   else {
 770:Drivers/STM32L4xx_HAL_Driver/Src/stm32l4xx_hal_pwr_ex.c ****     return HAL_ERROR;
 771:Drivers/STM32L4xx_HAL_Driver/Src/stm32l4xx_hal_pwr_ex.c ****   }
 772:Drivers/STM32L4xx_HAL_Driver/Src/stm32l4xx_hal_pwr_ex.c **** 
 773:Drivers/STM32L4xx_HAL_Driver/Src/stm32l4xx_hal_pwr_ex.c ****   return HAL_OK;
 1421              		.loc 1 773 10 is_stmt 0 view .LVU348
 1422 001e 0020     		movs	r0, #0
 1423              	.LVL138:
 1424              		.loc 1 773 10 view .LVU349
 1425 0020 7047     		bx	lr
 1426              	.LVL139:
 1427              	.L118:
 770:Drivers/STM32L4xx_HAL_Driver/Src/stm32l4xx_hal_pwr_ex.c ****   }
 1428              		.loc 1 770 12 view .LVU350
 1429 0022 0120     		movs	r0, #1
 1430              	.LVL140:
 774:Drivers/STM32L4xx_HAL_Driver/Src/stm32l4xx_hal_pwr_ex.c **** }
 1431              		.loc 1 774 1 view .LVU351
 1432 0024 7047     		bx	lr
 1433              	.L120:
 1434 0026 00BF     		.align	2
 1435              	.L119:
 1436 0028 00700040 		.word	1073770496
 1437              		.cfi_endproc
 1438              	.LFE150:
 1440              		.section	.text.HAL_PWREx_EnableSRAM2ContentRetention,"ax",%progbits
 1441              		.align	1
 1442              		.global	HAL_PWREx_EnableSRAM2ContentRetention
 1443              		.syntax unified
 1444              		.thumb
 1445              		.thumb_func
 1447              	HAL_PWREx_EnableSRAM2ContentRetention:
 1448              	.LFB148:
 728:Drivers/STM32L4xx_HAL_Driver/Src/stm32l4xx_hal_pwr_ex.c ****   (void) HAL_PWREx_SetSRAM2ContentRetention(PWR_FULL_SRAM2_RETENTION);
 1449              		.loc 1 728 1 is_stmt 1 view -0
 1450              		.cfi_startproc
 1451              		@ args = 0, pretend = 0, frame = 0
 1452              		@ frame_needed = 0, uses_anonymous_args = 0
ARM GAS  C:\Users\HP\AppData\Local\Temp\ccTBk3CI.s 			page 41


 1453 0000 08B5     		push	{r3, lr}
 1454              	.LCFI0:
 1455              		.cfi_def_cfa_offset 8
 1456              		.cfi_offset 3, -8
 1457              		.cfi_offset 14, -4
 729:Drivers/STM32L4xx_HAL_Driver/Src/stm32l4xx_hal_pwr_ex.c **** }
 1458              		.loc 1 729 3 view .LVU353
 729:Drivers/STM32L4xx_HAL_Driver/Src/stm32l4xx_hal_pwr_ex.c **** }
 1459              		.loc 1 729 10 is_stmt 0 view .LVU354
 1460 0002 4FF48070 		mov	r0, #256
 1461 0006 FFF7FEFF 		bl	HAL_PWREx_SetSRAM2ContentRetention
 1462              	.LVL141:
 730:Drivers/STM32L4xx_HAL_Driver/Src/stm32l4xx_hal_pwr_ex.c **** 
 1463              		.loc 1 730 1 view .LVU355
 1464 000a 08BD     		pop	{r3, pc}
 1465              		.cfi_endproc
 1466              	.LFE148:
 1468              		.section	.text.HAL_PWREx_DisableSRAM2ContentRetention,"ax",%progbits
 1469              		.align	1
 1470              		.global	HAL_PWREx_DisableSRAM2ContentRetention
 1471              		.syntax unified
 1472              		.thumb
 1473              		.thumb_func
 1475              	HAL_PWREx_DisableSRAM2ContentRetention:
 1476              	.LFB149:
 737:Drivers/STM32L4xx_HAL_Driver/Src/stm32l4xx_hal_pwr_ex.c ****   (void) HAL_PWREx_SetSRAM2ContentRetention(PWR_NO_SRAM2_RETENTION);
 1477              		.loc 1 737 1 is_stmt 1 view -0
 1478              		.cfi_startproc
 1479              		@ args = 0, pretend = 0, frame = 0
 1480              		@ frame_needed = 0, uses_anonymous_args = 0
 1481 0000 08B5     		push	{r3, lr}
 1482              	.LCFI1:
 1483              		.cfi_def_cfa_offset 8
 1484              		.cfi_offset 3, -8
 1485              		.cfi_offset 14, -4
 738:Drivers/STM32L4xx_HAL_Driver/Src/stm32l4xx_hal_pwr_ex.c **** }
 1486              		.loc 1 738 3 view .LVU357
 738:Drivers/STM32L4xx_HAL_Driver/Src/stm32l4xx_hal_pwr_ex.c **** }
 1487              		.loc 1 738 10 is_stmt 0 view .LVU358
 1488 0002 0020     		movs	r0, #0
 1489 0004 FFF7FEFF 		bl	HAL_PWREx_SetSRAM2ContentRetention
 1490              	.LVL142:
 739:Drivers/STM32L4xx_HAL_Driver/Src/stm32l4xx_hal_pwr_ex.c **** 
 1491              		.loc 1 739 1 view .LVU359
 1492 0008 08BD     		pop	{r3, pc}
 1493              		.cfi_endproc
 1494              	.LFE149:
 1496              		.section	.text.HAL_PWREx_EnableSRAM3ContentRetention,"ax",%progbits
 1497              		.align	1
 1498              		.global	HAL_PWREx_EnableSRAM3ContentRetention
 1499              		.syntax unified
 1500              		.thumb
 1501              		.thumb_func
 1503              	HAL_PWREx_EnableSRAM3ContentRetention:
 1504              	.LFB151:
 775:Drivers/STM32L4xx_HAL_Driver/Src/stm32l4xx_hal_pwr_ex.c **** 
 776:Drivers/STM32L4xx_HAL_Driver/Src/stm32l4xx_hal_pwr_ex.c **** 
ARM GAS  C:\Users\HP\AppData\Local\Temp\ccTBk3CI.s 			page 42


 777:Drivers/STM32L4xx_HAL_Driver/Src/stm32l4xx_hal_pwr_ex.c **** #if defined(PWR_CR3_ENULP)
 778:Drivers/STM32L4xx_HAL_Driver/Src/stm32l4xx_hal_pwr_ex.c **** /**
 779:Drivers/STM32L4xx_HAL_Driver/Src/stm32l4xx_hal_pwr_ex.c ****   * @brief Enable Ultra Low Power BORL, BORH and PVD for STOP2 and Standby modes.
 780:Drivers/STM32L4xx_HAL_Driver/Src/stm32l4xx_hal_pwr_ex.c ****   * @note  All the other modes are not affected by this bit.
 781:Drivers/STM32L4xx_HAL_Driver/Src/stm32l4xx_hal_pwr_ex.c ****   * @retval None
 782:Drivers/STM32L4xx_HAL_Driver/Src/stm32l4xx_hal_pwr_ex.c ****   */
 783:Drivers/STM32L4xx_HAL_Driver/Src/stm32l4xx_hal_pwr_ex.c **** void HAL_PWREx_EnableBORPVD_ULP(void)
 784:Drivers/STM32L4xx_HAL_Driver/Src/stm32l4xx_hal_pwr_ex.c **** {
 785:Drivers/STM32L4xx_HAL_Driver/Src/stm32l4xx_hal_pwr_ex.c ****   SET_BIT(PWR->CR3, PWR_CR3_ENULP);
 786:Drivers/STM32L4xx_HAL_Driver/Src/stm32l4xx_hal_pwr_ex.c **** }
 787:Drivers/STM32L4xx_HAL_Driver/Src/stm32l4xx_hal_pwr_ex.c **** 
 788:Drivers/STM32L4xx_HAL_Driver/Src/stm32l4xx_hal_pwr_ex.c **** 
 789:Drivers/STM32L4xx_HAL_Driver/Src/stm32l4xx_hal_pwr_ex.c **** /**
 790:Drivers/STM32L4xx_HAL_Driver/Src/stm32l4xx_hal_pwr_ex.c ****   * @brief Disable Ultra Low Power BORL, BORH and PVD for STOP2 and Standby modes.
 791:Drivers/STM32L4xx_HAL_Driver/Src/stm32l4xx_hal_pwr_ex.c ****   * @note  All the other modes are not affected by this bit
 792:Drivers/STM32L4xx_HAL_Driver/Src/stm32l4xx_hal_pwr_ex.c ****   * @retval None
 793:Drivers/STM32L4xx_HAL_Driver/Src/stm32l4xx_hal_pwr_ex.c ****   */
 794:Drivers/STM32L4xx_HAL_Driver/Src/stm32l4xx_hal_pwr_ex.c **** void HAL_PWREx_DisableBORPVD_ULP(void)
 795:Drivers/STM32L4xx_HAL_Driver/Src/stm32l4xx_hal_pwr_ex.c **** {
 796:Drivers/STM32L4xx_HAL_Driver/Src/stm32l4xx_hal_pwr_ex.c ****   CLEAR_BIT(PWR->CR3, PWR_CR3_ENULP);
 797:Drivers/STM32L4xx_HAL_Driver/Src/stm32l4xx_hal_pwr_ex.c **** }
 798:Drivers/STM32L4xx_HAL_Driver/Src/stm32l4xx_hal_pwr_ex.c **** #endif /* PWR_CR3_ENULP */
 799:Drivers/STM32L4xx_HAL_Driver/Src/stm32l4xx_hal_pwr_ex.c **** 
 800:Drivers/STM32L4xx_HAL_Driver/Src/stm32l4xx_hal_pwr_ex.c **** 
 801:Drivers/STM32L4xx_HAL_Driver/Src/stm32l4xx_hal_pwr_ex.c **** #if defined(PWR_CR4_EXT_SMPS_ON)
 802:Drivers/STM32L4xx_HAL_Driver/Src/stm32l4xx_hal_pwr_ex.c **** /**
 803:Drivers/STM32L4xx_HAL_Driver/Src/stm32l4xx_hal_pwr_ex.c ****   * @brief Enable the CFLDO working @ 0.95V.
 804:Drivers/STM32L4xx_HAL_Driver/Src/stm32l4xx_hal_pwr_ex.c ****   * @note  When external SMPS is used & CFLDO operating in Range 2, the regulated voltage of the
 805:Drivers/STM32L4xx_HAL_Driver/Src/stm32l4xx_hal_pwr_ex.c ****   *        internal CFLDO can be reduced to 0.95V.
 806:Drivers/STM32L4xx_HAL_Driver/Src/stm32l4xx_hal_pwr_ex.c ****   * @retval None
 807:Drivers/STM32L4xx_HAL_Driver/Src/stm32l4xx_hal_pwr_ex.c ****   */
 808:Drivers/STM32L4xx_HAL_Driver/Src/stm32l4xx_hal_pwr_ex.c **** void HAL_PWREx_EnableExtSMPS_0V95(void)
 809:Drivers/STM32L4xx_HAL_Driver/Src/stm32l4xx_hal_pwr_ex.c **** {
 810:Drivers/STM32L4xx_HAL_Driver/Src/stm32l4xx_hal_pwr_ex.c ****   SET_BIT(PWR->CR4, PWR_CR4_EXT_SMPS_ON);
 811:Drivers/STM32L4xx_HAL_Driver/Src/stm32l4xx_hal_pwr_ex.c **** }
 812:Drivers/STM32L4xx_HAL_Driver/Src/stm32l4xx_hal_pwr_ex.c **** 
 813:Drivers/STM32L4xx_HAL_Driver/Src/stm32l4xx_hal_pwr_ex.c **** /**
 814:Drivers/STM32L4xx_HAL_Driver/Src/stm32l4xx_hal_pwr_ex.c ****   * @brief Disable the CFLDO working @ 0.95V
 815:Drivers/STM32L4xx_HAL_Driver/Src/stm32l4xx_hal_pwr_ex.c ****   * @note  Before SMPS is switched off, the regulated voltage of the
 816:Drivers/STM32L4xx_HAL_Driver/Src/stm32l4xx_hal_pwr_ex.c ****   *        internal CFLDO shall be set to 1.00V.
 817:Drivers/STM32L4xx_HAL_Driver/Src/stm32l4xx_hal_pwr_ex.c ****   *        1.00V. is also default operating Range 2 voltage.
 818:Drivers/STM32L4xx_HAL_Driver/Src/stm32l4xx_hal_pwr_ex.c ****   * @retval None
 819:Drivers/STM32L4xx_HAL_Driver/Src/stm32l4xx_hal_pwr_ex.c ****   */
 820:Drivers/STM32L4xx_HAL_Driver/Src/stm32l4xx_hal_pwr_ex.c **** void HAL_PWREx_DisableExtSMPS_0V95(void)
 821:Drivers/STM32L4xx_HAL_Driver/Src/stm32l4xx_hal_pwr_ex.c **** {
 822:Drivers/STM32L4xx_HAL_Driver/Src/stm32l4xx_hal_pwr_ex.c ****   CLEAR_BIT(PWR->CR4, PWR_CR4_EXT_SMPS_ON);
 823:Drivers/STM32L4xx_HAL_Driver/Src/stm32l4xx_hal_pwr_ex.c **** }
 824:Drivers/STM32L4xx_HAL_Driver/Src/stm32l4xx_hal_pwr_ex.c **** #endif /* PWR_CR4_EXT_SMPS_ON */
 825:Drivers/STM32L4xx_HAL_Driver/Src/stm32l4xx_hal_pwr_ex.c **** 
 826:Drivers/STM32L4xx_HAL_Driver/Src/stm32l4xx_hal_pwr_ex.c **** 
 827:Drivers/STM32L4xx_HAL_Driver/Src/stm32l4xx_hal_pwr_ex.c **** #if defined(PWR_CR1_RRSTP)
 828:Drivers/STM32L4xx_HAL_Driver/Src/stm32l4xx_hal_pwr_ex.c **** /**
 829:Drivers/STM32L4xx_HAL_Driver/Src/stm32l4xx_hal_pwr_ex.c ****   * @brief Enable SRAM3 content retention in Stop 2 mode.
 830:Drivers/STM32L4xx_HAL_Driver/Src/stm32l4xx_hal_pwr_ex.c ****   * @note  When RRSTP bit is set, SRAM3 is powered by the low-power regulator in
 831:Drivers/STM32L4xx_HAL_Driver/Src/stm32l4xx_hal_pwr_ex.c ****   *        Stop 2 mode and its content is kept.
 832:Drivers/STM32L4xx_HAL_Driver/Src/stm32l4xx_hal_pwr_ex.c ****   * @retval None
 833:Drivers/STM32L4xx_HAL_Driver/Src/stm32l4xx_hal_pwr_ex.c ****   */
ARM GAS  C:\Users\HP\AppData\Local\Temp\ccTBk3CI.s 			page 43


 834:Drivers/STM32L4xx_HAL_Driver/Src/stm32l4xx_hal_pwr_ex.c **** void HAL_PWREx_EnableSRAM3ContentRetention(void)
 835:Drivers/STM32L4xx_HAL_Driver/Src/stm32l4xx_hal_pwr_ex.c **** {
 1505              		.loc 1 835 1 is_stmt 1 view -0
 1506              		.cfi_startproc
 1507              		@ args = 0, pretend = 0, frame = 0
 1508              		@ frame_needed = 0, uses_anonymous_args = 0
 1509              		@ link register save eliminated.
 836:Drivers/STM32L4xx_HAL_Driver/Src/stm32l4xx_hal_pwr_ex.c ****   SET_BIT(PWR->CR1, PWR_CR1_RRSTP);
 1510              		.loc 1 836 3 view .LVU361
 1511 0000 024A     		ldr	r2, .L126
 1512 0002 1368     		ldr	r3, [r2]
 1513 0004 43F01003 		orr	r3, r3, #16
 1514 0008 1360     		str	r3, [r2]
 837:Drivers/STM32L4xx_HAL_Driver/Src/stm32l4xx_hal_pwr_ex.c **** }
 1515              		.loc 1 837 1 is_stmt 0 view .LVU362
 1516 000a 7047     		bx	lr
 1517              	.L127:
 1518              		.align	2
 1519              	.L126:
 1520 000c 00700040 		.word	1073770496
 1521              		.cfi_endproc
 1522              	.LFE151:
 1524              		.section	.text.HAL_PWREx_DisableSRAM3ContentRetention,"ax",%progbits
 1525              		.align	1
 1526              		.global	HAL_PWREx_DisableSRAM3ContentRetention
 1527              		.syntax unified
 1528              		.thumb
 1529              		.thumb_func
 1531              	HAL_PWREx_DisableSRAM3ContentRetention:
 1532              	.LFB152:
 838:Drivers/STM32L4xx_HAL_Driver/Src/stm32l4xx_hal_pwr_ex.c **** 
 839:Drivers/STM32L4xx_HAL_Driver/Src/stm32l4xx_hal_pwr_ex.c **** 
 840:Drivers/STM32L4xx_HAL_Driver/Src/stm32l4xx_hal_pwr_ex.c **** /**
 841:Drivers/STM32L4xx_HAL_Driver/Src/stm32l4xx_hal_pwr_ex.c ****   * @brief Disable SRAM3 content retention in Stop 2 mode.
 842:Drivers/STM32L4xx_HAL_Driver/Src/stm32l4xx_hal_pwr_ex.c ****   * @note  When RRSTP bit is reset, SRAM3 is powered off in Stop 2 mode
 843:Drivers/STM32L4xx_HAL_Driver/Src/stm32l4xx_hal_pwr_ex.c ****   *        and its content is lost.
 844:Drivers/STM32L4xx_HAL_Driver/Src/stm32l4xx_hal_pwr_ex.c ****   * @retval None
 845:Drivers/STM32L4xx_HAL_Driver/Src/stm32l4xx_hal_pwr_ex.c ****   */
 846:Drivers/STM32L4xx_HAL_Driver/Src/stm32l4xx_hal_pwr_ex.c **** void HAL_PWREx_DisableSRAM3ContentRetention(void)
 847:Drivers/STM32L4xx_HAL_Driver/Src/stm32l4xx_hal_pwr_ex.c **** {
 1533              		.loc 1 847 1 is_stmt 1 view -0
 1534              		.cfi_startproc
 1535              		@ args = 0, pretend = 0, frame = 0
 1536              		@ frame_needed = 0, uses_anonymous_args = 0
 1537              		@ link register save eliminated.
 848:Drivers/STM32L4xx_HAL_Driver/Src/stm32l4xx_hal_pwr_ex.c ****   CLEAR_BIT(PWR->CR1, PWR_CR1_RRSTP);
 1538              		.loc 1 848 3 view .LVU364
 1539 0000 024A     		ldr	r2, .L129
 1540 0002 1368     		ldr	r3, [r2]
 1541 0004 23F01003 		bic	r3, r3, #16
 1542 0008 1360     		str	r3, [r2]
 849:Drivers/STM32L4xx_HAL_Driver/Src/stm32l4xx_hal_pwr_ex.c **** }
 1543              		.loc 1 849 1 is_stmt 0 view .LVU365
 1544 000a 7047     		bx	lr
 1545              	.L130:
 1546              		.align	2
 1547              	.L129:
ARM GAS  C:\Users\HP\AppData\Local\Temp\ccTBk3CI.s 			page 44


 1548 000c 00700040 		.word	1073770496
 1549              		.cfi_endproc
 1550              	.LFE152:
 1552              		.section	.text.HAL_PWREx_EnableDSIPinsPDActivation,"ax",%progbits
 1553              		.align	1
 1554              		.global	HAL_PWREx_EnableDSIPinsPDActivation
 1555              		.syntax unified
 1556              		.thumb
 1557              		.thumb_func
 1559              	HAL_PWREx_EnableDSIPinsPDActivation:
 1560              	.LFB153:
 850:Drivers/STM32L4xx_HAL_Driver/Src/stm32l4xx_hal_pwr_ex.c **** #endif /* PWR_CR1_RRSTP */
 851:Drivers/STM32L4xx_HAL_Driver/Src/stm32l4xx_hal_pwr_ex.c **** 
 852:Drivers/STM32L4xx_HAL_Driver/Src/stm32l4xx_hal_pwr_ex.c **** #if defined(PWR_CR3_DSIPDEN)
 853:Drivers/STM32L4xx_HAL_Driver/Src/stm32l4xx_hal_pwr_ex.c **** /**
 854:Drivers/STM32L4xx_HAL_Driver/Src/stm32l4xx_hal_pwr_ex.c ****   * @brief Enable pull-down activation on DSI pins.
 855:Drivers/STM32L4xx_HAL_Driver/Src/stm32l4xx_hal_pwr_ex.c ****   * @retval None
 856:Drivers/STM32L4xx_HAL_Driver/Src/stm32l4xx_hal_pwr_ex.c ****   */
 857:Drivers/STM32L4xx_HAL_Driver/Src/stm32l4xx_hal_pwr_ex.c **** void HAL_PWREx_EnableDSIPinsPDActivation(void)
 858:Drivers/STM32L4xx_HAL_Driver/Src/stm32l4xx_hal_pwr_ex.c **** {
 1561              		.loc 1 858 1 is_stmt 1 view -0
 1562              		.cfi_startproc
 1563              		@ args = 0, pretend = 0, frame = 0
 1564              		@ frame_needed = 0, uses_anonymous_args = 0
 1565              		@ link register save eliminated.
 859:Drivers/STM32L4xx_HAL_Driver/Src/stm32l4xx_hal_pwr_ex.c ****   SET_BIT(PWR->CR3, PWR_CR3_DSIPDEN);
 1566              		.loc 1 859 3 view .LVU367
 1567 0000 024A     		ldr	r2, .L132
 1568 0002 9368     		ldr	r3, [r2, #8]
 1569 0004 43F48053 		orr	r3, r3, #4096
 1570 0008 9360     		str	r3, [r2, #8]
 860:Drivers/STM32L4xx_HAL_Driver/Src/stm32l4xx_hal_pwr_ex.c **** }
 1571              		.loc 1 860 1 is_stmt 0 view .LVU368
 1572 000a 7047     		bx	lr
 1573              	.L133:
 1574              		.align	2
 1575              	.L132:
 1576 000c 00700040 		.word	1073770496
 1577              		.cfi_endproc
 1578              	.LFE153:
 1580              		.section	.text.HAL_PWREx_DisableDSIPinsPDActivation,"ax",%progbits
 1581              		.align	1
 1582              		.global	HAL_PWREx_DisableDSIPinsPDActivation
 1583              		.syntax unified
 1584              		.thumb
 1585              		.thumb_func
 1587              	HAL_PWREx_DisableDSIPinsPDActivation:
 1588              	.LFB154:
 861:Drivers/STM32L4xx_HAL_Driver/Src/stm32l4xx_hal_pwr_ex.c **** 
 862:Drivers/STM32L4xx_HAL_Driver/Src/stm32l4xx_hal_pwr_ex.c **** 
 863:Drivers/STM32L4xx_HAL_Driver/Src/stm32l4xx_hal_pwr_ex.c **** /**
 864:Drivers/STM32L4xx_HAL_Driver/Src/stm32l4xx_hal_pwr_ex.c ****   * @brief Disable pull-down activation on DSI pins.
 865:Drivers/STM32L4xx_HAL_Driver/Src/stm32l4xx_hal_pwr_ex.c ****   * @retval None
 866:Drivers/STM32L4xx_HAL_Driver/Src/stm32l4xx_hal_pwr_ex.c ****   */
 867:Drivers/STM32L4xx_HAL_Driver/Src/stm32l4xx_hal_pwr_ex.c **** void HAL_PWREx_DisableDSIPinsPDActivation(void)
 868:Drivers/STM32L4xx_HAL_Driver/Src/stm32l4xx_hal_pwr_ex.c **** {
 1589              		.loc 1 868 1 is_stmt 1 view -0
ARM GAS  C:\Users\HP\AppData\Local\Temp\ccTBk3CI.s 			page 45


 1590              		.cfi_startproc
 1591              		@ args = 0, pretend = 0, frame = 0
 1592              		@ frame_needed = 0, uses_anonymous_args = 0
 1593              		@ link register save eliminated.
 869:Drivers/STM32L4xx_HAL_Driver/Src/stm32l4xx_hal_pwr_ex.c ****   CLEAR_BIT(PWR->CR3, PWR_CR3_DSIPDEN);
 1594              		.loc 1 869 3 view .LVU370
 1595 0000 024A     		ldr	r2, .L135
 1596 0002 9368     		ldr	r3, [r2, #8]
 1597 0004 23F48053 		bic	r3, r3, #4096
 1598 0008 9360     		str	r3, [r2, #8]
 870:Drivers/STM32L4xx_HAL_Driver/Src/stm32l4xx_hal_pwr_ex.c **** }
 1599              		.loc 1 870 1 is_stmt 0 view .LVU371
 1600 000a 7047     		bx	lr
 1601              	.L136:
 1602              		.align	2
 1603              	.L135:
 1604 000c 00700040 		.word	1073770496
 1605              		.cfi_endproc
 1606              	.LFE154:
 1608              		.section	.text.HAL_PWREx_EnablePVM1,"ax",%progbits
 1609              		.align	1
 1610              		.global	HAL_PWREx_EnablePVM1
 1611              		.syntax unified
 1612              		.thumb
 1613              		.thumb_func
 1615              	HAL_PWREx_EnablePVM1:
 1616              	.LFB155:
 871:Drivers/STM32L4xx_HAL_Driver/Src/stm32l4xx_hal_pwr_ex.c **** #endif /* PWR_CR3_DSIPDEN */
 872:Drivers/STM32L4xx_HAL_Driver/Src/stm32l4xx_hal_pwr_ex.c **** 
 873:Drivers/STM32L4xx_HAL_Driver/Src/stm32l4xx_hal_pwr_ex.c **** #if defined(PWR_CR2_PVME1)
 874:Drivers/STM32L4xx_HAL_Driver/Src/stm32l4xx_hal_pwr_ex.c **** /**
 875:Drivers/STM32L4xx_HAL_Driver/Src/stm32l4xx_hal_pwr_ex.c ****   * @brief Enable the Power Voltage Monitoring 1: VDDUSB versus 1.2V.
 876:Drivers/STM32L4xx_HAL_Driver/Src/stm32l4xx_hal_pwr_ex.c ****   * @retval None
 877:Drivers/STM32L4xx_HAL_Driver/Src/stm32l4xx_hal_pwr_ex.c ****   */
 878:Drivers/STM32L4xx_HAL_Driver/Src/stm32l4xx_hal_pwr_ex.c **** void HAL_PWREx_EnablePVM1(void)
 879:Drivers/STM32L4xx_HAL_Driver/Src/stm32l4xx_hal_pwr_ex.c **** {
 1617              		.loc 1 879 1 is_stmt 1 view -0
 1618              		.cfi_startproc
 1619              		@ args = 0, pretend = 0, frame = 0
 1620              		@ frame_needed = 0, uses_anonymous_args = 0
 1621              		@ link register save eliminated.
 880:Drivers/STM32L4xx_HAL_Driver/Src/stm32l4xx_hal_pwr_ex.c ****   SET_BIT(PWR->CR2, PWR_PVM_1);
 1622              		.loc 1 880 3 view .LVU373
 1623 0000 024A     		ldr	r2, .L138
 1624 0002 5368     		ldr	r3, [r2, #4]
 1625 0004 43F01003 		orr	r3, r3, #16
 1626 0008 5360     		str	r3, [r2, #4]
 881:Drivers/STM32L4xx_HAL_Driver/Src/stm32l4xx_hal_pwr_ex.c **** }
 1627              		.loc 1 881 1 is_stmt 0 view .LVU374
 1628 000a 7047     		bx	lr
 1629              	.L139:
 1630              		.align	2
 1631              	.L138:
 1632 000c 00700040 		.word	1073770496
 1633              		.cfi_endproc
 1634              	.LFE155:
 1636              		.section	.text.HAL_PWREx_DisablePVM1,"ax",%progbits
ARM GAS  C:\Users\HP\AppData\Local\Temp\ccTBk3CI.s 			page 46


 1637              		.align	1
 1638              		.global	HAL_PWREx_DisablePVM1
 1639              		.syntax unified
 1640              		.thumb
 1641              		.thumb_func
 1643              	HAL_PWREx_DisablePVM1:
 1644              	.LFB156:
 882:Drivers/STM32L4xx_HAL_Driver/Src/stm32l4xx_hal_pwr_ex.c **** 
 883:Drivers/STM32L4xx_HAL_Driver/Src/stm32l4xx_hal_pwr_ex.c **** /**
 884:Drivers/STM32L4xx_HAL_Driver/Src/stm32l4xx_hal_pwr_ex.c ****   * @brief Disable the Power Voltage Monitoring 1: VDDUSB versus 1.2V.
 885:Drivers/STM32L4xx_HAL_Driver/Src/stm32l4xx_hal_pwr_ex.c ****   * @retval None
 886:Drivers/STM32L4xx_HAL_Driver/Src/stm32l4xx_hal_pwr_ex.c ****   */
 887:Drivers/STM32L4xx_HAL_Driver/Src/stm32l4xx_hal_pwr_ex.c **** void HAL_PWREx_DisablePVM1(void)
 888:Drivers/STM32L4xx_HAL_Driver/Src/stm32l4xx_hal_pwr_ex.c **** {
 1645              		.loc 1 888 1 is_stmt 1 view -0
 1646              		.cfi_startproc
 1647              		@ args = 0, pretend = 0, frame = 0
 1648              		@ frame_needed = 0, uses_anonymous_args = 0
 1649              		@ link register save eliminated.
 889:Drivers/STM32L4xx_HAL_Driver/Src/stm32l4xx_hal_pwr_ex.c ****   CLEAR_BIT(PWR->CR2, PWR_PVM_1);
 1650              		.loc 1 889 3 view .LVU376
 1651 0000 024A     		ldr	r2, .L141
 1652 0002 5368     		ldr	r3, [r2, #4]
 1653 0004 23F01003 		bic	r3, r3, #16
 1654 0008 5360     		str	r3, [r2, #4]
 890:Drivers/STM32L4xx_HAL_Driver/Src/stm32l4xx_hal_pwr_ex.c **** }
 1655              		.loc 1 890 1 is_stmt 0 view .LVU377
 1656 000a 7047     		bx	lr
 1657              	.L142:
 1658              		.align	2
 1659              	.L141:
 1660 000c 00700040 		.word	1073770496
 1661              		.cfi_endproc
 1662              	.LFE156:
 1664              		.section	.text.HAL_PWREx_EnablePVM2,"ax",%progbits
 1665              		.align	1
 1666              		.global	HAL_PWREx_EnablePVM2
 1667              		.syntax unified
 1668              		.thumb
 1669              		.thumb_func
 1671              	HAL_PWREx_EnablePVM2:
 1672              	.LFB157:
 891:Drivers/STM32L4xx_HAL_Driver/Src/stm32l4xx_hal_pwr_ex.c **** #endif /* PWR_CR2_PVME1 */
 892:Drivers/STM32L4xx_HAL_Driver/Src/stm32l4xx_hal_pwr_ex.c **** 
 893:Drivers/STM32L4xx_HAL_Driver/Src/stm32l4xx_hal_pwr_ex.c **** 
 894:Drivers/STM32L4xx_HAL_Driver/Src/stm32l4xx_hal_pwr_ex.c **** #if defined(PWR_CR2_PVME2)
 895:Drivers/STM32L4xx_HAL_Driver/Src/stm32l4xx_hal_pwr_ex.c **** /**
 896:Drivers/STM32L4xx_HAL_Driver/Src/stm32l4xx_hal_pwr_ex.c ****   * @brief Enable the Power Voltage Monitoring 2: VDDIO2 versus 0.9V.
 897:Drivers/STM32L4xx_HAL_Driver/Src/stm32l4xx_hal_pwr_ex.c ****   * @retval None
 898:Drivers/STM32L4xx_HAL_Driver/Src/stm32l4xx_hal_pwr_ex.c ****   */
 899:Drivers/STM32L4xx_HAL_Driver/Src/stm32l4xx_hal_pwr_ex.c **** void HAL_PWREx_EnablePVM2(void)
 900:Drivers/STM32L4xx_HAL_Driver/Src/stm32l4xx_hal_pwr_ex.c **** {
 1673              		.loc 1 900 1 is_stmt 1 view -0
 1674              		.cfi_startproc
 1675              		@ args = 0, pretend = 0, frame = 0
 1676              		@ frame_needed = 0, uses_anonymous_args = 0
 1677              		@ link register save eliminated.
ARM GAS  C:\Users\HP\AppData\Local\Temp\ccTBk3CI.s 			page 47


 901:Drivers/STM32L4xx_HAL_Driver/Src/stm32l4xx_hal_pwr_ex.c ****   SET_BIT(PWR->CR2, PWR_PVM_2);
 1678              		.loc 1 901 3 view .LVU379
 1679 0000 024A     		ldr	r2, .L144
 1680 0002 5368     		ldr	r3, [r2, #4]
 1681 0004 43F02003 		orr	r3, r3, #32
 1682 0008 5360     		str	r3, [r2, #4]
 902:Drivers/STM32L4xx_HAL_Driver/Src/stm32l4xx_hal_pwr_ex.c **** }
 1683              		.loc 1 902 1 is_stmt 0 view .LVU380
 1684 000a 7047     		bx	lr
 1685              	.L145:
 1686              		.align	2
 1687              	.L144:
 1688 000c 00700040 		.word	1073770496
 1689              		.cfi_endproc
 1690              	.LFE157:
 1692              		.section	.text.HAL_PWREx_DisablePVM2,"ax",%progbits
 1693              		.align	1
 1694              		.global	HAL_PWREx_DisablePVM2
 1695              		.syntax unified
 1696              		.thumb
 1697              		.thumb_func
 1699              	HAL_PWREx_DisablePVM2:
 1700              	.LFB158:
 903:Drivers/STM32L4xx_HAL_Driver/Src/stm32l4xx_hal_pwr_ex.c **** 
 904:Drivers/STM32L4xx_HAL_Driver/Src/stm32l4xx_hal_pwr_ex.c **** /**
 905:Drivers/STM32L4xx_HAL_Driver/Src/stm32l4xx_hal_pwr_ex.c ****   * @brief Disable the Power Voltage Monitoring 2: VDDIO2 versus 0.9V.
 906:Drivers/STM32L4xx_HAL_Driver/Src/stm32l4xx_hal_pwr_ex.c ****   * @retval None
 907:Drivers/STM32L4xx_HAL_Driver/Src/stm32l4xx_hal_pwr_ex.c ****   */
 908:Drivers/STM32L4xx_HAL_Driver/Src/stm32l4xx_hal_pwr_ex.c **** void HAL_PWREx_DisablePVM2(void)
 909:Drivers/STM32L4xx_HAL_Driver/Src/stm32l4xx_hal_pwr_ex.c **** {
 1701              		.loc 1 909 1 is_stmt 1 view -0
 1702              		.cfi_startproc
 1703              		@ args = 0, pretend = 0, frame = 0
 1704              		@ frame_needed = 0, uses_anonymous_args = 0
 1705              		@ link register save eliminated.
 910:Drivers/STM32L4xx_HAL_Driver/Src/stm32l4xx_hal_pwr_ex.c ****   CLEAR_BIT(PWR->CR2, PWR_PVM_2);
 1706              		.loc 1 910 3 view .LVU382
 1707 0000 024A     		ldr	r2, .L147
 1708 0002 5368     		ldr	r3, [r2, #4]
 1709 0004 23F02003 		bic	r3, r3, #32
 1710 0008 5360     		str	r3, [r2, #4]
 911:Drivers/STM32L4xx_HAL_Driver/Src/stm32l4xx_hal_pwr_ex.c **** }
 1711              		.loc 1 911 1 is_stmt 0 view .LVU383
 1712 000a 7047     		bx	lr
 1713              	.L148:
 1714              		.align	2
 1715              	.L147:
 1716 000c 00700040 		.word	1073770496
 1717              		.cfi_endproc
 1718              	.LFE158:
 1720              		.section	.text.HAL_PWREx_EnablePVM3,"ax",%progbits
 1721              		.align	1
 1722              		.global	HAL_PWREx_EnablePVM3
 1723              		.syntax unified
 1724              		.thumb
 1725              		.thumb_func
 1727              	HAL_PWREx_EnablePVM3:
ARM GAS  C:\Users\HP\AppData\Local\Temp\ccTBk3CI.s 			page 48


 1728              	.LFB159:
 912:Drivers/STM32L4xx_HAL_Driver/Src/stm32l4xx_hal_pwr_ex.c **** #endif /* PWR_CR2_PVME2 */
 913:Drivers/STM32L4xx_HAL_Driver/Src/stm32l4xx_hal_pwr_ex.c **** 
 914:Drivers/STM32L4xx_HAL_Driver/Src/stm32l4xx_hal_pwr_ex.c **** 
 915:Drivers/STM32L4xx_HAL_Driver/Src/stm32l4xx_hal_pwr_ex.c **** /**
 916:Drivers/STM32L4xx_HAL_Driver/Src/stm32l4xx_hal_pwr_ex.c ****   * @brief Enable the Power Voltage Monitoring 3: VDDA versus 1.62V.
 917:Drivers/STM32L4xx_HAL_Driver/Src/stm32l4xx_hal_pwr_ex.c ****   * @retval None
 918:Drivers/STM32L4xx_HAL_Driver/Src/stm32l4xx_hal_pwr_ex.c ****   */
 919:Drivers/STM32L4xx_HAL_Driver/Src/stm32l4xx_hal_pwr_ex.c **** void HAL_PWREx_EnablePVM3(void)
 920:Drivers/STM32L4xx_HAL_Driver/Src/stm32l4xx_hal_pwr_ex.c **** {
 1729              		.loc 1 920 1 is_stmt 1 view -0
 1730              		.cfi_startproc
 1731              		@ args = 0, pretend = 0, frame = 0
 1732              		@ frame_needed = 0, uses_anonymous_args = 0
 1733              		@ link register save eliminated.
 921:Drivers/STM32L4xx_HAL_Driver/Src/stm32l4xx_hal_pwr_ex.c ****   SET_BIT(PWR->CR2, PWR_PVM_3);
 1734              		.loc 1 921 3 view .LVU385
 1735 0000 024A     		ldr	r2, .L150
 1736 0002 5368     		ldr	r3, [r2, #4]
 1737 0004 43F04003 		orr	r3, r3, #64
 1738 0008 5360     		str	r3, [r2, #4]
 922:Drivers/STM32L4xx_HAL_Driver/Src/stm32l4xx_hal_pwr_ex.c **** }
 1739              		.loc 1 922 1 is_stmt 0 view .LVU386
 1740 000a 7047     		bx	lr
 1741              	.L151:
 1742              		.align	2
 1743              	.L150:
 1744 000c 00700040 		.word	1073770496
 1745              		.cfi_endproc
 1746              	.LFE159:
 1748              		.section	.text.HAL_PWREx_DisablePVM3,"ax",%progbits
 1749              		.align	1
 1750              		.global	HAL_PWREx_DisablePVM3
 1751              		.syntax unified
 1752              		.thumb
 1753              		.thumb_func
 1755              	HAL_PWREx_DisablePVM3:
 1756              	.LFB160:
 923:Drivers/STM32L4xx_HAL_Driver/Src/stm32l4xx_hal_pwr_ex.c **** 
 924:Drivers/STM32L4xx_HAL_Driver/Src/stm32l4xx_hal_pwr_ex.c **** /**
 925:Drivers/STM32L4xx_HAL_Driver/Src/stm32l4xx_hal_pwr_ex.c ****   * @brief Disable the Power Voltage Monitoring 3: VDDA versus 1.62V.
 926:Drivers/STM32L4xx_HAL_Driver/Src/stm32l4xx_hal_pwr_ex.c ****   * @retval None
 927:Drivers/STM32L4xx_HAL_Driver/Src/stm32l4xx_hal_pwr_ex.c ****   */
 928:Drivers/STM32L4xx_HAL_Driver/Src/stm32l4xx_hal_pwr_ex.c **** void HAL_PWREx_DisablePVM3(void)
 929:Drivers/STM32L4xx_HAL_Driver/Src/stm32l4xx_hal_pwr_ex.c **** {
 1757              		.loc 1 929 1 is_stmt 1 view -0
 1758              		.cfi_startproc
 1759              		@ args = 0, pretend = 0, frame = 0
 1760              		@ frame_needed = 0, uses_anonymous_args = 0
 1761              		@ link register save eliminated.
 930:Drivers/STM32L4xx_HAL_Driver/Src/stm32l4xx_hal_pwr_ex.c ****   CLEAR_BIT(PWR->CR2, PWR_PVM_3);
 1762              		.loc 1 930 3 view .LVU388
 1763 0000 024A     		ldr	r2, .L153
 1764 0002 5368     		ldr	r3, [r2, #4]
 1765 0004 23F04003 		bic	r3, r3, #64
 1766 0008 5360     		str	r3, [r2, #4]
 931:Drivers/STM32L4xx_HAL_Driver/Src/stm32l4xx_hal_pwr_ex.c **** }
ARM GAS  C:\Users\HP\AppData\Local\Temp\ccTBk3CI.s 			page 49


 1767              		.loc 1 931 1 is_stmt 0 view .LVU389
 1768 000a 7047     		bx	lr
 1769              	.L154:
 1770              		.align	2
 1771              	.L153:
 1772 000c 00700040 		.word	1073770496
 1773              		.cfi_endproc
 1774              	.LFE160:
 1776              		.section	.text.HAL_PWREx_EnablePVM4,"ax",%progbits
 1777              		.align	1
 1778              		.global	HAL_PWREx_EnablePVM4
 1779              		.syntax unified
 1780              		.thumb
 1781              		.thumb_func
 1783              	HAL_PWREx_EnablePVM4:
 1784              	.LFB161:
 932:Drivers/STM32L4xx_HAL_Driver/Src/stm32l4xx_hal_pwr_ex.c **** 
 933:Drivers/STM32L4xx_HAL_Driver/Src/stm32l4xx_hal_pwr_ex.c **** 
 934:Drivers/STM32L4xx_HAL_Driver/Src/stm32l4xx_hal_pwr_ex.c **** /**
 935:Drivers/STM32L4xx_HAL_Driver/Src/stm32l4xx_hal_pwr_ex.c ****   * @brief Enable the Power Voltage Monitoring 4:  VDDA versus 2.2V.
 936:Drivers/STM32L4xx_HAL_Driver/Src/stm32l4xx_hal_pwr_ex.c ****   * @retval None
 937:Drivers/STM32L4xx_HAL_Driver/Src/stm32l4xx_hal_pwr_ex.c ****   */
 938:Drivers/STM32L4xx_HAL_Driver/Src/stm32l4xx_hal_pwr_ex.c **** void HAL_PWREx_EnablePVM4(void)
 939:Drivers/STM32L4xx_HAL_Driver/Src/stm32l4xx_hal_pwr_ex.c **** {
 1785              		.loc 1 939 1 is_stmt 1 view -0
 1786              		.cfi_startproc
 1787              		@ args = 0, pretend = 0, frame = 0
 1788              		@ frame_needed = 0, uses_anonymous_args = 0
 1789              		@ link register save eliminated.
 940:Drivers/STM32L4xx_HAL_Driver/Src/stm32l4xx_hal_pwr_ex.c ****   SET_BIT(PWR->CR2, PWR_PVM_4);
 1790              		.loc 1 940 3 view .LVU391
 1791 0000 024A     		ldr	r2, .L156
 1792 0002 5368     		ldr	r3, [r2, #4]
 1793 0004 43F08003 		orr	r3, r3, #128
 1794 0008 5360     		str	r3, [r2, #4]
 941:Drivers/STM32L4xx_HAL_Driver/Src/stm32l4xx_hal_pwr_ex.c **** }
 1795              		.loc 1 941 1 is_stmt 0 view .LVU392
 1796 000a 7047     		bx	lr
 1797              	.L157:
 1798              		.align	2
 1799              	.L156:
 1800 000c 00700040 		.word	1073770496
 1801              		.cfi_endproc
 1802              	.LFE161:
 1804              		.section	.text.HAL_PWREx_DisablePVM4,"ax",%progbits
 1805              		.align	1
 1806              		.global	HAL_PWREx_DisablePVM4
 1807              		.syntax unified
 1808              		.thumb
 1809              		.thumb_func
 1811              	HAL_PWREx_DisablePVM4:
 1812              	.LFB162:
 942:Drivers/STM32L4xx_HAL_Driver/Src/stm32l4xx_hal_pwr_ex.c **** 
 943:Drivers/STM32L4xx_HAL_Driver/Src/stm32l4xx_hal_pwr_ex.c **** /**
 944:Drivers/STM32L4xx_HAL_Driver/Src/stm32l4xx_hal_pwr_ex.c ****   * @brief Disable the Power Voltage Monitoring 4:  VDDA versus 2.2V.
 945:Drivers/STM32L4xx_HAL_Driver/Src/stm32l4xx_hal_pwr_ex.c ****   * @retval None
 946:Drivers/STM32L4xx_HAL_Driver/Src/stm32l4xx_hal_pwr_ex.c ****   */
ARM GAS  C:\Users\HP\AppData\Local\Temp\ccTBk3CI.s 			page 50


 947:Drivers/STM32L4xx_HAL_Driver/Src/stm32l4xx_hal_pwr_ex.c **** void HAL_PWREx_DisablePVM4(void)
 948:Drivers/STM32L4xx_HAL_Driver/Src/stm32l4xx_hal_pwr_ex.c **** {
 1813              		.loc 1 948 1 is_stmt 1 view -0
 1814              		.cfi_startproc
 1815              		@ args = 0, pretend = 0, frame = 0
 1816              		@ frame_needed = 0, uses_anonymous_args = 0
 1817              		@ link register save eliminated.
 949:Drivers/STM32L4xx_HAL_Driver/Src/stm32l4xx_hal_pwr_ex.c ****   CLEAR_BIT(PWR->CR2, PWR_PVM_4);
 1818              		.loc 1 949 3 view .LVU394
 1819 0000 024A     		ldr	r2, .L159
 1820 0002 5368     		ldr	r3, [r2, #4]
 1821 0004 23F08003 		bic	r3, r3, #128
 1822 0008 5360     		str	r3, [r2, #4]
 950:Drivers/STM32L4xx_HAL_Driver/Src/stm32l4xx_hal_pwr_ex.c **** }
 1823              		.loc 1 950 1 is_stmt 0 view .LVU395
 1824 000a 7047     		bx	lr
 1825              	.L160:
 1826              		.align	2
 1827              	.L159:
 1828 000c 00700040 		.word	1073770496
 1829              		.cfi_endproc
 1830              	.LFE162:
 1832              		.section	.text.HAL_PWREx_ConfigPVM,"ax",%progbits
 1833              		.align	1
 1834              		.global	HAL_PWREx_ConfigPVM
 1835              		.syntax unified
 1836              		.thumb
 1837              		.thumb_func
 1839              	HAL_PWREx_ConfigPVM:
 1840              	.LVL143:
 1841              	.LFB163:
 951:Drivers/STM32L4xx_HAL_Driver/Src/stm32l4xx_hal_pwr_ex.c **** 
 952:Drivers/STM32L4xx_HAL_Driver/Src/stm32l4xx_hal_pwr_ex.c **** 
 953:Drivers/STM32L4xx_HAL_Driver/Src/stm32l4xx_hal_pwr_ex.c **** 
 954:Drivers/STM32L4xx_HAL_Driver/Src/stm32l4xx_hal_pwr_ex.c **** 
 955:Drivers/STM32L4xx_HAL_Driver/Src/stm32l4xx_hal_pwr_ex.c **** /**
 956:Drivers/STM32L4xx_HAL_Driver/Src/stm32l4xx_hal_pwr_ex.c ****   * @brief Configure the Peripheral Voltage Monitoring (PVM).
 957:Drivers/STM32L4xx_HAL_Driver/Src/stm32l4xx_hal_pwr_ex.c ****   * @param sConfigPVM: pointer to a PWR_PVMTypeDef structure that contains the
 958:Drivers/STM32L4xx_HAL_Driver/Src/stm32l4xx_hal_pwr_ex.c ****   *        PVM configuration information.
 959:Drivers/STM32L4xx_HAL_Driver/Src/stm32l4xx_hal_pwr_ex.c ****   * @note The API configures a single PVM according to the information contained
 960:Drivers/STM32L4xx_HAL_Driver/Src/stm32l4xx_hal_pwr_ex.c ****   *       in the input structure. To configure several PVMs, the API must be singly
 961:Drivers/STM32L4xx_HAL_Driver/Src/stm32l4xx_hal_pwr_ex.c ****   *       called for each PVM used.
 962:Drivers/STM32L4xx_HAL_Driver/Src/stm32l4xx_hal_pwr_ex.c ****   * @note Refer to the electrical characteristics of your device datasheet for
 963:Drivers/STM32L4xx_HAL_Driver/Src/stm32l4xx_hal_pwr_ex.c ****   *         more details about the voltage thresholds corresponding to each
 964:Drivers/STM32L4xx_HAL_Driver/Src/stm32l4xx_hal_pwr_ex.c ****   *         detection level and to each monitored supply.
 965:Drivers/STM32L4xx_HAL_Driver/Src/stm32l4xx_hal_pwr_ex.c ****   * @retval HAL status
 966:Drivers/STM32L4xx_HAL_Driver/Src/stm32l4xx_hal_pwr_ex.c ****   */
 967:Drivers/STM32L4xx_HAL_Driver/Src/stm32l4xx_hal_pwr_ex.c **** HAL_StatusTypeDef HAL_PWREx_ConfigPVM(PWR_PVMTypeDef *sConfigPVM)
 968:Drivers/STM32L4xx_HAL_Driver/Src/stm32l4xx_hal_pwr_ex.c **** {
 1842              		.loc 1 968 1 is_stmt 1 view -0
 1843              		.cfi_startproc
 1844              		@ args = 0, pretend = 0, frame = 0
 1845              		@ frame_needed = 0, uses_anonymous_args = 0
 1846              		@ link register save eliminated.
 969:Drivers/STM32L4xx_HAL_Driver/Src/stm32l4xx_hal_pwr_ex.c ****   HAL_StatusTypeDef status = HAL_OK;
 1847              		.loc 1 969 3 view .LVU397
 970:Drivers/STM32L4xx_HAL_Driver/Src/stm32l4xx_hal_pwr_ex.c **** 
ARM GAS  C:\Users\HP\AppData\Local\Temp\ccTBk3CI.s 			page 51


 971:Drivers/STM32L4xx_HAL_Driver/Src/stm32l4xx_hal_pwr_ex.c ****   /* Check the parameters */
 972:Drivers/STM32L4xx_HAL_Driver/Src/stm32l4xx_hal_pwr_ex.c ****   assert_param(IS_PWR_PVM_TYPE(sConfigPVM->PVMType));
 1848              		.loc 1 972 3 view .LVU398
 973:Drivers/STM32L4xx_HAL_Driver/Src/stm32l4xx_hal_pwr_ex.c ****   assert_param(IS_PWR_PVM_MODE(sConfigPVM->Mode));
 1849              		.loc 1 973 3 view .LVU399
 974:Drivers/STM32L4xx_HAL_Driver/Src/stm32l4xx_hal_pwr_ex.c **** 
 975:Drivers/STM32L4xx_HAL_Driver/Src/stm32l4xx_hal_pwr_ex.c **** 
 976:Drivers/STM32L4xx_HAL_Driver/Src/stm32l4xx_hal_pwr_ex.c ****   /* Configure EXTI 35 to 38 interrupts if so required:
 977:Drivers/STM32L4xx_HAL_Driver/Src/stm32l4xx_hal_pwr_ex.c ****      scan thru PVMType to detect which PVMx is set and
 978:Drivers/STM32L4xx_HAL_Driver/Src/stm32l4xx_hal_pwr_ex.c ****      configure the corresponding EXTI line accordingly. */
 979:Drivers/STM32L4xx_HAL_Driver/Src/stm32l4xx_hal_pwr_ex.c ****   switch (sConfigPVM->PVMType)
 1850              		.loc 1 979 3 view .LVU400
 1851              		.loc 1 979 21 is_stmt 0 view .LVU401
 1852 0000 0368     		ldr	r3, [r0]
 1853              		.loc 1 979 3 view .LVU402
 1854 0002 402B     		cmp	r3, #64
 1855 0004 00F0B180 		beq	.L162
 1856 0008 3DD8     		bhi	.L163
 1857 000a 102B     		cmp	r3, #16
 1858 000c 76D0     		beq	.L164
 1859 000e 202B     		cmp	r3, #32
 1860 0010 37D1     		bne	.L184
 980:Drivers/STM32L4xx_HAL_Driver/Src/stm32l4xx_hal_pwr_ex.c ****   {
 981:Drivers/STM32L4xx_HAL_Driver/Src/stm32l4xx_hal_pwr_ex.c **** #if defined(PWR_CR2_PVME1)
 982:Drivers/STM32L4xx_HAL_Driver/Src/stm32l4xx_hal_pwr_ex.c ****     case PWR_PVM_1:
 983:Drivers/STM32L4xx_HAL_Driver/Src/stm32l4xx_hal_pwr_ex.c ****       /* Clear any previous config. Keep it clear if no event or IT mode is selected */
 984:Drivers/STM32L4xx_HAL_Driver/Src/stm32l4xx_hal_pwr_ex.c ****       __HAL_PWR_PVM1_EXTI_DISABLE_EVENT();
 985:Drivers/STM32L4xx_HAL_Driver/Src/stm32l4xx_hal_pwr_ex.c ****       __HAL_PWR_PVM1_EXTI_DISABLE_IT();
 986:Drivers/STM32L4xx_HAL_Driver/Src/stm32l4xx_hal_pwr_ex.c ****       __HAL_PWR_PVM1_EXTI_DISABLE_FALLING_EDGE();
 987:Drivers/STM32L4xx_HAL_Driver/Src/stm32l4xx_hal_pwr_ex.c ****       __HAL_PWR_PVM1_EXTI_DISABLE_RISING_EDGE();
 988:Drivers/STM32L4xx_HAL_Driver/Src/stm32l4xx_hal_pwr_ex.c **** 
 989:Drivers/STM32L4xx_HAL_Driver/Src/stm32l4xx_hal_pwr_ex.c ****       /* Configure interrupt mode */
 990:Drivers/STM32L4xx_HAL_Driver/Src/stm32l4xx_hal_pwr_ex.c ****       if((sConfigPVM->Mode & PVM_MODE_IT) == PVM_MODE_IT)
 991:Drivers/STM32L4xx_HAL_Driver/Src/stm32l4xx_hal_pwr_ex.c ****       {
 992:Drivers/STM32L4xx_HAL_Driver/Src/stm32l4xx_hal_pwr_ex.c ****         __HAL_PWR_PVM1_EXTI_ENABLE_IT();
 993:Drivers/STM32L4xx_HAL_Driver/Src/stm32l4xx_hal_pwr_ex.c ****       }
 994:Drivers/STM32L4xx_HAL_Driver/Src/stm32l4xx_hal_pwr_ex.c **** 
 995:Drivers/STM32L4xx_HAL_Driver/Src/stm32l4xx_hal_pwr_ex.c ****       /* Configure event mode */
 996:Drivers/STM32L4xx_HAL_Driver/Src/stm32l4xx_hal_pwr_ex.c ****       if((sConfigPVM->Mode & PVM_MODE_EVT) == PVM_MODE_EVT)
 997:Drivers/STM32L4xx_HAL_Driver/Src/stm32l4xx_hal_pwr_ex.c ****       {
 998:Drivers/STM32L4xx_HAL_Driver/Src/stm32l4xx_hal_pwr_ex.c ****         __HAL_PWR_PVM1_EXTI_ENABLE_EVENT();
 999:Drivers/STM32L4xx_HAL_Driver/Src/stm32l4xx_hal_pwr_ex.c ****       }
1000:Drivers/STM32L4xx_HAL_Driver/Src/stm32l4xx_hal_pwr_ex.c **** 
1001:Drivers/STM32L4xx_HAL_Driver/Src/stm32l4xx_hal_pwr_ex.c ****       /* Configure the edge */
1002:Drivers/STM32L4xx_HAL_Driver/Src/stm32l4xx_hal_pwr_ex.c ****       if((sConfigPVM->Mode & PVM_RISING_EDGE) == PVM_RISING_EDGE)
1003:Drivers/STM32L4xx_HAL_Driver/Src/stm32l4xx_hal_pwr_ex.c ****       {
1004:Drivers/STM32L4xx_HAL_Driver/Src/stm32l4xx_hal_pwr_ex.c ****         __HAL_PWR_PVM1_EXTI_ENABLE_RISING_EDGE();
1005:Drivers/STM32L4xx_HAL_Driver/Src/stm32l4xx_hal_pwr_ex.c ****       }
1006:Drivers/STM32L4xx_HAL_Driver/Src/stm32l4xx_hal_pwr_ex.c **** 
1007:Drivers/STM32L4xx_HAL_Driver/Src/stm32l4xx_hal_pwr_ex.c ****       if((sConfigPVM->Mode & PVM_FALLING_EDGE) == PVM_FALLING_EDGE)
1008:Drivers/STM32L4xx_HAL_Driver/Src/stm32l4xx_hal_pwr_ex.c ****       {
1009:Drivers/STM32L4xx_HAL_Driver/Src/stm32l4xx_hal_pwr_ex.c ****         __HAL_PWR_PVM1_EXTI_ENABLE_FALLING_EDGE();
1010:Drivers/STM32L4xx_HAL_Driver/Src/stm32l4xx_hal_pwr_ex.c ****       }
1011:Drivers/STM32L4xx_HAL_Driver/Src/stm32l4xx_hal_pwr_ex.c ****       break;
1012:Drivers/STM32L4xx_HAL_Driver/Src/stm32l4xx_hal_pwr_ex.c **** #endif /* PWR_CR2_PVME1 */
1013:Drivers/STM32L4xx_HAL_Driver/Src/stm32l4xx_hal_pwr_ex.c **** 
1014:Drivers/STM32L4xx_HAL_Driver/Src/stm32l4xx_hal_pwr_ex.c **** #if defined(PWR_CR2_PVME2)
ARM GAS  C:\Users\HP\AppData\Local\Temp\ccTBk3CI.s 			page 52


1015:Drivers/STM32L4xx_HAL_Driver/Src/stm32l4xx_hal_pwr_ex.c ****     case PWR_PVM_2:
1016:Drivers/STM32L4xx_HAL_Driver/Src/stm32l4xx_hal_pwr_ex.c ****       /* Clear any previous config. Keep it clear if no event or IT mode is selected */
1017:Drivers/STM32L4xx_HAL_Driver/Src/stm32l4xx_hal_pwr_ex.c ****       __HAL_PWR_PVM2_EXTI_DISABLE_EVENT();
 1861              		.loc 1 1017 7 is_stmt 1 view .LVU403
 1862 0012 754B     		ldr	r3, .L186
 1863 0014 5A6A     		ldr	r2, [r3, #36]
 1864 0016 22F01002 		bic	r2, r2, #16
 1865 001a 5A62     		str	r2, [r3, #36]
1018:Drivers/STM32L4xx_HAL_Driver/Src/stm32l4xx_hal_pwr_ex.c ****       __HAL_PWR_PVM2_EXTI_DISABLE_IT();
 1866              		.loc 1 1018 7 view .LVU404
 1867 001c 1A6A     		ldr	r2, [r3, #32]
 1868 001e 22F01002 		bic	r2, r2, #16
 1869 0022 1A62     		str	r2, [r3, #32]
1019:Drivers/STM32L4xx_HAL_Driver/Src/stm32l4xx_hal_pwr_ex.c ****       __HAL_PWR_PVM2_EXTI_DISABLE_FALLING_EDGE();
 1870              		.loc 1 1019 7 view .LVU405
 1871 0024 DA6A     		ldr	r2, [r3, #44]
 1872 0026 22F01002 		bic	r2, r2, #16
 1873 002a DA62     		str	r2, [r3, #44]
1020:Drivers/STM32L4xx_HAL_Driver/Src/stm32l4xx_hal_pwr_ex.c ****       __HAL_PWR_PVM2_EXTI_DISABLE_RISING_EDGE();
 1874              		.loc 1 1020 7 view .LVU406
 1875 002c 9A6A     		ldr	r2, [r3, #40]
 1876 002e 22F01002 		bic	r2, r2, #16
 1877 0032 9A62     		str	r2, [r3, #40]
1021:Drivers/STM32L4xx_HAL_Driver/Src/stm32l4xx_hal_pwr_ex.c **** 
1022:Drivers/STM32L4xx_HAL_Driver/Src/stm32l4xx_hal_pwr_ex.c ****       /* Configure interrupt mode */
1023:Drivers/STM32L4xx_HAL_Driver/Src/stm32l4xx_hal_pwr_ex.c ****       if((sConfigPVM->Mode & PVM_MODE_IT) == PVM_MODE_IT)
 1878              		.loc 1 1023 7 view .LVU407
 1879              		.loc 1 1023 21 is_stmt 0 view .LVU408
 1880 0034 4368     		ldr	r3, [r0, #4]
 1881              		.loc 1 1023 9 view .LVU409
 1882 0036 13F4803F 		tst	r3, #65536
 1883 003a 04D0     		beq	.L171
1024:Drivers/STM32L4xx_HAL_Driver/Src/stm32l4xx_hal_pwr_ex.c ****       {
1025:Drivers/STM32L4xx_HAL_Driver/Src/stm32l4xx_hal_pwr_ex.c ****         __HAL_PWR_PVM2_EXTI_ENABLE_IT();
 1884              		.loc 1 1025 9 is_stmt 1 view .LVU410
 1885 003c 6A4A     		ldr	r2, .L186
 1886 003e 136A     		ldr	r3, [r2, #32]
 1887 0040 43F01003 		orr	r3, r3, #16
 1888 0044 1362     		str	r3, [r2, #32]
 1889              	.L171:
1026:Drivers/STM32L4xx_HAL_Driver/Src/stm32l4xx_hal_pwr_ex.c ****       }
1027:Drivers/STM32L4xx_HAL_Driver/Src/stm32l4xx_hal_pwr_ex.c **** 
1028:Drivers/STM32L4xx_HAL_Driver/Src/stm32l4xx_hal_pwr_ex.c ****       /* Configure event mode */
1029:Drivers/STM32L4xx_HAL_Driver/Src/stm32l4xx_hal_pwr_ex.c ****       if((sConfigPVM->Mode & PVM_MODE_EVT) == PVM_MODE_EVT)
 1890              		.loc 1 1029 7 view .LVU411
 1891              		.loc 1 1029 21 is_stmt 0 view .LVU412
 1892 0046 4368     		ldr	r3, [r0, #4]
 1893              		.loc 1 1029 9 view .LVU413
 1894 0048 13F4003F 		tst	r3, #131072
 1895 004c 04D0     		beq	.L172
1030:Drivers/STM32L4xx_HAL_Driver/Src/stm32l4xx_hal_pwr_ex.c ****       {
1031:Drivers/STM32L4xx_HAL_Driver/Src/stm32l4xx_hal_pwr_ex.c ****         __HAL_PWR_PVM2_EXTI_ENABLE_EVENT();
 1896              		.loc 1 1031 9 is_stmt 1 view .LVU414
 1897 004e 664A     		ldr	r2, .L186
 1898 0050 536A     		ldr	r3, [r2, #36]
 1899 0052 43F01003 		orr	r3, r3, #16
 1900 0056 5362     		str	r3, [r2, #36]
ARM GAS  C:\Users\HP\AppData\Local\Temp\ccTBk3CI.s 			page 53


 1901              	.L172:
1032:Drivers/STM32L4xx_HAL_Driver/Src/stm32l4xx_hal_pwr_ex.c ****       }
1033:Drivers/STM32L4xx_HAL_Driver/Src/stm32l4xx_hal_pwr_ex.c **** 
1034:Drivers/STM32L4xx_HAL_Driver/Src/stm32l4xx_hal_pwr_ex.c ****       /* Configure the edge */
1035:Drivers/STM32L4xx_HAL_Driver/Src/stm32l4xx_hal_pwr_ex.c ****       if((sConfigPVM->Mode & PVM_RISING_EDGE) == PVM_RISING_EDGE)
 1902              		.loc 1 1035 7 view .LVU415
 1903              		.loc 1 1035 21 is_stmt 0 view .LVU416
 1904 0058 4368     		ldr	r3, [r0, #4]
 1905              		.loc 1 1035 9 view .LVU417
 1906 005a 13F0010F 		tst	r3, #1
 1907 005e 04D0     		beq	.L173
1036:Drivers/STM32L4xx_HAL_Driver/Src/stm32l4xx_hal_pwr_ex.c ****       {
1037:Drivers/STM32L4xx_HAL_Driver/Src/stm32l4xx_hal_pwr_ex.c ****         __HAL_PWR_PVM2_EXTI_ENABLE_RISING_EDGE();
 1908              		.loc 1 1037 9 is_stmt 1 view .LVU418
 1909 0060 614A     		ldr	r2, .L186
 1910 0062 936A     		ldr	r3, [r2, #40]
 1911 0064 43F01003 		orr	r3, r3, #16
 1912 0068 9362     		str	r3, [r2, #40]
 1913              	.L173:
1038:Drivers/STM32L4xx_HAL_Driver/Src/stm32l4xx_hal_pwr_ex.c ****       }
1039:Drivers/STM32L4xx_HAL_Driver/Src/stm32l4xx_hal_pwr_ex.c **** 
1040:Drivers/STM32L4xx_HAL_Driver/Src/stm32l4xx_hal_pwr_ex.c ****       if((sConfigPVM->Mode & PVM_FALLING_EDGE) == PVM_FALLING_EDGE)
 1914              		.loc 1 1040 7 view .LVU419
 1915              		.loc 1 1040 21 is_stmt 0 view .LVU420
 1916 006a 4368     		ldr	r3, [r0, #4]
 1917              		.loc 1 1040 9 view .LVU421
 1918 006c 13F0020F 		tst	r3, #2
 1919 0070 00F0B480 		beq	.L181
1041:Drivers/STM32L4xx_HAL_Driver/Src/stm32l4xx_hal_pwr_ex.c ****       {
1042:Drivers/STM32L4xx_HAL_Driver/Src/stm32l4xx_hal_pwr_ex.c ****         __HAL_PWR_PVM2_EXTI_ENABLE_FALLING_EDGE();
 1920              		.loc 1 1042 9 is_stmt 1 view .LVU422
 1921 0074 5C4A     		ldr	r2, .L186
 1922 0076 D36A     		ldr	r3, [r2, #44]
 1923 0078 43F01003 		orr	r3, r3, #16
 1924 007c D362     		str	r3, [r2, #44]
 969:Drivers/STM32L4xx_HAL_Driver/Src/stm32l4xx_hal_pwr_ex.c **** 
 1925              		.loc 1 969 21 is_stmt 0 view .LVU423
 1926 007e 0020     		movs	r0, #0
 1927              	.LVL144:
 969:Drivers/STM32L4xx_HAL_Driver/Src/stm32l4xx_hal_pwr_ex.c **** 
 1928              		.loc 1 969 21 view .LVU424
 1929 0080 7047     		bx	lr
 1930              	.LVL145:
 1931              	.L184:
 979:Drivers/STM32L4xx_HAL_Driver/Src/stm32l4xx_hal_pwr_ex.c ****   {
 1932              		.loc 1 979 3 view .LVU425
 1933 0082 0120     		movs	r0, #1
 1934              	.LVL146:
 979:Drivers/STM32L4xx_HAL_Driver/Src/stm32l4xx_hal_pwr_ex.c ****   {
 1935              		.loc 1 979 3 view .LVU426
 1936 0084 7047     		bx	lr
 1937              	.LVL147:
 1938              	.L163:
 979:Drivers/STM32L4xx_HAL_Driver/Src/stm32l4xx_hal_pwr_ex.c ****   {
 1939              		.loc 1 979 3 view .LVU427
 1940 0086 802B     		cmp	r3, #128
 1941 0088 36D1     		bne	.L185
ARM GAS  C:\Users\HP\AppData\Local\Temp\ccTBk3CI.s 			page 54


1043:Drivers/STM32L4xx_HAL_Driver/Src/stm32l4xx_hal_pwr_ex.c ****       }
1044:Drivers/STM32L4xx_HAL_Driver/Src/stm32l4xx_hal_pwr_ex.c ****       break;
1045:Drivers/STM32L4xx_HAL_Driver/Src/stm32l4xx_hal_pwr_ex.c **** #endif /* PWR_CR2_PVME2 */
1046:Drivers/STM32L4xx_HAL_Driver/Src/stm32l4xx_hal_pwr_ex.c **** 
1047:Drivers/STM32L4xx_HAL_Driver/Src/stm32l4xx_hal_pwr_ex.c ****     case PWR_PVM_3:
1048:Drivers/STM32L4xx_HAL_Driver/Src/stm32l4xx_hal_pwr_ex.c ****       /* Clear any previous config. Keep it clear if no event or IT mode is selected */
1049:Drivers/STM32L4xx_HAL_Driver/Src/stm32l4xx_hal_pwr_ex.c ****       __HAL_PWR_PVM3_EXTI_DISABLE_EVENT();
1050:Drivers/STM32L4xx_HAL_Driver/Src/stm32l4xx_hal_pwr_ex.c ****       __HAL_PWR_PVM3_EXTI_DISABLE_IT();
1051:Drivers/STM32L4xx_HAL_Driver/Src/stm32l4xx_hal_pwr_ex.c ****       __HAL_PWR_PVM3_EXTI_DISABLE_FALLING_EDGE();
1052:Drivers/STM32L4xx_HAL_Driver/Src/stm32l4xx_hal_pwr_ex.c ****       __HAL_PWR_PVM3_EXTI_DISABLE_RISING_EDGE();
1053:Drivers/STM32L4xx_HAL_Driver/Src/stm32l4xx_hal_pwr_ex.c **** 
1054:Drivers/STM32L4xx_HAL_Driver/Src/stm32l4xx_hal_pwr_ex.c ****       /* Configure interrupt mode */
1055:Drivers/STM32L4xx_HAL_Driver/Src/stm32l4xx_hal_pwr_ex.c ****       if((sConfigPVM->Mode & PVM_MODE_IT) == PVM_MODE_IT)
1056:Drivers/STM32L4xx_HAL_Driver/Src/stm32l4xx_hal_pwr_ex.c ****       {
1057:Drivers/STM32L4xx_HAL_Driver/Src/stm32l4xx_hal_pwr_ex.c ****         __HAL_PWR_PVM3_EXTI_ENABLE_IT();
1058:Drivers/STM32L4xx_HAL_Driver/Src/stm32l4xx_hal_pwr_ex.c ****       }
1059:Drivers/STM32L4xx_HAL_Driver/Src/stm32l4xx_hal_pwr_ex.c **** 
1060:Drivers/STM32L4xx_HAL_Driver/Src/stm32l4xx_hal_pwr_ex.c ****       /* Configure event mode */
1061:Drivers/STM32L4xx_HAL_Driver/Src/stm32l4xx_hal_pwr_ex.c ****       if((sConfigPVM->Mode & PVM_MODE_EVT) == PVM_MODE_EVT)
1062:Drivers/STM32L4xx_HAL_Driver/Src/stm32l4xx_hal_pwr_ex.c ****       {
1063:Drivers/STM32L4xx_HAL_Driver/Src/stm32l4xx_hal_pwr_ex.c ****         __HAL_PWR_PVM3_EXTI_ENABLE_EVENT();
1064:Drivers/STM32L4xx_HAL_Driver/Src/stm32l4xx_hal_pwr_ex.c ****       }
1065:Drivers/STM32L4xx_HAL_Driver/Src/stm32l4xx_hal_pwr_ex.c **** 
1066:Drivers/STM32L4xx_HAL_Driver/Src/stm32l4xx_hal_pwr_ex.c ****       /* Configure the edge */
1067:Drivers/STM32L4xx_HAL_Driver/Src/stm32l4xx_hal_pwr_ex.c ****       if((sConfigPVM->Mode & PVM_RISING_EDGE) == PVM_RISING_EDGE)
1068:Drivers/STM32L4xx_HAL_Driver/Src/stm32l4xx_hal_pwr_ex.c ****       {
1069:Drivers/STM32L4xx_HAL_Driver/Src/stm32l4xx_hal_pwr_ex.c ****         __HAL_PWR_PVM3_EXTI_ENABLE_RISING_EDGE();
1070:Drivers/STM32L4xx_HAL_Driver/Src/stm32l4xx_hal_pwr_ex.c ****       }
1071:Drivers/STM32L4xx_HAL_Driver/Src/stm32l4xx_hal_pwr_ex.c **** 
1072:Drivers/STM32L4xx_HAL_Driver/Src/stm32l4xx_hal_pwr_ex.c ****       if((sConfigPVM->Mode & PVM_FALLING_EDGE) == PVM_FALLING_EDGE)
1073:Drivers/STM32L4xx_HAL_Driver/Src/stm32l4xx_hal_pwr_ex.c ****       {
1074:Drivers/STM32L4xx_HAL_Driver/Src/stm32l4xx_hal_pwr_ex.c ****         __HAL_PWR_PVM3_EXTI_ENABLE_FALLING_EDGE();
1075:Drivers/STM32L4xx_HAL_Driver/Src/stm32l4xx_hal_pwr_ex.c ****       }
1076:Drivers/STM32L4xx_HAL_Driver/Src/stm32l4xx_hal_pwr_ex.c ****       break;
1077:Drivers/STM32L4xx_HAL_Driver/Src/stm32l4xx_hal_pwr_ex.c **** 
1078:Drivers/STM32L4xx_HAL_Driver/Src/stm32l4xx_hal_pwr_ex.c ****     case PWR_PVM_4:
1079:Drivers/STM32L4xx_HAL_Driver/Src/stm32l4xx_hal_pwr_ex.c ****       /* Clear any previous config. Keep it clear if no event or IT mode is selected */
1080:Drivers/STM32L4xx_HAL_Driver/Src/stm32l4xx_hal_pwr_ex.c ****       __HAL_PWR_PVM4_EXTI_DISABLE_EVENT();
 1942              		.loc 1 1080 7 is_stmt 1 view .LVU428
 1943 008a 574B     		ldr	r3, .L186
 1944 008c 5A6A     		ldr	r2, [r3, #36]
 1945 008e 22F04002 		bic	r2, r2, #64
 1946 0092 5A62     		str	r2, [r3, #36]
1081:Drivers/STM32L4xx_HAL_Driver/Src/stm32l4xx_hal_pwr_ex.c ****       __HAL_PWR_PVM4_EXTI_DISABLE_IT();
 1947              		.loc 1 1081 7 view .LVU429
 1948 0094 1A6A     		ldr	r2, [r3, #32]
 1949 0096 22F04002 		bic	r2, r2, #64
 1950 009a 1A62     		str	r2, [r3, #32]
1082:Drivers/STM32L4xx_HAL_Driver/Src/stm32l4xx_hal_pwr_ex.c ****       __HAL_PWR_PVM4_EXTI_DISABLE_FALLING_EDGE();
 1951              		.loc 1 1082 7 view .LVU430
 1952 009c DA6A     		ldr	r2, [r3, #44]
 1953 009e 22F04002 		bic	r2, r2, #64
 1954 00a2 DA62     		str	r2, [r3, #44]
1083:Drivers/STM32L4xx_HAL_Driver/Src/stm32l4xx_hal_pwr_ex.c ****       __HAL_PWR_PVM4_EXTI_DISABLE_RISING_EDGE();
 1955              		.loc 1 1083 7 view .LVU431
 1956 00a4 9A6A     		ldr	r2, [r3, #40]
 1957 00a6 22F04002 		bic	r2, r2, #64
ARM GAS  C:\Users\HP\AppData\Local\Temp\ccTBk3CI.s 			page 55


 1958 00aa 9A62     		str	r2, [r3, #40]
1084:Drivers/STM32L4xx_HAL_Driver/Src/stm32l4xx_hal_pwr_ex.c **** 
1085:Drivers/STM32L4xx_HAL_Driver/Src/stm32l4xx_hal_pwr_ex.c ****       /* Configure interrupt mode */
1086:Drivers/STM32L4xx_HAL_Driver/Src/stm32l4xx_hal_pwr_ex.c ****       if((sConfigPVM->Mode & PVM_MODE_IT) == PVM_MODE_IT)
 1959              		.loc 1 1086 7 view .LVU432
 1960              		.loc 1 1086 21 is_stmt 0 view .LVU433
 1961 00ac 4368     		ldr	r3, [r0, #4]
 1962              		.loc 1 1086 9 view .LVU434
 1963 00ae 13F4803F 		tst	r3, #65536
 1964 00b2 04D0     		beq	.L177
1087:Drivers/STM32L4xx_HAL_Driver/Src/stm32l4xx_hal_pwr_ex.c ****       {
1088:Drivers/STM32L4xx_HAL_Driver/Src/stm32l4xx_hal_pwr_ex.c ****         __HAL_PWR_PVM4_EXTI_ENABLE_IT();
 1965              		.loc 1 1088 9 is_stmt 1 view .LVU435
 1966 00b4 4C4A     		ldr	r2, .L186
 1967 00b6 136A     		ldr	r3, [r2, #32]
 1968 00b8 43F04003 		orr	r3, r3, #64
 1969 00bc 1362     		str	r3, [r2, #32]
 1970              	.L177:
1089:Drivers/STM32L4xx_HAL_Driver/Src/stm32l4xx_hal_pwr_ex.c ****       }
1090:Drivers/STM32L4xx_HAL_Driver/Src/stm32l4xx_hal_pwr_ex.c **** 
1091:Drivers/STM32L4xx_HAL_Driver/Src/stm32l4xx_hal_pwr_ex.c ****       /* Configure event mode */
1092:Drivers/STM32L4xx_HAL_Driver/Src/stm32l4xx_hal_pwr_ex.c ****       if((sConfigPVM->Mode & PVM_MODE_EVT) == PVM_MODE_EVT)
 1971              		.loc 1 1092 7 view .LVU436
 1972              		.loc 1 1092 21 is_stmt 0 view .LVU437
 1973 00be 4368     		ldr	r3, [r0, #4]
 1974              		.loc 1 1092 9 view .LVU438
 1975 00c0 13F4003F 		tst	r3, #131072
 1976 00c4 04D0     		beq	.L178
1093:Drivers/STM32L4xx_HAL_Driver/Src/stm32l4xx_hal_pwr_ex.c ****       {
1094:Drivers/STM32L4xx_HAL_Driver/Src/stm32l4xx_hal_pwr_ex.c ****         __HAL_PWR_PVM4_EXTI_ENABLE_EVENT();
 1977              		.loc 1 1094 9 is_stmt 1 view .LVU439
 1978 00c6 484A     		ldr	r2, .L186
 1979 00c8 536A     		ldr	r3, [r2, #36]
 1980 00ca 43F04003 		orr	r3, r3, #64
 1981 00ce 5362     		str	r3, [r2, #36]
 1982              	.L178:
1095:Drivers/STM32L4xx_HAL_Driver/Src/stm32l4xx_hal_pwr_ex.c ****       }
1096:Drivers/STM32L4xx_HAL_Driver/Src/stm32l4xx_hal_pwr_ex.c **** 
1097:Drivers/STM32L4xx_HAL_Driver/Src/stm32l4xx_hal_pwr_ex.c ****       /* Configure the edge */
1098:Drivers/STM32L4xx_HAL_Driver/Src/stm32l4xx_hal_pwr_ex.c ****       if((sConfigPVM->Mode & PVM_RISING_EDGE) == PVM_RISING_EDGE)
 1983              		.loc 1 1098 7 view .LVU440
 1984              		.loc 1 1098 21 is_stmt 0 view .LVU441
 1985 00d0 4368     		ldr	r3, [r0, #4]
 1986              		.loc 1 1098 9 view .LVU442
 1987 00d2 13F0010F 		tst	r3, #1
 1988 00d6 04D0     		beq	.L179
1099:Drivers/STM32L4xx_HAL_Driver/Src/stm32l4xx_hal_pwr_ex.c ****       {
1100:Drivers/STM32L4xx_HAL_Driver/Src/stm32l4xx_hal_pwr_ex.c ****         __HAL_PWR_PVM4_EXTI_ENABLE_RISING_EDGE();
 1989              		.loc 1 1100 9 is_stmt 1 view .LVU443
 1990 00d8 434A     		ldr	r2, .L186
 1991 00da 936A     		ldr	r3, [r2, #40]
 1992 00dc 43F04003 		orr	r3, r3, #64
 1993 00e0 9362     		str	r3, [r2, #40]
 1994              	.L179:
1101:Drivers/STM32L4xx_HAL_Driver/Src/stm32l4xx_hal_pwr_ex.c ****       }
1102:Drivers/STM32L4xx_HAL_Driver/Src/stm32l4xx_hal_pwr_ex.c **** 
1103:Drivers/STM32L4xx_HAL_Driver/Src/stm32l4xx_hal_pwr_ex.c ****       if((sConfigPVM->Mode & PVM_FALLING_EDGE) == PVM_FALLING_EDGE)
ARM GAS  C:\Users\HP\AppData\Local\Temp\ccTBk3CI.s 			page 56


 1995              		.loc 1 1103 7 view .LVU444
 1996              		.loc 1 1103 21 is_stmt 0 view .LVU445
 1997 00e2 4368     		ldr	r3, [r0, #4]
 1998              		.loc 1 1103 9 view .LVU446
 1999 00e4 13F0020F 		tst	r3, #2
 2000 00e8 7CD0     		beq	.L183
1104:Drivers/STM32L4xx_HAL_Driver/Src/stm32l4xx_hal_pwr_ex.c ****       {
1105:Drivers/STM32L4xx_HAL_Driver/Src/stm32l4xx_hal_pwr_ex.c ****         __HAL_PWR_PVM4_EXTI_ENABLE_FALLING_EDGE();
 2001              		.loc 1 1105 9 is_stmt 1 view .LVU447
 2002 00ea 3F4A     		ldr	r2, .L186
 2003 00ec D36A     		ldr	r3, [r2, #44]
 2004 00ee 43F04003 		orr	r3, r3, #64
 2005 00f2 D362     		str	r3, [r2, #44]
 969:Drivers/STM32L4xx_HAL_Driver/Src/stm32l4xx_hal_pwr_ex.c **** 
 2006              		.loc 1 969 21 is_stmt 0 view .LVU448
 2007 00f4 0020     		movs	r0, #0
 2008              	.LVL148:
 969:Drivers/STM32L4xx_HAL_Driver/Src/stm32l4xx_hal_pwr_ex.c **** 
 2009              		.loc 1 969 21 view .LVU449
 2010 00f6 7047     		bx	lr
 2011              	.LVL149:
 2012              	.L185:
 979:Drivers/STM32L4xx_HAL_Driver/Src/stm32l4xx_hal_pwr_ex.c ****   {
 2013              		.loc 1 979 3 view .LVU450
 2014 00f8 0120     		movs	r0, #1
 2015              	.LVL150:
 979:Drivers/STM32L4xx_HAL_Driver/Src/stm32l4xx_hal_pwr_ex.c ****   {
 2016              		.loc 1 979 3 view .LVU451
 2017 00fa 7047     		bx	lr
 2018              	.LVL151:
 2019              	.L164:
 984:Drivers/STM32L4xx_HAL_Driver/Src/stm32l4xx_hal_pwr_ex.c ****       __HAL_PWR_PVM1_EXTI_DISABLE_IT();
 2020              		.loc 1 984 7 is_stmt 1 view .LVU452
 2021 00fc 3A4B     		ldr	r3, .L186
 2022 00fe 5A6A     		ldr	r2, [r3, #36]
 2023 0100 22F00802 		bic	r2, r2, #8
 2024 0104 5A62     		str	r2, [r3, #36]
 985:Drivers/STM32L4xx_HAL_Driver/Src/stm32l4xx_hal_pwr_ex.c ****       __HAL_PWR_PVM1_EXTI_DISABLE_FALLING_EDGE();
 2025              		.loc 1 985 7 view .LVU453
 2026 0106 1A6A     		ldr	r2, [r3, #32]
 2027 0108 22F00802 		bic	r2, r2, #8
 2028 010c 1A62     		str	r2, [r3, #32]
 986:Drivers/STM32L4xx_HAL_Driver/Src/stm32l4xx_hal_pwr_ex.c ****       __HAL_PWR_PVM1_EXTI_DISABLE_RISING_EDGE();
 2029              		.loc 1 986 7 view .LVU454
 2030 010e DA6A     		ldr	r2, [r3, #44]
 2031 0110 22F00802 		bic	r2, r2, #8
 2032 0114 DA62     		str	r2, [r3, #44]
 987:Drivers/STM32L4xx_HAL_Driver/Src/stm32l4xx_hal_pwr_ex.c **** 
 2033              		.loc 1 987 7 view .LVU455
 2034 0116 9A6A     		ldr	r2, [r3, #40]
 2035 0118 22F00802 		bic	r2, r2, #8
 2036 011c 9A62     		str	r2, [r3, #40]
 990:Drivers/STM32L4xx_HAL_Driver/Src/stm32l4xx_hal_pwr_ex.c ****       {
 2037              		.loc 1 990 7 view .LVU456
 990:Drivers/STM32L4xx_HAL_Driver/Src/stm32l4xx_hal_pwr_ex.c ****       {
 2038              		.loc 1 990 21 is_stmt 0 view .LVU457
 2039 011e 4368     		ldr	r3, [r0, #4]
ARM GAS  C:\Users\HP\AppData\Local\Temp\ccTBk3CI.s 			page 57


 990:Drivers/STM32L4xx_HAL_Driver/Src/stm32l4xx_hal_pwr_ex.c ****       {
 2040              		.loc 1 990 9 view .LVU458
 2041 0120 13F4803F 		tst	r3, #65536
 2042 0124 04D0     		beq	.L168
 992:Drivers/STM32L4xx_HAL_Driver/Src/stm32l4xx_hal_pwr_ex.c ****       }
 2043              		.loc 1 992 9 is_stmt 1 view .LVU459
 2044 0126 304A     		ldr	r2, .L186
 2045 0128 136A     		ldr	r3, [r2, #32]
 2046 012a 43F00803 		orr	r3, r3, #8
 2047 012e 1362     		str	r3, [r2, #32]
 2048              	.L168:
 996:Drivers/STM32L4xx_HAL_Driver/Src/stm32l4xx_hal_pwr_ex.c ****       {
 2049              		.loc 1 996 7 view .LVU460
 996:Drivers/STM32L4xx_HAL_Driver/Src/stm32l4xx_hal_pwr_ex.c ****       {
 2050              		.loc 1 996 21 is_stmt 0 view .LVU461
 2051 0130 4368     		ldr	r3, [r0, #4]
 996:Drivers/STM32L4xx_HAL_Driver/Src/stm32l4xx_hal_pwr_ex.c ****       {
 2052              		.loc 1 996 9 view .LVU462
 2053 0132 13F4003F 		tst	r3, #131072
 2054 0136 04D0     		beq	.L169
 998:Drivers/STM32L4xx_HAL_Driver/Src/stm32l4xx_hal_pwr_ex.c ****       }
 2055              		.loc 1 998 9 is_stmt 1 view .LVU463
 2056 0138 2B4A     		ldr	r2, .L186
 2057 013a 536A     		ldr	r3, [r2, #36]
 2058 013c 43F00803 		orr	r3, r3, #8
 2059 0140 5362     		str	r3, [r2, #36]
 2060              	.L169:
1002:Drivers/STM32L4xx_HAL_Driver/Src/stm32l4xx_hal_pwr_ex.c ****       {
 2061              		.loc 1 1002 7 view .LVU464
1002:Drivers/STM32L4xx_HAL_Driver/Src/stm32l4xx_hal_pwr_ex.c ****       {
 2062              		.loc 1 1002 21 is_stmt 0 view .LVU465
 2063 0142 4368     		ldr	r3, [r0, #4]
1002:Drivers/STM32L4xx_HAL_Driver/Src/stm32l4xx_hal_pwr_ex.c ****       {
 2064              		.loc 1 1002 9 view .LVU466
 2065 0144 13F0010F 		tst	r3, #1
 2066 0148 04D0     		beq	.L170
1004:Drivers/STM32L4xx_HAL_Driver/Src/stm32l4xx_hal_pwr_ex.c ****       }
 2067              		.loc 1 1004 9 is_stmt 1 view .LVU467
 2068 014a 274A     		ldr	r2, .L186
 2069 014c 936A     		ldr	r3, [r2, #40]
 2070 014e 43F00803 		orr	r3, r3, #8
 2071 0152 9362     		str	r3, [r2, #40]
 2072              	.L170:
1007:Drivers/STM32L4xx_HAL_Driver/Src/stm32l4xx_hal_pwr_ex.c ****       {
 2073              		.loc 1 1007 7 view .LVU468
1007:Drivers/STM32L4xx_HAL_Driver/Src/stm32l4xx_hal_pwr_ex.c ****       {
 2074              		.loc 1 1007 21 is_stmt 0 view .LVU469
 2075 0154 4368     		ldr	r3, [r0, #4]
1007:Drivers/STM32L4xx_HAL_Driver/Src/stm32l4xx_hal_pwr_ex.c ****       {
 2076              		.loc 1 1007 9 view .LVU470
 2077 0156 13F0020F 		tst	r3, #2
 2078 015a 3DD0     		beq	.L180
1009:Drivers/STM32L4xx_HAL_Driver/Src/stm32l4xx_hal_pwr_ex.c ****       }
 2079              		.loc 1 1009 9 is_stmt 1 view .LVU471
 2080 015c 224A     		ldr	r2, .L186
 2081 015e D36A     		ldr	r3, [r2, #44]
 2082 0160 43F00803 		orr	r3, r3, #8
ARM GAS  C:\Users\HP\AppData\Local\Temp\ccTBk3CI.s 			page 58


 2083 0164 D362     		str	r3, [r2, #44]
 969:Drivers/STM32L4xx_HAL_Driver/Src/stm32l4xx_hal_pwr_ex.c **** 
 2084              		.loc 1 969 21 is_stmt 0 view .LVU472
 2085 0166 0020     		movs	r0, #0
 2086              	.LVL152:
 969:Drivers/STM32L4xx_HAL_Driver/Src/stm32l4xx_hal_pwr_ex.c **** 
 2087              		.loc 1 969 21 view .LVU473
 2088 0168 7047     		bx	lr
 2089              	.LVL153:
 2090              	.L162:
1049:Drivers/STM32L4xx_HAL_Driver/Src/stm32l4xx_hal_pwr_ex.c ****       __HAL_PWR_PVM3_EXTI_DISABLE_IT();
 2091              		.loc 1 1049 7 is_stmt 1 view .LVU474
 2092 016a 1F4B     		ldr	r3, .L186
 2093 016c 5A6A     		ldr	r2, [r3, #36]
 2094 016e 22F02002 		bic	r2, r2, #32
 2095 0172 5A62     		str	r2, [r3, #36]
1050:Drivers/STM32L4xx_HAL_Driver/Src/stm32l4xx_hal_pwr_ex.c ****       __HAL_PWR_PVM3_EXTI_DISABLE_FALLING_EDGE();
 2096              		.loc 1 1050 7 view .LVU475
 2097 0174 1A6A     		ldr	r2, [r3, #32]
 2098 0176 22F02002 		bic	r2, r2, #32
 2099 017a 1A62     		str	r2, [r3, #32]
1051:Drivers/STM32L4xx_HAL_Driver/Src/stm32l4xx_hal_pwr_ex.c ****       __HAL_PWR_PVM3_EXTI_DISABLE_RISING_EDGE();
 2100              		.loc 1 1051 7 view .LVU476
 2101 017c DA6A     		ldr	r2, [r3, #44]
 2102 017e 22F02002 		bic	r2, r2, #32
 2103 0182 DA62     		str	r2, [r3, #44]
1052:Drivers/STM32L4xx_HAL_Driver/Src/stm32l4xx_hal_pwr_ex.c **** 
 2104              		.loc 1 1052 7 view .LVU477
 2105 0184 9A6A     		ldr	r2, [r3, #40]
 2106 0186 22F02002 		bic	r2, r2, #32
 2107 018a 9A62     		str	r2, [r3, #40]
1055:Drivers/STM32L4xx_HAL_Driver/Src/stm32l4xx_hal_pwr_ex.c ****       {
 2108              		.loc 1 1055 7 view .LVU478
1055:Drivers/STM32L4xx_HAL_Driver/Src/stm32l4xx_hal_pwr_ex.c ****       {
 2109              		.loc 1 1055 21 is_stmt 0 view .LVU479
 2110 018c 4368     		ldr	r3, [r0, #4]
1055:Drivers/STM32L4xx_HAL_Driver/Src/stm32l4xx_hal_pwr_ex.c ****       {
 2111              		.loc 1 1055 9 view .LVU480
 2112 018e 13F4803F 		tst	r3, #65536
 2113 0192 04D0     		beq	.L174
1057:Drivers/STM32L4xx_HAL_Driver/Src/stm32l4xx_hal_pwr_ex.c ****       }
 2114              		.loc 1 1057 9 is_stmt 1 view .LVU481
 2115 0194 144A     		ldr	r2, .L186
 2116 0196 136A     		ldr	r3, [r2, #32]
 2117 0198 43F02003 		orr	r3, r3, #32
 2118 019c 1362     		str	r3, [r2, #32]
 2119              	.L174:
1061:Drivers/STM32L4xx_HAL_Driver/Src/stm32l4xx_hal_pwr_ex.c ****       {
 2120              		.loc 1 1061 7 view .LVU482
1061:Drivers/STM32L4xx_HAL_Driver/Src/stm32l4xx_hal_pwr_ex.c ****       {
 2121              		.loc 1 1061 21 is_stmt 0 view .LVU483
 2122 019e 4368     		ldr	r3, [r0, #4]
1061:Drivers/STM32L4xx_HAL_Driver/Src/stm32l4xx_hal_pwr_ex.c ****       {
 2123              		.loc 1 1061 9 view .LVU484
 2124 01a0 13F4003F 		tst	r3, #131072
 2125 01a4 04D0     		beq	.L175
1063:Drivers/STM32L4xx_HAL_Driver/Src/stm32l4xx_hal_pwr_ex.c ****       }
ARM GAS  C:\Users\HP\AppData\Local\Temp\ccTBk3CI.s 			page 59


 2126              		.loc 1 1063 9 is_stmt 1 view .LVU485
 2127 01a6 104A     		ldr	r2, .L186
 2128 01a8 536A     		ldr	r3, [r2, #36]
 2129 01aa 43F02003 		orr	r3, r3, #32
 2130 01ae 5362     		str	r3, [r2, #36]
 2131              	.L175:
1067:Drivers/STM32L4xx_HAL_Driver/Src/stm32l4xx_hal_pwr_ex.c ****       {
 2132              		.loc 1 1067 7 view .LVU486
1067:Drivers/STM32L4xx_HAL_Driver/Src/stm32l4xx_hal_pwr_ex.c ****       {
 2133              		.loc 1 1067 21 is_stmt 0 view .LVU487
 2134 01b0 4368     		ldr	r3, [r0, #4]
1067:Drivers/STM32L4xx_HAL_Driver/Src/stm32l4xx_hal_pwr_ex.c ****       {
 2135              		.loc 1 1067 9 view .LVU488
 2136 01b2 13F0010F 		tst	r3, #1
 2137 01b6 04D0     		beq	.L176
1069:Drivers/STM32L4xx_HAL_Driver/Src/stm32l4xx_hal_pwr_ex.c ****       }
 2138              		.loc 1 1069 9 is_stmt 1 view .LVU489
 2139 01b8 0B4A     		ldr	r2, .L186
 2140 01ba 936A     		ldr	r3, [r2, #40]
 2141 01bc 43F02003 		orr	r3, r3, #32
 2142 01c0 9362     		str	r3, [r2, #40]
 2143              	.L176:
1072:Drivers/STM32L4xx_HAL_Driver/Src/stm32l4xx_hal_pwr_ex.c ****       {
 2144              		.loc 1 1072 7 view .LVU490
1072:Drivers/STM32L4xx_HAL_Driver/Src/stm32l4xx_hal_pwr_ex.c ****       {
 2145              		.loc 1 1072 21 is_stmt 0 view .LVU491
 2146 01c2 4368     		ldr	r3, [r0, #4]
1072:Drivers/STM32L4xx_HAL_Driver/Src/stm32l4xx_hal_pwr_ex.c ****       {
 2147              		.loc 1 1072 9 view .LVU492
 2148 01c4 13F0020F 		tst	r3, #2
 2149 01c8 0AD0     		beq	.L182
1074:Drivers/STM32L4xx_HAL_Driver/Src/stm32l4xx_hal_pwr_ex.c ****       }
 2150              		.loc 1 1074 9 is_stmt 1 view .LVU493
 2151 01ca 074A     		ldr	r2, .L186
 2152 01cc D36A     		ldr	r3, [r2, #44]
 2153 01ce 43F02003 		orr	r3, r3, #32
 2154 01d2 D362     		str	r3, [r2, #44]
 969:Drivers/STM32L4xx_HAL_Driver/Src/stm32l4xx_hal_pwr_ex.c **** 
 2155              		.loc 1 969 21 is_stmt 0 view .LVU494
 2156 01d4 0020     		movs	r0, #0
 2157              	.LVL154:
 969:Drivers/STM32L4xx_HAL_Driver/Src/stm32l4xx_hal_pwr_ex.c **** 
 2158              		.loc 1 969 21 view .LVU495
 2159 01d6 7047     		bx	lr
 2160              	.LVL155:
 2161              	.L180:
 969:Drivers/STM32L4xx_HAL_Driver/Src/stm32l4xx_hal_pwr_ex.c **** 
 2162              		.loc 1 969 21 view .LVU496
 2163 01d8 0020     		movs	r0, #0
 2164              	.LVL156:
 969:Drivers/STM32L4xx_HAL_Driver/Src/stm32l4xx_hal_pwr_ex.c **** 
 2165              		.loc 1 969 21 view .LVU497
 2166 01da 7047     		bx	lr
 2167              	.LVL157:
 2168              	.L181:
 969:Drivers/STM32L4xx_HAL_Driver/Src/stm32l4xx_hal_pwr_ex.c **** 
 2169              		.loc 1 969 21 view .LVU498
ARM GAS  C:\Users\HP\AppData\Local\Temp\ccTBk3CI.s 			page 60


 2170 01dc 0020     		movs	r0, #0
 2171              	.LVL158:
 969:Drivers/STM32L4xx_HAL_Driver/Src/stm32l4xx_hal_pwr_ex.c **** 
 2172              		.loc 1 969 21 view .LVU499
 2173 01de 7047     		bx	lr
 2174              	.LVL159:
 2175              	.L182:
 969:Drivers/STM32L4xx_HAL_Driver/Src/stm32l4xx_hal_pwr_ex.c **** 
 2176              		.loc 1 969 21 view .LVU500
 2177 01e0 0020     		movs	r0, #0
 2178              	.LVL160:
 969:Drivers/STM32L4xx_HAL_Driver/Src/stm32l4xx_hal_pwr_ex.c **** 
 2179              		.loc 1 969 21 view .LVU501
 2180 01e2 7047     		bx	lr
 2181              	.LVL161:
 2182              	.L183:
 969:Drivers/STM32L4xx_HAL_Driver/Src/stm32l4xx_hal_pwr_ex.c **** 
 2183              		.loc 1 969 21 view .LVU502
 2184 01e4 0020     		movs	r0, #0
 2185              	.LVL162:
1106:Drivers/STM32L4xx_HAL_Driver/Src/stm32l4xx_hal_pwr_ex.c ****       }
1107:Drivers/STM32L4xx_HAL_Driver/Src/stm32l4xx_hal_pwr_ex.c ****       break;
1108:Drivers/STM32L4xx_HAL_Driver/Src/stm32l4xx_hal_pwr_ex.c **** 
1109:Drivers/STM32L4xx_HAL_Driver/Src/stm32l4xx_hal_pwr_ex.c ****     default:
1110:Drivers/STM32L4xx_HAL_Driver/Src/stm32l4xx_hal_pwr_ex.c ****       status = HAL_ERROR;
1111:Drivers/STM32L4xx_HAL_Driver/Src/stm32l4xx_hal_pwr_ex.c ****       break;
1112:Drivers/STM32L4xx_HAL_Driver/Src/stm32l4xx_hal_pwr_ex.c ****   }
1113:Drivers/STM32L4xx_HAL_Driver/Src/stm32l4xx_hal_pwr_ex.c **** 
1114:Drivers/STM32L4xx_HAL_Driver/Src/stm32l4xx_hal_pwr_ex.c ****   return status;
 2186              		.loc 1 1114 3 is_stmt 1 view .LVU503
1115:Drivers/STM32L4xx_HAL_Driver/Src/stm32l4xx_hal_pwr_ex.c **** }
 2187              		.loc 1 1115 1 is_stmt 0 view .LVU504
 2188 01e6 7047     		bx	lr
 2189              	.L187:
 2190              		.align	2
 2191              	.L186:
 2192 01e8 00040140 		.word	1073808384
 2193              		.cfi_endproc
 2194              	.LFE163:
 2196              		.section	.text.HAL_PWREx_EnableLowPowerRunMode,"ax",%progbits
 2197              		.align	1
 2198              		.global	HAL_PWREx_EnableLowPowerRunMode
 2199              		.syntax unified
 2200              		.thumb
 2201              		.thumb_func
 2203              	HAL_PWREx_EnableLowPowerRunMode:
 2204              	.LFB164:
1116:Drivers/STM32L4xx_HAL_Driver/Src/stm32l4xx_hal_pwr_ex.c **** 
1117:Drivers/STM32L4xx_HAL_Driver/Src/stm32l4xx_hal_pwr_ex.c **** 
1118:Drivers/STM32L4xx_HAL_Driver/Src/stm32l4xx_hal_pwr_ex.c **** 
1119:Drivers/STM32L4xx_HAL_Driver/Src/stm32l4xx_hal_pwr_ex.c **** /**
1120:Drivers/STM32L4xx_HAL_Driver/Src/stm32l4xx_hal_pwr_ex.c ****   * @brief Enter Low-power Run mode
1121:Drivers/STM32L4xx_HAL_Driver/Src/stm32l4xx_hal_pwr_ex.c ****   * @note  In Low-power Run mode, all I/O pins keep the same state as in Run mode.
1122:Drivers/STM32L4xx_HAL_Driver/Src/stm32l4xx_hal_pwr_ex.c ****   * @note  When Regulator is set to PWR_LOWPOWERREGULATOR_ON, the user can optionally configure the
1123:Drivers/STM32L4xx_HAL_Driver/Src/stm32l4xx_hal_pwr_ex.c ****   *        Flash in power-down monde in setting the RUN_PD bit in FLASH_ACR register.
1124:Drivers/STM32L4xx_HAL_Driver/Src/stm32l4xx_hal_pwr_ex.c ****   *        Additionally, the clock frequency must be reduced below 2 MHz.
1125:Drivers/STM32L4xx_HAL_Driver/Src/stm32l4xx_hal_pwr_ex.c ****   *        Setting RUN_PD in FLASH_ACR then appropriately reducing the clock frequency must
ARM GAS  C:\Users\HP\AppData\Local\Temp\ccTBk3CI.s 			page 61


1126:Drivers/STM32L4xx_HAL_Driver/Src/stm32l4xx_hal_pwr_ex.c ****   *        be done before calling HAL_PWREx_EnableLowPowerRunMode() API.
1127:Drivers/STM32L4xx_HAL_Driver/Src/stm32l4xx_hal_pwr_ex.c ****   * @retval None
1128:Drivers/STM32L4xx_HAL_Driver/Src/stm32l4xx_hal_pwr_ex.c ****   */
1129:Drivers/STM32L4xx_HAL_Driver/Src/stm32l4xx_hal_pwr_ex.c **** void HAL_PWREx_EnableLowPowerRunMode(void)
1130:Drivers/STM32L4xx_HAL_Driver/Src/stm32l4xx_hal_pwr_ex.c **** {
 2205              		.loc 1 1130 1 is_stmt 1 view -0
 2206              		.cfi_startproc
 2207              		@ args = 0, pretend = 0, frame = 0
 2208              		@ frame_needed = 0, uses_anonymous_args = 0
 2209              		@ link register save eliminated.
1131:Drivers/STM32L4xx_HAL_Driver/Src/stm32l4xx_hal_pwr_ex.c ****   /* Set Regulator parameter */
1132:Drivers/STM32L4xx_HAL_Driver/Src/stm32l4xx_hal_pwr_ex.c ****   SET_BIT(PWR->CR1, PWR_CR1_LPR);
 2210              		.loc 1 1132 3 view .LVU506
 2211 0000 024A     		ldr	r2, .L189
 2212 0002 1368     		ldr	r3, [r2]
 2213 0004 43F48043 		orr	r3, r3, #16384
 2214 0008 1360     		str	r3, [r2]
1133:Drivers/STM32L4xx_HAL_Driver/Src/stm32l4xx_hal_pwr_ex.c **** }
 2215              		.loc 1 1133 1 is_stmt 0 view .LVU507
 2216 000a 7047     		bx	lr
 2217              	.L190:
 2218              		.align	2
 2219              	.L189:
 2220 000c 00700040 		.word	1073770496
 2221              		.cfi_endproc
 2222              	.LFE164:
 2224              		.section	.text.HAL_PWREx_DisableLowPowerRunMode,"ax",%progbits
 2225              		.align	1
 2226              		.global	HAL_PWREx_DisableLowPowerRunMode
 2227              		.syntax unified
 2228              		.thumb
 2229              		.thumb_func
 2231              	HAL_PWREx_DisableLowPowerRunMode:
 2232              	.LFB165:
1134:Drivers/STM32L4xx_HAL_Driver/Src/stm32l4xx_hal_pwr_ex.c **** 
1135:Drivers/STM32L4xx_HAL_Driver/Src/stm32l4xx_hal_pwr_ex.c **** 
1136:Drivers/STM32L4xx_HAL_Driver/Src/stm32l4xx_hal_pwr_ex.c **** /**
1137:Drivers/STM32L4xx_HAL_Driver/Src/stm32l4xx_hal_pwr_ex.c ****   * @brief Exit Low-power Run mode.
1138:Drivers/STM32L4xx_HAL_Driver/Src/stm32l4xx_hal_pwr_ex.c ****   * @note  Before HAL_PWREx_DisableLowPowerRunMode() completion, the function checks that
1139:Drivers/STM32L4xx_HAL_Driver/Src/stm32l4xx_hal_pwr_ex.c ****   *        REGLPF has been properly reset (otherwise, HAL_PWREx_DisableLowPowerRunMode
1140:Drivers/STM32L4xx_HAL_Driver/Src/stm32l4xx_hal_pwr_ex.c ****   *        returns HAL_TIMEOUT status). The system clock frequency can then be
1141:Drivers/STM32L4xx_HAL_Driver/Src/stm32l4xx_hal_pwr_ex.c ****   *        increased above 2 MHz.
1142:Drivers/STM32L4xx_HAL_Driver/Src/stm32l4xx_hal_pwr_ex.c ****   * @retval HAL Status
1143:Drivers/STM32L4xx_HAL_Driver/Src/stm32l4xx_hal_pwr_ex.c ****   */
1144:Drivers/STM32L4xx_HAL_Driver/Src/stm32l4xx_hal_pwr_ex.c **** HAL_StatusTypeDef HAL_PWREx_DisableLowPowerRunMode(void)
1145:Drivers/STM32L4xx_HAL_Driver/Src/stm32l4xx_hal_pwr_ex.c **** {
 2233              		.loc 1 1145 1 is_stmt 1 view -0
 2234              		.cfi_startproc
 2235              		@ args = 0, pretend = 0, frame = 0
 2236              		@ frame_needed = 0, uses_anonymous_args = 0
 2237              		@ link register save eliminated.
1146:Drivers/STM32L4xx_HAL_Driver/Src/stm32l4xx_hal_pwr_ex.c ****   uint32_t wait_loop_index;
 2238              		.loc 1 1146 3 view .LVU509
1147:Drivers/STM32L4xx_HAL_Driver/Src/stm32l4xx_hal_pwr_ex.c **** 
1148:Drivers/STM32L4xx_HAL_Driver/Src/stm32l4xx_hal_pwr_ex.c ****   /* Clear LPR bit */
1149:Drivers/STM32L4xx_HAL_Driver/Src/stm32l4xx_hal_pwr_ex.c ****   CLEAR_BIT(PWR->CR1, PWR_CR1_LPR);
 2239              		.loc 1 1149 3 view .LVU510
ARM GAS  C:\Users\HP\AppData\Local\Temp\ccTBk3CI.s 			page 62


 2240 0000 104A     		ldr	r2, .L197
 2241 0002 1368     		ldr	r3, [r2]
 2242 0004 23F48043 		bic	r3, r3, #16384
 2243 0008 1360     		str	r3, [r2]
1150:Drivers/STM32L4xx_HAL_Driver/Src/stm32l4xx_hal_pwr_ex.c **** 
1151:Drivers/STM32L4xx_HAL_Driver/Src/stm32l4xx_hal_pwr_ex.c ****   /* Wait until REGLPF is reset */
1152:Drivers/STM32L4xx_HAL_Driver/Src/stm32l4xx_hal_pwr_ex.c ****   wait_loop_index = ((PWR_FLAG_SETTING_DELAY_US * SystemCoreClock) / 1000000U) + 1U;
 2244              		.loc 1 1152 3 view .LVU511
 2245              		.loc 1 1152 49 is_stmt 0 view .LVU512
 2246 000a 0F4B     		ldr	r3, .L197+4
 2247 000c 1B68     		ldr	r3, [r3]
 2248 000e 3222     		movs	r2, #50
 2249 0010 02FB03F3 		mul	r3, r2, r3
 2250              		.loc 1 1152 68 view .LVU513
 2251 0014 0D4A     		ldr	r2, .L197+8
 2252 0016 A2FB0323 		umull	r2, r3, r2, r3
 2253 001a 9B0C     		lsrs	r3, r3, #18
 2254              		.loc 1 1152 19 view .LVU514
 2255 001c 0133     		adds	r3, r3, #1
 2256              	.LVL163:
1153:Drivers/STM32L4xx_HAL_Driver/Src/stm32l4xx_hal_pwr_ex.c ****   while ((HAL_IS_BIT_SET(PWR->SR2, PWR_SR2_REGLPF)) && (wait_loop_index != 0U))
 2257              		.loc 1 1153 3 is_stmt 1 view .LVU515
 2258              		.loc 1 1153 9 is_stmt 0 view .LVU516
 2259 001e 00E0     		b	.L192
 2260              	.L194:
1154:Drivers/STM32L4xx_HAL_Driver/Src/stm32l4xx_hal_pwr_ex.c ****   {
1155:Drivers/STM32L4xx_HAL_Driver/Src/stm32l4xx_hal_pwr_ex.c ****     wait_loop_index--;
 2261              		.loc 1 1155 5 is_stmt 1 view .LVU517
 2262              		.loc 1 1155 20 is_stmt 0 view .LVU518
 2263 0020 013B     		subs	r3, r3, #1
 2264              	.LVL164:
 2265              	.L192:
1153:Drivers/STM32L4xx_HAL_Driver/Src/stm32l4xx_hal_pwr_ex.c ****   while ((HAL_IS_BIT_SET(PWR->SR2, PWR_SR2_REGLPF)) && (wait_loop_index != 0U))
 2266              		.loc 1 1153 9 is_stmt 1 view .LVU519
1153:Drivers/STM32L4xx_HAL_Driver/Src/stm32l4xx_hal_pwr_ex.c ****   while ((HAL_IS_BIT_SET(PWR->SR2, PWR_SR2_REGLPF)) && (wait_loop_index != 0U))
 2267              		.loc 1 1153 11 is_stmt 0 view .LVU520
 2268 0022 084A     		ldr	r2, .L197
 2269 0024 5269     		ldr	r2, [r2, #20]
1153:Drivers/STM32L4xx_HAL_Driver/Src/stm32l4xx_hal_pwr_ex.c ****   while ((HAL_IS_BIT_SET(PWR->SR2, PWR_SR2_REGLPF)) && (wait_loop_index != 0U))
 2270              		.loc 1 1153 9 view .LVU521
 2271 0026 12F4007F 		tst	r2, #512
 2272 002a 01D0     		beq	.L193
1153:Drivers/STM32L4xx_HAL_Driver/Src/stm32l4xx_hal_pwr_ex.c ****   while ((HAL_IS_BIT_SET(PWR->SR2, PWR_SR2_REGLPF)) && (wait_loop_index != 0U))
 2273              		.loc 1 1153 53 discriminator 1 view .LVU522
 2274 002c 002B     		cmp	r3, #0
 2275 002e F7D1     		bne	.L194
 2276              	.L193:
1156:Drivers/STM32L4xx_HAL_Driver/Src/stm32l4xx_hal_pwr_ex.c ****   }
1157:Drivers/STM32L4xx_HAL_Driver/Src/stm32l4xx_hal_pwr_ex.c ****   if (HAL_IS_BIT_SET(PWR->SR2, PWR_SR2_REGLPF))
 2277              		.loc 1 1157 3 is_stmt 1 view .LVU523
 2278              		.loc 1 1157 7 is_stmt 0 view .LVU524
 2279 0030 044B     		ldr	r3, .L197
 2280              	.LVL165:
 2281              		.loc 1 1157 7 view .LVU525
 2282 0032 5B69     		ldr	r3, [r3, #20]
 2283              		.loc 1 1157 6 view .LVU526
 2284 0034 13F4007F 		tst	r3, #512
ARM GAS  C:\Users\HP\AppData\Local\Temp\ccTBk3CI.s 			page 63


 2285 0038 01D1     		bne	.L196
1158:Drivers/STM32L4xx_HAL_Driver/Src/stm32l4xx_hal_pwr_ex.c ****   {
1159:Drivers/STM32L4xx_HAL_Driver/Src/stm32l4xx_hal_pwr_ex.c ****     return HAL_TIMEOUT;
1160:Drivers/STM32L4xx_HAL_Driver/Src/stm32l4xx_hal_pwr_ex.c ****   }
1161:Drivers/STM32L4xx_HAL_Driver/Src/stm32l4xx_hal_pwr_ex.c **** 
1162:Drivers/STM32L4xx_HAL_Driver/Src/stm32l4xx_hal_pwr_ex.c ****   return HAL_OK;
 2286              		.loc 1 1162 10 view .LVU527
 2287 003a 0020     		movs	r0, #0
 2288 003c 7047     		bx	lr
 2289              	.L196:
1159:Drivers/STM32L4xx_HAL_Driver/Src/stm32l4xx_hal_pwr_ex.c ****   }
 2290              		.loc 1 1159 12 view .LVU528
 2291 003e 0320     		movs	r0, #3
1163:Drivers/STM32L4xx_HAL_Driver/Src/stm32l4xx_hal_pwr_ex.c **** }
 2292              		.loc 1 1163 1 view .LVU529
 2293 0040 7047     		bx	lr
 2294              	.L198:
 2295 0042 00BF     		.align	2
 2296              	.L197:
 2297 0044 00700040 		.word	1073770496
 2298 0048 00000000 		.word	SystemCoreClock
 2299 004c 83DE1B43 		.word	1125899907
 2300              		.cfi_endproc
 2301              	.LFE165:
 2303              		.section	.text.HAL_PWREx_EnterSTOP0Mode,"ax",%progbits
 2304              		.align	1
 2305              		.global	HAL_PWREx_EnterSTOP0Mode
 2306              		.syntax unified
 2307              		.thumb
 2308              		.thumb_func
 2310              	HAL_PWREx_EnterSTOP0Mode:
 2311              	.LVL166:
 2312              	.LFB166:
1164:Drivers/STM32L4xx_HAL_Driver/Src/stm32l4xx_hal_pwr_ex.c **** 
1165:Drivers/STM32L4xx_HAL_Driver/Src/stm32l4xx_hal_pwr_ex.c **** 
1166:Drivers/STM32L4xx_HAL_Driver/Src/stm32l4xx_hal_pwr_ex.c **** /**
1167:Drivers/STM32L4xx_HAL_Driver/Src/stm32l4xx_hal_pwr_ex.c ****   * @brief Enter Stop 0 mode.
1168:Drivers/STM32L4xx_HAL_Driver/Src/stm32l4xx_hal_pwr_ex.c ****   * @note  In Stop 0 mode, main and low voltage regulators are ON.
1169:Drivers/STM32L4xx_HAL_Driver/Src/stm32l4xx_hal_pwr_ex.c ****   * @note  In Stop 0 mode, all I/O pins keep the same state as in Run mode.
1170:Drivers/STM32L4xx_HAL_Driver/Src/stm32l4xx_hal_pwr_ex.c ****   * @note  All clocks in the VCORE domain are stopped; the PLL, the MSI,
1171:Drivers/STM32L4xx_HAL_Driver/Src/stm32l4xx_hal_pwr_ex.c ****   *        the HSI and the HSE oscillators are disabled. Some peripherals with the wakeup capabilit
1172:Drivers/STM32L4xx_HAL_Driver/Src/stm32l4xx_hal_pwr_ex.c ****   *        (I2Cx, USARTx and LPUART) can switch on the HSI to receive a frame, and switch off the H
1173:Drivers/STM32L4xx_HAL_Driver/Src/stm32l4xx_hal_pwr_ex.c ****   *        after receiving the frame if it is not a wakeup frame. In this case, the HSI clock is pr
1174:Drivers/STM32L4xx_HAL_Driver/Src/stm32l4xx_hal_pwr_ex.c ****   *        only to the peripheral requesting it.
1175:Drivers/STM32L4xx_HAL_Driver/Src/stm32l4xx_hal_pwr_ex.c ****   *        SRAM1, SRAM2 and register contents are preserved.
1176:Drivers/STM32L4xx_HAL_Driver/Src/stm32l4xx_hal_pwr_ex.c ****   *        The BOR is available.
1177:Drivers/STM32L4xx_HAL_Driver/Src/stm32l4xx_hal_pwr_ex.c ****   * @note  When exiting Stop 0 mode by issuing an interrupt or a wakeup event,
1178:Drivers/STM32L4xx_HAL_Driver/Src/stm32l4xx_hal_pwr_ex.c ****   *         the HSI RC oscillator is selected as system clock if STOPWUCK bit in RCC_CFGR register
1179:Drivers/STM32L4xx_HAL_Driver/Src/stm32l4xx_hal_pwr_ex.c ****   *         is set; the MSI oscillator is selected if STOPWUCK is cleared.
1180:Drivers/STM32L4xx_HAL_Driver/Src/stm32l4xx_hal_pwr_ex.c ****   * @note  By keeping the internal regulator ON during Stop 0 mode, the consumption
1181:Drivers/STM32L4xx_HAL_Driver/Src/stm32l4xx_hal_pwr_ex.c ****   *         is higher although the startup time is reduced.
1182:Drivers/STM32L4xx_HAL_Driver/Src/stm32l4xx_hal_pwr_ex.c ****   * @param STOPEntry  specifies if Stop mode in entered with WFI or WFE instruction.
1183:Drivers/STM32L4xx_HAL_Driver/Src/stm32l4xx_hal_pwr_ex.c ****   *          This parameter can be one of the following values:
1184:Drivers/STM32L4xx_HAL_Driver/Src/stm32l4xx_hal_pwr_ex.c ****   *            @arg @ref PWR_STOPENTRY_WFI  Enter Stop mode with WFI instruction
1185:Drivers/STM32L4xx_HAL_Driver/Src/stm32l4xx_hal_pwr_ex.c ****   *            @arg @ref PWR_STOPENTRY_WFE  Enter Stop mode with WFE instruction
1186:Drivers/STM32L4xx_HAL_Driver/Src/stm32l4xx_hal_pwr_ex.c ****   * @retval None
1187:Drivers/STM32L4xx_HAL_Driver/Src/stm32l4xx_hal_pwr_ex.c ****   */
ARM GAS  C:\Users\HP\AppData\Local\Temp\ccTBk3CI.s 			page 64


1188:Drivers/STM32L4xx_HAL_Driver/Src/stm32l4xx_hal_pwr_ex.c **** void HAL_PWREx_EnterSTOP0Mode(uint8_t STOPEntry)
1189:Drivers/STM32L4xx_HAL_Driver/Src/stm32l4xx_hal_pwr_ex.c **** {
 2313              		.loc 1 1189 1 is_stmt 1 view -0
 2314              		.cfi_startproc
 2315              		@ args = 0, pretend = 0, frame = 0
 2316              		@ frame_needed = 0, uses_anonymous_args = 0
 2317              		@ link register save eliminated.
1190:Drivers/STM32L4xx_HAL_Driver/Src/stm32l4xx_hal_pwr_ex.c ****   /* Check the parameters */
1191:Drivers/STM32L4xx_HAL_Driver/Src/stm32l4xx_hal_pwr_ex.c ****   assert_param(IS_PWR_STOP_ENTRY(STOPEntry));
 2318              		.loc 1 1191 3 view .LVU531
1192:Drivers/STM32L4xx_HAL_Driver/Src/stm32l4xx_hal_pwr_ex.c **** 
1193:Drivers/STM32L4xx_HAL_Driver/Src/stm32l4xx_hal_pwr_ex.c ****   /* Stop 0 mode with Main Regulator */
1194:Drivers/STM32L4xx_HAL_Driver/Src/stm32l4xx_hal_pwr_ex.c ****   MODIFY_REG(PWR->CR1, PWR_CR1_LPMS, PWR_CR1_LPMS_STOP0);
 2319              		.loc 1 1194 3 view .LVU532
 2320 0000 0B4A     		ldr	r2, .L203
 2321 0002 1368     		ldr	r3, [r2]
 2322 0004 23F00703 		bic	r3, r3, #7
 2323 0008 1360     		str	r3, [r2]
1195:Drivers/STM32L4xx_HAL_Driver/Src/stm32l4xx_hal_pwr_ex.c **** 
1196:Drivers/STM32L4xx_HAL_Driver/Src/stm32l4xx_hal_pwr_ex.c ****   /* Set SLEEPDEEP bit of Cortex System Control Register */
1197:Drivers/STM32L4xx_HAL_Driver/Src/stm32l4xx_hal_pwr_ex.c ****   SET_BIT(SCB->SCR, ((uint32_t)SCB_SCR_SLEEPDEEP_Msk));
 2324              		.loc 1 1197 3 view .LVU533
 2325 000a 0A4A     		ldr	r2, .L203+4
 2326 000c 1369     		ldr	r3, [r2, #16]
 2327 000e 43F00403 		orr	r3, r3, #4
 2328 0012 1361     		str	r3, [r2, #16]
1198:Drivers/STM32L4xx_HAL_Driver/Src/stm32l4xx_hal_pwr_ex.c **** 
1199:Drivers/STM32L4xx_HAL_Driver/Src/stm32l4xx_hal_pwr_ex.c ****   /* Select Stop mode entry --------------------------------------------------*/
1200:Drivers/STM32L4xx_HAL_Driver/Src/stm32l4xx_hal_pwr_ex.c ****   if(STOPEntry == PWR_STOPENTRY_WFI)
 2329              		.loc 1 1200 3 view .LVU534
 2330              		.loc 1 1200 5 is_stmt 0 view .LVU535
 2331 0014 0128     		cmp	r0, #1
 2332 0016 08D0     		beq	.L202
1201:Drivers/STM32L4xx_HAL_Driver/Src/stm32l4xx_hal_pwr_ex.c ****   {
1202:Drivers/STM32L4xx_HAL_Driver/Src/stm32l4xx_hal_pwr_ex.c ****     /* Request Wait For Interrupt */
1203:Drivers/STM32L4xx_HAL_Driver/Src/stm32l4xx_hal_pwr_ex.c ****     __WFI();
1204:Drivers/STM32L4xx_HAL_Driver/Src/stm32l4xx_hal_pwr_ex.c ****   }
1205:Drivers/STM32L4xx_HAL_Driver/Src/stm32l4xx_hal_pwr_ex.c ****   else
1206:Drivers/STM32L4xx_HAL_Driver/Src/stm32l4xx_hal_pwr_ex.c ****   {
1207:Drivers/STM32L4xx_HAL_Driver/Src/stm32l4xx_hal_pwr_ex.c ****     /* Request Wait For Event */
1208:Drivers/STM32L4xx_HAL_Driver/Src/stm32l4xx_hal_pwr_ex.c ****     __SEV();
 2333              		.loc 1 1208 5 is_stmt 1 view .LVU536
 2334              		.syntax unified
 2335              	@ 1208 "Drivers/STM32L4xx_HAL_Driver/Src/stm32l4xx_hal_pwr_ex.c" 1
 2336 0018 40BF     		sev
 2337              	@ 0 "" 2
1209:Drivers/STM32L4xx_HAL_Driver/Src/stm32l4xx_hal_pwr_ex.c ****     __WFE();
 2338              		.loc 1 1209 5 view .LVU537
 2339              	@ 1209 "Drivers/STM32L4xx_HAL_Driver/Src/stm32l4xx_hal_pwr_ex.c" 1
 2340 001a 20BF     		wfe
 2341              	@ 0 "" 2
1210:Drivers/STM32L4xx_HAL_Driver/Src/stm32l4xx_hal_pwr_ex.c ****     __WFE();
 2342              		.loc 1 1210 5 view .LVU538
 2343              	@ 1210 "Drivers/STM32L4xx_HAL_Driver/Src/stm32l4xx_hal_pwr_ex.c" 1
 2344 001c 20BF     		wfe
 2345              	@ 0 "" 2
 2346              		.thumb
ARM GAS  C:\Users\HP\AppData\Local\Temp\ccTBk3CI.s 			page 65


 2347              		.syntax unified
 2348              	.L201:
1211:Drivers/STM32L4xx_HAL_Driver/Src/stm32l4xx_hal_pwr_ex.c ****   }
1212:Drivers/STM32L4xx_HAL_Driver/Src/stm32l4xx_hal_pwr_ex.c **** 
1213:Drivers/STM32L4xx_HAL_Driver/Src/stm32l4xx_hal_pwr_ex.c ****   /* Reset SLEEPDEEP bit of Cortex System Control Register */
1214:Drivers/STM32L4xx_HAL_Driver/Src/stm32l4xx_hal_pwr_ex.c ****   CLEAR_BIT(SCB->SCR, ((uint32_t)SCB_SCR_SLEEPDEEP_Msk));
 2349              		.loc 1 1214 3 view .LVU539
 2350 001e 054A     		ldr	r2, .L203+4
 2351 0020 1369     		ldr	r3, [r2, #16]
 2352 0022 23F00403 		bic	r3, r3, #4
 2353 0026 1361     		str	r3, [r2, #16]
1215:Drivers/STM32L4xx_HAL_Driver/Src/stm32l4xx_hal_pwr_ex.c **** }
 2354              		.loc 1 1215 1 is_stmt 0 view .LVU540
 2355 0028 7047     		bx	lr
 2356              	.L202:
1203:Drivers/STM32L4xx_HAL_Driver/Src/stm32l4xx_hal_pwr_ex.c ****   }
 2357              		.loc 1 1203 5 is_stmt 1 view .LVU541
 2358              		.syntax unified
 2359              	@ 1203 "Drivers/STM32L4xx_HAL_Driver/Src/stm32l4xx_hal_pwr_ex.c" 1
 2360 002a 30BF     		wfi
 2361              	@ 0 "" 2
 2362              		.thumb
 2363              		.syntax unified
 2364 002c F7E7     		b	.L201
 2365              	.L204:
 2366 002e 00BF     		.align	2
 2367              	.L203:
 2368 0030 00700040 		.word	1073770496
 2369 0034 00ED00E0 		.word	-536810240
 2370              		.cfi_endproc
 2371              	.LFE166:
 2373              		.section	.text.HAL_PWREx_EnterSTOP1Mode,"ax",%progbits
 2374              		.align	1
 2375              		.global	HAL_PWREx_EnterSTOP1Mode
 2376              		.syntax unified
 2377              		.thumb
 2378              		.thumb_func
 2380              	HAL_PWREx_EnterSTOP1Mode:
 2381              	.LVL167:
 2382              	.LFB167:
1216:Drivers/STM32L4xx_HAL_Driver/Src/stm32l4xx_hal_pwr_ex.c **** 
1217:Drivers/STM32L4xx_HAL_Driver/Src/stm32l4xx_hal_pwr_ex.c **** 
1218:Drivers/STM32L4xx_HAL_Driver/Src/stm32l4xx_hal_pwr_ex.c **** /**
1219:Drivers/STM32L4xx_HAL_Driver/Src/stm32l4xx_hal_pwr_ex.c ****   * @brief Enter Stop 1 mode.
1220:Drivers/STM32L4xx_HAL_Driver/Src/stm32l4xx_hal_pwr_ex.c ****   * @note  In Stop 1 mode, only low power voltage regulator is ON.
1221:Drivers/STM32L4xx_HAL_Driver/Src/stm32l4xx_hal_pwr_ex.c ****   * @note  In Stop 1 mode, all I/O pins keep the same state as in Run mode.
1222:Drivers/STM32L4xx_HAL_Driver/Src/stm32l4xx_hal_pwr_ex.c ****   * @note  All clocks in the VCORE domain are stopped; the PLL, the MSI,
1223:Drivers/STM32L4xx_HAL_Driver/Src/stm32l4xx_hal_pwr_ex.c ****   *        the HSI and the HSE oscillators are disabled. Some peripherals with the wakeup capabilit
1224:Drivers/STM32L4xx_HAL_Driver/Src/stm32l4xx_hal_pwr_ex.c ****   *        (I2Cx, USARTx and LPUART) can switch on the HSI to receive a frame, and switch off the H
1225:Drivers/STM32L4xx_HAL_Driver/Src/stm32l4xx_hal_pwr_ex.c ****   *        after receiving the frame if it is not a wakeup frame. In this case, the HSI clock is pr
1226:Drivers/STM32L4xx_HAL_Driver/Src/stm32l4xx_hal_pwr_ex.c ****   *        only to the peripheral requesting it.
1227:Drivers/STM32L4xx_HAL_Driver/Src/stm32l4xx_hal_pwr_ex.c ****   *        SRAM1, SRAM2 and register contents are preserved.
1228:Drivers/STM32L4xx_HAL_Driver/Src/stm32l4xx_hal_pwr_ex.c ****   *        The BOR is available.
1229:Drivers/STM32L4xx_HAL_Driver/Src/stm32l4xx_hal_pwr_ex.c ****   * @note  When exiting Stop 1 mode by issuing an interrupt or a wakeup event,
1230:Drivers/STM32L4xx_HAL_Driver/Src/stm32l4xx_hal_pwr_ex.c ****   *         the HSI RC oscillator is selected as system clock if STOPWUCK bit in RCC_CFGR register
1231:Drivers/STM32L4xx_HAL_Driver/Src/stm32l4xx_hal_pwr_ex.c ****   *         is set; the MSI oscillator is selected if STOPWUCK is cleared.
1232:Drivers/STM32L4xx_HAL_Driver/Src/stm32l4xx_hal_pwr_ex.c ****   * @note  Due to low power mode, an additional startup delay is incurred when waking up from Stop 
ARM GAS  C:\Users\HP\AppData\Local\Temp\ccTBk3CI.s 			page 66


1233:Drivers/STM32L4xx_HAL_Driver/Src/stm32l4xx_hal_pwr_ex.c ****   * @param STOPEntry  specifies if Stop mode in entered with WFI or WFE instruction.
1234:Drivers/STM32L4xx_HAL_Driver/Src/stm32l4xx_hal_pwr_ex.c ****   *          This parameter can be one of the following values:
1235:Drivers/STM32L4xx_HAL_Driver/Src/stm32l4xx_hal_pwr_ex.c ****   *            @arg @ref PWR_STOPENTRY_WFI  Enter Stop mode with WFI instruction
1236:Drivers/STM32L4xx_HAL_Driver/Src/stm32l4xx_hal_pwr_ex.c ****   *            @arg @ref PWR_STOPENTRY_WFE  Enter Stop mode with WFE instruction
1237:Drivers/STM32L4xx_HAL_Driver/Src/stm32l4xx_hal_pwr_ex.c ****   * @retval None
1238:Drivers/STM32L4xx_HAL_Driver/Src/stm32l4xx_hal_pwr_ex.c ****   */
1239:Drivers/STM32L4xx_HAL_Driver/Src/stm32l4xx_hal_pwr_ex.c **** void HAL_PWREx_EnterSTOP1Mode(uint8_t STOPEntry)
1240:Drivers/STM32L4xx_HAL_Driver/Src/stm32l4xx_hal_pwr_ex.c **** {
 2383              		.loc 1 1240 1 view -0
 2384              		.cfi_startproc
 2385              		@ args = 0, pretend = 0, frame = 0
 2386              		@ frame_needed = 0, uses_anonymous_args = 0
 2387              		@ link register save eliminated.
1241:Drivers/STM32L4xx_HAL_Driver/Src/stm32l4xx_hal_pwr_ex.c ****   /* Check the parameters */
1242:Drivers/STM32L4xx_HAL_Driver/Src/stm32l4xx_hal_pwr_ex.c ****   assert_param(IS_PWR_STOP_ENTRY(STOPEntry));
 2388              		.loc 1 1242 3 view .LVU543
1243:Drivers/STM32L4xx_HAL_Driver/Src/stm32l4xx_hal_pwr_ex.c **** 
1244:Drivers/STM32L4xx_HAL_Driver/Src/stm32l4xx_hal_pwr_ex.c ****   /* Stop 1 mode with Low-Power Regulator */
1245:Drivers/STM32L4xx_HAL_Driver/Src/stm32l4xx_hal_pwr_ex.c ****   MODIFY_REG(PWR->CR1, PWR_CR1_LPMS, PWR_CR1_LPMS_STOP1);
 2389              		.loc 1 1245 3 view .LVU544
 2390 0000 0C4A     		ldr	r2, .L209
 2391 0002 1368     		ldr	r3, [r2]
 2392 0004 23F00703 		bic	r3, r3, #7
 2393 0008 43F00103 		orr	r3, r3, #1
 2394 000c 1360     		str	r3, [r2]
1246:Drivers/STM32L4xx_HAL_Driver/Src/stm32l4xx_hal_pwr_ex.c **** 
1247:Drivers/STM32L4xx_HAL_Driver/Src/stm32l4xx_hal_pwr_ex.c ****   /* Set SLEEPDEEP bit of Cortex System Control Register */
1248:Drivers/STM32L4xx_HAL_Driver/Src/stm32l4xx_hal_pwr_ex.c ****   SET_BIT(SCB->SCR, ((uint32_t)SCB_SCR_SLEEPDEEP_Msk));
 2395              		.loc 1 1248 3 view .LVU545
 2396 000e 0A4A     		ldr	r2, .L209+4
 2397 0010 1369     		ldr	r3, [r2, #16]
 2398 0012 43F00403 		orr	r3, r3, #4
 2399 0016 1361     		str	r3, [r2, #16]
1249:Drivers/STM32L4xx_HAL_Driver/Src/stm32l4xx_hal_pwr_ex.c **** 
1250:Drivers/STM32L4xx_HAL_Driver/Src/stm32l4xx_hal_pwr_ex.c ****   /* Select Stop mode entry --------------------------------------------------*/
1251:Drivers/STM32L4xx_HAL_Driver/Src/stm32l4xx_hal_pwr_ex.c ****   if(STOPEntry == PWR_STOPENTRY_WFI)
 2400              		.loc 1 1251 3 view .LVU546
 2401              		.loc 1 1251 5 is_stmt 0 view .LVU547
 2402 0018 0128     		cmp	r0, #1
 2403 001a 08D0     		beq	.L208
1252:Drivers/STM32L4xx_HAL_Driver/Src/stm32l4xx_hal_pwr_ex.c ****   {
1253:Drivers/STM32L4xx_HAL_Driver/Src/stm32l4xx_hal_pwr_ex.c ****     /* Request Wait For Interrupt */
1254:Drivers/STM32L4xx_HAL_Driver/Src/stm32l4xx_hal_pwr_ex.c ****     __WFI();
1255:Drivers/STM32L4xx_HAL_Driver/Src/stm32l4xx_hal_pwr_ex.c ****   }
1256:Drivers/STM32L4xx_HAL_Driver/Src/stm32l4xx_hal_pwr_ex.c ****   else
1257:Drivers/STM32L4xx_HAL_Driver/Src/stm32l4xx_hal_pwr_ex.c ****   {
1258:Drivers/STM32L4xx_HAL_Driver/Src/stm32l4xx_hal_pwr_ex.c ****     /* Request Wait For Event */
1259:Drivers/STM32L4xx_HAL_Driver/Src/stm32l4xx_hal_pwr_ex.c ****     __SEV();
 2404              		.loc 1 1259 5 is_stmt 1 view .LVU548
 2405              		.syntax unified
 2406              	@ 1259 "Drivers/STM32L4xx_HAL_Driver/Src/stm32l4xx_hal_pwr_ex.c" 1
 2407 001c 40BF     		sev
 2408              	@ 0 "" 2
1260:Drivers/STM32L4xx_HAL_Driver/Src/stm32l4xx_hal_pwr_ex.c ****     __WFE();
 2409              		.loc 1 1260 5 view .LVU549
 2410              	@ 1260 "Drivers/STM32L4xx_HAL_Driver/Src/stm32l4xx_hal_pwr_ex.c" 1
 2411 001e 20BF     		wfe
ARM GAS  C:\Users\HP\AppData\Local\Temp\ccTBk3CI.s 			page 67


 2412              	@ 0 "" 2
1261:Drivers/STM32L4xx_HAL_Driver/Src/stm32l4xx_hal_pwr_ex.c ****     __WFE();
 2413              		.loc 1 1261 5 view .LVU550
 2414              	@ 1261 "Drivers/STM32L4xx_HAL_Driver/Src/stm32l4xx_hal_pwr_ex.c" 1
 2415 0020 20BF     		wfe
 2416              	@ 0 "" 2
 2417              		.thumb
 2418              		.syntax unified
 2419              	.L207:
1262:Drivers/STM32L4xx_HAL_Driver/Src/stm32l4xx_hal_pwr_ex.c ****   }
1263:Drivers/STM32L4xx_HAL_Driver/Src/stm32l4xx_hal_pwr_ex.c **** 
1264:Drivers/STM32L4xx_HAL_Driver/Src/stm32l4xx_hal_pwr_ex.c ****   /* Reset SLEEPDEEP bit of Cortex System Control Register */
1265:Drivers/STM32L4xx_HAL_Driver/Src/stm32l4xx_hal_pwr_ex.c ****   CLEAR_BIT(SCB->SCR, ((uint32_t)SCB_SCR_SLEEPDEEP_Msk));
 2420              		.loc 1 1265 3 view .LVU551
 2421 0022 054A     		ldr	r2, .L209+4
 2422 0024 1369     		ldr	r3, [r2, #16]
 2423 0026 23F00403 		bic	r3, r3, #4
 2424 002a 1361     		str	r3, [r2, #16]
1266:Drivers/STM32L4xx_HAL_Driver/Src/stm32l4xx_hal_pwr_ex.c **** }
 2425              		.loc 1 1266 1 is_stmt 0 view .LVU552
 2426 002c 7047     		bx	lr
 2427              	.L208:
1254:Drivers/STM32L4xx_HAL_Driver/Src/stm32l4xx_hal_pwr_ex.c ****   }
 2428              		.loc 1 1254 5 is_stmt 1 view .LVU553
 2429              		.syntax unified
 2430              	@ 1254 "Drivers/STM32L4xx_HAL_Driver/Src/stm32l4xx_hal_pwr_ex.c" 1
 2431 002e 30BF     		wfi
 2432              	@ 0 "" 2
 2433              		.thumb
 2434              		.syntax unified
 2435 0030 F7E7     		b	.L207
 2436              	.L210:
 2437 0032 00BF     		.align	2
 2438              	.L209:
 2439 0034 00700040 		.word	1073770496
 2440 0038 00ED00E0 		.word	-536810240
 2441              		.cfi_endproc
 2442              	.LFE167:
 2444              		.section	.text.HAL_PWREx_EnterSTOP2Mode,"ax",%progbits
 2445              		.align	1
 2446              		.global	HAL_PWREx_EnterSTOP2Mode
 2447              		.syntax unified
 2448              		.thumb
 2449              		.thumb_func
 2451              	HAL_PWREx_EnterSTOP2Mode:
 2452              	.LVL168:
 2453              	.LFB168:
1267:Drivers/STM32L4xx_HAL_Driver/Src/stm32l4xx_hal_pwr_ex.c **** 
1268:Drivers/STM32L4xx_HAL_Driver/Src/stm32l4xx_hal_pwr_ex.c **** 
1269:Drivers/STM32L4xx_HAL_Driver/Src/stm32l4xx_hal_pwr_ex.c **** /**
1270:Drivers/STM32L4xx_HAL_Driver/Src/stm32l4xx_hal_pwr_ex.c ****   * @brief Enter Stop 2 mode.
1271:Drivers/STM32L4xx_HAL_Driver/Src/stm32l4xx_hal_pwr_ex.c ****   * @note  In Stop 2 mode, only low power voltage regulator is ON.
1272:Drivers/STM32L4xx_HAL_Driver/Src/stm32l4xx_hal_pwr_ex.c ****   * @note  In Stop 2 mode, all I/O pins keep the same state as in Run mode.
1273:Drivers/STM32L4xx_HAL_Driver/Src/stm32l4xx_hal_pwr_ex.c ****   * @note  All clocks in the VCORE domain are stopped, the PLL, the MSI,
1274:Drivers/STM32L4xx_HAL_Driver/Src/stm32l4xx_hal_pwr_ex.c ****   *        the HSI and the HSE oscillators are disabled. Some peripherals with wakeup capability
1275:Drivers/STM32L4xx_HAL_Driver/Src/stm32l4xx_hal_pwr_ex.c ****   *        (LCD, LPTIM1, I2C3 and LPUART) can switch on the HSI to receive a frame, and switch off 
1276:Drivers/STM32L4xx_HAL_Driver/Src/stm32l4xx_hal_pwr_ex.c ****   *        receiving the frame if it is not a wakeup frame. In this case the HSI clock is propagate
ARM GAS  C:\Users\HP\AppData\Local\Temp\ccTBk3CI.s 			page 68


1277:Drivers/STM32L4xx_HAL_Driver/Src/stm32l4xx_hal_pwr_ex.c ****   *        to the peripheral requesting it.
1278:Drivers/STM32L4xx_HAL_Driver/Src/stm32l4xx_hal_pwr_ex.c ****   *        SRAM1, SRAM2 and register contents are preserved.
1279:Drivers/STM32L4xx_HAL_Driver/Src/stm32l4xx_hal_pwr_ex.c ****   *        SRAM3 content is preserved depending on RRSTP bit setting (not available on all devices)
1280:Drivers/STM32L4xx_HAL_Driver/Src/stm32l4xx_hal_pwr_ex.c ****   *        The BOR is available.
1281:Drivers/STM32L4xx_HAL_Driver/Src/stm32l4xx_hal_pwr_ex.c ****   *        The voltage regulator is set in low-power mode but LPR bit must be cleared to enter stop
1282:Drivers/STM32L4xx_HAL_Driver/Src/stm32l4xx_hal_pwr_ex.c ****   *        Otherwise, Stop 1 mode is entered.
1283:Drivers/STM32L4xx_HAL_Driver/Src/stm32l4xx_hal_pwr_ex.c ****   * @note  When exiting Stop 2 mode by issuing an interrupt or a wakeup event,
1284:Drivers/STM32L4xx_HAL_Driver/Src/stm32l4xx_hal_pwr_ex.c ****   *         the HSI RC oscillator is selected as system clock if STOPWUCK bit in RCC_CFGR register
1285:Drivers/STM32L4xx_HAL_Driver/Src/stm32l4xx_hal_pwr_ex.c ****   *         is set; the MSI oscillator is selected if STOPWUCK is cleared.
1286:Drivers/STM32L4xx_HAL_Driver/Src/stm32l4xx_hal_pwr_ex.c ****   * @param STOPEntry  specifies if Stop mode in entered with WFI or WFE instruction.
1287:Drivers/STM32L4xx_HAL_Driver/Src/stm32l4xx_hal_pwr_ex.c ****   *          This parameter can be one of the following values:
1288:Drivers/STM32L4xx_HAL_Driver/Src/stm32l4xx_hal_pwr_ex.c ****   *            @arg @ref PWR_STOPENTRY_WFI  Enter Stop mode with WFI instruction
1289:Drivers/STM32L4xx_HAL_Driver/Src/stm32l4xx_hal_pwr_ex.c ****   *            @arg @ref PWR_STOPENTRY_WFE  Enter Stop mode with WFE instruction
1290:Drivers/STM32L4xx_HAL_Driver/Src/stm32l4xx_hal_pwr_ex.c ****   * @retval None
1291:Drivers/STM32L4xx_HAL_Driver/Src/stm32l4xx_hal_pwr_ex.c ****   */
1292:Drivers/STM32L4xx_HAL_Driver/Src/stm32l4xx_hal_pwr_ex.c **** void HAL_PWREx_EnterSTOP2Mode(uint8_t STOPEntry)
1293:Drivers/STM32L4xx_HAL_Driver/Src/stm32l4xx_hal_pwr_ex.c **** {
 2454              		.loc 1 1293 1 view -0
 2455              		.cfi_startproc
 2456              		@ args = 0, pretend = 0, frame = 0
 2457              		@ frame_needed = 0, uses_anonymous_args = 0
 2458              		@ link register save eliminated.
1294:Drivers/STM32L4xx_HAL_Driver/Src/stm32l4xx_hal_pwr_ex.c ****   /* Check the parameter */
1295:Drivers/STM32L4xx_HAL_Driver/Src/stm32l4xx_hal_pwr_ex.c ****   assert_param(IS_PWR_STOP_ENTRY(STOPEntry));
 2459              		.loc 1 1295 3 view .LVU555
1296:Drivers/STM32L4xx_HAL_Driver/Src/stm32l4xx_hal_pwr_ex.c **** 
1297:Drivers/STM32L4xx_HAL_Driver/Src/stm32l4xx_hal_pwr_ex.c ****   /* Set Stop mode 2 */
1298:Drivers/STM32L4xx_HAL_Driver/Src/stm32l4xx_hal_pwr_ex.c ****   MODIFY_REG(PWR->CR1, PWR_CR1_LPMS, PWR_CR1_LPMS_STOP2);
 2460              		.loc 1 1298 3 view .LVU556
 2461 0000 0C4A     		ldr	r2, .L215
 2462 0002 1368     		ldr	r3, [r2]
 2463 0004 23F00703 		bic	r3, r3, #7
 2464 0008 43F00203 		orr	r3, r3, #2
 2465 000c 1360     		str	r3, [r2]
1299:Drivers/STM32L4xx_HAL_Driver/Src/stm32l4xx_hal_pwr_ex.c **** 
1300:Drivers/STM32L4xx_HAL_Driver/Src/stm32l4xx_hal_pwr_ex.c ****   /* Set SLEEPDEEP bit of Cortex System Control Register */
1301:Drivers/STM32L4xx_HAL_Driver/Src/stm32l4xx_hal_pwr_ex.c ****   SET_BIT(SCB->SCR, ((uint32_t)SCB_SCR_SLEEPDEEP_Msk));
 2466              		.loc 1 1301 3 view .LVU557
 2467 000e 0A4A     		ldr	r2, .L215+4
 2468 0010 1369     		ldr	r3, [r2, #16]
 2469 0012 43F00403 		orr	r3, r3, #4
 2470 0016 1361     		str	r3, [r2, #16]
1302:Drivers/STM32L4xx_HAL_Driver/Src/stm32l4xx_hal_pwr_ex.c **** 
1303:Drivers/STM32L4xx_HAL_Driver/Src/stm32l4xx_hal_pwr_ex.c ****   /* Select Stop mode entry --------------------------------------------------*/
1304:Drivers/STM32L4xx_HAL_Driver/Src/stm32l4xx_hal_pwr_ex.c ****   if(STOPEntry == PWR_STOPENTRY_WFI)
 2471              		.loc 1 1304 3 view .LVU558
 2472              		.loc 1 1304 5 is_stmt 0 view .LVU559
 2473 0018 0128     		cmp	r0, #1
 2474 001a 08D0     		beq	.L214
1305:Drivers/STM32L4xx_HAL_Driver/Src/stm32l4xx_hal_pwr_ex.c ****   {
1306:Drivers/STM32L4xx_HAL_Driver/Src/stm32l4xx_hal_pwr_ex.c ****     /* Request Wait For Interrupt */
1307:Drivers/STM32L4xx_HAL_Driver/Src/stm32l4xx_hal_pwr_ex.c ****     __WFI();
1308:Drivers/STM32L4xx_HAL_Driver/Src/stm32l4xx_hal_pwr_ex.c ****   }
1309:Drivers/STM32L4xx_HAL_Driver/Src/stm32l4xx_hal_pwr_ex.c ****   else
1310:Drivers/STM32L4xx_HAL_Driver/Src/stm32l4xx_hal_pwr_ex.c ****   {
1311:Drivers/STM32L4xx_HAL_Driver/Src/stm32l4xx_hal_pwr_ex.c ****     /* Request Wait For Event */
1312:Drivers/STM32L4xx_HAL_Driver/Src/stm32l4xx_hal_pwr_ex.c ****     __SEV();
ARM GAS  C:\Users\HP\AppData\Local\Temp\ccTBk3CI.s 			page 69


 2475              		.loc 1 1312 5 is_stmt 1 view .LVU560
 2476              		.syntax unified
 2477              	@ 1312 "Drivers/STM32L4xx_HAL_Driver/Src/stm32l4xx_hal_pwr_ex.c" 1
 2478 001c 40BF     		sev
 2479              	@ 0 "" 2
1313:Drivers/STM32L4xx_HAL_Driver/Src/stm32l4xx_hal_pwr_ex.c ****     __WFE();
 2480              		.loc 1 1313 5 view .LVU561
 2481              	@ 1313 "Drivers/STM32L4xx_HAL_Driver/Src/stm32l4xx_hal_pwr_ex.c" 1
 2482 001e 20BF     		wfe
 2483              	@ 0 "" 2
1314:Drivers/STM32L4xx_HAL_Driver/Src/stm32l4xx_hal_pwr_ex.c ****     __WFE();
 2484              		.loc 1 1314 5 view .LVU562
 2485              	@ 1314 "Drivers/STM32L4xx_HAL_Driver/Src/stm32l4xx_hal_pwr_ex.c" 1
 2486 0020 20BF     		wfe
 2487              	@ 0 "" 2
 2488              		.thumb
 2489              		.syntax unified
 2490              	.L213:
1315:Drivers/STM32L4xx_HAL_Driver/Src/stm32l4xx_hal_pwr_ex.c ****   }
1316:Drivers/STM32L4xx_HAL_Driver/Src/stm32l4xx_hal_pwr_ex.c **** 
1317:Drivers/STM32L4xx_HAL_Driver/Src/stm32l4xx_hal_pwr_ex.c ****   /* Reset SLEEPDEEP bit of Cortex System Control Register */
1318:Drivers/STM32L4xx_HAL_Driver/Src/stm32l4xx_hal_pwr_ex.c ****   CLEAR_BIT(SCB->SCR, ((uint32_t)SCB_SCR_SLEEPDEEP_Msk));
 2491              		.loc 1 1318 3 view .LVU563
 2492 0022 054A     		ldr	r2, .L215+4
 2493 0024 1369     		ldr	r3, [r2, #16]
 2494 0026 23F00403 		bic	r3, r3, #4
 2495 002a 1361     		str	r3, [r2, #16]
1319:Drivers/STM32L4xx_HAL_Driver/Src/stm32l4xx_hal_pwr_ex.c **** }
 2496              		.loc 1 1319 1 is_stmt 0 view .LVU564
 2497 002c 7047     		bx	lr
 2498              	.L214:
1307:Drivers/STM32L4xx_HAL_Driver/Src/stm32l4xx_hal_pwr_ex.c ****   }
 2499              		.loc 1 1307 5 is_stmt 1 view .LVU565
 2500              		.syntax unified
 2501              	@ 1307 "Drivers/STM32L4xx_HAL_Driver/Src/stm32l4xx_hal_pwr_ex.c" 1
 2502 002e 30BF     		wfi
 2503              	@ 0 "" 2
 2504              		.thumb
 2505              		.syntax unified
 2506 0030 F7E7     		b	.L213
 2507              	.L216:
 2508 0032 00BF     		.align	2
 2509              	.L215:
 2510 0034 00700040 		.word	1073770496
 2511 0038 00ED00E0 		.word	-536810240
 2512              		.cfi_endproc
 2513              	.LFE168:
 2515              		.section	.text.HAL_PWREx_EnterSHUTDOWNMode,"ax",%progbits
 2516              		.align	1
 2517              		.global	HAL_PWREx_EnterSHUTDOWNMode
 2518              		.syntax unified
 2519              		.thumb
 2520              		.thumb_func
 2522              	HAL_PWREx_EnterSHUTDOWNMode:
 2523              	.LFB169:
1320:Drivers/STM32L4xx_HAL_Driver/Src/stm32l4xx_hal_pwr_ex.c **** 
1321:Drivers/STM32L4xx_HAL_Driver/Src/stm32l4xx_hal_pwr_ex.c **** 
ARM GAS  C:\Users\HP\AppData\Local\Temp\ccTBk3CI.s 			page 70


1322:Drivers/STM32L4xx_HAL_Driver/Src/stm32l4xx_hal_pwr_ex.c **** 
1323:Drivers/STM32L4xx_HAL_Driver/Src/stm32l4xx_hal_pwr_ex.c **** 
1324:Drivers/STM32L4xx_HAL_Driver/Src/stm32l4xx_hal_pwr_ex.c **** 
1325:Drivers/STM32L4xx_HAL_Driver/Src/stm32l4xx_hal_pwr_ex.c **** /**
1326:Drivers/STM32L4xx_HAL_Driver/Src/stm32l4xx_hal_pwr_ex.c ****   * @brief Enter Shutdown mode.
1327:Drivers/STM32L4xx_HAL_Driver/Src/stm32l4xx_hal_pwr_ex.c ****   * @note  In Shutdown mode, the PLL, the HSI, the MSI, the LSI and the HSE oscillators are switche
1328:Drivers/STM32L4xx_HAL_Driver/Src/stm32l4xx_hal_pwr_ex.c ****   *        off. The voltage regulator is disabled and Vcore domain is powered off.
1329:Drivers/STM32L4xx_HAL_Driver/Src/stm32l4xx_hal_pwr_ex.c ****   *        SRAM1, SRAM2 and registers contents are lost except for registers in the Backup domain.
1330:Drivers/STM32L4xx_HAL_Driver/Src/stm32l4xx_hal_pwr_ex.c ****   *        The BOR is not available.
1331:Drivers/STM32L4xx_HAL_Driver/Src/stm32l4xx_hal_pwr_ex.c ****   * @note  The I/Os can be configured either with a pull-up or pull-down or can be kept in analog s
1332:Drivers/STM32L4xx_HAL_Driver/Src/stm32l4xx_hal_pwr_ex.c ****   * @retval None
1333:Drivers/STM32L4xx_HAL_Driver/Src/stm32l4xx_hal_pwr_ex.c ****   */
1334:Drivers/STM32L4xx_HAL_Driver/Src/stm32l4xx_hal_pwr_ex.c **** void HAL_PWREx_EnterSHUTDOWNMode(void)
1335:Drivers/STM32L4xx_HAL_Driver/Src/stm32l4xx_hal_pwr_ex.c **** {
 2524              		.loc 1 1335 1 view -0
 2525              		.cfi_startproc
 2526              		@ args = 0, pretend = 0, frame = 0
 2527              		@ frame_needed = 0, uses_anonymous_args = 0
 2528              		@ link register save eliminated.
1336:Drivers/STM32L4xx_HAL_Driver/Src/stm32l4xx_hal_pwr_ex.c **** 
1337:Drivers/STM32L4xx_HAL_Driver/Src/stm32l4xx_hal_pwr_ex.c ****   /* Set Shutdown mode */
1338:Drivers/STM32L4xx_HAL_Driver/Src/stm32l4xx_hal_pwr_ex.c ****   MODIFY_REG(PWR->CR1, PWR_CR1_LPMS, PWR_CR1_LPMS_SHUTDOWN);
 2529              		.loc 1 1338 3 view .LVU567
 2530 0000 064A     		ldr	r2, .L218
 2531 0002 1368     		ldr	r3, [r2]
 2532 0004 23F00703 		bic	r3, r3, #7
 2533 0008 43F00403 		orr	r3, r3, #4
 2534 000c 1360     		str	r3, [r2]
1339:Drivers/STM32L4xx_HAL_Driver/Src/stm32l4xx_hal_pwr_ex.c **** 
1340:Drivers/STM32L4xx_HAL_Driver/Src/stm32l4xx_hal_pwr_ex.c ****   /* Set SLEEPDEEP bit of Cortex System Control Register */
1341:Drivers/STM32L4xx_HAL_Driver/Src/stm32l4xx_hal_pwr_ex.c ****   SET_BIT(SCB->SCR, ((uint32_t)SCB_SCR_SLEEPDEEP_Msk));
 2535              		.loc 1 1341 3 view .LVU568
 2536 000e 044A     		ldr	r2, .L218+4
 2537 0010 1369     		ldr	r3, [r2, #16]
 2538 0012 43F00403 		orr	r3, r3, #4
 2539 0016 1361     		str	r3, [r2, #16]
1342:Drivers/STM32L4xx_HAL_Driver/Src/stm32l4xx_hal_pwr_ex.c **** 
1343:Drivers/STM32L4xx_HAL_Driver/Src/stm32l4xx_hal_pwr_ex.c **** /* This option is used to ensure that store operations are completed */
1344:Drivers/STM32L4xx_HAL_Driver/Src/stm32l4xx_hal_pwr_ex.c **** #if defined ( __CC_ARM)
1345:Drivers/STM32L4xx_HAL_Driver/Src/stm32l4xx_hal_pwr_ex.c ****   __force_stores();
1346:Drivers/STM32L4xx_HAL_Driver/Src/stm32l4xx_hal_pwr_ex.c **** #endif
1347:Drivers/STM32L4xx_HAL_Driver/Src/stm32l4xx_hal_pwr_ex.c ****   /* Request Wait For Interrupt */
1348:Drivers/STM32L4xx_HAL_Driver/Src/stm32l4xx_hal_pwr_ex.c ****   __WFI();
 2540              		.loc 1 1348 3 view .LVU569
 2541              		.syntax unified
 2542              	@ 1348 "Drivers/STM32L4xx_HAL_Driver/Src/stm32l4xx_hal_pwr_ex.c" 1
 2543 0018 30BF     		wfi
 2544              	@ 0 "" 2
1349:Drivers/STM32L4xx_HAL_Driver/Src/stm32l4xx_hal_pwr_ex.c **** }
 2545              		.loc 1 1349 1 is_stmt 0 view .LVU570
 2546              		.thumb
 2547              		.syntax unified
 2548 001a 7047     		bx	lr
 2549              	.L219:
 2550              		.align	2
 2551              	.L218:
 2552 001c 00700040 		.word	1073770496
ARM GAS  C:\Users\HP\AppData\Local\Temp\ccTBk3CI.s 			page 71


 2553 0020 00ED00E0 		.word	-536810240
 2554              		.cfi_endproc
 2555              	.LFE169:
 2557              		.section	.text.HAL_PWREx_PVM1Callback,"ax",%progbits
 2558              		.align	1
 2559              		.weak	HAL_PWREx_PVM1Callback
 2560              		.syntax unified
 2561              		.thumb
 2562              		.thumb_func
 2564              	HAL_PWREx_PVM1Callback:
 2565              	.LFB171:
1350:Drivers/STM32L4xx_HAL_Driver/Src/stm32l4xx_hal_pwr_ex.c **** 
1351:Drivers/STM32L4xx_HAL_Driver/Src/stm32l4xx_hal_pwr_ex.c **** 
1352:Drivers/STM32L4xx_HAL_Driver/Src/stm32l4xx_hal_pwr_ex.c **** 
