ARM GAS  C:\Users\HP\AppData\Local\Temp\ccyBnKKJ.s 			page 1


   1              		.cpu cortex-m4
   2              		.arch armv7e-m
   3              		.fpu fpv4-sp-d16
   4              		.eabi_attribute 27, 1
   5              		.eabi_attribute 28, 1
   6              		.eabi_attribute 20, 1
   7              		.eabi_attribute 21, 1
   8              		.eabi_attribute 23, 3
   9              		.eabi_attribute 24, 1
  10              		.eabi_attribute 25, 1
  11              		.eabi_attribute 26, 1
  12              		.eabi_attribute 30, 1
  13              		.eabi_attribute 34, 1
  14              		.eabi_attribute 18, 4
  15              		.file	"ux_host_class_storage_device_reset.c"
  16              		.text
  17              	.Ltext0:
  18              		.cfi_sections	.debug_frame
  19              		.section	.text._ux_host_class_storage_device_reset,"ax",%progbits
  20              		.align	1
  21              		.global	_ux_host_class_storage_device_reset
  22              		.syntax unified
  23              		.thumb
  24              		.thumb_func
  26              	_ux_host_class_storage_device_reset:
  27              	.LVL0:
  28              	.LFB11:
  29              		.file 1 "Middlewares/ST/usbx/common/usbx_host_classes/src/ux_host_class_storage_device_reset.c"
   1:Middlewares/ST/usbx/common/usbx_host_classes/src/ux_host_class_storage_device_reset.c **** /**************************************************************************/
   2:Middlewares/ST/usbx/common/usbx_host_classes/src/ux_host_class_storage_device_reset.c **** /*                                                                        */
   3:Middlewares/ST/usbx/common/usbx_host_classes/src/ux_host_class_storage_device_reset.c **** /*       Copyright (c) Microsoft Corporation. All rights reserved.        */
   4:Middlewares/ST/usbx/common/usbx_host_classes/src/ux_host_class_storage_device_reset.c **** /*                                                                        */
   5:Middlewares/ST/usbx/common/usbx_host_classes/src/ux_host_class_storage_device_reset.c **** /*       This software is licensed under the Microsoft Software License   */
   6:Middlewares/ST/usbx/common/usbx_host_classes/src/ux_host_class_storage_device_reset.c **** /*       Terms for Microsoft Azure RTOS. Full text of the license can be  */
   7:Middlewares/ST/usbx/common/usbx_host_classes/src/ux_host_class_storage_device_reset.c **** /*       found in the LICENSE file at https://aka.ms/AzureRTOS_EULA       */
   8:Middlewares/ST/usbx/common/usbx_host_classes/src/ux_host_class_storage_device_reset.c **** /*       and in the root directory of this software.                      */
   9:Middlewares/ST/usbx/common/usbx_host_classes/src/ux_host_class_storage_device_reset.c **** /*                                                                        */
  10:Middlewares/ST/usbx/common/usbx_host_classes/src/ux_host_class_storage_device_reset.c **** /**************************************************************************/
  11:Middlewares/ST/usbx/common/usbx_host_classes/src/ux_host_class_storage_device_reset.c **** 
  12:Middlewares/ST/usbx/common/usbx_host_classes/src/ux_host_class_storage_device_reset.c **** 
  13:Middlewares/ST/usbx/common/usbx_host_classes/src/ux_host_class_storage_device_reset.c **** /**************************************************************************/
  14:Middlewares/ST/usbx/common/usbx_host_classes/src/ux_host_class_storage_device_reset.c **** /**************************************************************************/
  15:Middlewares/ST/usbx/common/usbx_host_classes/src/ux_host_class_storage_device_reset.c **** /**                                                                       */
  16:Middlewares/ST/usbx/common/usbx_host_classes/src/ux_host_class_storage_device_reset.c **** /** USBX Component                                                        */
  17:Middlewares/ST/usbx/common/usbx_host_classes/src/ux_host_class_storage_device_reset.c **** /**                                                                       */
  18:Middlewares/ST/usbx/common/usbx_host_classes/src/ux_host_class_storage_device_reset.c **** /**   Storage Class                                                       */
  19:Middlewares/ST/usbx/common/usbx_host_classes/src/ux_host_class_storage_device_reset.c **** /**                                                                       */
  20:Middlewares/ST/usbx/common/usbx_host_classes/src/ux_host_class_storage_device_reset.c **** /**************************************************************************/
  21:Middlewares/ST/usbx/common/usbx_host_classes/src/ux_host_class_storage_device_reset.c **** /**************************************************************************/
  22:Middlewares/ST/usbx/common/usbx_host_classes/src/ux_host_class_storage_device_reset.c **** 
  23:Middlewares/ST/usbx/common/usbx_host_classes/src/ux_host_class_storage_device_reset.c **** 
  24:Middlewares/ST/usbx/common/usbx_host_classes/src/ux_host_class_storage_device_reset.c **** /* Include necessary system files.  */
  25:Middlewares/ST/usbx/common/usbx_host_classes/src/ux_host_class_storage_device_reset.c **** 
  26:Middlewares/ST/usbx/common/usbx_host_classes/src/ux_host_class_storage_device_reset.c **** #define UX_SOURCE_CODE
  27:Middlewares/ST/usbx/common/usbx_host_classes/src/ux_host_class_storage_device_reset.c **** 
  28:Middlewares/ST/usbx/common/usbx_host_classes/src/ux_host_class_storage_device_reset.c **** #include "ux_api.h"
  29:Middlewares/ST/usbx/common/usbx_host_classes/src/ux_host_class_storage_device_reset.c **** #include "ux_host_class_storage.h"
ARM GAS  C:\Users\HP\AppData\Local\Temp\ccyBnKKJ.s 			page 2


  30:Middlewares/ST/usbx/common/usbx_host_classes/src/ux_host_class_storage_device_reset.c **** #include "ux_host_stack.h"
  31:Middlewares/ST/usbx/common/usbx_host_classes/src/ux_host_class_storage_device_reset.c **** 
  32:Middlewares/ST/usbx/common/usbx_host_classes/src/ux_host_class_storage_device_reset.c **** 
  33:Middlewares/ST/usbx/common/usbx_host_classes/src/ux_host_class_storage_device_reset.c **** /**************************************************************************/
  34:Middlewares/ST/usbx/common/usbx_host_classes/src/ux_host_class_storage_device_reset.c **** /*                                                                        */
  35:Middlewares/ST/usbx/common/usbx_host_classes/src/ux_host_class_storage_device_reset.c **** /*  FUNCTION                                               RELEASE        */
  36:Middlewares/ST/usbx/common/usbx_host_classes/src/ux_host_class_storage_device_reset.c **** /*                                                                        */
  37:Middlewares/ST/usbx/common/usbx_host_classes/src/ux_host_class_storage_device_reset.c **** /*    _ux_host_class_storage_device_reset                 PORTABLE C      */
  38:Middlewares/ST/usbx/common/usbx_host_classes/src/ux_host_class_storage_device_reset.c **** /*                                                           6.1.11       */
  39:Middlewares/ST/usbx/common/usbx_host_classes/src/ux_host_class_storage_device_reset.c **** /*  AUTHOR                                                                */
  40:Middlewares/ST/usbx/common/usbx_host_classes/src/ux_host_class_storage_device_reset.c **** /*                                                                        */
  41:Middlewares/ST/usbx/common/usbx_host_classes/src/ux_host_class_storage_device_reset.c **** /*    Chaoqiong Xiao, Microsoft Corporation                               */
  42:Middlewares/ST/usbx/common/usbx_host_classes/src/ux_host_class_storage_device_reset.c **** /*                                                                        */
  43:Middlewares/ST/usbx/common/usbx_host_classes/src/ux_host_class_storage_device_reset.c **** /*  DESCRIPTION                                                           */
  44:Middlewares/ST/usbx/common/usbx_host_classes/src/ux_host_class_storage_device_reset.c **** /*                                                                        */
  45:Middlewares/ST/usbx/common/usbx_host_classes/src/ux_host_class_storage_device_reset.c **** /*    This function will perform a reset on the device if it is a         */
  46:Middlewares/ST/usbx/common/usbx_host_classes/src/ux_host_class_storage_device_reset.c **** /*    Bulk Only device.                                                   */
  47:Middlewares/ST/usbx/common/usbx_host_classes/src/ux_host_class_storage_device_reset.c **** /*                                                                        */
  48:Middlewares/ST/usbx/common/usbx_host_classes/src/ux_host_class_storage_device_reset.c **** /*  INPUT                                                                 */
  49:Middlewares/ST/usbx/common/usbx_host_classes/src/ux_host_class_storage_device_reset.c **** /*                                                                        */
  50:Middlewares/ST/usbx/common/usbx_host_classes/src/ux_host_class_storage_device_reset.c **** /*    storage                               Pointer to storage class      */
  51:Middlewares/ST/usbx/common/usbx_host_classes/src/ux_host_class_storage_device_reset.c **** /*                                                                        */
  52:Middlewares/ST/usbx/common/usbx_host_classes/src/ux_host_class_storage_device_reset.c **** /*  OUTPUT                                                                */
  53:Middlewares/ST/usbx/common/usbx_host_classes/src/ux_host_class_storage_device_reset.c **** /*                                                                        */
  54:Middlewares/ST/usbx/common/usbx_host_classes/src/ux_host_class_storage_device_reset.c **** /*    Completion Status                                                   */
  55:Middlewares/ST/usbx/common/usbx_host_classes/src/ux_host_class_storage_device_reset.c **** /*                                                                        */
  56:Middlewares/ST/usbx/common/usbx_host_classes/src/ux_host_class_storage_device_reset.c **** /*  CALLS                                                                 */
  57:Middlewares/ST/usbx/common/usbx_host_classes/src/ux_host_class_storage_device_reset.c **** /*                                                                        */
  58:Middlewares/ST/usbx/common/usbx_host_classes/src/ux_host_class_storage_device_reset.c **** /*    _ux_host_stack_transfer_request       Process transfer request      */
  59:Middlewares/ST/usbx/common/usbx_host_classes/src/ux_host_class_storage_device_reset.c **** /*    _ux_host_stack_endpoint_reset         Reset endpoint                */
  60:Middlewares/ST/usbx/common/usbx_host_classes/src/ux_host_class_storage_device_reset.c **** /*                                                                        */
  61:Middlewares/ST/usbx/common/usbx_host_classes/src/ux_host_class_storage_device_reset.c **** /*  CALLED BY                                                             */
  62:Middlewares/ST/usbx/common/usbx_host_classes/src/ux_host_class_storage_device_reset.c **** /*                                                                        */
  63:Middlewares/ST/usbx/common/usbx_host_classes/src/ux_host_class_storage_device_reset.c **** /*    Storage Class                                                       */
  64:Middlewares/ST/usbx/common/usbx_host_classes/src/ux_host_class_storage_device_reset.c **** /*                                                                        */
  65:Middlewares/ST/usbx/common/usbx_host_classes/src/ux_host_class_storage_device_reset.c **** /*  RELEASE HISTORY                                                       */
  66:Middlewares/ST/usbx/common/usbx_host_classes/src/ux_host_class_storage_device_reset.c **** /*                                                                        */
  67:Middlewares/ST/usbx/common/usbx_host_classes/src/ux_host_class_storage_device_reset.c **** /*    DATE              NAME                      DESCRIPTION             */
  68:Middlewares/ST/usbx/common/usbx_host_classes/src/ux_host_class_storage_device_reset.c **** /*                                                                        */
  69:Middlewares/ST/usbx/common/usbx_host_classes/src/ux_host_class_storage_device_reset.c **** /*  05-19-2020     Chaoqiong Xiao           Initial Version 6.0           */
  70:Middlewares/ST/usbx/common/usbx_host_classes/src/ux_host_class_storage_device_reset.c **** /*  09-30-2020     Chaoqiong Xiao           Modified comment(s),          */
  71:Middlewares/ST/usbx/common/usbx_host_classes/src/ux_host_class_storage_device_reset.c **** /*                                            resulting in version 6.1    */
  72:Middlewares/ST/usbx/common/usbx_host_classes/src/ux_host_class_storage_device_reset.c **** /*  01-31-2022     Chaoqiong Xiao           Modified comment(s),          */
  73:Middlewares/ST/usbx/common/usbx_host_classes/src/ux_host_class_storage_device_reset.c **** /*                                            added standalone support,   */
  74:Middlewares/ST/usbx/common/usbx_host_classes/src/ux_host_class_storage_device_reset.c **** /*                                            resulting in version 6.1.10 */
  75:Middlewares/ST/usbx/common/usbx_host_classes/src/ux_host_class_storage_device_reset.c **** /*  04-25-2022     Chaoqiong Xiao           Modified comment(s),          */
  76:Middlewares/ST/usbx/common/usbx_host_classes/src/ux_host_class_storage_device_reset.c **** /*                                            internal clean up,          */
  77:Middlewares/ST/usbx/common/usbx_host_classes/src/ux_host_class_storage_device_reset.c **** /*                                            resulting in version 6.1.11 */
  78:Middlewares/ST/usbx/common/usbx_host_classes/src/ux_host_class_storage_device_reset.c **** /*                                                                        */
  79:Middlewares/ST/usbx/common/usbx_host_classes/src/ux_host_class_storage_device_reset.c **** /**************************************************************************/
  80:Middlewares/ST/usbx/common/usbx_host_classes/src/ux_host_class_storage_device_reset.c **** UINT  _ux_host_class_storage_device_reset(UX_HOST_CLASS_STORAGE *storage)
  81:Middlewares/ST/usbx/common/usbx_host_classes/src/ux_host_class_storage_device_reset.c **** {
  30              		.loc 1 81 1 view -0
  31              		.cfi_startproc
  32              		@ args = 0, pretend = 0, frame = 0
  33              		@ frame_needed = 0, uses_anonymous_args = 0
  34              		.loc 1 81 1 is_stmt 0 view .LVU1
ARM GAS  C:\Users\HP\AppData\Local\Temp\ccyBnKKJ.s 			page 3


  35 0000 70B5     		push	{r4, r5, r6, lr}
  36              	.LCFI0:
  37              		.cfi_def_cfa_offset 16
  38              		.cfi_offset 4, -16
  39              		.cfi_offset 5, -12
  40              		.cfi_offset 6, -8
  41              		.cfi_offset 14, -4
  42 0002 0546     		mov	r5, r0
  82:Middlewares/ST/usbx/common/usbx_host_classes/src/ux_host_class_storage_device_reset.c **** 
  83:Middlewares/ST/usbx/common/usbx_host_classes/src/ux_host_class_storage_device_reset.c **** UX_ENDPOINT     *control_endpoint;
  43              		.loc 1 83 1 is_stmt 1 view .LVU2
  84:Middlewares/ST/usbx/common/usbx_host_classes/src/ux_host_class_storage_device_reset.c **** UX_TRANSFER     *transfer_request;
  44              		.loc 1 84 1 view .LVU3
  85:Middlewares/ST/usbx/common/usbx_host_classes/src/ux_host_class_storage_device_reset.c **** UINT            status;
  45              		.loc 1 85 1 view .LVU4
  86:Middlewares/ST/usbx/common/usbx_host_classes/src/ux_host_class_storage_device_reset.c **** 
  87:Middlewares/ST/usbx/common/usbx_host_classes/src/ux_host_class_storage_device_reset.c **** 
  88:Middlewares/ST/usbx/common/usbx_host_classes/src/ux_host_class_storage_device_reset.c **** #ifdef UX_HOST_CLASS_STORAGE_INCLUDE_LEGACY_PROTOCOL_SUPPORT
  89:Middlewares/ST/usbx/common/usbx_host_classes/src/ux_host_class_storage_device_reset.c ****     /* We need to perform a reset only for BO devices.  */
  90:Middlewares/ST/usbx/common/usbx_host_classes/src/ux_host_class_storage_device_reset.c ****     if (storage -> ux_host_class_storage_interface -> ux_interface_descriptor.bInterfaceProtocol ==
  91:Middlewares/ST/usbx/common/usbx_host_classes/src/ux_host_class_storage_device_reset.c ****     {
  92:Middlewares/ST/usbx/common/usbx_host_classes/src/ux_host_class_storage_device_reset.c **** #endif
  93:Middlewares/ST/usbx/common/usbx_host_classes/src/ux_host_class_storage_device_reset.c **** 
  94:Middlewares/ST/usbx/common/usbx_host_classes/src/ux_host_class_storage_device_reset.c ****     /* We need to get the default control endpoint transfer request pointer.  */
  95:Middlewares/ST/usbx/common/usbx_host_classes/src/ux_host_class_storage_device_reset.c ****     control_endpoint =  &storage -> ux_host_class_storage_device -> ux_device_control_endpoint;
  46              		.loc 1 95 5 view .LVU5
  47              		.loc 1 95 34 is_stmt 0 view .LVU6
  48 0004 8468     		ldr	r4, [r0, #8]
  49              	.LVL1:
  96:Middlewares/ST/usbx/common/usbx_host_classes/src/ux_host_class_storage_device_reset.c ****     transfer_request =  &control_endpoint -> ux_endpoint_transfer_request;
  50              		.loc 1 96 5 is_stmt 1 view .LVU7
  51              		.loc 1 96 22 is_stmt 0 view .LVU8
  52 0006 04F1B406 		add	r6, r4, #180
  53              	.LVL2:
  97:Middlewares/ST/usbx/common/usbx_host_classes/src/ux_host_class_storage_device_reset.c **** 
  98:Middlewares/ST/usbx/common/usbx_host_classes/src/ux_host_class_storage_device_reset.c ****     /* We need to prevent other threads from simultaneously using the endpoint. */
  99:Middlewares/ST/usbx/common/usbx_host_classes/src/ux_host_class_storage_device_reset.c ****     _ux_host_semaphore_get_norc(&control_endpoint -> ux_endpoint_device -> ux_device_protection_sem
  54              		.loc 1 99 5 is_stmt 1 view .LVU9
  55              		.loc 1 99 51 is_stmt 0 view .LVU10
  56 000a D4F8B000 		ldr	r0, [r4, #176]
  57              	.LVL3:
  58              		.loc 1 99 5 view .LVU11
  59 000e 4FF0FF31 		mov	r1, #-1
  60 0012 2430     		adds	r0, r0, #36
  61 0014 FFF7FEFF 		bl	_ux_utility_semaphore_get
  62              	.LVL4:
 100:Middlewares/ST/usbx/common/usbx_host_classes/src/ux_host_class_storage_device_reset.c **** 
 101:Middlewares/ST/usbx/common/usbx_host_classes/src/ux_host_class_storage_device_reset.c ****     /* Create a transfer_request for the RESET request.  */
 102:Middlewares/ST/usbx/common/usbx_host_classes/src/ux_host_class_storage_device_reset.c ****     transfer_request -> ux_transfer_request_data_pointer =      UX_NULL;
  63              		.loc 1 102 5 is_stmt 1 view .LVU12
  64              		.loc 1 102 58 is_stmt 0 view .LVU13
  65 0018 0023     		movs	r3, #0
  66 001a C4F8BC30 		str	r3, [r4, #188]
 103:Middlewares/ST/usbx/common/usbx_host_classes/src/ux_host_class_storage_device_reset.c ****     transfer_request -> ux_transfer_request_requested_length =  0;
  67              		.loc 1 103 5 is_stmt 1 view .LVU14
  68              		.loc 1 103 62 is_stmt 0 view .LVU15
  69 001e C4F8C030 		str	r3, [r4, #192]
ARM GAS  C:\Users\HP\AppData\Local\Temp\ccyBnKKJ.s 			page 4


 104:Middlewares/ST/usbx/common/usbx_host_classes/src/ux_host_class_storage_device_reset.c ****     transfer_request -> ux_transfer_request_function =          UX_HOST_CLASS_STORAGE_RESET;
  70              		.loc 1 104 5 is_stmt 1 view .LVU16
  71              		.loc 1 104 54 is_stmt 0 view .LVU17
  72 0022 FF22     		movs	r2, #255
  73 0024 C4F8CC20 		str	r2, [r4, #204]
 105:Middlewares/ST/usbx/common/usbx_host_classes/src/ux_host_class_storage_device_reset.c ****     transfer_request -> ux_transfer_request_type =              UX_REQUEST_OUT | UX_REQUEST_TYPE_CL
  74              		.loc 1 105 5 is_stmt 1 view .LVU18
  75              		.loc 1 105 50 is_stmt 0 view .LVU19
  76 0028 2122     		movs	r2, #33
  77 002a C4F8C820 		str	r2, [r4, #200]
 106:Middlewares/ST/usbx/common/usbx_host_classes/src/ux_host_class_storage_device_reset.c ****     transfer_request -> ux_transfer_request_value =             0;
  78              		.loc 1 106 5 is_stmt 1 view .LVU20
  79              		.loc 1 106 51 is_stmt 0 view .LVU21
  80 002e C4F8D030 		str	r3, [r4, #208]
 107:Middlewares/ST/usbx/common/usbx_host_classes/src/ux_host_class_storage_device_reset.c ****     transfer_request -> ux_transfer_request_index  =            storage -> ux_host_class_storage_in
  81              		.loc 1 107 5 is_stmt 1 view .LVU22
  82              		.loc 1 107 73 is_stmt 0 view .LVU23
  83 0032 EB68     		ldr	r3, [r5, #12]
  84              		.loc 1 107 134 view .LVU24
  85 0034 5B69     		ldr	r3, [r3, #20]
  86              		.loc 1 107 52 view .LVU25
  87 0036 C4F8D430 		str	r3, [r4, #212]
 108:Middlewares/ST/usbx/common/usbx_host_classes/src/ux_host_class_storage_device_reset.c **** 
 109:Middlewares/ST/usbx/common/usbx_host_classes/src/ux_host_class_storage_device_reset.c ****     /* Send request to HCD layer.  */
 110:Middlewares/ST/usbx/common/usbx_host_classes/src/ux_host_class_storage_device_reset.c ****     status =  _ux_host_stack_transfer_request(transfer_request);
  88              		.loc 1 110 5 is_stmt 1 view .LVU26
  89              		.loc 1 110 15 is_stmt 0 view .LVU27
  90 003a 3046     		mov	r0, r6
  91 003c FFF7FEFF 		bl	_ux_host_stack_transfer_request
  92              	.LVL5:
  93 0040 0446     		mov	r4, r0
  94              	.LVL6:
 111:Middlewares/ST/usbx/common/usbx_host_classes/src/ux_host_class_storage_device_reset.c **** 
 112:Middlewares/ST/usbx/common/usbx_host_classes/src/ux_host_class_storage_device_reset.c ****     /* Per the spec, reset the endpoints as well.  */
 113:Middlewares/ST/usbx/common/usbx_host_classes/src/ux_host_class_storage_device_reset.c ****     _ux_host_stack_endpoint_reset(storage -> ux_host_class_storage_bulk_in_endpoint);
  95              		.loc 1 113 5 is_stmt 1 view .LVU28
  96 0042 6869     		ldr	r0, [r5, #20]
  97              	.LVL7:
  98              		.loc 1 113 5 is_stmt 0 view .LVU29
  99 0044 FFF7FEFF 		bl	_ux_host_stack_endpoint_reset
 100              	.LVL8:
 114:Middlewares/ST/usbx/common/usbx_host_classes/src/ux_host_class_storage_device_reset.c ****     _ux_host_stack_endpoint_reset(storage -> ux_host_class_storage_bulk_out_endpoint);
 101              		.loc 1 114 5 is_stmt 1 view .LVU30
 102 0048 2869     		ldr	r0, [r5, #16]
 103 004a FFF7FEFF 		bl	_ux_host_stack_endpoint_reset
 104              	.LVL9:
 115:Middlewares/ST/usbx/common/usbx_host_classes/src/ux_host_class_storage_device_reset.c **** 
 116:Middlewares/ST/usbx/common/usbx_host_classes/src/ux_host_class_storage_device_reset.c ****     /* Return completion status.  */
 117:Middlewares/ST/usbx/common/usbx_host_classes/src/ux_host_class_storage_device_reset.c ****     return(status);
 105              		.loc 1 117 5 view .LVU31
 118:Middlewares/ST/usbx/common/usbx_host_classes/src/ux_host_class_storage_device_reset.c **** 
 119:Middlewares/ST/usbx/common/usbx_host_classes/src/ux_host_class_storage_device_reset.c **** #ifdef UX_HOST_CLASS_STORAGE_INCLUDE_LEGACY_PROTOCOL_SUPPORT
 120:Middlewares/ST/usbx/common/usbx_host_classes/src/ux_host_class_storage_device_reset.c ****     }
 121:Middlewares/ST/usbx/common/usbx_host_classes/src/ux_host_class_storage_device_reset.c **** 
 122:Middlewares/ST/usbx/common/usbx_host_classes/src/ux_host_class_storage_device_reset.c ****     /* In case the device is not a BO device, we always succeed.  */
 123:Middlewares/ST/usbx/common/usbx_host_classes/src/ux_host_class_storage_device_reset.c ****     return(UX_SUCCESS);
 124:Middlewares/ST/usbx/common/usbx_host_classes/src/ux_host_class_storage_device_reset.c **** #endif
ARM GAS  C:\Users\HP\AppData\Local\Temp\ccyBnKKJ.s 			page 5


 125:Middlewares/ST/usbx/common/usbx_host_classes/src/ux_host_class_storage_device_reset.c **** }
 106              		.loc 1 125 1 is_stmt 0 view .LVU32
 107 004e 2046     		mov	r0, r4
 108 0050 70BD     		pop	{r4, r5, r6, pc}
 109              		.loc 1 125 1 view .LVU33
 110              		.cfi_endproc
 111              	.LFE11:
 113              		.text
 114              	.Letext0:
 115              		.file 2 "Middlewares/ST/threadx/ports/cortex_m4/gnu/inc/tx_port.h"
 116              		.file 3 "Middlewares/ST/threadx/common/inc/tx_api.h"
 117              		.file 4 "Middlewares/ST/usbx/common/core/inc/ux_api.h"
 118              		.file 5 "Middlewares/ST/usbx/common/usbx_host_classes/inc/ux_host_class_storage.h"
 119              		.file 6 "Middlewares/ST/usbx/common/core/inc/ux_utility.h"
 120              		.file 7 "Middlewares/ST/usbx/common/core/inc/ux_host_stack.h"
ARM GAS  C:\Users\HP\AppData\Local\Temp\ccyBnKKJ.s 			page 6

