ARM GAS  C:\Users\HP\AppData\Local\Temp\ccKwDlon.s 			page 1


   1              		.cpu cortex-m4
   2              		.arch armv7e-m
   3              		.fpu fpv4-sp-d16
   4              		.eabi_attribute 27, 1
   5              		.eabi_attribute 28, 1
   6              		.eabi_attribute 20, 1
   7              		.eabi_attribute 21, 1
   8              		.eabi_attribute 23, 3
   9              		.eabi_attribute 24, 1
  10              		.eabi_attribute 25, 1
  11              		.eabi_attribute 26, 1
  12              		.eabi_attribute 30, 1
  13              		.eabi_attribute 34, 1
  14              		.eabi_attribute 18, 4
  15              		.file	"ux_host_class_storage_thread_entry.c"
  16              		.text
  17              	.Ltext0:
  18              		.cfi_sections	.debug_frame
  19              		.section	.text._ux_host_class_storage_thread_entry,"ax",%progbits
  20              		.align	1
  21              		.global	_ux_host_class_storage_thread_entry
  22              		.syntax unified
  23              		.thumb
  24              		.thumb_func
  26              	_ux_host_class_storage_thread_entry:
  27              	.LVL0:
  28              	.LFB11:
  29              		.file 1 "Middlewares/ST/usbx/common/usbx_host_classes/src/ux_host_class_storage_thread_entry.c"
   1:Middlewares/ST/usbx/common/usbx_host_classes/src/ux_host_class_storage_thread_entry.c **** /**************************************************************************/
   2:Middlewares/ST/usbx/common/usbx_host_classes/src/ux_host_class_storage_thread_entry.c **** /*                                                                        */
   3:Middlewares/ST/usbx/common/usbx_host_classes/src/ux_host_class_storage_thread_entry.c **** /*       Copyright (c) Microsoft Corporation. All rights reserved.        */
   4:Middlewares/ST/usbx/common/usbx_host_classes/src/ux_host_class_storage_thread_entry.c **** /*                                                                        */
   5:Middlewares/ST/usbx/common/usbx_host_classes/src/ux_host_class_storage_thread_entry.c **** /*       This software is licensed under the Microsoft Software License   */
   6:Middlewares/ST/usbx/common/usbx_host_classes/src/ux_host_class_storage_thread_entry.c **** /*       Terms for Microsoft Azure RTOS. Full text of the license can be  */
   7:Middlewares/ST/usbx/common/usbx_host_classes/src/ux_host_class_storage_thread_entry.c **** /*       found in the LICENSE file at https://aka.ms/AzureRTOS_EULA       */
   8:Middlewares/ST/usbx/common/usbx_host_classes/src/ux_host_class_storage_thread_entry.c **** /*       and in the root directory of this software.                      */
   9:Middlewares/ST/usbx/common/usbx_host_classes/src/ux_host_class_storage_thread_entry.c **** /*                                                                        */
  10:Middlewares/ST/usbx/common/usbx_host_classes/src/ux_host_class_storage_thread_entry.c **** /**************************************************************************/
  11:Middlewares/ST/usbx/common/usbx_host_classes/src/ux_host_class_storage_thread_entry.c **** 
  12:Middlewares/ST/usbx/common/usbx_host_classes/src/ux_host_class_storage_thread_entry.c **** 
  13:Middlewares/ST/usbx/common/usbx_host_classes/src/ux_host_class_storage_thread_entry.c **** /**************************************************************************/
  14:Middlewares/ST/usbx/common/usbx_host_classes/src/ux_host_class_storage_thread_entry.c **** /**************************************************************************/
  15:Middlewares/ST/usbx/common/usbx_host_classes/src/ux_host_class_storage_thread_entry.c **** /**                                                                       */
  16:Middlewares/ST/usbx/common/usbx_host_classes/src/ux_host_class_storage_thread_entry.c **** /** USBX Component                                                        */
  17:Middlewares/ST/usbx/common/usbx_host_classes/src/ux_host_class_storage_thread_entry.c **** /**                                                                       */
  18:Middlewares/ST/usbx/common/usbx_host_classes/src/ux_host_class_storage_thread_entry.c **** /**   Storage Class                                                       */
  19:Middlewares/ST/usbx/common/usbx_host_classes/src/ux_host_class_storage_thread_entry.c **** /**                                                                       */
  20:Middlewares/ST/usbx/common/usbx_host_classes/src/ux_host_class_storage_thread_entry.c **** /**************************************************************************/
  21:Middlewares/ST/usbx/common/usbx_host_classes/src/ux_host_class_storage_thread_entry.c **** /**************************************************************************/
  22:Middlewares/ST/usbx/common/usbx_host_classes/src/ux_host_class_storage_thread_entry.c **** 
  23:Middlewares/ST/usbx/common/usbx_host_classes/src/ux_host_class_storage_thread_entry.c **** 
  24:Middlewares/ST/usbx/common/usbx_host_classes/src/ux_host_class_storage_thread_entry.c **** /* Include necessary system files.  */
  25:Middlewares/ST/usbx/common/usbx_host_classes/src/ux_host_class_storage_thread_entry.c **** 
  26:Middlewares/ST/usbx/common/usbx_host_classes/src/ux_host_class_storage_thread_entry.c **** #define UX_SOURCE_CODE
  27:Middlewares/ST/usbx/common/usbx_host_classes/src/ux_host_class_storage_thread_entry.c **** 
  28:Middlewares/ST/usbx/common/usbx_host_classes/src/ux_host_class_storage_thread_entry.c **** #include "ux_api.h"
  29:Middlewares/ST/usbx/common/usbx_host_classes/src/ux_host_class_storage_thread_entry.c **** #include "ux_host_class_storage.h"
ARM GAS  C:\Users\HP\AppData\Local\Temp\ccKwDlon.s 			page 2


  30:Middlewares/ST/usbx/common/usbx_host_classes/src/ux_host_class_storage_thread_entry.c **** #include "ux_host_stack.h"
  31:Middlewares/ST/usbx/common/usbx_host_classes/src/ux_host_class_storage_thread_entry.c **** 
  32:Middlewares/ST/usbx/common/usbx_host_classes/src/ux_host_class_storage_thread_entry.c **** 
  33:Middlewares/ST/usbx/common/usbx_host_classes/src/ux_host_class_storage_thread_entry.c **** #if !defined(UX_HOST_STANDALONE)
  34:Middlewares/ST/usbx/common/usbx_host_classes/src/ux_host_class_storage_thread_entry.c **** /**************************************************************************/
  35:Middlewares/ST/usbx/common/usbx_host_classes/src/ux_host_class_storage_thread_entry.c **** /*                                                                        */
  36:Middlewares/ST/usbx/common/usbx_host_classes/src/ux_host_class_storage_thread_entry.c **** /*  FUNCTION                                               RELEASE        */
  37:Middlewares/ST/usbx/common/usbx_host_classes/src/ux_host_class_storage_thread_entry.c **** /*                                                                        */
  38:Middlewares/ST/usbx/common/usbx_host_classes/src/ux_host_class_storage_thread_entry.c **** /*    _ux_host_class_storage_thread_entry                 PORTABLE C      */
  39:Middlewares/ST/usbx/common/usbx_host_classes/src/ux_host_class_storage_thread_entry.c **** /*                                                           6.1.11       */
  40:Middlewares/ST/usbx/common/usbx_host_classes/src/ux_host_class_storage_thread_entry.c **** /*  AUTHOR                                                                */
  41:Middlewares/ST/usbx/common/usbx_host_classes/src/ux_host_class_storage_thread_entry.c **** /*                                                                        */
  42:Middlewares/ST/usbx/common/usbx_host_classes/src/ux_host_class_storage_thread_entry.c **** /*    Chaoqiong Xiao, Microsoft Corporation                               */
  43:Middlewares/ST/usbx/common/usbx_host_classes/src/ux_host_class_storage_thread_entry.c **** /*                                                                        */
  44:Middlewares/ST/usbx/common/usbx_host_classes/src/ux_host_class_storage_thread_entry.c **** /*  DESCRIPTION                                                           */
  45:Middlewares/ST/usbx/common/usbx_host_classes/src/ux_host_class_storage_thread_entry.c **** /*                                                                        */
  46:Middlewares/ST/usbx/common/usbx_host_classes/src/ux_host_class_storage_thread_entry.c **** /*    This function is awaken every 2 seconds to check if there was a     */
  47:Middlewares/ST/usbx/common/usbx_host_classes/src/ux_host_class_storage_thread_entry.c **** /*    device insertion on a specific media. This is the only way we can   */
  48:Middlewares/ST/usbx/common/usbx_host_classes/src/ux_host_class_storage_thread_entry.c **** /*    remount a media after the storage instance has opened the media to  */
  49:Middlewares/ST/usbx/common/usbx_host_classes/src/ux_host_class_storage_thread_entry.c **** /*    UX_MEDIA (default FileX) and the media is either not present        */
  50:Middlewares/ST/usbx/common/usbx_host_classes/src/ux_host_class_storage_thread_entry.c **** /*    or was removed and is being re-inserted.                            */
  51:Middlewares/ST/usbx/common/usbx_host_classes/src/ux_host_class_storage_thread_entry.c **** /*                                                                        */
  52:Middlewares/ST/usbx/common/usbx_host_classes/src/ux_host_class_storage_thread_entry.c **** /*    It's for RTOS mode.                                                 */
  53:Middlewares/ST/usbx/common/usbx_host_classes/src/ux_host_class_storage_thread_entry.c **** /*                                                                        */
  54:Middlewares/ST/usbx/common/usbx_host_classes/src/ux_host_class_storage_thread_entry.c **** /*  INPUT                                                                 */
  55:Middlewares/ST/usbx/common/usbx_host_classes/src/ux_host_class_storage_thread_entry.c **** /*                                                                        */
  56:Middlewares/ST/usbx/common/usbx_host_classes/src/ux_host_class_storage_thread_entry.c **** /*    class_address                         Class address                 */
  57:Middlewares/ST/usbx/common/usbx_host_classes/src/ux_host_class_storage_thread_entry.c **** /*                                                                        */
  58:Middlewares/ST/usbx/common/usbx_host_classes/src/ux_host_class_storage_thread_entry.c **** /*  OUTPUT                                                                */
  59:Middlewares/ST/usbx/common/usbx_host_classes/src/ux_host_class_storage_thread_entry.c **** /*                                                                        */
  60:Middlewares/ST/usbx/common/usbx_host_classes/src/ux_host_class_storage_thread_entry.c **** /*    None                                                                */
  61:Middlewares/ST/usbx/common/usbx_host_classes/src/ux_host_class_storage_thread_entry.c **** /*                                                                        */
  62:Middlewares/ST/usbx/common/usbx_host_classes/src/ux_host_class_storage_thread_entry.c **** /*  CALLS                                                                 */
  63:Middlewares/ST/usbx/common/usbx_host_classes/src/ux_host_class_storage_thread_entry.c **** /*                                                                        */
  64:Middlewares/ST/usbx/common/usbx_host_classes/src/ux_host_class_storage_thread_entry.c **** /*    ux_media_close                        Close media                   */
  65:Middlewares/ST/usbx/common/usbx_host_classes/src/ux_host_class_storage_thread_entry.c **** /*    _ux_host_class_storage_device_reset   Reset device                  */
  66:Middlewares/ST/usbx/common/usbx_host_classes/src/ux_host_class_storage_thread_entry.c **** /*    _ux_host_class_storage_media_mount    Mount the media               */
  67:Middlewares/ST/usbx/common/usbx_host_classes/src/ux_host_class_storage_thread_entry.c **** /*    _ux_host_class_storage_unit_ready_test                              */
  68:Middlewares/ST/usbx/common/usbx_host_classes/src/ux_host_class_storage_thread_entry.c **** /*                                          Test for unit ready           */
  69:Middlewares/ST/usbx/common/usbx_host_classes/src/ux_host_class_storage_thread_entry.c **** /*    _ux_host_class_storage_media_characteristics_get                    */
  70:Middlewares/ST/usbx/common/usbx_host_classes/src/ux_host_class_storage_thread_entry.c **** /*                                          Get media characteristics     */
  71:Middlewares/ST/usbx/common/usbx_host_classes/src/ux_host_class_storage_thread_entry.c **** /*    _ux_host_class_storage_media_format_capacity_get                    */
  72:Middlewares/ST/usbx/common/usbx_host_classes/src/ux_host_class_storage_thread_entry.c **** /*                                          Get media format capacity     */
  73:Middlewares/ST/usbx/common/usbx_host_classes/src/ux_host_class_storage_thread_entry.c **** /*    _ux_utility_memory_free               Free memory block             */
  74:Middlewares/ST/usbx/common/usbx_host_classes/src/ux_host_class_storage_thread_entry.c **** /*    _ux_host_semaphore_get                Get a semaphore               */
  75:Middlewares/ST/usbx/common/usbx_host_classes/src/ux_host_class_storage_thread_entry.c **** /*    _ux_host_semaphore_put                Put a semaphore               */
  76:Middlewares/ST/usbx/common/usbx_host_classes/src/ux_host_class_storage_thread_entry.c **** /*    _ux_utility_delay_ms                  Thread sleep                  */
  77:Middlewares/ST/usbx/common/usbx_host_classes/src/ux_host_class_storage_thread_entry.c **** /*                                                                        */
  78:Middlewares/ST/usbx/common/usbx_host_classes/src/ux_host_class_storage_thread_entry.c **** /*  CALLED BY                                                             */
  79:Middlewares/ST/usbx/common/usbx_host_classes/src/ux_host_class_storage_thread_entry.c **** /*                                                                        */
  80:Middlewares/ST/usbx/common/usbx_host_classes/src/ux_host_class_storage_thread_entry.c **** /*    ThreadX                                                             */
  81:Middlewares/ST/usbx/common/usbx_host_classes/src/ux_host_class_storage_thread_entry.c **** /*                                                                        */
  82:Middlewares/ST/usbx/common/usbx_host_classes/src/ux_host_class_storage_thread_entry.c **** /*  RELEASE HISTORY                                                       */
  83:Middlewares/ST/usbx/common/usbx_host_classes/src/ux_host_class_storage_thread_entry.c **** /*                                                                        */
  84:Middlewares/ST/usbx/common/usbx_host_classes/src/ux_host_class_storage_thread_entry.c **** /*    DATE              NAME                      DESCRIPTION             */
  85:Middlewares/ST/usbx/common/usbx_host_classes/src/ux_host_class_storage_thread_entry.c **** /*                                                                        */
  86:Middlewares/ST/usbx/common/usbx_host_classes/src/ux_host_class_storage_thread_entry.c **** /*  05-19-2020     Chaoqiong Xiao           Initial Version 6.0           */
ARM GAS  C:\Users\HP\AppData\Local\Temp\ccKwDlon.s 			page 3


  87:Middlewares/ST/usbx/common/usbx_host_classes/src/ux_host_class_storage_thread_entry.c **** /*  09-30-2020     Chaoqiong Xiao           Modified comment(s),          */
  88:Middlewares/ST/usbx/common/usbx_host_classes/src/ux_host_class_storage_thread_entry.c **** /*                                            added option to disable FX  */
  89:Middlewares/ST/usbx/common/usbx_host_classes/src/ux_host_class_storage_thread_entry.c **** /*                                            media integration, used UX_ */
  90:Middlewares/ST/usbx/common/usbx_host_classes/src/ux_host_class_storage_thread_entry.c **** /*                                            things instead of FX_       */
  91:Middlewares/ST/usbx/common/usbx_host_classes/src/ux_host_class_storage_thread_entry.c **** /*                                            things directly, used host  */
  92:Middlewares/ST/usbx/common/usbx_host_classes/src/ux_host_class_storage_thread_entry.c **** /*                                            class extension pointer for */
  93:Middlewares/ST/usbx/common/usbx_host_classes/src/ux_host_class_storage_thread_entry.c **** /*                                            class specific structured   */
  94:Middlewares/ST/usbx/common/usbx_host_classes/src/ux_host_class_storage_thread_entry.c **** /*                                            data,                       */
  95:Middlewares/ST/usbx/common/usbx_host_classes/src/ux_host_class_storage_thread_entry.c **** /*                                            resulting in version 6.1    */
  96:Middlewares/ST/usbx/common/usbx_host_classes/src/ux_host_class_storage_thread_entry.c **** /*  01-31-2022     Chaoqiong Xiao           Modified comment(s),          */
  97:Middlewares/ST/usbx/common/usbx_host_classes/src/ux_host_class_storage_thread_entry.c **** /*                                            refined macros names,       */
  98:Middlewares/ST/usbx/common/usbx_host_classes/src/ux_host_class_storage_thread_entry.c **** /*                                            resulting in version 6.1.10 */
  99:Middlewares/ST/usbx/common/usbx_host_classes/src/ux_host_class_storage_thread_entry.c **** /*  04-25-2022     Chaoqiong Xiao           Modified comment(s),          */
 100:Middlewares/ST/usbx/common/usbx_host_classes/src/ux_host_class_storage_thread_entry.c **** /*                                            internal clean up,          */
 101:Middlewares/ST/usbx/common/usbx_host_classes/src/ux_host_class_storage_thread_entry.c **** /*                                            resulting in version 6.1.11 */
 102:Middlewares/ST/usbx/common/usbx_host_classes/src/ux_host_class_storage_thread_entry.c **** /*                                                                        */
 103:Middlewares/ST/usbx/common/usbx_host_classes/src/ux_host_class_storage_thread_entry.c **** /**************************************************************************/
 104:Middlewares/ST/usbx/common/usbx_host_classes/src/ux_host_class_storage_thread_entry.c **** VOID  _ux_host_class_storage_thread_entry(ULONG class_address)
 105:Middlewares/ST/usbx/common/usbx_host_classes/src/ux_host_class_storage_thread_entry.c **** {
  30              		.loc 1 105 1 view -0
  31              		.cfi_startproc
  32              		@ args = 0, pretend = 0, frame = 8
  33              		@ frame_needed = 0, uses_anonymous_args = 0
  34              		.loc 1 105 1 is_stmt 0 view .LVU1
  35 0000 2DE9F04F 		push	{r4, r5, r6, r7, r8, r9, r10, fp, lr}
  36              	.LCFI0:
  37              		.cfi_def_cfa_offset 36
  38              		.cfi_offset 4, -36
  39              		.cfi_offset 5, -32
  40              		.cfi_offset 6, -28
  41              		.cfi_offset 7, -24
  42              		.cfi_offset 8, -20
  43              		.cfi_offset 9, -16
  44              		.cfi_offset 10, -12
  45              		.cfi_offset 11, -8
  46              		.cfi_offset 14, -4
  47 0004 83B0     		sub	sp, sp, #12
  48              	.LCFI1:
  49              		.cfi_def_cfa_offset 48
  50 0006 8046     		mov	r8, r0
 106:Middlewares/ST/usbx/common/usbx_host_classes/src/ux_host_class_storage_thread_entry.c **** 
 107:Middlewares/ST/usbx/common/usbx_host_classes/src/ux_host_class_storage_thread_entry.c **** UX_HOST_CLASS                   *class_inst;
  51              		.loc 1 107 1 is_stmt 1 view .LVU2
 108:Middlewares/ST/usbx/common/usbx_host_classes/src/ux_host_class_storage_thread_entry.c **** UX_HOST_CLASS_STORAGE           *storage;
  52              		.loc 1 108 1 view .LVU3
 109:Middlewares/ST/usbx/common/usbx_host_classes/src/ux_host_class_storage_thread_entry.c **** UINT                            status;
  53              		.loc 1 109 1 view .LVU4
 110:Middlewares/ST/usbx/common/usbx_host_classes/src/ux_host_class_storage_thread_entry.c **** ULONG                           lun_index;
  54              		.loc 1 110 1 view .LVU5
 111:Middlewares/ST/usbx/common/usbx_host_classes/src/ux_host_class_storage_thread_entry.c **** UX_HOST_CLASS_STORAGE_MEDIA     *storage_media;
  55              		.loc 1 111 1 view .LVU6
 112:Middlewares/ST/usbx/common/usbx_host_classes/src/ux_host_class_storage_thread_entry.c **** UINT                            media_index;
  56              		.loc 1 112 1 view .LVU7
 113:Middlewares/ST/usbx/common/usbx_host_classes/src/ux_host_class_storage_thread_entry.c **** #if !defined(UX_HOST_CLASS_STORAGE_NO_FILEX)
 114:Middlewares/ST/usbx/common/usbx_host_classes/src/ux_host_class_storage_thread_entry.c **** UX_MEDIA                        *media;
  57              		.loc 1 114 1 view .LVU8
 115:Middlewares/ST/usbx/common/usbx_host_classes/src/ux_host_class_storage_thread_entry.c **** UCHAR                           *memory;
ARM GAS  C:\Users\HP\AppData\Local\Temp\ccKwDlon.s 			page 4


  58              		.loc 1 115 1 view .LVU9
 116:Middlewares/ST/usbx/common/usbx_host_classes/src/ux_host_class_storage_thread_entry.c **** #endif
 117:Middlewares/ST/usbx/common/usbx_host_classes/src/ux_host_class_storage_thread_entry.c **** 
 118:Middlewares/ST/usbx/common/usbx_host_classes/src/ux_host_class_storage_thread_entry.c **** 
 119:Middlewares/ST/usbx/common/usbx_host_classes/src/ux_host_class_storage_thread_entry.c ****     /* Setup pointer to class.  */
 120:Middlewares/ST/usbx/common/usbx_host_classes/src/ux_host_class_storage_thread_entry.c ****     UX_THREAD_EXTENSION_PTR_GET(class_inst, UX_HOST_CLASS, class_address)
  59              		.loc 1 120 5 view .LVU10
  60              	.LVL1:
  61              		.loc 1 120 5 is_stmt 0 view .LVU11
  62 0008 38E0     		b	.L22
  63              	.LVL2:
  64              	.L7:
 121:Middlewares/ST/usbx/common/usbx_host_classes/src/ux_host_class_storage_thread_entry.c **** 
 122:Middlewares/ST/usbx/common/usbx_host_classes/src/ux_host_class_storage_thread_entry.c ****     /* This thread goes on forever once started.  */
 123:Middlewares/ST/usbx/common/usbx_host_classes/src/ux_host_class_storage_thread_entry.c ****     while(1)
 124:Middlewares/ST/usbx/common/usbx_host_classes/src/ux_host_class_storage_thread_entry.c ****     {
 125:Middlewares/ST/usbx/common/usbx_host_classes/src/ux_host_class_storage_thread_entry.c **** 
 126:Middlewares/ST/usbx/common/usbx_host_classes/src/ux_host_class_storage_thread_entry.c ****         /* We need to wake every 2 seconds or so.  */
 127:Middlewares/ST/usbx/common/usbx_host_classes/src/ux_host_class_storage_thread_entry.c ****         _ux_utility_delay_ms(UX_HOST_CLASS_STORAGE_THREAD_SLEEP_TIME);
 128:Middlewares/ST/usbx/common/usbx_host_classes/src/ux_host_class_storage_thread_entry.c **** 
 129:Middlewares/ST/usbx/common/usbx_host_classes/src/ux_host_class_storage_thread_entry.c ****         /* We need to parse all the storage instances and check for a removable
 130:Middlewares/ST/usbx/common/usbx_host_classes/src/ux_host_class_storage_thread_entry.c ****            media flag.  */
 131:Middlewares/ST/usbx/common/usbx_host_classes/src/ux_host_class_storage_thread_entry.c ****         storage =  (UX_HOST_CLASS_STORAGE *) class_inst -> ux_host_class_first_instance;
 132:Middlewares/ST/usbx/common/usbx_host_classes/src/ux_host_class_storage_thread_entry.c **** 
 133:Middlewares/ST/usbx/common/usbx_host_classes/src/ux_host_class_storage_thread_entry.c ****         while (storage != UX_NULL)
 134:Middlewares/ST/usbx/common/usbx_host_classes/src/ux_host_class_storage_thread_entry.c ****         {
 135:Middlewares/ST/usbx/common/usbx_host_classes/src/ux_host_class_storage_thread_entry.c **** 
 136:Middlewares/ST/usbx/common/usbx_host_classes/src/ux_host_class_storage_thread_entry.c ****             /* Check if the instance is live and the device is removable.  */
 137:Middlewares/ST/usbx/common/usbx_host_classes/src/ux_host_class_storage_thread_entry.c ****             if ((storage -> ux_host_class_storage_state == UX_HOST_CLASS_INSTANCE_LIVE))
 138:Middlewares/ST/usbx/common/usbx_host_classes/src/ux_host_class_storage_thread_entry.c ****             {
 139:Middlewares/ST/usbx/common/usbx_host_classes/src/ux_host_class_storage_thread_entry.c **** 
 140:Middlewares/ST/usbx/common/usbx_host_classes/src/ux_host_class_storage_thread_entry.c ****                 /* We need to ensure nobody is accessing this storage instance. We use
 141:Middlewares/ST/usbx/common/usbx_host_classes/src/ux_host_class_storage_thread_entry.c ****                    the storage class instance semaphore to protect.  */
 142:Middlewares/ST/usbx/common/usbx_host_classes/src/ux_host_class_storage_thread_entry.c ****                 status =  _ux_host_semaphore_get(&storage -> ux_host_class_storage_semaphore, UX_WA
 143:Middlewares/ST/usbx/common/usbx_host_classes/src/ux_host_class_storage_thread_entry.c ****                 if (status != UX_SUCCESS)
 144:Middlewares/ST/usbx/common/usbx_host_classes/src/ux_host_class_storage_thread_entry.c ****                     break;
 145:Middlewares/ST/usbx/common/usbx_host_classes/src/ux_host_class_storage_thread_entry.c **** 
 146:Middlewares/ST/usbx/common/usbx_host_classes/src/ux_host_class_storage_thread_entry.c ****                 /* Each LUN must be parsed and mounted.  */
 147:Middlewares/ST/usbx/common/usbx_host_classes/src/ux_host_class_storage_thread_entry.c ****                 for (lun_index = 0; lun_index <= storage -> ux_host_class_storage_max_lun; lun_inde
 148:Middlewares/ST/usbx/common/usbx_host_classes/src/ux_host_class_storage_thread_entry.c ****                 {
 149:Middlewares/ST/usbx/common/usbx_host_classes/src/ux_host_class_storage_thread_entry.c **** 
 150:Middlewares/ST/usbx/common/usbx_host_classes/src/ux_host_class_storage_thread_entry.c ****                     if (storage -> ux_host_class_storage_lun_removable_media_flags[lun_index] != UX
 151:Middlewares/ST/usbx/common/usbx_host_classes/src/ux_host_class_storage_thread_entry.c ****                         continue;
 152:Middlewares/ST/usbx/common/usbx_host_classes/src/ux_host_class_storage_thread_entry.c **** 
 153:Middlewares/ST/usbx/common/usbx_host_classes/src/ux_host_class_storage_thread_entry.c ****                     /* Check the type of LUN, we only deal with the ones we know how to mount.  */
 154:Middlewares/ST/usbx/common/usbx_host_classes/src/ux_host_class_storage_thread_entry.c ****                     if ((storage -> ux_host_class_storage_lun_types[lun_index] == UX_HOST_CLASS_STO
 155:Middlewares/ST/usbx/common/usbx_host_classes/src/ux_host_class_storage_thread_entry.c ****                         (storage -> ux_host_class_storage_lun_types[lun_index] == UX_HOST_CLASS_STO
 156:Middlewares/ST/usbx/common/usbx_host_classes/src/ux_host_class_storage_thread_entry.c ****                         (storage -> ux_host_class_storage_lun_types[lun_index] == UX_HOST_CLASS_STO
 157:Middlewares/ST/usbx/common/usbx_host_classes/src/ux_host_class_storage_thread_entry.c ****                     {
 158:Middlewares/ST/usbx/common/usbx_host_classes/src/ux_host_class_storage_thread_entry.c **** 
 159:Middlewares/ST/usbx/common/usbx_host_classes/src/ux_host_class_storage_thread_entry.c ****                         /* Set the LUN into the storage instance.  */
 160:Middlewares/ST/usbx/common/usbx_host_classes/src/ux_host_class_storage_thread_entry.c ****                         storage -> ux_host_class_storage_lun =  lun_index;
  65              		.loc 1 160 25 is_stmt 1 view .LVU12
  66              		.loc 1 160 62 is_stmt 0 view .LVU13
  67 000a C4F88050 		str	r5, [r4, #128]
 161:Middlewares/ST/usbx/common/usbx_host_classes/src/ux_host_class_storage_thread_entry.c **** 
 162:Middlewares/ST/usbx/common/usbx_host_classes/src/ux_host_class_storage_thread_entry.c ****                         /* Check if the device is now ready.  */
ARM GAS  C:\Users\HP\AppData\Local\Temp\ccKwDlon.s 			page 5


 163:Middlewares/ST/usbx/common/usbx_host_classes/src/ux_host_class_storage_thread_entry.c ****                         status =  _ux_host_class_storage_unit_ready_test(storage);
  68              		.loc 1 163 25 is_stmt 1 view .LVU14
  69              		.loc 1 163 35 is_stmt 0 view .LVU15
  70 000e 2046     		mov	r0, r4
  71 0010 FFF7FEFF 		bl	_ux_host_class_storage_unit_ready_test
  72              	.LVL3:
 164:Middlewares/ST/usbx/common/usbx_host_classes/src/ux_host_class_storage_thread_entry.c **** 
 165:Middlewares/ST/usbx/common/usbx_host_classes/src/ux_host_class_storage_thread_entry.c ****                         /* If we have an transport failure here, we are in trouble! The storage dev
 166:Middlewares/ST/usbx/common/usbx_host_classes/src/ux_host_class_storage_thread_entry.c ****                            is in an unstable state and should be reset completely.  */
 167:Middlewares/ST/usbx/common/usbx_host_classes/src/ux_host_class_storage_thread_entry.c ****                         if (status != UX_SUCCESS)
  73              		.loc 1 167 25 is_stmt 1 view .LVU16
  74              		.loc 1 167 28 is_stmt 0 view .LVU17
  75 0014 0646     		mov	r6, r0
  76 0016 E0B9     		cbnz	r0, .L24
 168:Middlewares/ST/usbx/common/usbx_host_classes/src/ux_host_class_storage_thread_entry.c ****                         {
 169:Middlewares/ST/usbx/common/usbx_host_classes/src/ux_host_class_storage_thread_entry.c **** 
 170:Middlewares/ST/usbx/common/usbx_host_classes/src/ux_host_class_storage_thread_entry.c ****                             /* Reset device.  */
 171:Middlewares/ST/usbx/common/usbx_host_classes/src/ux_host_class_storage_thread_entry.c ****                             _ux_host_class_storage_device_reset(storage);
 172:Middlewares/ST/usbx/common/usbx_host_classes/src/ux_host_class_storage_thread_entry.c ****                             break;
 173:Middlewares/ST/usbx/common/usbx_host_classes/src/ux_host_class_storage_thread_entry.c ****                         }
 174:Middlewares/ST/usbx/common/usbx_host_classes/src/ux_host_class_storage_thread_entry.c **** 
 175:Middlewares/ST/usbx/common/usbx_host_classes/src/ux_host_class_storage_thread_entry.c ****                         /* Process relative to device status.  */
 176:Middlewares/ST/usbx/common/usbx_host_classes/src/ux_host_class_storage_thread_entry.c ****                         switch(storage -> ux_host_class_storage_sense_code >> 16)
  77              		.loc 1 176 25 is_stmt 1 view .LVU18
  78              		.loc 1 176 76 is_stmt 0 view .LVU19
  79 0018 B4F89230 		ldrh	r3, [r4, #146]
  80              		.loc 1 176 25 view .LVU20
  81 001c 022B     		cmp	r3, #2
  82 001e 34D0     		beq	.L10
  83 0020 062B     		cmp	r3, #6
  84 0022 63D0     		beq	.L11
  85              	.LVL4:
  86              	.L6:
 147:Middlewares/ST/usbx/common/usbx_host_classes/src/ux_host_class_storage_thread_entry.c ****                 {
  87              		.loc 1 147 92 is_stmt 1 discriminator 2 view .LVU21
 147:Middlewares/ST/usbx/common/usbx_host_classes/src/ux_host_class_storage_thread_entry.c ****                 {
  88              		.loc 1 147 101 is_stmt 0 discriminator 2 view .LVU22
  89 0024 0135     		adds	r5, r5, #1
  90              	.LVL5:
  91              	.L5:
 147:Middlewares/ST/usbx/common/usbx_host_classes/src/ux_host_class_storage_thread_entry.c ****                 {
  92              		.loc 1 147 37 is_stmt 1 discriminator 1 view .LVU23
 147:Middlewares/ST/usbx/common/usbx_host_classes/src/ux_host_class_storage_thread_entry.c ****                 {
  93              		.loc 1 147 58 is_stmt 0 discriminator 1 view .LVU24
  94 0026 E36F     		ldr	r3, [r4, #124]
 147:Middlewares/ST/usbx/common/usbx_host_classes/src/ux_host_class_storage_thread_entry.c ****                 {
  95              		.loc 1 147 17 discriminator 1 view .LVU25
  96 0028 AB42     		cmp	r3, r5
  97 002a 15D3     		bcc	.L9
 150:Middlewares/ST/usbx/common/usbx_host_classes/src/ux_host_class_storage_thread_entry.c ****                         continue;
  98              		.loc 1 150 21 is_stmt 1 view .LVU26
 150:Middlewares/ST/usbx/common/usbx_host_classes/src/ux_host_class_storage_thread_entry.c ****                         continue;
  99              		.loc 1 150 83 is_stmt 0 view .LVU27
 100 002c 05F11C03 		add	r3, r5, #28
 101 0030 04EB8303 		add	r3, r4, r3, lsl #2
 102 0034 5B68     		ldr	r3, [r3, #4]
 150:Middlewares/ST/usbx/common/usbx_host_classes/src/ux_host_class_storage_thread_entry.c ****                         continue;
ARM GAS  C:\Users\HP\AppData\Local\Temp\ccKwDlon.s 			page 6


 103              		.loc 1 150 24 view .LVU28
 104 0036 802B     		cmp	r3, #128
 105 0038 F4D1     		bne	.L6
 154:Middlewares/ST/usbx/common/usbx_host_classes/src/ux_host_class_storage_thread_entry.c ****                         (storage -> ux_host_class_storage_lun_types[lun_index] == UX_HOST_CLASS_STO
 106              		.loc 1 154 21 is_stmt 1 view .LVU29
 154:Middlewares/ST/usbx/common/usbx_host_classes/src/ux_host_class_storage_thread_entry.c ****                         (storage -> ux_host_class_storage_lun_types[lun_index] == UX_HOST_CLASS_STO
 107              		.loc 1 154 68 is_stmt 0 view .LVU30
 108 003a 05F12003 		add	r3, r5, #32
 109 003e 04EB8303 		add	r3, r4, r3, lsl #2
 110 0042 5B68     		ldr	r3, [r3, #4]
 154:Middlewares/ST/usbx/common/usbx_host_classes/src/ux_host_class_storage_thread_entry.c ****                         (storage -> ux_host_class_storage_lun_types[lun_index] == UX_HOST_CLASS_STO
 111              		.loc 1 154 24 view .LVU31
 112 0044 002B     		cmp	r3, #0
 113 0046 E0D0     		beq	.L7
 154:Middlewares/ST/usbx/common/usbx_host_classes/src/ux_host_class_storage_thread_entry.c ****                         (storage -> ux_host_class_storage_lun_types[lun_index] == UX_HOST_CLASS_STO
 114              		.loc 1 154 121 discriminator 1 view .LVU32
 115 0048 072B     		cmp	r3, #7
 116 004a DED0     		beq	.L7
 155:Middlewares/ST/usbx/common/usbx_host_classes/src/ux_host_class_storage_thread_entry.c ****                         (storage -> ux_host_class_storage_lun_types[lun_index] == UX_HOST_CLASS_STO
 117              		.loc 1 155 125 view .LVU33
 118 004c 552B     		cmp	r3, #85
 119 004e E9D1     		bne	.L6
 120 0050 DBE7     		b	.L7
 121              	.LVL6:
 122              	.L24:
 171:Middlewares/ST/usbx/common/usbx_host_classes/src/ux_host_class_storage_thread_entry.c ****                             break;
 123              		.loc 1 171 29 is_stmt 1 view .LVU34
 124 0052 2046     		mov	r0, r4
 125              	.LVL7:
 171:Middlewares/ST/usbx/common/usbx_host_classes/src/ux_host_class_storage_thread_entry.c ****                             break;
 126              		.loc 1 171 29 is_stmt 0 view .LVU35
 127 0054 FFF7FEFF 		bl	_ux_host_class_storage_device_reset
 128              	.LVL8:
 172:Middlewares/ST/usbx/common/usbx_host_classes/src/ux_host_class_storage_thread_entry.c ****                         }
 129              		.loc 1 172 29 is_stmt 1 view .LVU36
 130              	.L9:
 177:Middlewares/ST/usbx/common/usbx_host_classes/src/ux_host_class_storage_thread_entry.c ****                         {
 178:Middlewares/ST/usbx/common/usbx_host_classes/src/ux_host_class_storage_thread_entry.c **** 
 179:Middlewares/ST/usbx/common/usbx_host_classes/src/ux_host_class_storage_thread_entry.c ****                         case UX_HOST_CLASS_STORAGE_SENSE_KEY_NOT_READY:
 180:Middlewares/ST/usbx/common/usbx_host_classes/src/ux_host_class_storage_thread_entry.c **** 
 181:Middlewares/ST/usbx/common/usbx_host_classes/src/ux_host_class_storage_thread_entry.c ****                             /* We may need to unmount this partition if it was mounted before.
 182:Middlewares/ST/usbx/common/usbx_host_classes/src/ux_host_class_storage_thread_entry.c ****                                To do so, we need to parse the existing media instance and find out
 183:Middlewares/ST/usbx/common/usbx_host_classes/src/ux_host_class_storage_thread_entry.c ****                                if this partition was already mounted.  */
 184:Middlewares/ST/usbx/common/usbx_host_classes/src/ux_host_class_storage_thread_entry.c **** 
 185:Middlewares/ST/usbx/common/usbx_host_classes/src/ux_host_class_storage_thread_entry.c ****                             storage_media = (UX_HOST_CLASS_STORAGE_MEDIA *) class_inst -> ux_host_c
 186:Middlewares/ST/usbx/common/usbx_host_classes/src/ux_host_class_storage_thread_entry.c **** 
 187:Middlewares/ST/usbx/common/usbx_host_classes/src/ux_host_class_storage_thread_entry.c ****                             /* Scan all instances of media.  */
 188:Middlewares/ST/usbx/common/usbx_host_classes/src/ux_host_class_storage_thread_entry.c ****                             for (media_index = 0; media_index < UX_HOST_CLASS_STORAGE_MAX_MEDIA;
 189:Middlewares/ST/usbx/common/usbx_host_classes/src/ux_host_class_storage_thread_entry.c ****                                 storage_media++, media_index++)
 190:Middlewares/ST/usbx/common/usbx_host_classes/src/ux_host_class_storage_thread_entry.c ****                             {
 191:Middlewares/ST/usbx/common/usbx_host_classes/src/ux_host_class_storage_thread_entry.c **** #if !defined(UX_HOST_CLASS_STORAGE_NO_FILEX)
 192:Middlewares/ST/usbx/common/usbx_host_classes/src/ux_host_class_storage_thread_entry.c ****                                 /* Get the UX_MEDIA (default FileX) Media attached to this media.  
 193:Middlewares/ST/usbx/common/usbx_host_classes/src/ux_host_class_storage_thread_entry.c ****                                 media =  &storage_media -> ux_host_class_storage_media;
 194:Middlewares/ST/usbx/common/usbx_host_classes/src/ux_host_class_storage_thread_entry.c **** 
 195:Middlewares/ST/usbx/common/usbx_host_classes/src/ux_host_class_storage_thread_entry.c ****                                 /* Check for the storage instance and lun number.  */
 196:Middlewares/ST/usbx/common/usbx_host_classes/src/ux_host_class_storage_thread_entry.c ****                                 if ((ux_media_id_get(media) != 0) && (ux_media_driver_info_get(medi
 197:Middlewares/ST/usbx/common/usbx_host_classes/src/ux_host_class_storage_thread_entry.c ****                                     (storage_media -> ux_host_class_storage_media_lun == storage ->
ARM GAS  C:\Users\HP\AppData\Local\Temp\ccKwDlon.s 			page 7


 198:Middlewares/ST/usbx/common/usbx_host_classes/src/ux_host_class_storage_thread_entry.c ****                                 {
 199:Middlewares/ST/usbx/common/usbx_host_classes/src/ux_host_class_storage_thread_entry.c **** 
 200:Middlewares/ST/usbx/common/usbx_host_classes/src/ux_host_class_storage_thread_entry.c ****                                     /* We preserve the memory used by this media.  */
 201:Middlewares/ST/usbx/common/usbx_host_classes/src/ux_host_class_storage_thread_entry.c ****                                     memory =  storage_media -> ux_host_class_storage_media_memory;
 202:Middlewares/ST/usbx/common/usbx_host_classes/src/ux_host_class_storage_thread_entry.c **** 
 203:Middlewares/ST/usbx/common/usbx_host_classes/src/ux_host_class_storage_thread_entry.c ****                                     /* Let UX_MEDIA (default FileX) use this instance.  */
 204:Middlewares/ST/usbx/common/usbx_host_classes/src/ux_host_class_storage_thread_entry.c ****                                     _ux_host_semaphore_put(&storage -> ux_host_class_storage_semaph
 205:Middlewares/ST/usbx/common/usbx_host_classes/src/ux_host_class_storage_thread_entry.c **** 
 206:Middlewares/ST/usbx/common/usbx_host_classes/src/ux_host_class_storage_thread_entry.c ****                                     /* Ask UX_MEDIA (default FileX) to unmount the partition.  */
 207:Middlewares/ST/usbx/common/usbx_host_classes/src/ux_host_class_storage_thread_entry.c ****                                     ux_media_close(media);
 208:Middlewares/ST/usbx/common/usbx_host_classes/src/ux_host_class_storage_thread_entry.c **** 
 209:Middlewares/ST/usbx/common/usbx_host_classes/src/ux_host_class_storage_thread_entry.c ****                                     /* This device is now unmounted.  */
 210:Middlewares/ST/usbx/common/usbx_host_classes/src/ux_host_class_storage_thread_entry.c ****                                     storage_media -> ux_host_class_storage_media_status = UX_HOST_C
 211:Middlewares/ST/usbx/common/usbx_host_classes/src/ux_host_class_storage_thread_entry.c **** 
 212:Middlewares/ST/usbx/common/usbx_host_classes/src/ux_host_class_storage_thread_entry.c ****                                     /* Reset the media ID.  */
 213:Middlewares/ST/usbx/common/usbx_host_classes/src/ux_host_class_storage_thread_entry.c ****                                     ux_media_id_set(media, 0);
 214:Middlewares/ST/usbx/common/usbx_host_classes/src/ux_host_class_storage_thread_entry.c **** 
 215:Middlewares/ST/usbx/common/usbx_host_classes/src/ux_host_class_storage_thread_entry.c ****                                     /* Now, we protect the storage instance.  */
 216:Middlewares/ST/usbx/common/usbx_host_classes/src/ux_host_class_storage_thread_entry.c ****                                     status =  _ux_host_semaphore_get(&storage -> ux_host_class_stor
 217:Middlewares/ST/usbx/common/usbx_host_classes/src/ux_host_class_storage_thread_entry.c ****                                     if (status != UX_SUCCESS)
 218:Middlewares/ST/usbx/common/usbx_host_classes/src/ux_host_class_storage_thread_entry.c ****                                         break;
 219:Middlewares/ST/usbx/common/usbx_host_classes/src/ux_host_class_storage_thread_entry.c **** 
 220:Middlewares/ST/usbx/common/usbx_host_classes/src/ux_host_class_storage_thread_entry.c ****                                     /* Free the memory block used for data transfer on behalf of UX
 221:Middlewares/ST/usbx/common/usbx_host_classes/src/ux_host_class_storage_thread_entry.c ****                                     _ux_utility_memory_free(memory);
 222:Middlewares/ST/usbx/common/usbx_host_classes/src/ux_host_class_storage_thread_entry.c ****                                 }
 223:Middlewares/ST/usbx/common/usbx_host_classes/src/ux_host_class_storage_thread_entry.c **** #else
 224:Middlewares/ST/usbx/common/usbx_host_classes/src/ux_host_class_storage_thread_entry.c **** 
 225:Middlewares/ST/usbx/common/usbx_host_classes/src/ux_host_class_storage_thread_entry.c ****                                 /* Check storage instance and lun number.  */
 226:Middlewares/ST/usbx/common/usbx_host_classes/src/ux_host_class_storage_thread_entry.c ****                                 if (storage_media -> ux_host_class_storage_media_status != UX_USED)
 227:Middlewares/ST/usbx/common/usbx_host_classes/src/ux_host_class_storage_thread_entry.c ****                                     continue;
 228:Middlewares/ST/usbx/common/usbx_host_classes/src/ux_host_class_storage_thread_entry.c ****                                 if (storage_media -> ux_host_class_storage_media_storage != storage
 229:Middlewares/ST/usbx/common/usbx_host_classes/src/ux_host_class_storage_thread_entry.c ****                                     continue;
 230:Middlewares/ST/usbx/common/usbx_host_classes/src/ux_host_class_storage_thread_entry.c ****                                 if (storage_media -> ux_host_class_storage_media_lun != storage -> 
 231:Middlewares/ST/usbx/common/usbx_host_classes/src/ux_host_class_storage_thread_entry.c ****                                     continue;
 232:Middlewares/ST/usbx/common/usbx_host_classes/src/ux_host_class_storage_thread_entry.c **** 
 233:Middlewares/ST/usbx/common/usbx_host_classes/src/ux_host_class_storage_thread_entry.c ****                                 /* Release the instance.  */
 234:Middlewares/ST/usbx/common/usbx_host_classes/src/ux_host_class_storage_thread_entry.c ****                                 status = _ux_host_semaphore_put_rc(&storage -> ux_host_class_storag
 235:Middlewares/ST/usbx/common/usbx_host_classes/src/ux_host_class_storage_thread_entry.c **** 
 236:Middlewares/ST/usbx/common/usbx_host_classes/src/ux_host_class_storage_thread_entry.c ****                                 /* Free the storage media.  */
 237:Middlewares/ST/usbx/common/usbx_host_classes/src/ux_host_class_storage_thread_entry.c ****                                 storage_media -> ux_host_class_storage_media_status = UX_UNUSED;
 238:Middlewares/ST/usbx/common/usbx_host_classes/src/ux_host_class_storage_thread_entry.c **** 
 239:Middlewares/ST/usbx/common/usbx_host_classes/src/ux_host_class_storage_thread_entry.c ****                                 /* Invoke callback for media removal.  */
 240:Middlewares/ST/usbx/common/usbx_host_classes/src/ux_host_class_storage_thread_entry.c ****                                 if (_ux_system_host -> ux_system_host_change_function != UX_NULL)
 241:Middlewares/ST/usbx/common/usbx_host_classes/src/ux_host_class_storage_thread_entry.c ****                                 {
 242:Middlewares/ST/usbx/common/usbx_host_classes/src/ux_host_class_storage_thread_entry.c **** 
 243:Middlewares/ST/usbx/common/usbx_host_classes/src/ux_host_class_storage_thread_entry.c ****                                     /* Call system change function.  */
 244:Middlewares/ST/usbx/common/usbx_host_classes/src/ux_host_class_storage_thread_entry.c ****                                     _ux_system_host ->  ux_system_host_change_function(UX_STORAGE_M
 245:Middlewares/ST/usbx/common/usbx_host_classes/src/ux_host_class_storage_thread_entry.c ****                                                         storage -> ux_host_class_storage_class, (VO
 246:Middlewares/ST/usbx/common/usbx_host_classes/src/ux_host_class_storage_thread_entry.c ****                                 }
 247:Middlewares/ST/usbx/common/usbx_host_classes/src/ux_host_class_storage_thread_entry.c **** 
 248:Middlewares/ST/usbx/common/usbx_host_classes/src/ux_host_class_storage_thread_entry.c ****                                 /* Now, we protect the storage instance.  */
 249:Middlewares/ST/usbx/common/usbx_host_classes/src/ux_host_class_storage_thread_entry.c ****                                 status =  _ux_host_semaphore_get(&storage -> ux_host_class_storage_
 250:Middlewares/ST/usbx/common/usbx_host_classes/src/ux_host_class_storage_thread_entry.c ****                                 if (status != UX_SUCCESS)
 251:Middlewares/ST/usbx/common/usbx_host_classes/src/ux_host_class_storage_thread_entry.c ****                                     break;
 252:Middlewares/ST/usbx/common/usbx_host_classes/src/ux_host_class_storage_thread_entry.c **** #endif
 253:Middlewares/ST/usbx/common/usbx_host_classes/src/ux_host_class_storage_thread_entry.c ****                             }
 254:Middlewares/ST/usbx/common/usbx_host_classes/src/ux_host_class_storage_thread_entry.c ****                             break;
ARM GAS  C:\Users\HP\AppData\Local\Temp\ccKwDlon.s 			page 8


 255:Middlewares/ST/usbx/common/usbx_host_classes/src/ux_host_class_storage_thread_entry.c **** 
 256:Middlewares/ST/usbx/common/usbx_host_classes/src/ux_host_class_storage_thread_entry.c ****                             case UX_HOST_CLASS_STORAGE_SENSE_KEY_UNIT_ATTENTION:
 257:Middlewares/ST/usbx/common/usbx_host_classes/src/ux_host_class_storage_thread_entry.c **** 
 258:Middlewares/ST/usbx/common/usbx_host_classes/src/ux_host_class_storage_thread_entry.c ****                                 /* We may need to unmount this partition if it was mounted before.
 259:Middlewares/ST/usbx/common/usbx_host_classes/src/ux_host_class_storage_thread_entry.c ****                                    To do so, we need to parse the existing media instance and find 
 260:Middlewares/ST/usbx/common/usbx_host_classes/src/ux_host_class_storage_thread_entry.c ****                                    if this partition was already mounted.  */
 261:Middlewares/ST/usbx/common/usbx_host_classes/src/ux_host_class_storage_thread_entry.c ****                                 storage_media = (UX_HOST_CLASS_STORAGE_MEDIA *) class_inst -> ux_ho
 262:Middlewares/ST/usbx/common/usbx_host_classes/src/ux_host_class_storage_thread_entry.c **** 
 263:Middlewares/ST/usbx/common/usbx_host_classes/src/ux_host_class_storage_thread_entry.c ****                                 /* Scan all instances of media.   */
 264:Middlewares/ST/usbx/common/usbx_host_classes/src/ux_host_class_storage_thread_entry.c ****                                 for (media_index = 0; media_index < UX_HOST_CLASS_STORAGE_MAX_MEDIA
 265:Middlewares/ST/usbx/common/usbx_host_classes/src/ux_host_class_storage_thread_entry.c ****                                     storage_media++, media_index++)
 266:Middlewares/ST/usbx/common/usbx_host_classes/src/ux_host_class_storage_thread_entry.c ****                                 {
 267:Middlewares/ST/usbx/common/usbx_host_classes/src/ux_host_class_storage_thread_entry.c **** 
 268:Middlewares/ST/usbx/common/usbx_host_classes/src/ux_host_class_storage_thread_entry.c **** #if !defined(UX_HOST_CLASS_STORAGE_NO_FILEX)
 269:Middlewares/ST/usbx/common/usbx_host_classes/src/ux_host_class_storage_thread_entry.c ****                                     /* Get the UX_MEDIA (default FileX) Media attached to this medi
 270:Middlewares/ST/usbx/common/usbx_host_classes/src/ux_host_class_storage_thread_entry.c ****                                     media = &storage_media -> ux_host_class_storage_media;
 271:Middlewares/ST/usbx/common/usbx_host_classes/src/ux_host_class_storage_thread_entry.c **** 
 272:Middlewares/ST/usbx/common/usbx_host_classes/src/ux_host_class_storage_thread_entry.c ****                                     /* Check for the storage instance and lun number. */
 273:Middlewares/ST/usbx/common/usbx_host_classes/src/ux_host_class_storage_thread_entry.c ****                                     if ((ux_media_id_get(media) != 0) && (ux_media_driver_info_get(
 274:Middlewares/ST/usbx/common/usbx_host_classes/src/ux_host_class_storage_thread_entry.c ****                                             (storage_media -> ux_host_class_storage_media_lun == st
 275:Middlewares/ST/usbx/common/usbx_host_classes/src/ux_host_class_storage_thread_entry.c ****                                     {
 276:Middlewares/ST/usbx/common/usbx_host_classes/src/ux_host_class_storage_thread_entry.c **** 
 277:Middlewares/ST/usbx/common/usbx_host_classes/src/ux_host_class_storage_thread_entry.c ****                                         /* We preserve the memory used by this media.  */
 278:Middlewares/ST/usbx/common/usbx_host_classes/src/ux_host_class_storage_thread_entry.c ****                                         memory =  storage_media -> ux_host_class_storage_media_memo
 279:Middlewares/ST/usbx/common/usbx_host_classes/src/ux_host_class_storage_thread_entry.c **** 
 280:Middlewares/ST/usbx/common/usbx_host_classes/src/ux_host_class_storage_thread_entry.c ****                                         /* Let UX_MEDIA (default FileX) use this instance.  */
 281:Middlewares/ST/usbx/common/usbx_host_classes/src/ux_host_class_storage_thread_entry.c ****                                         _ux_host_semaphore_put(&storage -> ux_host_class_storage_se
 282:Middlewares/ST/usbx/common/usbx_host_classes/src/ux_host_class_storage_thread_entry.c **** 
 283:Middlewares/ST/usbx/common/usbx_host_classes/src/ux_host_class_storage_thread_entry.c ****                                         /* Ask UX_MEDIA (default FileX) to unmount the partition.  
 284:Middlewares/ST/usbx/common/usbx_host_classes/src/ux_host_class_storage_thread_entry.c ****                                         ux_media_close(media);
 285:Middlewares/ST/usbx/common/usbx_host_classes/src/ux_host_class_storage_thread_entry.c **** 
 286:Middlewares/ST/usbx/common/usbx_host_classes/src/ux_host_class_storage_thread_entry.c ****                                         /* This device is now unmounted.  */
 287:Middlewares/ST/usbx/common/usbx_host_classes/src/ux_host_class_storage_thread_entry.c ****                                         storage_media -> ux_host_class_storage_media_status =  UX_H
 288:Middlewares/ST/usbx/common/usbx_host_classes/src/ux_host_class_storage_thread_entry.c **** 
 289:Middlewares/ST/usbx/common/usbx_host_classes/src/ux_host_class_storage_thread_entry.c ****                                         /* Reset the media ID.  */
 290:Middlewares/ST/usbx/common/usbx_host_classes/src/ux_host_class_storage_thread_entry.c ****                                         ux_media_id_set(media, 0);
 291:Middlewares/ST/usbx/common/usbx_host_classes/src/ux_host_class_storage_thread_entry.c **** 
 292:Middlewares/ST/usbx/common/usbx_host_classes/src/ux_host_class_storage_thread_entry.c ****                                         /* Now, we protect the storage instance.  */
 293:Middlewares/ST/usbx/common/usbx_host_classes/src/ux_host_class_storage_thread_entry.c ****                                         status =  _ux_host_semaphore_get(&storage -> ux_host_class_
 294:Middlewares/ST/usbx/common/usbx_host_classes/src/ux_host_class_storage_thread_entry.c ****                                         if (status != UX_SUCCESS)
 295:Middlewares/ST/usbx/common/usbx_host_classes/src/ux_host_class_storage_thread_entry.c ****                                             break;
 296:Middlewares/ST/usbx/common/usbx_host_classes/src/ux_host_class_storage_thread_entry.c **** 
 297:Middlewares/ST/usbx/common/usbx_host_classes/src/ux_host_class_storage_thread_entry.c ****                                         /* Free the memory block used for data transfer on behalf o
 298:Middlewares/ST/usbx/common/usbx_host_classes/src/ux_host_class_storage_thread_entry.c ****                                         _ux_utility_memory_free(memory);
 299:Middlewares/ST/usbx/common/usbx_host_classes/src/ux_host_class_storage_thread_entry.c ****                                     }
 300:Middlewares/ST/usbx/common/usbx_host_classes/src/ux_host_class_storage_thread_entry.c **** #else
 301:Middlewares/ST/usbx/common/usbx_host_classes/src/ux_host_class_storage_thread_entry.c **** 
 302:Middlewares/ST/usbx/common/usbx_host_classes/src/ux_host_class_storage_thread_entry.c ****                                     /* Check storage instance and lun number.  */
 303:Middlewares/ST/usbx/common/usbx_host_classes/src/ux_host_class_storage_thread_entry.c ****                                     if (storage_media -> ux_host_class_storage_media_status != UX_U
 304:Middlewares/ST/usbx/common/usbx_host_classes/src/ux_host_class_storage_thread_entry.c ****                                         continue;
 305:Middlewares/ST/usbx/common/usbx_host_classes/src/ux_host_class_storage_thread_entry.c ****                                     if (storage_media -> ux_host_class_storage_media_storage != sto
 306:Middlewares/ST/usbx/common/usbx_host_classes/src/ux_host_class_storage_thread_entry.c ****                                         continue;
 307:Middlewares/ST/usbx/common/usbx_host_classes/src/ux_host_class_storage_thread_entry.c ****                                     if (storage_media -> ux_host_class_storage_media_lun != storage
 308:Middlewares/ST/usbx/common/usbx_host_classes/src/ux_host_class_storage_thread_entry.c ****                                         continue;
 309:Middlewares/ST/usbx/common/usbx_host_classes/src/ux_host_class_storage_thread_entry.c **** 
 310:Middlewares/ST/usbx/common/usbx_host_classes/src/ux_host_class_storage_thread_entry.c ****                                     /* Release the instance.  */
 311:Middlewares/ST/usbx/common/usbx_host_classes/src/ux_host_class_storage_thread_entry.c ****                                     status = _ux_host_semaphore_put_rc(&storage -> ux_host_class_st
ARM GAS  C:\Users\HP\AppData\Local\Temp\ccKwDlon.s 			page 9


 312:Middlewares/ST/usbx/common/usbx_host_classes/src/ux_host_class_storage_thread_entry.c **** 
 313:Middlewares/ST/usbx/common/usbx_host_classes/src/ux_host_class_storage_thread_entry.c ****                                     /* Free the storage media.  */
 314:Middlewares/ST/usbx/common/usbx_host_classes/src/ux_host_class_storage_thread_entry.c ****                                     storage_media -> ux_host_class_storage_media_status = UX_UNUSED
 315:Middlewares/ST/usbx/common/usbx_host_classes/src/ux_host_class_storage_thread_entry.c **** 
 316:Middlewares/ST/usbx/common/usbx_host_classes/src/ux_host_class_storage_thread_entry.c ****                                     /* Invoke callback for media removal.  */
 317:Middlewares/ST/usbx/common/usbx_host_classes/src/ux_host_class_storage_thread_entry.c ****                                     if (_ux_system_host -> ux_system_host_change_function != UX_NUL
 318:Middlewares/ST/usbx/common/usbx_host_classes/src/ux_host_class_storage_thread_entry.c ****                                     {
 319:Middlewares/ST/usbx/common/usbx_host_classes/src/ux_host_class_storage_thread_entry.c **** 
 320:Middlewares/ST/usbx/common/usbx_host_classes/src/ux_host_class_storage_thread_entry.c ****                                         /* Call system change function.  */
 321:Middlewares/ST/usbx/common/usbx_host_classes/src/ux_host_class_storage_thread_entry.c ****                                         _ux_system_host ->  ux_system_host_change_function(UX_STORA
 322:Middlewares/ST/usbx/common/usbx_host_classes/src/ux_host_class_storage_thread_entry.c ****                                                             storage -> ux_host_class_storage_class,
 323:Middlewares/ST/usbx/common/usbx_host_classes/src/ux_host_class_storage_thread_entry.c ****                                     }
 324:Middlewares/ST/usbx/common/usbx_host_classes/src/ux_host_class_storage_thread_entry.c **** 
 325:Middlewares/ST/usbx/common/usbx_host_classes/src/ux_host_class_storage_thread_entry.c ****                                     /* Now, we protect the storage instance.  */
 326:Middlewares/ST/usbx/common/usbx_host_classes/src/ux_host_class_storage_thread_entry.c ****                                     status =  _ux_host_semaphore_get(&storage -> ux_host_class_stor
 327:Middlewares/ST/usbx/common/usbx_host_classes/src/ux_host_class_storage_thread_entry.c ****                                     if (status != UX_SUCCESS)
 328:Middlewares/ST/usbx/common/usbx_host_classes/src/ux_host_class_storage_thread_entry.c ****                                         break;
 329:Middlewares/ST/usbx/common/usbx_host_classes/src/ux_host_class_storage_thread_entry.c **** #endif
 330:Middlewares/ST/usbx/common/usbx_host_classes/src/ux_host_class_storage_thread_entry.c ****                                 }
 331:Middlewares/ST/usbx/common/usbx_host_classes/src/ux_host_class_storage_thread_entry.c **** 
 332:Middlewares/ST/usbx/common/usbx_host_classes/src/ux_host_class_storage_thread_entry.c ****                                 /* Now, we need to retest the media to see if it is there.  */
 333:Middlewares/ST/usbx/common/usbx_host_classes/src/ux_host_class_storage_thread_entry.c ****                                 status =  _ux_host_class_storage_unit_ready_test(storage);
 334:Middlewares/ST/usbx/common/usbx_host_classes/src/ux_host_class_storage_thread_entry.c **** 
 335:Middlewares/ST/usbx/common/usbx_host_classes/src/ux_host_class_storage_thread_entry.c ****                                 /* If we have an transport failure here, we are in trouble! The sto
 336:Middlewares/ST/usbx/common/usbx_host_classes/src/ux_host_class_storage_thread_entry.c ****                                    is in an unstable state and should be reset completely.  */
 337:Middlewares/ST/usbx/common/usbx_host_classes/src/ux_host_class_storage_thread_entry.c ****                                 if (status != UX_SUCCESS)
 338:Middlewares/ST/usbx/common/usbx_host_classes/src/ux_host_class_storage_thread_entry.c ****                                 {
 339:Middlewares/ST/usbx/common/usbx_host_classes/src/ux_host_class_storage_thread_entry.c **** 
 340:Middlewares/ST/usbx/common/usbx_host_classes/src/ux_host_class_storage_thread_entry.c ****                                     /* Reset device.  */
 341:Middlewares/ST/usbx/common/usbx_host_classes/src/ux_host_class_storage_thread_entry.c ****                                     _ux_host_class_storage_device_reset(storage);
 342:Middlewares/ST/usbx/common/usbx_host_classes/src/ux_host_class_storage_thread_entry.c ****                                     break;
 343:Middlewares/ST/usbx/common/usbx_host_classes/src/ux_host_class_storage_thread_entry.c ****                                 }
 344:Middlewares/ST/usbx/common/usbx_host_classes/src/ux_host_class_storage_thread_entry.c **** 
 345:Middlewares/ST/usbx/common/usbx_host_classes/src/ux_host_class_storage_thread_entry.c ****                                 if (storage -> ux_host_class_storage_sense_code == 0)
 346:Middlewares/ST/usbx/common/usbx_host_classes/src/ux_host_class_storage_thread_entry.c ****                                 {
 347:Middlewares/ST/usbx/common/usbx_host_classes/src/ux_host_class_storage_thread_entry.c **** 
 348:Middlewares/ST/usbx/common/usbx_host_classes/src/ux_host_class_storage_thread_entry.c ****                                     /* Get the media type supported by this storage device.  */
 349:Middlewares/ST/usbx/common/usbx_host_classes/src/ux_host_class_storage_thread_entry.c ****                                     status =  _ux_host_class_storage_media_characteristics_get(stor
 350:Middlewares/ST/usbx/common/usbx_host_classes/src/ux_host_class_storage_thread_entry.c ****                                     if (status != UX_SUCCESS)
 351:Middlewares/ST/usbx/common/usbx_host_classes/src/ux_host_class_storage_thread_entry.c ****                                         break;
 352:Middlewares/ST/usbx/common/usbx_host_classes/src/ux_host_class_storage_thread_entry.c **** 
 353:Middlewares/ST/usbx/common/usbx_host_classes/src/ux_host_class_storage_thread_entry.c ****                                     /* Get the format capacity of this storage device.  */
 354:Middlewares/ST/usbx/common/usbx_host_classes/src/ux_host_class_storage_thread_entry.c ****                                     status =  _ux_host_class_storage_media_format_capacity_get(stor
 355:Middlewares/ST/usbx/common/usbx_host_classes/src/ux_host_class_storage_thread_entry.c ****                                     if (status != UX_SUCCESS)
 356:Middlewares/ST/usbx/common/usbx_host_classes/src/ux_host_class_storage_thread_entry.c ****                                         break;
 357:Middlewares/ST/usbx/common/usbx_host_classes/src/ux_host_class_storage_thread_entry.c **** 
 358:Middlewares/ST/usbx/common/usbx_host_classes/src/ux_host_class_storage_thread_entry.c ****                                     /* Let UX_MEDIA (default FileX) use this instance.  */
 359:Middlewares/ST/usbx/common/usbx_host_classes/src/ux_host_class_storage_thread_entry.c ****                                     _ux_host_semaphore_put(&storage -> ux_host_class_storage_semaph
 360:Middlewares/ST/usbx/common/usbx_host_classes/src/ux_host_class_storage_thread_entry.c **** 
 361:Middlewares/ST/usbx/common/usbx_host_classes/src/ux_host_class_storage_thread_entry.c **** #if !defined(UX_HOST_CLASS_STORAGE_NO_FILEX)
 362:Middlewares/ST/usbx/common/usbx_host_classes/src/ux_host_class_storage_thread_entry.c **** 
 363:Middlewares/ST/usbx/common/usbx_host_classes/src/ux_host_class_storage_thread_entry.c ****                                     /* The device seems to have been inserted, try to mount it.  */
 364:Middlewares/ST/usbx/common/usbx_host_classes/src/ux_host_class_storage_thread_entry.c ****                                     _ux_host_class_storage_media_mount(storage, 0);
 365:Middlewares/ST/usbx/common/usbx_host_classes/src/ux_host_class_storage_thread_entry.c **** #else
 366:Middlewares/ST/usbx/common/usbx_host_classes/src/ux_host_class_storage_thread_entry.c **** 
 367:Middlewares/ST/usbx/common/usbx_host_classes/src/ux_host_class_storage_thread_entry.c ****                                     /* Find a free media slot for inserted media.  */
 368:Middlewares/ST/usbx/common/usbx_host_classes/src/ux_host_class_storage_thread_entry.c ****                                     storage_media =  (UX_HOST_CLASS_STORAGE_MEDIA *) class_inst -> 
ARM GAS  C:\Users\HP\AppData\Local\Temp\ccKwDlon.s 			page 10


 369:Middlewares/ST/usbx/common/usbx_host_classes/src/ux_host_class_storage_thread_entry.c ****                                     for (media_index = 0; media_index < UX_HOST_CLASS_STORAGE_MAX_M
 370:Middlewares/ST/usbx/common/usbx_host_classes/src/ux_host_class_storage_thread_entry.c ****                                         storage_media ++, media_index ++)
 371:Middlewares/ST/usbx/common/usbx_host_classes/src/ux_host_class_storage_thread_entry.c ****                                     {
 372:Middlewares/ST/usbx/common/usbx_host_classes/src/ux_host_class_storage_thread_entry.c **** 
 373:Middlewares/ST/usbx/common/usbx_host_classes/src/ux_host_class_storage_thread_entry.c ****                                         /* Skip used storage media slots.  */
 374:Middlewares/ST/usbx/common/usbx_host_classes/src/ux_host_class_storage_thread_entry.c ****                                         if (storage_media -> ux_host_class_storage_media_status == 
 375:Middlewares/ST/usbx/common/usbx_host_classes/src/ux_host_class_storage_thread_entry.c ****                                             continue;
 376:Middlewares/ST/usbx/common/usbx_host_classes/src/ux_host_class_storage_thread_entry.c **** 
 377:Middlewares/ST/usbx/common/usbx_host_classes/src/ux_host_class_storage_thread_entry.c ****                                         /* Use this free storage media slot.  */
 378:Middlewares/ST/usbx/common/usbx_host_classes/src/ux_host_class_storage_thread_entry.c ****                                         storage_media -> ux_host_class_storage_media_status = UX_US
 379:Middlewares/ST/usbx/common/usbx_host_classes/src/ux_host_class_storage_thread_entry.c ****                                         storage_media -> ux_host_class_storage_media_storage = stor
 380:Middlewares/ST/usbx/common/usbx_host_classes/src/ux_host_class_storage_thread_entry.c **** 
 381:Middlewares/ST/usbx/common/usbx_host_classes/src/ux_host_class_storage_thread_entry.c ****                                         /* Save media information.  */
 382:Middlewares/ST/usbx/common/usbx_host_classes/src/ux_host_class_storage_thread_entry.c ****                                         storage_media -> ux_host_class_storage_media_lun = (UCHAR)s
 383:Middlewares/ST/usbx/common/usbx_host_classes/src/ux_host_class_storage_thread_entry.c ****                                         storage_media -> ux_host_class_storage_media_sector_size = 
 384:Middlewares/ST/usbx/common/usbx_host_classes/src/ux_host_class_storage_thread_entry.c ****                                         storage_media -> ux_host_class_storage_media_number_sectors
 385:Middlewares/ST/usbx/common/usbx_host_classes/src/ux_host_class_storage_thread_entry.c **** 
 386:Middlewares/ST/usbx/common/usbx_host_classes/src/ux_host_class_storage_thread_entry.c ****                                         /* Invoke callback for media insertion.  */
 387:Middlewares/ST/usbx/common/usbx_host_classes/src/ux_host_class_storage_thread_entry.c ****                                         if (_ux_system_host -> ux_system_host_change_function != UX
 388:Middlewares/ST/usbx/common/usbx_host_classes/src/ux_host_class_storage_thread_entry.c ****                                         {
 389:Middlewares/ST/usbx/common/usbx_host_classes/src/ux_host_class_storage_thread_entry.c **** 
 390:Middlewares/ST/usbx/common/usbx_host_classes/src/ux_host_class_storage_thread_entry.c ****                                             /* Call system change function.  */
 391:Middlewares/ST/usbx/common/usbx_host_classes/src/ux_host_class_storage_thread_entry.c ****                                             _ux_system_host ->  ux_system_host_change_function(UX_S
 392:Middlewares/ST/usbx/common/usbx_host_classes/src/ux_host_class_storage_thread_entry.c ****                                                                 storage -> ux_host_class_storage_cl
 393:Middlewares/ST/usbx/common/usbx_host_classes/src/ux_host_class_storage_thread_entry.c ****                                         }
 394:Middlewares/ST/usbx/common/usbx_host_classes/src/ux_host_class_storage_thread_entry.c ****                                     }
 395:Middlewares/ST/usbx/common/usbx_host_classes/src/ux_host_class_storage_thread_entry.c **** #endif
 396:Middlewares/ST/usbx/common/usbx_host_classes/src/ux_host_class_storage_thread_entry.c **** 
 397:Middlewares/ST/usbx/common/usbx_host_classes/src/ux_host_class_storage_thread_entry.c ****                                     /* Now, we protect the storage instance.  */
 398:Middlewares/ST/usbx/common/usbx_host_classes/src/ux_host_class_storage_thread_entry.c ****                                     _ux_host_semaphore_get(&storage -> ux_host_class_storage_semaph
 399:Middlewares/ST/usbx/common/usbx_host_classes/src/ux_host_class_storage_thread_entry.c ****                                 }
 400:Middlewares/ST/usbx/common/usbx_host_classes/src/ux_host_class_storage_thread_entry.c ****                                 break;
 401:Middlewares/ST/usbx/common/usbx_host_classes/src/ux_host_class_storage_thread_entry.c **** 
 402:Middlewares/ST/usbx/common/usbx_host_classes/src/ux_host_class_storage_thread_entry.c ****                             default:
 403:Middlewares/ST/usbx/common/usbx_host_classes/src/ux_host_class_storage_thread_entry.c ****                                 break;
 404:Middlewares/ST/usbx/common/usbx_host_classes/src/ux_host_class_storage_thread_entry.c ****                         }
 405:Middlewares/ST/usbx/common/usbx_host_classes/src/ux_host_class_storage_thread_entry.c ****                     }
 406:Middlewares/ST/usbx/common/usbx_host_classes/src/ux_host_class_storage_thread_entry.c ****                 }
 407:Middlewares/ST/usbx/common/usbx_host_classes/src/ux_host_class_storage_thread_entry.c **** 
 408:Middlewares/ST/usbx/common/usbx_host_classes/src/ux_host_class_storage_thread_entry.c ****                 /* Other threads are now allowed to access this storage instance.  */
 409:Middlewares/ST/usbx/common/usbx_host_classes/src/ux_host_class_storage_thread_entry.c ****                 _ux_host_semaphore_put(&storage -> ux_host_class_storage_semaphore);
 131              		.loc 1 409 17 view .LVU37
 132 0058 4846     		mov	r0, r9
 133 005a FFF7FEFF 		bl	_ux_utility_semaphore_put
 134              	.LVL9:
 135              	.L3:
 410:Middlewares/ST/usbx/common/usbx_host_classes/src/ux_host_class_storage_thread_entry.c ****             }
 411:Middlewares/ST/usbx/common/usbx_host_classes/src/ux_host_class_storage_thread_entry.c **** 
 412:Middlewares/ST/usbx/common/usbx_host_classes/src/ux_host_class_storage_thread_entry.c ****             /* Move to the next entry in the storage instances link.  */
 413:Middlewares/ST/usbx/common/usbx_host_classes/src/ux_host_class_storage_thread_entry.c ****             storage =  storage -> ux_host_class_storage_next_instance;
 136              		.loc 1 413 13 view .LVU38
 137              		.loc 1 413 21 is_stmt 0 view .LVU39
 138 005e 2468     		ldr	r4, [r4]
 139              	.LVL10:
 140              	.L2:
 133:Middlewares/ST/usbx/common/usbx_host_classes/src/ux_host_class_storage_thread_entry.c ****         {
 141              		.loc 1 133 15 is_stmt 1 view .LVU40
ARM GAS  C:\Users\HP\AppData\Local\Temp\ccKwDlon.s 			page 11


 142 0060 64B1     		cbz	r4, .L22
 137:Middlewares/ST/usbx/common/usbx_host_classes/src/ux_host_class_storage_thread_entry.c ****             {
 143              		.loc 1 137 13 view .LVU41
 137:Middlewares/ST/usbx/common/usbx_host_classes/src/ux_host_class_storage_thread_entry.c ****             {
 144              		.loc 1 137 26 is_stmt 0 view .LVU42
 145 0062 E36E     		ldr	r3, [r4, #108]
 137:Middlewares/ST/usbx/common/usbx_host_classes/src/ux_host_class_storage_thread_entry.c ****             {
 146              		.loc 1 137 16 view .LVU43
 147 0064 012B     		cmp	r3, #1
 148 0066 FAD1     		bne	.L3
 142:Middlewares/ST/usbx/common/usbx_host_classes/src/ux_host_class_storage_thread_entry.c ****                 if (status != UX_SUCCESS)
 149              		.loc 1 142 17 is_stmt 1 view .LVU44
 142:Middlewares/ST/usbx/common/usbx_host_classes/src/ux_host_class_storage_thread_entry.c ****                 if (status != UX_SUCCESS)
 150              		.loc 1 142 27 is_stmt 0 view .LVU45
 151 0068 04F19C09 		add	r9, r4, #156
 152 006c 4FF0FF31 		mov	r1, #-1
 153 0070 4846     		mov	r0, r9
 154 0072 FFF7FEFF 		bl	_ux_utility_semaphore_get
 155              	.LVL11:
 143:Middlewares/ST/usbx/common/usbx_host_classes/src/ux_host_class_storage_thread_entry.c ****                     break;
 156              		.loc 1 143 17 is_stmt 1 view .LVU46
 143:Middlewares/ST/usbx/common/usbx_host_classes/src/ux_host_class_storage_thread_entry.c ****                     break;
 157              		.loc 1 143 20 is_stmt 0 view .LVU47
 158 0076 0546     		mov	r5, r0
 159 0078 0028     		cmp	r0, #0
 160 007a D4D0     		beq	.L5
 161              	.LVL12:
 162              	.L22:
 123:Middlewares/ST/usbx/common/usbx_host_classes/src/ux_host_class_storage_thread_entry.c ****     {
 163              		.loc 1 123 5 is_stmt 1 view .LVU48
 127:Middlewares/ST/usbx/common/usbx_host_classes/src/ux_host_class_storage_thread_entry.c **** 
 164              		.loc 1 127 9 view .LVU49
 165 007c 4FF4FA60 		mov	r0, #2000
 166 0080 FFF7FEFF 		bl	_ux_utility_delay_ms
 167              	.LVL13:
 131:Middlewares/ST/usbx/common/usbx_host_classes/src/ux_host_class_storage_thread_entry.c **** 
 168              		.loc 1 131 9 view .LVU50
 131:Middlewares/ST/usbx/common/usbx_host_classes/src/ux_host_class_storage_thread_entry.c **** 
 169              		.loc 1 131 17 is_stmt 0 view .LVU51
 170 0084 D8F84840 		ldr	r4, [r8, #72]
 171              	.LVL14:
 133:Middlewares/ST/usbx/common/usbx_host_classes/src/ux_host_class_storage_thread_entry.c ****         {
 172              		.loc 1 133 9 is_stmt 1 view .LVU52
 133:Middlewares/ST/usbx/common/usbx_host_classes/src/ux_host_class_storage_thread_entry.c ****         {
 173              		.loc 1 133 15 is_stmt 0 view .LVU53
 174 0088 EAE7     		b	.L2
 175              	.LVL15:
 176              	.L10:
 185:Middlewares/ST/usbx/common/usbx_host_classes/src/ux_host_class_storage_thread_entry.c **** 
 177              		.loc 1 185 29 is_stmt 1 view .LVU54
 185:Middlewares/ST/usbx/common/usbx_host_classes/src/ux_host_class_storage_thread_entry.c **** 
 178              		.loc 1 185 43 is_stmt 0 view .LVU55
 179 008a D8F85070 		ldr	r7, [r8, #80]
 180              	.LVL16:
 188:Middlewares/ST/usbx/common/usbx_host_classes/src/ux_host_class_storage_thread_entry.c ****                                 storage_media++, media_index++)
 181              		.loc 1 188 29 is_stmt 1 view .LVU56
 182              	.L12:
ARM GAS  C:\Users\HP\AppData\Local\Temp\ccKwDlon.s 			page 12


 188:Middlewares/ST/usbx/common/usbx_host_classes/src/ux_host_class_storage_thread_entry.c ****                                 storage_media++, media_index++)
 183              		.loc 1 188 51 discriminator 1 view .LVU57
 188:Middlewares/ST/usbx/common/usbx_host_classes/src/ux_host_class_storage_thread_entry.c ****                                 storage_media++, media_index++)
 184              		.loc 1 188 29 is_stmt 0 discriminator 1 view .LVU58
 185 008e 002E     		cmp	r6, #0
 186 0090 C8D1     		bne	.L6
 193:Middlewares/ST/usbx/common/usbx_host_classes/src/ux_host_class_storage_thread_entry.c **** 
 187              		.loc 1 193 33 is_stmt 1 view .LVU59
 188              	.LVL17:
 196:Middlewares/ST/usbx/common/usbx_host_classes/src/ux_host_class_storage_thread_entry.c ****                                     (storage_media -> ux_host_class_storage_media_lun == storage ->
 189              		.loc 1 196 33 view .LVU60
 196:Middlewares/ST/usbx/common/usbx_host_classes/src/ux_host_class_storage_thread_entry.c ****                                     (storage_media -> ux_host_class_storage_media_lun == storage ->
 190              		.loc 1 196 38 is_stmt 0 view .LVU61
 191 0092 3B68     		ldr	r3, [r7]
 196:Middlewares/ST/usbx/common/usbx_host_classes/src/ux_host_class_storage_thread_entry.c ****                                     (storage_media -> ux_host_class_storage_media_lun == storage ->
 192              		.loc 1 196 36 view .LVU62
 193 0094 1BB1     		cbz	r3, .L13
 196:Middlewares/ST/usbx/common/usbx_host_classes/src/ux_host_class_storage_thread_entry.c ****                                     (storage_media -> ux_host_class_storage_media_lun == storage ->
 194              		.loc 1 196 71 discriminator 1 view .LVU63
 195 0096 D7F88430 		ldr	r3, [r7, #132]
 196:Middlewares/ST/usbx/common/usbx_host_classes/src/ux_host_class_storage_thread_entry.c ****                                     (storage_media -> ux_host_class_storage_media_lun == storage ->
 196              		.loc 1 196 67 discriminator 1 view .LVU64
 197 009a A342     		cmp	r3, r4
 198 009c 04D0     		beq	.L25
 199              	.L13:
 189:Middlewares/ST/usbx/common/usbx_host_classes/src/ux_host_class_storage_thread_entry.c ****                             {
 200              		.loc 1 189 33 is_stmt 1 view .LVU65
 189:Middlewares/ST/usbx/common/usbx_host_classes/src/ux_host_class_storage_thread_entry.c ****                             {
 201              		.loc 1 189 46 is_stmt 0 view .LVU66
 202 009e 07F51357 		add	r7, r7, #9408
 203              	.LVL18:
 189:Middlewares/ST/usbx/common/usbx_host_classes/src/ux_host_class_storage_thread_entry.c ****                             {
 204              		.loc 1 189 46 view .LVU67
 205 00a2 1037     		adds	r7, r7, #16
 206              	.LVL19:
 189:Middlewares/ST/usbx/common/usbx_host_classes/src/ux_host_class_storage_thread_entry.c ****                             {
 207              		.loc 1 189 61 view .LVU68
 208 00a4 0136     		adds	r6, r6, #1
 209              	.LVL20:
 189:Middlewares/ST/usbx/common/usbx_host_classes/src/ux_host_class_storage_thread_entry.c ****                             {
 210              		.loc 1 189 61 view .LVU69
 211 00a6 F2E7     		b	.L12
 212              	.LVL21:
 213              	.L25:
 197:Middlewares/ST/usbx/common/usbx_host_classes/src/ux_host_class_storage_thread_entry.c ****                                 {
 214              		.loc 1 197 52 discriminator 2 view .LVU70
 215 00a8 07F50053 		add	r3, r7, #8192
 216 00ac D3F8C424 		ldr	r2, [r3, #1220]
 197:Middlewares/ST/usbx/common/usbx_host_classes/src/ux_host_class_storage_thread_entry.c ****                                 {
 217              		.loc 1 197 98 discriminator 2 view .LVU71
 218 00b0 D4F88030 		ldr	r3, [r4, #128]
 196:Middlewares/ST/usbx/common/usbx_host_classes/src/ux_host_class_storage_thread_entry.c ****                                     (storage_media -> ux_host_class_storage_media_lun == storage ->
 219              		.loc 1 196 124 discriminator 2 view .LVU72
 220 00b4 9A42     		cmp	r2, r3
 221 00b6 F2D1     		bne	.L13
 201:Middlewares/ST/usbx/common/usbx_host_classes/src/ux_host_class_storage_thread_entry.c **** 
 222              		.loc 1 201 37 is_stmt 1 view .LVU73
ARM GAS  C:\Users\HP\AppData\Local\Temp\ccKwDlon.s 			page 13


 201:Middlewares/ST/usbx/common/usbx_host_classes/src/ux_host_class_storage_thread_entry.c **** 
 223              		.loc 1 201 44 is_stmt 0 view .LVU74
 224 00b8 07F5005B 		add	fp, r7, #8192
 225 00bc DBF8BC34 		ldr	r3, [fp, #1212]
 226 00c0 0193     		str	r3, [sp, #4]
 227              	.LVL22:
 204:Middlewares/ST/usbx/common/usbx_host_classes/src/ux_host_class_storage_thread_entry.c **** 
 228              		.loc 1 204 37 is_stmt 1 view .LVU75
 229 00c2 4846     		mov	r0, r9
 230 00c4 FFF7FEFF 		bl	_ux_utility_semaphore_put
 231              	.LVL23:
 207:Middlewares/ST/usbx/common/usbx_host_classes/src/ux_host_class_storage_thread_entry.c **** 
 232              		.loc 1 207 37 view .LVU76
 233 00c8 3846     		mov	r0, r7
 234 00ca FFF7FEFF 		bl	_fxe_media_close
 235              	.LVL24:
 210:Middlewares/ST/usbx/common/usbx_host_classes/src/ux_host_class_storage_thread_entry.c **** 
 236              		.loc 1 210 37 view .LVU77
 210:Middlewares/ST/usbx/common/usbx_host_classes/src/ux_host_class_storage_thread_entry.c **** 
 237              		.loc 1 210 89 is_stmt 0 view .LVU78
 238 00ce 0023     		movs	r3, #0
 239 00d0 CBF8C034 		str	r3, [fp, #1216]
 213:Middlewares/ST/usbx/common/usbx_host_classes/src/ux_host_class_storage_thread_entry.c **** 
 240              		.loc 1 213 37 is_stmt 1 view .LVU79
 241 00d4 3B60     		str	r3, [r7]
 216:Middlewares/ST/usbx/common/usbx_host_classes/src/ux_host_class_storage_thread_entry.c ****                                     if (status != UX_SUCCESS)
 242              		.loc 1 216 37 view .LVU80
 216:Middlewares/ST/usbx/common/usbx_host_classes/src/ux_host_class_storage_thread_entry.c ****                                     if (status != UX_SUCCESS)
 243              		.loc 1 216 47 is_stmt 0 view .LVU81
 244 00d6 4FF0FF31 		mov	r1, #-1
 245 00da 4846     		mov	r0, r9
 246 00dc FFF7FEFF 		bl	_ux_utility_semaphore_get
 247              	.LVL25:
 217:Middlewares/ST/usbx/common/usbx_host_classes/src/ux_host_class_storage_thread_entry.c ****                                         break;
 248              		.loc 1 217 37 is_stmt 1 view .LVU82
 217:Middlewares/ST/usbx/common/usbx_host_classes/src/ux_host_class_storage_thread_entry.c ****                                         break;
 249              		.loc 1 217 40 is_stmt 0 view .LVU83
 250 00e0 0028     		cmp	r0, #0
 251 00e2 9FD1     		bne	.L6
 221:Middlewares/ST/usbx/common/usbx_host_classes/src/ux_host_class_storage_thread_entry.c ****                                 }
 252              		.loc 1 221 37 is_stmt 1 view .LVU84
 253 00e4 0198     		ldr	r0, [sp, #4]
 254              	.LVL26:
 221:Middlewares/ST/usbx/common/usbx_host_classes/src/ux_host_class_storage_thread_entry.c ****                                 }
 255              		.loc 1 221 37 is_stmt 0 view .LVU85
 256 00e6 FFF7FEFF 		bl	_ux_utility_memory_free
 257              	.LVL27:
 258 00ea D8E7     		b	.L13
 259              	.LVL28:
 260              	.L11:
 261:Middlewares/ST/usbx/common/usbx_host_classes/src/ux_host_class_storage_thread_entry.c **** 
 261              		.loc 1 261 33 is_stmt 1 view .LVU86
 261:Middlewares/ST/usbx/common/usbx_host_classes/src/ux_host_class_storage_thread_entry.c **** 
 262              		.loc 1 261 47 is_stmt 0 view .LVU87
 263 00ec D8F85070 		ldr	r7, [r8, #80]
 264              	.LVL29:
 264:Middlewares/ST/usbx/common/usbx_host_classes/src/ux_host_class_storage_thread_entry.c ****                                     storage_media++, media_index++)
ARM GAS  C:\Users\HP\AppData\Local\Temp\ccKwDlon.s 			page 14


 265              		.loc 1 264 33 is_stmt 1 view .LVU88
 266              	.L15:
 264:Middlewares/ST/usbx/common/usbx_host_classes/src/ux_host_class_storage_thread_entry.c ****                                     storage_media++, media_index++)
 267              		.loc 1 264 55 discriminator 1 view .LVU89
 264:Middlewares/ST/usbx/common/usbx_host_classes/src/ux_host_class_storage_thread_entry.c ****                                     storage_media++, media_index++)
 268              		.loc 1 264 33 is_stmt 0 discriminator 1 view .LVU90
 269 00f0 FEB1     		cbz	r6, .L18
 270              	.L17:
 333:Middlewares/ST/usbx/common/usbx_host_classes/src/ux_host_class_storage_thread_entry.c **** 
 271              		.loc 1 333 33 is_stmt 1 view .LVU91
 333:Middlewares/ST/usbx/common/usbx_host_classes/src/ux_host_class_storage_thread_entry.c **** 
 272              		.loc 1 333 43 is_stmt 0 view .LVU92
 273 00f2 2046     		mov	r0, r4
 274 00f4 FFF7FEFF 		bl	_ux_host_class_storage_unit_ready_test
 275              	.LVL30:
 337:Middlewares/ST/usbx/common/usbx_host_classes/src/ux_host_class_storage_thread_entry.c ****                                 {
 276              		.loc 1 337 33 is_stmt 1 view .LVU93
 337:Middlewares/ST/usbx/common/usbx_host_classes/src/ux_host_class_storage_thread_entry.c ****                                 {
 277              		.loc 1 337 36 is_stmt 0 view .LVU94
 278 00f8 0028     		cmp	r0, #0
 279 00fa 47D1     		bne	.L26
 345:Middlewares/ST/usbx/common/usbx_host_classes/src/ux_host_class_storage_thread_entry.c ****                                 {
 280              		.loc 1 345 33 is_stmt 1 view .LVU95
 345:Middlewares/ST/usbx/common/usbx_host_classes/src/ux_host_class_storage_thread_entry.c ****                                 {
 281              		.loc 1 345 45 is_stmt 0 view .LVU96
 282 00fc D4F89030 		ldr	r3, [r4, #144]
 345:Middlewares/ST/usbx/common/usbx_host_classes/src/ux_host_class_storage_thread_entry.c ****                                 {
 283              		.loc 1 345 36 view .LVU97
 284 0100 002B     		cmp	r3, #0
 285 0102 8FD1     		bne	.L6
 349:Middlewares/ST/usbx/common/usbx_host_classes/src/ux_host_class_storage_thread_entry.c ****                                     if (status != UX_SUCCESS)
 286              		.loc 1 349 37 is_stmt 1 view .LVU98
 349:Middlewares/ST/usbx/common/usbx_host_classes/src/ux_host_class_storage_thread_entry.c ****                                     if (status != UX_SUCCESS)
 287              		.loc 1 349 47 is_stmt 0 view .LVU99
 288 0104 2046     		mov	r0, r4
 289              	.LVL31:
 349:Middlewares/ST/usbx/common/usbx_host_classes/src/ux_host_class_storage_thread_entry.c ****                                     if (status != UX_SUCCESS)
 290              		.loc 1 349 47 view .LVU100
 291 0106 FFF7FEFF 		bl	_ux_host_class_storage_media_characteristics_get
 292              	.LVL32:
 350:Middlewares/ST/usbx/common/usbx_host_classes/src/ux_host_class_storage_thread_entry.c ****                                         break;
 293              		.loc 1 350 37 is_stmt 1 view .LVU101
 350:Middlewares/ST/usbx/common/usbx_host_classes/src/ux_host_class_storage_thread_entry.c ****                                         break;
 294              		.loc 1 350 40 is_stmt 0 view .LVU102
 295 010a 0028     		cmp	r0, #0
 296 010c 8AD1     		bne	.L6
 354:Middlewares/ST/usbx/common/usbx_host_classes/src/ux_host_class_storage_thread_entry.c ****                                     if (status != UX_SUCCESS)
 297              		.loc 1 354 37 is_stmt 1 view .LVU103
 354:Middlewares/ST/usbx/common/usbx_host_classes/src/ux_host_class_storage_thread_entry.c ****                                     if (status != UX_SUCCESS)
 298              		.loc 1 354 47 is_stmt 0 view .LVU104
 299 010e 2046     		mov	r0, r4
 300              	.LVL33:
 354:Middlewares/ST/usbx/common/usbx_host_classes/src/ux_host_class_storage_thread_entry.c ****                                     if (status != UX_SUCCESS)
 301              		.loc 1 354 47 view .LVU105
 302 0110 FFF7FEFF 		bl	_ux_host_class_storage_media_format_capacity_get
 303              	.LVL34:
 355:Middlewares/ST/usbx/common/usbx_host_classes/src/ux_host_class_storage_thread_entry.c ****                                         break;
ARM GAS  C:\Users\HP\AppData\Local\Temp\ccKwDlon.s 			page 15


 304              		.loc 1 355 37 is_stmt 1 view .LVU106
 355:Middlewares/ST/usbx/common/usbx_host_classes/src/ux_host_class_storage_thread_entry.c ****                                         break;
 305              		.loc 1 355 40 is_stmt 0 view .LVU107
 306 0114 0028     		cmp	r0, #0
 307 0116 85D1     		bne	.L6
 359:Middlewares/ST/usbx/common/usbx_host_classes/src/ux_host_class_storage_thread_entry.c **** 
 308              		.loc 1 359 37 is_stmt 1 view .LVU108
 309 0118 4846     		mov	r0, r9
 310              	.LVL35:
 359:Middlewares/ST/usbx/common/usbx_host_classes/src/ux_host_class_storage_thread_entry.c **** 
 311              		.loc 1 359 37 is_stmt 0 view .LVU109
 312 011a FFF7FEFF 		bl	_ux_utility_semaphore_put
 313              	.LVL36:
 364:Middlewares/ST/usbx/common/usbx_host_classes/src/ux_host_class_storage_thread_entry.c **** #else
 314              		.loc 1 364 37 is_stmt 1 view .LVU110
 315 011e 0021     		movs	r1, #0
 316 0120 2046     		mov	r0, r4
 317 0122 FFF7FEFF 		bl	_ux_host_class_storage_media_mount
 318              	.LVL37:
 398:Middlewares/ST/usbx/common/usbx_host_classes/src/ux_host_class_storage_thread_entry.c ****                                 }
 319              		.loc 1 398 37 view .LVU111
 320 0126 4FF0FF31 		mov	r1, #-1
 321 012a 4846     		mov	r0, r9
 322 012c FFF7FEFF 		bl	_ux_utility_semaphore_get
 323              	.LVL38:
 324 0130 78E7     		b	.L6
 325              	.L18:
 270:Middlewares/ST/usbx/common/usbx_host_classes/src/ux_host_class_storage_thread_entry.c **** 
 326              		.loc 1 270 37 view .LVU112
 327              	.LVL39:
 273:Middlewares/ST/usbx/common/usbx_host_classes/src/ux_host_class_storage_thread_entry.c ****                                             (storage_media -> ux_host_class_storage_media_lun == st
 328              		.loc 1 273 37 view .LVU113
 273:Middlewares/ST/usbx/common/usbx_host_classes/src/ux_host_class_storage_thread_entry.c ****                                             (storage_media -> ux_host_class_storage_media_lun == st
 329              		.loc 1 273 42 is_stmt 0 view .LVU114
 330 0132 3B68     		ldr	r3, [r7]
 273:Middlewares/ST/usbx/common/usbx_host_classes/src/ux_host_class_storage_thread_entry.c ****                                             (storage_media -> ux_host_class_storage_media_lun == st
 331              		.loc 1 273 40 view .LVU115
 332 0134 1BB1     		cbz	r3, .L16
 273:Middlewares/ST/usbx/common/usbx_host_classes/src/ux_host_class_storage_thread_entry.c ****                                             (storage_media -> ux_host_class_storage_media_lun == st
 333              		.loc 1 273 75 discriminator 1 view .LVU116
 334 0136 D7F88430 		ldr	r3, [r7, #132]
 273:Middlewares/ST/usbx/common/usbx_host_classes/src/ux_host_class_storage_thread_entry.c ****                                             (storage_media -> ux_host_class_storage_media_lun == st
 335              		.loc 1 273 71 discriminator 1 view .LVU117
 336 013a A342     		cmp	r3, r4
 337 013c 04D0     		beq	.L27
 338              	.L16:
 265:Middlewares/ST/usbx/common/usbx_host_classes/src/ux_host_class_storage_thread_entry.c ****                                 {
 339              		.loc 1 265 37 is_stmt 1 view .LVU118
 265:Middlewares/ST/usbx/common/usbx_host_classes/src/ux_host_class_storage_thread_entry.c ****                                 {
 340              		.loc 1 265 50 is_stmt 0 view .LVU119
 341 013e 07F51357 		add	r7, r7, #9408
 342              	.LVL40:
 265:Middlewares/ST/usbx/common/usbx_host_classes/src/ux_host_class_storage_thread_entry.c ****                                 {
 343              		.loc 1 265 50 view .LVU120
 344 0142 1037     		adds	r7, r7, #16
 345              	.LVL41:
 265:Middlewares/ST/usbx/common/usbx_host_classes/src/ux_host_class_storage_thread_entry.c ****                                 {
ARM GAS  C:\Users\HP\AppData\Local\Temp\ccKwDlon.s 			page 16


 346              		.loc 1 265 65 view .LVU121
 347 0144 0136     		adds	r6, r6, #1
 348              	.LVL42:
 265:Middlewares/ST/usbx/common/usbx_host_classes/src/ux_host_class_storage_thread_entry.c ****                                 {
 349              		.loc 1 265 65 view .LVU122
 350 0146 D3E7     		b	.L15
 351              	.LVL43:
 352              	.L27:
 274:Middlewares/ST/usbx/common/usbx_host_classes/src/ux_host_class_storage_thread_entry.c ****                                     {
 353              		.loc 1 274 60 discriminator 2 view .LVU123
 354 0148 07F50053 		add	r3, r7, #8192
 355 014c D3F8C424 		ldr	r2, [r3, #1220]
 274:Middlewares/ST/usbx/common/usbx_host_classes/src/ux_host_class_storage_thread_entry.c ****                                     {
 356              		.loc 1 274 106 discriminator 2 view .LVU124
 357 0150 D4F88030 		ldr	r3, [r4, #128]
 273:Middlewares/ST/usbx/common/usbx_host_classes/src/ux_host_class_storage_thread_entry.c ****                                             (storage_media -> ux_host_class_storage_media_lun == st
 358              		.loc 1 273 128 discriminator 2 view .LVU125
 359 0154 9A42     		cmp	r2, r3
 360 0156 F2D1     		bne	.L16
 278:Middlewares/ST/usbx/common/usbx_host_classes/src/ux_host_class_storage_thread_entry.c **** 
 361              		.loc 1 278 41 is_stmt 1 view .LVU126
 278:Middlewares/ST/usbx/common/usbx_host_classes/src/ux_host_class_storage_thread_entry.c **** 
 362              		.loc 1 278 48 is_stmt 0 view .LVU127
 363 0158 07F5005B 		add	fp, r7, #8192
 364 015c DBF8BC34 		ldr	r3, [fp, #1212]
 365 0160 0193     		str	r3, [sp, #4]
 366              	.LVL44:
 281:Middlewares/ST/usbx/common/usbx_host_classes/src/ux_host_class_storage_thread_entry.c **** 
 367              		.loc 1 281 41 is_stmt 1 view .LVU128
 368 0162 4846     		mov	r0, r9
 369 0164 FFF7FEFF 		bl	_ux_utility_semaphore_put
 370              	.LVL45:
 284:Middlewares/ST/usbx/common/usbx_host_classes/src/ux_host_class_storage_thread_entry.c **** 
 371              		.loc 1 284 41 view .LVU129
 372 0168 3846     		mov	r0, r7
 373 016a FFF7FEFF 		bl	_fxe_media_close
 374              	.LVL46:
 287:Middlewares/ST/usbx/common/usbx_host_classes/src/ux_host_class_storage_thread_entry.c **** 
 375              		.loc 1 287 41 view .LVU130
 287:Middlewares/ST/usbx/common/usbx_host_classes/src/ux_host_class_storage_thread_entry.c **** 
 376              		.loc 1 287 93 is_stmt 0 view .LVU131
 377 016e 0023     		movs	r3, #0
 378 0170 CBF8C034 		str	r3, [fp, #1216]
 290:Middlewares/ST/usbx/common/usbx_host_classes/src/ux_host_class_storage_thread_entry.c **** 
 379              		.loc 1 290 41 is_stmt 1 view .LVU132
 380 0174 3B60     		str	r3, [r7]
 293:Middlewares/ST/usbx/common/usbx_host_classes/src/ux_host_class_storage_thread_entry.c ****                                         if (status != UX_SUCCESS)
 381              		.loc 1 293 41 view .LVU133
 293:Middlewares/ST/usbx/common/usbx_host_classes/src/ux_host_class_storage_thread_entry.c ****                                         if (status != UX_SUCCESS)
 382              		.loc 1 293 51 is_stmt 0 view .LVU134
 383 0176 4FF0FF31 		mov	r1, #-1
 384 017a 4846     		mov	r0, r9
 385 017c FFF7FEFF 		bl	_ux_utility_semaphore_get
 386              	.LVL47:
 294:Middlewares/ST/usbx/common/usbx_host_classes/src/ux_host_class_storage_thread_entry.c ****                                             break;
 387              		.loc 1 294 41 is_stmt 1 view .LVU135
 294:Middlewares/ST/usbx/common/usbx_host_classes/src/ux_host_class_storage_thread_entry.c ****                                             break;
ARM GAS  C:\Users\HP\AppData\Local\Temp\ccKwDlon.s 			page 17


 388              		.loc 1 294 44 is_stmt 0 view .LVU136
 389 0180 0028     		cmp	r0, #0
 390 0182 B6D1     		bne	.L17
 298:Middlewares/ST/usbx/common/usbx_host_classes/src/ux_host_class_storage_thread_entry.c ****                                     }
 391              		.loc 1 298 41 is_stmt 1 view .LVU137
 392 0184 0198     		ldr	r0, [sp, #4]
 393              	.LVL48:
 298:Middlewares/ST/usbx/common/usbx_host_classes/src/ux_host_class_storage_thread_entry.c ****                                     }
 394              		.loc 1 298 41 is_stmt 0 view .LVU138
 395 0186 FFF7FEFF 		bl	_ux_utility_memory_free
 396              	.LVL49:
 397 018a D8E7     		b	.L16
 398              	.LVL50:
 399              	.L26:
 341:Middlewares/ST/usbx/common/usbx_host_classes/src/ux_host_class_storage_thread_entry.c ****                                     break;
 400              		.loc 1 341 37 is_stmt 1 view .LVU139
 401 018c 2046     		mov	r0, r4
 402              	.LVL51:
 341:Middlewares/ST/usbx/common/usbx_host_classes/src/ux_host_class_storage_thread_entry.c ****                                     break;
 403              		.loc 1 341 37 is_stmt 0 view .LVU140
 404 018e FFF7FEFF 		bl	_ux_host_class_storage_device_reset
 405              	.LVL52:
 342:Middlewares/ST/usbx/common/usbx_host_classes/src/ux_host_class_storage_thread_entry.c ****                                 }
 406              		.loc 1 342 37 is_stmt 1 view .LVU141
 407 0192 47E7     		b	.L6
 408              		.cfi_endproc
 409              	.LFE11:
 411              		.text
 412              	.Letext0:
 413              		.file 2 "Middlewares/ST/threadx/ports/cortex_m4/gnu/inc/tx_port.h"
 414              		.file 3 "Middlewares/ST/threadx/common/inc/tx_api.h"
 415              		.file 4 "Middlewares/ST/usbx/common/core/inc/ux_api.h"
 416              		.file 5 "Middlewares/ST/filex/common/inc/fx_api.h"
 417              		.file 6 "Middlewares/ST/usbx/common/usbx_host_classes/inc/ux_host_class_storage.h"
 418              		.file 7 "Middlewares/ST/usbx/common/core/inc/ux_utility.h"
ARM GAS  C:\Users\HP\AppData\Local\Temp\ccKwDlon.s 			page 18

