ARM GAS  C:\Users\HP\AppData\Local\Temp\ccmlfaF5.s 			page 1


   1              		.cpu cortex-m4
   2              		.arch armv7e-m
   3              		.fpu fpv4-sp-d16
   4              		.eabi_attribute 27, 1
   5              		.eabi_attribute 28, 1
   6              		.eabi_attribute 20, 1
   7              		.eabi_attribute 21, 1
   8              		.eabi_attribute 23, 3
   9              		.eabi_attribute 24, 1
  10              		.eabi_attribute 25, 1
  11              		.eabi_attribute 26, 1
  12              		.eabi_attribute 30, 1
  13              		.eabi_attribute 34, 1
  14              		.eabi_attribute 18, 4
  15              		.file	"ux_host_class_storage_media_write.c"
  16              		.text
  17              	.Ltext0:
  18              		.cfi_sections	.debug_frame
  19              		.section	.text._ux_host_class_storage_media_write,"ax",%progbits
  20              		.align	1
  21              		.global	_ux_host_class_storage_media_write
  22              		.syntax unified
  23              		.thumb
  24              		.thumb_func
  26              	_ux_host_class_storage_media_write:
  27              	.LVL0:
  28              	.LFB12:
  29              		.file 1 "Middlewares/ST/usbx/common/usbx_host_classes/src/ux_host_class_storage_media_write.c"
   1:Middlewares/ST/usbx/common/usbx_host_classes/src/ux_host_class_storage_media_write.c **** /**************************************************************************/
   2:Middlewares/ST/usbx/common/usbx_host_classes/src/ux_host_class_storage_media_write.c **** /*                                                                        */
   3:Middlewares/ST/usbx/common/usbx_host_classes/src/ux_host_class_storage_media_write.c **** /*       Copyright (c) Microsoft Corporation. All rights reserved.        */
   4:Middlewares/ST/usbx/common/usbx_host_classes/src/ux_host_class_storage_media_write.c **** /*                                                                        */
   5:Middlewares/ST/usbx/common/usbx_host_classes/src/ux_host_class_storage_media_write.c **** /*       This software is licensed under the Microsoft Software License   */
   6:Middlewares/ST/usbx/common/usbx_host_classes/src/ux_host_class_storage_media_write.c **** /*       Terms for Microsoft Azure RTOS. Full text of the license can be  */
   7:Middlewares/ST/usbx/common/usbx_host_classes/src/ux_host_class_storage_media_write.c **** /*       found in the LICENSE file at https://aka.ms/AzureRTOS_EULA       */
   8:Middlewares/ST/usbx/common/usbx_host_classes/src/ux_host_class_storage_media_write.c **** /*       and in the root directory of this software.                      */
   9:Middlewares/ST/usbx/common/usbx_host_classes/src/ux_host_class_storage_media_write.c **** /*                                                                        */
  10:Middlewares/ST/usbx/common/usbx_host_classes/src/ux_host_class_storage_media_write.c **** /**************************************************************************/
  11:Middlewares/ST/usbx/common/usbx_host_classes/src/ux_host_class_storage_media_write.c **** 
  12:Middlewares/ST/usbx/common/usbx_host_classes/src/ux_host_class_storage_media_write.c **** 
  13:Middlewares/ST/usbx/common/usbx_host_classes/src/ux_host_class_storage_media_write.c **** /**************************************************************************/
  14:Middlewares/ST/usbx/common/usbx_host_classes/src/ux_host_class_storage_media_write.c **** /**************************************************************************/
  15:Middlewares/ST/usbx/common/usbx_host_classes/src/ux_host_class_storage_media_write.c **** /**                                                                       */ 
  16:Middlewares/ST/usbx/common/usbx_host_classes/src/ux_host_class_storage_media_write.c **** /** USBX Component                                                        */ 
  17:Middlewares/ST/usbx/common/usbx_host_classes/src/ux_host_class_storage_media_write.c **** /**                                                                       */
  18:Middlewares/ST/usbx/common/usbx_host_classes/src/ux_host_class_storage_media_write.c **** /**   Storage Class                                                       */
  19:Middlewares/ST/usbx/common/usbx_host_classes/src/ux_host_class_storage_media_write.c **** /**                                                                       */
  20:Middlewares/ST/usbx/common/usbx_host_classes/src/ux_host_class_storage_media_write.c **** /**************************************************************************/
  21:Middlewares/ST/usbx/common/usbx_host_classes/src/ux_host_class_storage_media_write.c **** /**************************************************************************/
  22:Middlewares/ST/usbx/common/usbx_host_classes/src/ux_host_class_storage_media_write.c **** 
  23:Middlewares/ST/usbx/common/usbx_host_classes/src/ux_host_class_storage_media_write.c **** 
  24:Middlewares/ST/usbx/common/usbx_host_classes/src/ux_host_class_storage_media_write.c **** /* Include necessary system files.  */
  25:Middlewares/ST/usbx/common/usbx_host_classes/src/ux_host_class_storage_media_write.c **** 
  26:Middlewares/ST/usbx/common/usbx_host_classes/src/ux_host_class_storage_media_write.c **** #define UX_SOURCE_CODE
  27:Middlewares/ST/usbx/common/usbx_host_classes/src/ux_host_class_storage_media_write.c **** 
  28:Middlewares/ST/usbx/common/usbx_host_classes/src/ux_host_class_storage_media_write.c **** #include "ux_api.h"
  29:Middlewares/ST/usbx/common/usbx_host_classes/src/ux_host_class_storage_media_write.c **** #include "ux_host_class_storage.h"
ARM GAS  C:\Users\HP\AppData\Local\Temp\ccmlfaF5.s 			page 2


  30:Middlewares/ST/usbx/common/usbx_host_classes/src/ux_host_class_storage_media_write.c **** #include "ux_host_stack.h"
  31:Middlewares/ST/usbx/common/usbx_host_classes/src/ux_host_class_storage_media_write.c **** 
  32:Middlewares/ST/usbx/common/usbx_host_classes/src/ux_host_class_storage_media_write.c **** 
  33:Middlewares/ST/usbx/common/usbx_host_classes/src/ux_host_class_storage_media_write.c **** #if defined(UX_HOST_STANDALONE)
  34:Middlewares/ST/usbx/common/usbx_host_classes/src/ux_host_class_storage_media_write.c **** VOID _ux_host_class_storage_write_initialize(UX_HOST_CLASS_STORAGE *storage,
  35:Middlewares/ST/usbx/common/usbx_host_classes/src/ux_host_class_storage_media_write.c ****                 ULONG sector_start, ULONG sector_count);
  36:Middlewares/ST/usbx/common/usbx_host_classes/src/ux_host_class_storage_media_write.c **** 
  37:Middlewares/ST/usbx/common/usbx_host_classes/src/ux_host_class_storage_media_write.c **** VOID
  38:Middlewares/ST/usbx/common/usbx_host_classes/src/ux_host_class_storage_media_write.c **** #else
  39:Middlewares/ST/usbx/common/usbx_host_classes/src/ux_host_class_storage_media_write.c **** static inline VOID
  40:Middlewares/ST/usbx/common/usbx_host_classes/src/ux_host_class_storage_media_write.c **** #endif
  41:Middlewares/ST/usbx/common/usbx_host_classes/src/ux_host_class_storage_media_write.c **** _ux_host_class_storage_write_initialize(UX_HOST_CLASS_STORAGE *storage,
  42:Middlewares/ST/usbx/common/usbx_host_classes/src/ux_host_class_storage_media_write.c ****                 ULONG sector_start, ULONG sector_count)
  43:Middlewares/ST/usbx/common/usbx_host_classes/src/ux_host_class_storage_media_write.c **** {
  44:Middlewares/ST/usbx/common/usbx_host_classes/src/ux_host_class_storage_media_write.c **** UCHAR       *cbw;
  45:Middlewares/ST/usbx/common/usbx_host_classes/src/ux_host_class_storage_media_write.c **** UCHAR       *cbw_cb;
  46:Middlewares/ST/usbx/common/usbx_host_classes/src/ux_host_class_storage_media_write.c **** ULONG       command_length;
  47:Middlewares/ST/usbx/common/usbx_host_classes/src/ux_host_class_storage_media_write.c **** 
  48:Middlewares/ST/usbx/common/usbx_host_classes/src/ux_host_class_storage_media_write.c ****     /* Use a pointer for the cbw, easier to manipulate.  */
  49:Middlewares/ST/usbx/common/usbx_host_classes/src/ux_host_class_storage_media_write.c ****     cbw = (UCHAR *)storage -> ux_host_class_storage_cbw;
  50:Middlewares/ST/usbx/common/usbx_host_classes/src/ux_host_class_storage_media_write.c ****     cbw_cb = cbw + UX_HOST_CLASS_STORAGE_CBW_CB;
  51:Middlewares/ST/usbx/common/usbx_host_classes/src/ux_host_class_storage_media_write.c **** 
  52:Middlewares/ST/usbx/common/usbx_host_classes/src/ux_host_class_storage_media_write.c ****     /* Get the Write Command Length.  */
  53:Middlewares/ST/usbx/common/usbx_host_classes/src/ux_host_class_storage_media_write.c **** #ifdef UX_HOST_CLASS_STORAGE_INCLUDE_LEGACY_PROTOCOL_SUPPORT
  54:Middlewares/ST/usbx/common/usbx_host_classes/src/ux_host_class_storage_media_write.c ****     if (storage -> ux_host_class_storage_interface -> ux_interface_descriptor.bInterfaceSubClass ==
  55:Middlewares/ST/usbx/common/usbx_host_classes/src/ux_host_class_storage_media_write.c ****         UX_HOST_CLASS_STORAGE_SUBCLASS_UFI)
  56:Middlewares/ST/usbx/common/usbx_host_classes/src/ux_host_class_storage_media_write.c ****         command_length =  UX_HOST_CLASS_STORAGE_WRITE_COMMAND_LENGTH_UFI;
  57:Middlewares/ST/usbx/common/usbx_host_classes/src/ux_host_class_storage_media_write.c ****     else
  58:Middlewares/ST/usbx/common/usbx_host_classes/src/ux_host_class_storage_media_write.c ****         command_length =  UX_HOST_CLASS_STORAGE_WRITE_COMMAND_LENGTH_SBC;
  59:Middlewares/ST/usbx/common/usbx_host_classes/src/ux_host_class_storage_media_write.c **** #else
  60:Middlewares/ST/usbx/common/usbx_host_classes/src/ux_host_class_storage_media_write.c ****     command_length =  UX_HOST_CLASS_STORAGE_WRITE_COMMAND_LENGTH_SBC;
  61:Middlewares/ST/usbx/common/usbx_host_classes/src/ux_host_class_storage_media_write.c **** #endif
  62:Middlewares/ST/usbx/common/usbx_host_classes/src/ux_host_class_storage_media_write.c **** 
  63:Middlewares/ST/usbx/common/usbx_host_classes/src/ux_host_class_storage_media_write.c ****     /* Initialize the CBW for this command.  */
  64:Middlewares/ST/usbx/common/usbx_host_classes/src/ux_host_class_storage_media_write.c ****     _ux_host_class_storage_cbw_initialize(storage, UX_HOST_CLASS_STORAGE_DATA_OUT,
  65:Middlewares/ST/usbx/common/usbx_host_classes/src/ux_host_class_storage_media_write.c ****                                     sector_count * storage -> ux_host_class_storage_sector_size,
  66:Middlewares/ST/usbx/common/usbx_host_classes/src/ux_host_class_storage_media_write.c ****                                     command_length);
  67:Middlewares/ST/usbx/common/usbx_host_classes/src/ux_host_class_storage_media_write.c **** 
  68:Middlewares/ST/usbx/common/usbx_host_classes/src/ux_host_class_storage_media_write.c ****     /* Prepare the MEDIA WRITE command block.  */
  69:Middlewares/ST/usbx/common/usbx_host_classes/src/ux_host_class_storage_media_write.c ****     *(cbw_cb + UX_HOST_CLASS_STORAGE_WRITE_OPERATION) =  UX_HOST_CLASS_STORAGE_SCSI_WRITE16;
  70:Middlewares/ST/usbx/common/usbx_host_classes/src/ux_host_class_storage_media_write.c **** 
  71:Middlewares/ST/usbx/common/usbx_host_classes/src/ux_host_class_storage_media_write.c ****     /* Store the sector start (LBA field).  */
  72:Middlewares/ST/usbx/common/usbx_host_classes/src/ux_host_class_storage_media_write.c ****     _ux_utility_long_put_big_endian(cbw_cb + UX_HOST_CLASS_STORAGE_WRITE_LBA, sector_start);
  73:Middlewares/ST/usbx/common/usbx_host_classes/src/ux_host_class_storage_media_write.c **** 
  74:Middlewares/ST/usbx/common/usbx_host_classes/src/ux_host_class_storage_media_write.c ****     /* Store the number of sectors to write.  */
  75:Middlewares/ST/usbx/common/usbx_host_classes/src/ux_host_class_storage_media_write.c ****     _ux_utility_short_put_big_endian(cbw_cb + UX_HOST_CLASS_STORAGE_WRITE_TRANSFER_LENGTH, (USHORT)
  76:Middlewares/ST/usbx/common/usbx_host_classes/src/ux_host_class_storage_media_write.c **** }
  77:Middlewares/ST/usbx/common/usbx_host_classes/src/ux_host_class_storage_media_write.c **** 
  78:Middlewares/ST/usbx/common/usbx_host_classes/src/ux_host_class_storage_media_write.c **** 
  79:Middlewares/ST/usbx/common/usbx_host_classes/src/ux_host_class_storage_media_write.c **** /**************************************************************************/ 
  80:Middlewares/ST/usbx/common/usbx_host_classes/src/ux_host_class_storage_media_write.c **** /*                                                                        */ 
  81:Middlewares/ST/usbx/common/usbx_host_classes/src/ux_host_class_storage_media_write.c **** /*  FUNCTION                                               RELEASE        */ 
  82:Middlewares/ST/usbx/common/usbx_host_classes/src/ux_host_class_storage_media_write.c **** /*                                                                        */ 
  83:Middlewares/ST/usbx/common/usbx_host_classes/src/ux_host_class_storage_media_write.c **** /*    _ux_host_class_storage_media_write                  PORTABLE C      */ 
  84:Middlewares/ST/usbx/common/usbx_host_classes/src/ux_host_class_storage_media_write.c **** /*                                                           6.1.10       */
  85:Middlewares/ST/usbx/common/usbx_host_classes/src/ux_host_class_storage_media_write.c **** /*  AUTHOR                                                                */
  86:Middlewares/ST/usbx/common/usbx_host_classes/src/ux_host_class_storage_media_write.c **** /*                                                                        */
ARM GAS  C:\Users\HP\AppData\Local\Temp\ccmlfaF5.s 			page 3


  87:Middlewares/ST/usbx/common/usbx_host_classes/src/ux_host_class_storage_media_write.c **** /*    Chaoqiong Xiao, Microsoft Corporation                               */
  88:Middlewares/ST/usbx/common/usbx_host_classes/src/ux_host_class_storage_media_write.c **** /*                                                                        */
  89:Middlewares/ST/usbx/common/usbx_host_classes/src/ux_host_class_storage_media_write.c **** /*  DESCRIPTION                                                           */
  90:Middlewares/ST/usbx/common/usbx_host_classes/src/ux_host_class_storage_media_write.c **** /*                                                                        */ 
  91:Middlewares/ST/usbx/common/usbx_host_classes/src/ux_host_class_storage_media_write.c **** /*    This function will write one or more logical sector to the media.   */ 
  92:Middlewares/ST/usbx/common/usbx_host_classes/src/ux_host_class_storage_media_write.c **** /*                                                                        */ 
  93:Middlewares/ST/usbx/common/usbx_host_classes/src/ux_host_class_storage_media_write.c **** /*  INPUT                                                                 */ 
  94:Middlewares/ST/usbx/common/usbx_host_classes/src/ux_host_class_storage_media_write.c **** /*                                                                        */ 
  95:Middlewares/ST/usbx/common/usbx_host_classes/src/ux_host_class_storage_media_write.c **** /*    storage                               Pointer to storage class      */ 
  96:Middlewares/ST/usbx/common/usbx_host_classes/src/ux_host_class_storage_media_write.c **** /*    sector_start                          Starting sector               */ 
  97:Middlewares/ST/usbx/common/usbx_host_classes/src/ux_host_class_storage_media_write.c **** /*    sector_count                          Number of sectors to write    */ 
  98:Middlewares/ST/usbx/common/usbx_host_classes/src/ux_host_class_storage_media_write.c **** /*    data_pointer                          Pointer to data to write      */ 
  99:Middlewares/ST/usbx/common/usbx_host_classes/src/ux_host_class_storage_media_write.c **** /*                                                                        */ 
 100:Middlewares/ST/usbx/common/usbx_host_classes/src/ux_host_class_storage_media_write.c **** /*  OUTPUT                                                                */ 
 101:Middlewares/ST/usbx/common/usbx_host_classes/src/ux_host_class_storage_media_write.c **** /*                                                                        */ 
 102:Middlewares/ST/usbx/common/usbx_host_classes/src/ux_host_class_storage_media_write.c **** /*    Completion Status                                                   */ 
 103:Middlewares/ST/usbx/common/usbx_host_classes/src/ux_host_class_storage_media_write.c **** /*                                                                        */ 
 104:Middlewares/ST/usbx/common/usbx_host_classes/src/ux_host_class_storage_media_write.c **** /*  CALLS                                                                 */ 
 105:Middlewares/ST/usbx/common/usbx_host_classes/src/ux_host_class_storage_media_write.c **** /*                                                                        */ 
 106:Middlewares/ST/usbx/common/usbx_host_classes/src/ux_host_class_storage_media_write.c **** /*    _ux_host_class_storage_cbw_initialize Initialize the CBW            */ 
 107:Middlewares/ST/usbx/common/usbx_host_classes/src/ux_host_class_storage_media_write.c **** /*    _ux_host_class_storage_transport      Send command                  */ 
 108:Middlewares/ST/usbx/common/usbx_host_classes/src/ux_host_class_storage_media_write.c **** /*    _ux_utility_long_put_big_endian       Put 32-bit word               */ 
 109:Middlewares/ST/usbx/common/usbx_host_classes/src/ux_host_class_storage_media_write.c **** /*    _ux_utility_short_put_big_endian      Put 16-bit word               */ 
 110:Middlewares/ST/usbx/common/usbx_host_classes/src/ux_host_class_storage_media_write.c **** /*                                                                        */ 
 111:Middlewares/ST/usbx/common/usbx_host_classes/src/ux_host_class_storage_media_write.c **** /*  CALLED BY                                                             */ 
 112:Middlewares/ST/usbx/common/usbx_host_classes/src/ux_host_class_storage_media_write.c **** /*                                                                        */ 
 113:Middlewares/ST/usbx/common/usbx_host_classes/src/ux_host_class_storage_media_write.c **** /*    Storage Class                                                       */ 
 114:Middlewares/ST/usbx/common/usbx_host_classes/src/ux_host_class_storage_media_write.c **** /*                                                                        */ 
 115:Middlewares/ST/usbx/common/usbx_host_classes/src/ux_host_class_storage_media_write.c **** /*  RELEASE HISTORY                                                       */ 
 116:Middlewares/ST/usbx/common/usbx_host_classes/src/ux_host_class_storage_media_write.c **** /*                                                                        */ 
 117:Middlewares/ST/usbx/common/usbx_host_classes/src/ux_host_class_storage_media_write.c **** /*    DATE              NAME                      DESCRIPTION             */ 
 118:Middlewares/ST/usbx/common/usbx_host_classes/src/ux_host_class_storage_media_write.c **** /*                                                                        */ 
 119:Middlewares/ST/usbx/common/usbx_host_classes/src/ux_host_class_storage_media_write.c **** /*  05-19-2020     Chaoqiong Xiao           Initial Version 6.0           */
 120:Middlewares/ST/usbx/common/usbx_host_classes/src/ux_host_class_storage_media_write.c **** /*  09-30-2020     Chaoqiong Xiao           Modified comment(s),          */
 121:Middlewares/ST/usbx/common/usbx_host_classes/src/ux_host_class_storage_media_write.c **** /*                                            resulting in version 6.1    */
 122:Middlewares/ST/usbx/common/usbx_host_classes/src/ux_host_class_storage_media_write.c **** /*  01-31-2022     Chaoqiong Xiao           Modified comment(s),          */
 123:Middlewares/ST/usbx/common/usbx_host_classes/src/ux_host_class_storage_media_write.c **** /*                                            added standalone support,   */
 124:Middlewares/ST/usbx/common/usbx_host_classes/src/ux_host_class_storage_media_write.c **** /*                                            resulting in version 6.1.10 */
 125:Middlewares/ST/usbx/common/usbx_host_classes/src/ux_host_class_storage_media_write.c **** /*                                                                        */
 126:Middlewares/ST/usbx/common/usbx_host_classes/src/ux_host_class_storage_media_write.c **** /**************************************************************************/
 127:Middlewares/ST/usbx/common/usbx_host_classes/src/ux_host_class_storage_media_write.c **** UINT  _ux_host_class_storage_media_write(UX_HOST_CLASS_STORAGE *storage, ULONG sector_start,
 128:Middlewares/ST/usbx/common/usbx_host_classes/src/ux_host_class_storage_media_write.c ****                                         ULONG sector_count, UCHAR *data_pointer)
 129:Middlewares/ST/usbx/common/usbx_host_classes/src/ux_host_class_storage_media_write.c **** {
  30              		.loc 1 129 1 view -0
  31              		.cfi_startproc
  32              		@ args = 0, pretend = 0, frame = 0
  33              		@ frame_needed = 0, uses_anonymous_args = 0
  34              		.loc 1 129 1 is_stmt 0 view .LVU1
  35 0000 F8B5     		push	{r3, r4, r5, r6, r7, lr}
  36              	.LCFI0:
  37              		.cfi_def_cfa_offset 24
  38              		.cfi_offset 3, -24
  39              		.cfi_offset 4, -20
  40              		.cfi_offset 5, -16
  41              		.cfi_offset 6, -12
  42              		.cfi_offset 7, -8
  43              		.cfi_offset 14, -4
ARM GAS  C:\Users\HP\AppData\Local\Temp\ccmlfaF5.s 			page 4


  44 0002 0546     		mov	r5, r0
  45 0004 0F46     		mov	r7, r1
  46 0006 1446     		mov	r4, r2
  47 0008 1E46     		mov	r6, r3
 130:Middlewares/ST/usbx/common/usbx_host_classes/src/ux_host_class_storage_media_write.c **** #if defined(UX_HOST_STANDALONE)
 131:Middlewares/ST/usbx/common/usbx_host_classes/src/ux_host_class_storage_media_write.c **** UINT            status;
 132:Middlewares/ST/usbx/common/usbx_host_classes/src/ux_host_class_storage_media_write.c ****     do {
 133:Middlewares/ST/usbx/common/usbx_host_classes/src/ux_host_class_storage_media_write.c ****         status = _ux_host_class_storage_read_write_run(storage, UX_FALSE,
 134:Middlewares/ST/usbx/common/usbx_host_classes/src/ux_host_class_storage_media_write.c ****                                     sector_start, sector_count, data_pointer);
 135:Middlewares/ST/usbx/common/usbx_host_classes/src/ux_host_class_storage_media_write.c ****     } while(status == UX_STATE_WAIT);
 136:Middlewares/ST/usbx/common/usbx_host_classes/src/ux_host_class_storage_media_write.c ****     return(storage -> ux_host_class_storage_status);
 137:Middlewares/ST/usbx/common/usbx_host_classes/src/ux_host_class_storage_media_write.c **** #else
 138:Middlewares/ST/usbx/common/usbx_host_classes/src/ux_host_class_storage_media_write.c **** UINT            status;
  48              		.loc 1 138 1 is_stmt 1 view .LVU2
 139:Middlewares/ST/usbx/common/usbx_host_classes/src/ux_host_class_storage_media_write.c **** UINT            media_retry;
  49              		.loc 1 139 1 view .LVU3
 140:Middlewares/ST/usbx/common/usbx_host_classes/src/ux_host_class_storage_media_write.c **** 
 141:Middlewares/ST/usbx/common/usbx_host_classes/src/ux_host_class_storage_media_write.c ****     /* If trace is enabled, insert this event into the trace buffer.  */
 142:Middlewares/ST/usbx/common/usbx_host_classes/src/ux_host_class_storage_media_write.c ****     UX_TRACE_IN_LINE_INSERT(UX_TRACE_HOST_CLASS_STORAGE_MEDIA_WRITE, storage, sector_start, sector_
 143:Middlewares/ST/usbx/common/usbx_host_classes/src/ux_host_class_storage_media_write.c **** 
 144:Middlewares/ST/usbx/common/usbx_host_classes/src/ux_host_class_storage_media_write.c ****     /* Initialize CBW.  */
 145:Middlewares/ST/usbx/common/usbx_host_classes/src/ux_host_class_storage_media_write.c ****     _ux_host_class_storage_write_initialize(storage, sector_start, sector_count);
  50              		.loc 1 145 5 view .LVU4
  51              	.LVL1:
  52              	.LBB4:
  53              	.LBI4:
  41:Middlewares/ST/usbx/common/usbx_host_classes/src/ux_host_class_storage_media_write.c ****                 ULONG sector_start, ULONG sector_count)
  54              		.loc 1 41 1 view .LVU5
  55              	.LBB5:
  44:Middlewares/ST/usbx/common/usbx_host_classes/src/ux_host_class_storage_media_write.c **** UCHAR       *cbw_cb;
  56              		.loc 1 44 1 view .LVU6
  45:Middlewares/ST/usbx/common/usbx_host_classes/src/ux_host_class_storage_media_write.c **** ULONG       command_length;
  57              		.loc 1 45 1 view .LVU7
  46:Middlewares/ST/usbx/common/usbx_host_classes/src/ux_host_class_storage_media_write.c **** 
  58              		.loc 1 46 1 view .LVU8
  49:Middlewares/ST/usbx/common/usbx_host_classes/src/ux_host_class_storage_media_write.c ****     cbw_cb = cbw + UX_HOST_CLASS_STORAGE_CBW_CB;
  59              		.loc 1 49 5 view .LVU9
  50:Middlewares/ST/usbx/common/usbx_host_classes/src/ux_host_class_storage_media_write.c **** 
  60              		.loc 1 50 5 view .LVU10
  60:Middlewares/ST/usbx/common/usbx_host_classes/src/ux_host_class_storage_media_write.c **** #endif
  61              		.loc 1 60 5 view .LVU11
  64:Middlewares/ST/usbx/common/usbx_host_classes/src/ux_host_class_storage_media_write.c ****                                     sector_count * storage -> ux_host_class_storage_sector_size,
  62              		.loc 1 64 5 view .LVU12
  65:Middlewares/ST/usbx/common/usbx_host_classes/src/ux_host_class_storage_media_write.c ****                                     command_length);
  63              		.loc 1 65 60 is_stmt 0 view .LVU13
  64 000a D0F88820 		ldr	r2, [r0, #136]
  65              	.LVL2:
  64:Middlewares/ST/usbx/common/usbx_host_classes/src/ux_host_class_storage_media_write.c ****                                     sector_count * storage -> ux_host_class_storage_sector_size,
  66              		.loc 1 64 5 view .LVU14
  67 000e 0A23     		movs	r3, #10
  68              	.LVL3:
  64:Middlewares/ST/usbx/common/usbx_host_classes/src/ux_host_class_storage_media_write.c ****                                     sector_count * storage -> ux_host_class_storage_sector_size,
  69              		.loc 1 64 5 view .LVU15
  70 0010 04FB02F2 		mul	r2, r4, r2
  71 0014 0021     		movs	r1, #0
  72              	.LVL4:
  64:Middlewares/ST/usbx/common/usbx_host_classes/src/ux_host_class_storage_media_write.c ****                                     sector_count * storage -> ux_host_class_storage_sector_size,
ARM GAS  C:\Users\HP\AppData\Local\Temp\ccmlfaF5.s 			page 5


  73              		.loc 1 64 5 view .LVU16
  74 0016 FFF7FEFF 		bl	_ux_host_class_storage_cbw_initialize
  75              	.LVL5:
  69:Middlewares/ST/usbx/common/usbx_host_classes/src/ux_host_class_storage_media_write.c **** 
  76              		.loc 1 69 5 is_stmt 1 view .LVU17
  69:Middlewares/ST/usbx/common/usbx_host_classes/src/ux_host_class_storage_media_write.c **** 
  77              		.loc 1 69 55 is_stmt 0 view .LVU18
  78 001a 2A23     		movs	r3, #42
  79 001c 85F82B30 		strb	r3, [r5, #43]
  72:Middlewares/ST/usbx/common/usbx_host_classes/src/ux_host_class_storage_media_write.c **** 
  80              		.loc 1 72 5 is_stmt 1 view .LVU19
  81 0020 3946     		mov	r1, r7
  82 0022 05F12D00 		add	r0, r5, #45
  83 0026 FFF7FEFF 		bl	_ux_utility_long_put_big_endian
  84              	.LVL6:
  75:Middlewares/ST/usbx/common/usbx_host_classes/src/ux_host_class_storage_media_write.c **** }
  85              		.loc 1 75 5 view .LVU20
  86 002a A1B2     		uxth	r1, r4
  87 002c 05F13200 		add	r0, r5, #50
  88 0030 FFF7FEFF 		bl	_ux_utility_short_put_big_endian
  89              	.LVL7:
  90              	.LBE5:
  91              	.LBE4:
 146:Middlewares/ST/usbx/common/usbx_host_classes/src/ux_host_class_storage_media_write.c **** 
 147:Middlewares/ST/usbx/common/usbx_host_classes/src/ux_host_class_storage_media_write.c ****     /* Reset the retry count.  */
 148:Middlewares/ST/usbx/common/usbx_host_classes/src/ux_host_class_storage_media_write.c ****     media_retry =  UX_HOST_CLASS_STORAGE_REQUEST_SENSE_RETRY;
  92              		.loc 1 148 17 is_stmt 0 view .LVU21
  93 0034 0A24     		movs	r4, #10
  94              	.LVL8:
  95              	.L2:
 149:Middlewares/ST/usbx/common/usbx_host_classes/src/ux_host_class_storage_media_write.c **** 
 150:Middlewares/ST/usbx/common/usbx_host_classes/src/ux_host_class_storage_media_write.c ****     /* We may need several attempts.  */
 151:Middlewares/ST/usbx/common/usbx_host_classes/src/ux_host_class_storage_media_write.c ****     while (media_retry-- != 0)
  96              		.loc 1 151 11 is_stmt 1 view .LVU22
  97 0036 2246     		mov	r2, r4
  98              		.loc 1 151 23 is_stmt 0 view .LVU23
  99 0038 013C     		subs	r4, r4, #1
 100              	.LVL9:
 101              		.loc 1 151 11 view .LVU24
 102 003a 52B1     		cbz	r2, .L6
 152:Middlewares/ST/usbx/common/usbx_host_classes/src/ux_host_class_storage_media_write.c ****     {
 153:Middlewares/ST/usbx/common/usbx_host_classes/src/ux_host_class_storage_media_write.c **** 
 154:Middlewares/ST/usbx/common/usbx_host_classes/src/ux_host_class_storage_media_write.c ****         /* Send the command to transport layer.  */
 155:Middlewares/ST/usbx/common/usbx_host_classes/src/ux_host_class_storage_media_write.c ****         status =  _ux_host_class_storage_transport(storage, data_pointer);
 103              		.loc 1 155 9 is_stmt 1 view .LVU25
 104              		.loc 1 155 19 is_stmt 0 view .LVU26
 105 003c 3146     		mov	r1, r6
 106 003e 2846     		mov	r0, r5
 107 0040 FFF7FEFF 		bl	_ux_host_class_storage_transport
 108              	.LVL10:
 156:Middlewares/ST/usbx/common/usbx_host_classes/src/ux_host_class_storage_media_write.c ****         if (status != UX_SUCCESS)
 109              		.loc 1 156 9 is_stmt 1 view .LVU27
 110              		.loc 1 156 12 is_stmt 0 view .LVU28
 111 0044 0246     		mov	r2, r0
 112 0046 28B9     		cbnz	r0, .L1
 157:Middlewares/ST/usbx/common/usbx_host_classes/src/ux_host_class_storage_media_write.c ****             return(status);
 158:Middlewares/ST/usbx/common/usbx_host_classes/src/ux_host_class_storage_media_write.c **** 
ARM GAS  C:\Users\HP\AppData\Local\Temp\ccmlfaF5.s 			page 6


 159:Middlewares/ST/usbx/common/usbx_host_classes/src/ux_host_class_storage_media_write.c ****         /* Check the sense code */
 160:Middlewares/ST/usbx/common/usbx_host_classes/src/ux_host_class_storage_media_write.c ****         if (storage -> ux_host_class_storage_sense_code == UX_SUCCESS)
 113              		.loc 1 160 9 is_stmt 1 view .LVU29
 114              		.loc 1 160 21 is_stmt 0 view .LVU30
 115 0048 D5F89020 		ldr	r2, [r5, #144]
 116              		.loc 1 160 12 view .LVU31
 117 004c 002A     		cmp	r2, #0
 118 004e F2D1     		bne	.L2
 119 0050 00E0     		b	.L1
 120              	.LVL11:
 121              	.L6:
 161:Middlewares/ST/usbx/common/usbx_host_classes/src/ux_host_class_storage_media_write.c ****             return(UX_SUCCESS);
 162:Middlewares/ST/usbx/common/usbx_host_classes/src/ux_host_class_storage_media_write.c ****     }
 163:Middlewares/ST/usbx/common/usbx_host_classes/src/ux_host_class_storage_media_write.c **** 
 164:Middlewares/ST/usbx/common/usbx_host_classes/src/ux_host_class_storage_media_write.c ****     /* Return sense error.  */
 165:Middlewares/ST/usbx/common/usbx_host_classes/src/ux_host_class_storage_media_write.c ****     return(UX_HOST_CLASS_STORAGE_SENSE_ERROR);                                            
 122              		.loc 1 165 11 view .LVU32
 123 0052 0322     		movs	r2, #3
 124              	.L1:
 166:Middlewares/ST/usbx/common/usbx_host_classes/src/ux_host_class_storage_media_write.c **** #endif
 167:Middlewares/ST/usbx/common/usbx_host_classes/src/ux_host_class_storage_media_write.c **** }
 125              		.loc 1 167 1 view .LVU33
 126 0054 1046     		mov	r0, r2
 127 0056 F8BD     		pop	{r3, r4, r5, r6, r7, pc}
 128              		.loc 1 167 1 view .LVU34
 129              		.cfi_endproc
 130              	.LFE12:
 132              		.text
 133              	.Letext0:
 134              		.file 2 "Middlewares/ST/threadx/ports/cortex_m4/gnu/inc/tx_port.h"
 135              		.file 3 "Middlewares/ST/threadx/common/inc/tx_api.h"
 136              		.file 4 "Middlewares/ST/usbx/common/core/inc/ux_api.h"
 137              		.file 5 "Middlewares/ST/usbx/common/usbx_host_classes/inc/ux_host_class_storage.h"
 138              		.file 6 "Middlewares/ST/usbx/common/core/inc/ux_utility.h"
ARM GAS  C:\Users\HP\AppData\Local\Temp\ccmlfaF5.s 			page 7

