ARM GAS  C:\Users\HP\AppData\Local\Temp\ccbIbBBQ.s 			page 1


   1              		.cpu cortex-m4
   2              		.arch armv7e-m
   3              		.fpu fpv4-sp-d16
   4              		.eabi_attribute 27, 1
   5              		.eabi_attribute 28, 1
   6              		.eabi_attribute 20, 1
   7              		.eabi_attribute 21, 1
   8              		.eabi_attribute 23, 3
   9              		.eabi_attribute 24, 1
  10              		.eabi_attribute 25, 1
  11              		.eabi_attribute 26, 1
  12              		.eabi_attribute 30, 1
  13              		.eabi_attribute 34, 1
  14              		.eabi_attribute 18, 4
  15              		.file	"ux_host_class_storage_media_open.c"
  16              		.text
  17              	.Ltext0:
  18              		.cfi_sections	.debug_frame
  19              		.section	.rodata._ux_host_class_storage_media_open.str1.4,"aMS",%progbits,1
  20              		.align	2
  21              	.LC0:
  22 0000 75736220 		.ascii	"usb disk\000"
  22      6469736B 
  22      00
  23              		.section	.text._ux_host_class_storage_media_open,"ax",%progbits
  24              		.align	1
  25              		.global	_ux_host_class_storage_media_open
  26              		.syntax unified
  27              		.thumb
  28              		.thumb_func
  30              	_ux_host_class_storage_media_open:
  31              	.LVL0:
  32              	.LFB11:
  33              		.file 1 "Middlewares/ST/usbx/common/usbx_host_classes/src/ux_host_class_storage_media_open.c"
   1:Middlewares/ST/usbx/common/usbx_host_classes/src/ux_host_class_storage_media_open.c **** /**************************************************************************/
   2:Middlewares/ST/usbx/common/usbx_host_classes/src/ux_host_class_storage_media_open.c **** /*                                                                        */
   3:Middlewares/ST/usbx/common/usbx_host_classes/src/ux_host_class_storage_media_open.c **** /*       Copyright (c) Microsoft Corporation. All rights reserved.        */
   4:Middlewares/ST/usbx/common/usbx_host_classes/src/ux_host_class_storage_media_open.c **** /*                                                                        */
   5:Middlewares/ST/usbx/common/usbx_host_classes/src/ux_host_class_storage_media_open.c **** /*       This software is licensed under the Microsoft Software License   */
   6:Middlewares/ST/usbx/common/usbx_host_classes/src/ux_host_class_storage_media_open.c **** /*       Terms for Microsoft Azure RTOS. Full text of the license can be  */
   7:Middlewares/ST/usbx/common/usbx_host_classes/src/ux_host_class_storage_media_open.c **** /*       found in the LICENSE file at https://aka.ms/AzureRTOS_EULA       */
   8:Middlewares/ST/usbx/common/usbx_host_classes/src/ux_host_class_storage_media_open.c **** /*       and in the root directory of this software.                      */
   9:Middlewares/ST/usbx/common/usbx_host_classes/src/ux_host_class_storage_media_open.c **** /*                                                                        */
  10:Middlewares/ST/usbx/common/usbx_host_classes/src/ux_host_class_storage_media_open.c **** /**************************************************************************/
  11:Middlewares/ST/usbx/common/usbx_host_classes/src/ux_host_class_storage_media_open.c **** 
  12:Middlewares/ST/usbx/common/usbx_host_classes/src/ux_host_class_storage_media_open.c **** 
  13:Middlewares/ST/usbx/common/usbx_host_classes/src/ux_host_class_storage_media_open.c **** /**************************************************************************/
  14:Middlewares/ST/usbx/common/usbx_host_classes/src/ux_host_class_storage_media_open.c **** /**************************************************************************/
  15:Middlewares/ST/usbx/common/usbx_host_classes/src/ux_host_class_storage_media_open.c **** /**                                                                       */ 
  16:Middlewares/ST/usbx/common/usbx_host_classes/src/ux_host_class_storage_media_open.c **** /** USBX Component                                                        */ 
  17:Middlewares/ST/usbx/common/usbx_host_classes/src/ux_host_class_storage_media_open.c **** /**                                                                       */
  18:Middlewares/ST/usbx/common/usbx_host_classes/src/ux_host_class_storage_media_open.c **** /**   Storage Class                                                       */
  19:Middlewares/ST/usbx/common/usbx_host_classes/src/ux_host_class_storage_media_open.c **** /**                                                                       */
  20:Middlewares/ST/usbx/common/usbx_host_classes/src/ux_host_class_storage_media_open.c **** /**************************************************************************/
  21:Middlewares/ST/usbx/common/usbx_host_classes/src/ux_host_class_storage_media_open.c **** /**************************************************************************/
  22:Middlewares/ST/usbx/common/usbx_host_classes/src/ux_host_class_storage_media_open.c **** 
  23:Middlewares/ST/usbx/common/usbx_host_classes/src/ux_host_class_storage_media_open.c **** 
ARM GAS  C:\Users\HP\AppData\Local\Temp\ccbIbBBQ.s 			page 2


  24:Middlewares/ST/usbx/common/usbx_host_classes/src/ux_host_class_storage_media_open.c **** /* Include necessary system files.  */
  25:Middlewares/ST/usbx/common/usbx_host_classes/src/ux_host_class_storage_media_open.c **** 
  26:Middlewares/ST/usbx/common/usbx_host_classes/src/ux_host_class_storage_media_open.c **** #define UX_SOURCE_CODE
  27:Middlewares/ST/usbx/common/usbx_host_classes/src/ux_host_class_storage_media_open.c **** 
  28:Middlewares/ST/usbx/common/usbx_host_classes/src/ux_host_class_storage_media_open.c **** #include "ux_api.h"
  29:Middlewares/ST/usbx/common/usbx_host_classes/src/ux_host_class_storage_media_open.c **** #include "ux_host_class_storage.h"
  30:Middlewares/ST/usbx/common/usbx_host_classes/src/ux_host_class_storage_media_open.c **** #include "ux_host_stack.h"
  31:Middlewares/ST/usbx/common/usbx_host_classes/src/ux_host_class_storage_media_open.c **** 
  32:Middlewares/ST/usbx/common/usbx_host_classes/src/ux_host_class_storage_media_open.c **** 
  33:Middlewares/ST/usbx/common/usbx_host_classes/src/ux_host_class_storage_media_open.c **** /**************************************************************************/ 
  34:Middlewares/ST/usbx/common/usbx_host_classes/src/ux_host_class_storage_media_open.c **** /*                                                                        */ 
  35:Middlewares/ST/usbx/common/usbx_host_classes/src/ux_host_class_storage_media_open.c **** /*  FUNCTION                                               RELEASE        */ 
  36:Middlewares/ST/usbx/common/usbx_host_classes/src/ux_host_class_storage_media_open.c **** /*                                                                        */ 
  37:Middlewares/ST/usbx/common/usbx_host_classes/src/ux_host_class_storage_media_open.c **** /*    _ux_host_class_storage_media_open                   PORTABLE C      */ 
  38:Middlewares/ST/usbx/common/usbx_host_classes/src/ux_host_class_storage_media_open.c **** /*                                                           6.2.0        */
  39:Middlewares/ST/usbx/common/usbx_host_classes/src/ux_host_class_storage_media_open.c **** /*  AUTHOR                                                                */
  40:Middlewares/ST/usbx/common/usbx_host_classes/src/ux_host_class_storage_media_open.c **** /*                                                                        */
  41:Middlewares/ST/usbx/common/usbx_host_classes/src/ux_host_class_storage_media_open.c **** /*    Chaoqiong Xiao, Microsoft Corporation                               */
  42:Middlewares/ST/usbx/common/usbx_host_classes/src/ux_host_class_storage_media_open.c **** /*                                                                        */
  43:Middlewares/ST/usbx/common/usbx_host_classes/src/ux_host_class_storage_media_open.c **** /*  DESCRIPTION                                                           */
  44:Middlewares/ST/usbx/common/usbx_host_classes/src/ux_host_class_storage_media_open.c **** /*                                                                        */ 
  45:Middlewares/ST/usbx/common/usbx_host_classes/src/ux_host_class_storage_media_open.c **** /*    This function will ask UX_MEDIA (default FileX) to mount a new      */
  46:Middlewares/ST/usbx/common/usbx_host_classes/src/ux_host_class_storage_media_open.c **** /*    partition for this device. This function has some                   */
  47:Middlewares/ST/usbx/common/usbx_host_classes/src/ux_host_class_storage_media_open.c **** /*    UX_MEDIA (default FileX) dependencies.                              */ 
  48:Middlewares/ST/usbx/common/usbx_host_classes/src/ux_host_class_storage_media_open.c **** /*                                                                        */ 
  49:Middlewares/ST/usbx/common/usbx_host_classes/src/ux_host_class_storage_media_open.c **** /*  INPUT                                                                 */ 
  50:Middlewares/ST/usbx/common/usbx_host_classes/src/ux_host_class_storage_media_open.c **** /*                                                                        */ 
  51:Middlewares/ST/usbx/common/usbx_host_classes/src/ux_host_class_storage_media_open.c **** /*    storage                               Pointer to storage class      */ 
  52:Middlewares/ST/usbx/common/usbx_host_classes/src/ux_host_class_storage_media_open.c **** /*    hidden_sectors                        Number of hidden sectors      */ 
  53:Middlewares/ST/usbx/common/usbx_host_classes/src/ux_host_class_storage_media_open.c **** /*                                                                        */ 
  54:Middlewares/ST/usbx/common/usbx_host_classes/src/ux_host_class_storage_media_open.c **** /*  OUTPUT                                                                */ 
  55:Middlewares/ST/usbx/common/usbx_host_classes/src/ux_host_class_storage_media_open.c **** /*                                                                        */ 
  56:Middlewares/ST/usbx/common/usbx_host_classes/src/ux_host_class_storage_media_open.c **** /*    Completion Status                                                   */ 
  57:Middlewares/ST/usbx/common/usbx_host_classes/src/ux_host_class_storage_media_open.c **** /*                                                                        */ 
  58:Middlewares/ST/usbx/common/usbx_host_classes/src/ux_host_class_storage_media_open.c **** /*  CALLS                                                                 */ 
  59:Middlewares/ST/usbx/common/usbx_host_classes/src/ux_host_class_storage_media_open.c **** /*                                                                        */ 
  60:Middlewares/ST/usbx/common/usbx_host_classes/src/ux_host_class_storage_media_open.c **** /*    ux_media_open                         Media open                    */ 
  61:Middlewares/ST/usbx/common/usbx_host_classes/src/ux_host_class_storage_media_open.c **** /*    _ux_host_class_storage_media_protection_check                       */
  62:Middlewares/ST/usbx/common/usbx_host_classes/src/ux_host_class_storage_media_open.c **** /*                                          Check for protection          */ 
  63:Middlewares/ST/usbx/common/usbx_host_classes/src/ux_host_class_storage_media_open.c **** /*    _ux_utility_memory_allocate           Allocate memory block         */ 
  64:Middlewares/ST/usbx/common/usbx_host_classes/src/ux_host_class_storage_media_open.c **** /*    _ux_utility_memory_free               Free memory block             */
  65:Middlewares/ST/usbx/common/usbx_host_classes/src/ux_host_class_storage_media_open.c **** /*                                                                        */ 
  66:Middlewares/ST/usbx/common/usbx_host_classes/src/ux_host_class_storage_media_open.c **** /*  CALLED BY                                                             */ 
  67:Middlewares/ST/usbx/common/usbx_host_classes/src/ux_host_class_storage_media_open.c **** /*                                                                        */ 
  68:Middlewares/ST/usbx/common/usbx_host_classes/src/ux_host_class_storage_media_open.c **** /*    _ux_host_class_storage_media_mount            Media open            */ 
  69:Middlewares/ST/usbx/common/usbx_host_classes/src/ux_host_class_storage_media_open.c **** /*                                                                        */ 
  70:Middlewares/ST/usbx/common/usbx_host_classes/src/ux_host_class_storage_media_open.c **** /*  RELEASE HISTORY                                                       */ 
  71:Middlewares/ST/usbx/common/usbx_host_classes/src/ux_host_class_storage_media_open.c **** /*                                                                        */ 
  72:Middlewares/ST/usbx/common/usbx_host_classes/src/ux_host_class_storage_media_open.c **** /*    DATE              NAME                      DESCRIPTION             */ 
  73:Middlewares/ST/usbx/common/usbx_host_classes/src/ux_host_class_storage_media_open.c **** /*                                                                        */ 
  74:Middlewares/ST/usbx/common/usbx_host_classes/src/ux_host_class_storage_media_open.c **** /*  05-19-2020     Chaoqiong Xiao           Initial Version 6.0           */
  75:Middlewares/ST/usbx/common/usbx_host_classes/src/ux_host_class_storage_media_open.c **** /*  09-30-2020     Chaoqiong Xiao           Modified comment(s),          */
  76:Middlewares/ST/usbx/common/usbx_host_classes/src/ux_host_class_storage_media_open.c **** /*                                            added option to disable FX  */
  77:Middlewares/ST/usbx/common/usbx_host_classes/src/ux_host_class_storage_media_open.c **** /*                                            media integration, used UX_ */
  78:Middlewares/ST/usbx/common/usbx_host_classes/src/ux_host_class_storage_media_open.c **** /*                                            things instead of FX_       */
  79:Middlewares/ST/usbx/common/usbx_host_classes/src/ux_host_class_storage_media_open.c **** /*                                            things directly, used host  */
  80:Middlewares/ST/usbx/common/usbx_host_classes/src/ux_host_class_storage_media_open.c **** /*                                            class extension pointer for */
ARM GAS  C:\Users\HP\AppData\Local\Temp\ccbIbBBQ.s 			page 3


  81:Middlewares/ST/usbx/common/usbx_host_classes/src/ux_host_class_storage_media_open.c **** /*                                            class specific structured   */
  82:Middlewares/ST/usbx/common/usbx_host_classes/src/ux_host_class_storage_media_open.c **** /*                                            data,                       */
  83:Middlewares/ST/usbx/common/usbx_host_classes/src/ux_host_class_storage_media_open.c **** /*                                            resulting in version 6.1    */
  84:Middlewares/ST/usbx/common/usbx_host_classes/src/ux_host_class_storage_media_open.c **** /*  10-31-2022     Chaoqiong Xiao           Modified comment(s),          */
  85:Middlewares/ST/usbx/common/usbx_host_classes/src/ux_host_class_storage_media_open.c **** /*                                            added buffer size check,    */
  86:Middlewares/ST/usbx/common/usbx_host_classes/src/ux_host_class_storage_media_open.c **** /*                                            resulting in version 6.2.0  */
  87:Middlewares/ST/usbx/common/usbx_host_classes/src/ux_host_class_storage_media_open.c **** /*                                                                        */
  88:Middlewares/ST/usbx/common/usbx_host_classes/src/ux_host_class_storage_media_open.c **** /**************************************************************************/
  89:Middlewares/ST/usbx/common/usbx_host_classes/src/ux_host_class_storage_media_open.c **** UINT  _ux_host_class_storage_media_open(UX_HOST_CLASS_STORAGE *storage, ULONG hidden_sectors)
  90:Middlewares/ST/usbx/common/usbx_host_classes/src/ux_host_class_storage_media_open.c **** {
  34              		.loc 1 90 1 view -0
  35              		.cfi_startproc
  36              		@ args = 0, pretend = 0, frame = 0
  37              		@ frame_needed = 0, uses_anonymous_args = 0
  38              		.loc 1 90 1 is_stmt 0 view .LVU1
  39 0000 70B5     		push	{r4, r5, r6, lr}
  40              	.LCFI0:
  41              		.cfi_def_cfa_offset 16
  42              		.cfi_offset 4, -16
  43              		.cfi_offset 5, -12
  44              		.cfi_offset 6, -8
  45              		.cfi_offset 14, -4
  46 0002 84B0     		sub	sp, sp, #16
  47              	.LCFI1:
  48              		.cfi_def_cfa_offset 32
  49 0004 0546     		mov	r5, r0
  91:Middlewares/ST/usbx/common/usbx_host_classes/src/ux_host_class_storage_media_open.c **** 
  92:Middlewares/ST/usbx/common/usbx_host_classes/src/ux_host_class_storage_media_open.c **** #if defined(UX_HOST_CLASS_STORAGE_NO_FILEX)
  93:Middlewares/ST/usbx/common/usbx_host_classes/src/ux_host_class_storage_media_open.c ****     UX_PARAMETER_NOT_USED(storage);
  94:Middlewares/ST/usbx/common/usbx_host_classes/src/ux_host_class_storage_media_open.c ****     UX_PARAMETER_NOT_USED(hidden_sectors);
  95:Middlewares/ST/usbx/common/usbx_host_classes/src/ux_host_class_storage_media_open.c ****     return(UX_FUNCTION_NOT_SUPPORTED);
  96:Middlewares/ST/usbx/common/usbx_host_classes/src/ux_host_class_storage_media_open.c **** #else
  97:Middlewares/ST/usbx/common/usbx_host_classes/src/ux_host_class_storage_media_open.c **** UINT                                status;
  50              		.loc 1 97 1 is_stmt 1 view .LVU2
  98:Middlewares/ST/usbx/common/usbx_host_classes/src/ux_host_class_storage_media_open.c **** UINT                                media_index;
  51              		.loc 1 98 1 view .LVU3
  99:Middlewares/ST/usbx/common/usbx_host_classes/src/ux_host_class_storage_media_open.c **** UX_HOST_CLASS_STORAGE_MEDIA         *storage_media;
  52              		.loc 1 99 1 view .LVU4
 100:Middlewares/ST/usbx/common/usbx_host_classes/src/ux_host_class_storage_media_open.c **** UX_MEDIA                            *media;
  53              		.loc 1 100 1 view .LVU5
 101:Middlewares/ST/usbx/common/usbx_host_classes/src/ux_host_class_storage_media_open.c **** UX_HOST_CLASS                       *class_inst;
  54              		.loc 1 101 1 view .LVU6
 102:Middlewares/ST/usbx/common/usbx_host_classes/src/ux_host_class_storage_media_open.c ****     
 103:Middlewares/ST/usbx/common/usbx_host_classes/src/ux_host_class_storage_media_open.c **** 
 104:Middlewares/ST/usbx/common/usbx_host_classes/src/ux_host_class_storage_media_open.c ****     /* We need the class container.  */
 105:Middlewares/ST/usbx/common/usbx_host_classes/src/ux_host_class_storage_media_open.c ****     class_inst =  storage -> ux_host_class_storage_class;
  55              		.loc 1 105 5 view .LVU7
  56              		.loc 1 105 16 is_stmt 0 view .LVU8
  57 0006 4368     		ldr	r3, [r0, #4]
  58              	.LVL1:
 106:Middlewares/ST/usbx/common/usbx_host_classes/src/ux_host_class_storage_media_open.c ****     
 107:Middlewares/ST/usbx/common/usbx_host_classes/src/ux_host_class_storage_media_open.c ****     /* Point the media structure to the first media in the container.  */
 108:Middlewares/ST/usbx/common/usbx_host_classes/src/ux_host_class_storage_media_open.c ****     storage_media =  (UX_HOST_CLASS_STORAGE_MEDIA *) class_inst -> ux_host_class_media;
  59              		.loc 1 108 5 is_stmt 1 view .LVU9
  60              		.loc 1 108 19 is_stmt 0 view .LVU10
  61 0008 1C6D     		ldr	r4, [r3, #80]
  62              	.LVL2:
ARM GAS  C:\Users\HP\AppData\Local\Temp\ccbIbBBQ.s 			page 4


 109:Middlewares/ST/usbx/common/usbx_host_classes/src/ux_host_class_storage_media_open.c **** 
 110:Middlewares/ST/usbx/common/usbx_host_classes/src/ux_host_class_storage_media_open.c ****     /* Locate a free partition in the storage instance.  */
 111:Middlewares/ST/usbx/common/usbx_host_classes/src/ux_host_class_storage_media_open.c ****     for (media_index = 0; media_index < UX_HOST_CLASS_STORAGE_MAX_MEDIA; media_index++)
  63              		.loc 1 111 5 is_stmt 1 view .LVU11
  64              		.loc 1 111 22 is_stmt 0 view .LVU12
  65 000a 0022     		movs	r2, #0
  66              	.LVL3:
  67              	.L2:
  68              		.loc 1 111 27 is_stmt 1 discriminator 1 view .LVU13
  69              		.loc 1 111 5 is_stmt 0 discriminator 1 view .LVU14
  70 000c 42B1     		cbz	r2, .L8
 112:Middlewares/ST/usbx/common/usbx_host_classes/src/ux_host_class_storage_media_open.c ****     {
 113:Middlewares/ST/usbx/common/usbx_host_classes/src/ux_host_class_storage_media_open.c **** 
 114:Middlewares/ST/usbx/common/usbx_host_classes/src/ux_host_class_storage_media_open.c ****         /* Get the USBX Integrated Media pointer for that media.  */
 115:Middlewares/ST/usbx/common/usbx_host_classes/src/ux_host_class_storage_media_open.c ****         media =  &storage_media -> ux_host_class_storage_media;
 116:Middlewares/ST/usbx/common/usbx_host_classes/src/ux_host_class_storage_media_open.c ****         
 117:Middlewares/ST/usbx/common/usbx_host_classes/src/ux_host_class_storage_media_open.c ****         /* Is the media valid?  */
 118:Middlewares/ST/usbx/common/usbx_host_classes/src/ux_host_class_storage_media_open.c ****         if (ux_media_id_get(media) == 0)
 119:Middlewares/ST/usbx/common/usbx_host_classes/src/ux_host_class_storage_media_open.c ****         {
 120:Middlewares/ST/usbx/common/usbx_host_classes/src/ux_host_class_storage_media_open.c **** 
 121:Middlewares/ST/usbx/common/usbx_host_classes/src/ux_host_class_storage_media_open.c ****             /* Save the storage instance in the media instance.  */
 122:Middlewares/ST/usbx/common/usbx_host_classes/src/ux_host_class_storage_media_open.c ****             ux_media_driver_info_set(media, storage);
 123:Middlewares/ST/usbx/common/usbx_host_classes/src/ux_host_class_storage_media_open.c ****                             
 124:Middlewares/ST/usbx/common/usbx_host_classes/src/ux_host_class_storage_media_open.c ****             /* Save the number of hidden sectors in this partition.  */
 125:Middlewares/ST/usbx/common/usbx_host_classes/src/ux_host_class_storage_media_open.c ****             storage_media -> ux_host_class_storage_media_partition_start =  hidden_sectors;
 126:Middlewares/ST/usbx/common/usbx_host_classes/src/ux_host_class_storage_media_open.c **** 
 127:Middlewares/ST/usbx/common/usbx_host_classes/src/ux_host_class_storage_media_open.c ****             /* Save the LUN number in the storage media instance.  */
 128:Middlewares/ST/usbx/common/usbx_host_classes/src/ux_host_class_storage_media_open.c ****             storage_media -> ux_host_class_storage_media_lun =  storage -> ux_host_class_storage_lu
 129:Middlewares/ST/usbx/common/usbx_host_classes/src/ux_host_class_storage_media_open.c **** 
 130:Middlewares/ST/usbx/common/usbx_host_classes/src/ux_host_class_storage_media_open.c ****             /* Save the Sector size in the storage media instance.  */
 131:Middlewares/ST/usbx/common/usbx_host_classes/src/ux_host_class_storage_media_open.c ****             storage_media -> ux_host_class_storage_media_sector_size =  storage -> ux_host_class_st
 132:Middlewares/ST/usbx/common/usbx_host_classes/src/ux_host_class_storage_media_open.c **** 
 133:Middlewares/ST/usbx/common/usbx_host_classes/src/ux_host_class_storage_media_open.c ****             /* Check if media setting can support the sector size.  */
 134:Middlewares/ST/usbx/common/usbx_host_classes/src/ux_host_class_storage_media_open.c ****             if (storage -> ux_host_class_storage_sector_size > UX_HOST_CLASS_STORAGE_MEMORY_BUFFER_
 135:Middlewares/ST/usbx/common/usbx_host_classes/src/ux_host_class_storage_media_open.c ****             {
 136:Middlewares/ST/usbx/common/usbx_host_classes/src/ux_host_class_storage_media_open.c ****                 /* Error trap.  */
 137:Middlewares/ST/usbx/common/usbx_host_classes/src/ux_host_class_storage_media_open.c ****                 _ux_system_error_handler(UX_SYSTEM_LEVEL_THREAD, UX_SYSTEM_CONTEXT_CLASS, UX_HOST_C
 138:Middlewares/ST/usbx/common/usbx_host_classes/src/ux_host_class_storage_media_open.c **** 
 139:Middlewares/ST/usbx/common/usbx_host_classes/src/ux_host_class_storage_media_open.c ****                 /* Required memory is over system setting.  */
 140:Middlewares/ST/usbx/common/usbx_host_classes/src/ux_host_class_storage_media_open.c ****                 return(UX_HOST_CLASS_MEMORY_ERROR);
 141:Middlewares/ST/usbx/common/usbx_host_classes/src/ux_host_class_storage_media_open.c ****             }
 142:Middlewares/ST/usbx/common/usbx_host_classes/src/ux_host_class_storage_media_open.c **** 
 143:Middlewares/ST/usbx/common/usbx_host_classes/src/ux_host_class_storage_media_open.c ****             /* Save the storage media instance in the user reserved area in the UX_MEDIA structure.
 144:Middlewares/ST/usbx/common/usbx_host_classes/src/ux_host_class_storage_media_open.c ****             ux_media_reserved_for_user_set(media, storage_media);
 145:Middlewares/ST/usbx/common/usbx_host_classes/src/ux_host_class_storage_media_open.c **** 
 146:Middlewares/ST/usbx/common/usbx_host_classes/src/ux_host_class_storage_media_open.c ****             /* We now need to allocate a block of memory for UX_MEDIA (default FileX) to use when d
 147:Middlewares/ST/usbx/common/usbx_host_classes/src/ux_host_class_storage_media_open.c ****                The default buffer size is 8K. The value used for the definition is UX_HOST_CLASS_ST
 148:Middlewares/ST/usbx/common/usbx_host_classes/src/ux_host_class_storage_media_open.c ****                This value can be changed to save on memory space but should not be smaller than 
 149:Middlewares/ST/usbx/common/usbx_host_classes/src/ux_host_class_storage_media_open.c ****                the media sector size (which should be 512 bytes). Because USB devices are SCSI 
 150:Middlewares/ST/usbx/common/usbx_host_classes/src/ux_host_class_storage_media_open.c ****                devices and there is a great deal of overhead when doing read/writes, it is better  
 151:Middlewares/ST/usbx/common/usbx_host_classes/src/ux_host_class_storage_media_open.c ****                to leave the default buffer size or even increase it. */
 152:Middlewares/ST/usbx/common/usbx_host_classes/src/ux_host_class_storage_media_open.c ****             storage_media -> ux_host_class_storage_media_memory =  _ux_utility_memory_allocate(UX_S
 153:Middlewares/ST/usbx/common/usbx_host_classes/src/ux_host_class_storage_media_open.c ****             if (storage_media -> ux_host_class_storage_media_memory == UX_NULL)
 154:Middlewares/ST/usbx/common/usbx_host_classes/src/ux_host_class_storage_media_open.c ****                 return(UX_MEMORY_INSUFFICIENT);
 155:Middlewares/ST/usbx/common/usbx_host_classes/src/ux_host_class_storage_media_open.c **** 
 156:Middlewares/ST/usbx/common/usbx_host_classes/src/ux_host_class_storage_media_open.c ****             /* If trace is enabled, insert this event into the trace buffer.  */
 157:Middlewares/ST/usbx/common/usbx_host_classes/src/ux_host_class_storage_media_open.c ****             UX_TRACE_IN_LINE_INSERT(UX_TRACE_HOST_CLASS_STORAGE_MEDIA_OPEN, storage, media, 0, 0, U
ARM GAS  C:\Users\HP\AppData\Local\Temp\ccbIbBBQ.s 			page 5


 158:Middlewares/ST/usbx/common/usbx_host_classes/src/ux_host_class_storage_media_open.c **** 
 159:Middlewares/ST/usbx/common/usbx_host_classes/src/ux_host_class_storage_media_open.c ****             /* Ask UX_MEDIA (default FileX) to mount the partition.  */
 160:Middlewares/ST/usbx/common/usbx_host_classes/src/ux_host_class_storage_media_open.c ****             status =  ux_media_open(media, UX_HOST_CLASS_STORAGE_MEDIA_NAME, _ux_host_class_storage
 161:Middlewares/ST/usbx/common/usbx_host_classes/src/ux_host_class_storage_media_open.c ****                                         storage, storage_media -> ux_host_class_storage_media_memor
 162:Middlewares/ST/usbx/common/usbx_host_classes/src/ux_host_class_storage_media_open.c ****                                         UX_HOST_CLASS_STORAGE_MEMORY_BUFFER_SIZE);
 163:Middlewares/ST/usbx/common/usbx_host_classes/src/ux_host_class_storage_media_open.c **** 
 164:Middlewares/ST/usbx/common/usbx_host_classes/src/ux_host_class_storage_media_open.c ****             /* If the media is mounted, update the status for the application.  */
 165:Middlewares/ST/usbx/common/usbx_host_classes/src/ux_host_class_storage_media_open.c ****             if (status == UX_SUCCESS)
 166:Middlewares/ST/usbx/common/usbx_host_classes/src/ux_host_class_storage_media_open.c ****                 storage_media -> ux_host_class_storage_media_status = UX_HOST_CLASS_STORAGE_MEDIA_M
 167:Middlewares/ST/usbx/common/usbx_host_classes/src/ux_host_class_storage_media_open.c **** 
 168:Middlewares/ST/usbx/common/usbx_host_classes/src/ux_host_class_storage_media_open.c ****             else
 169:Middlewares/ST/usbx/common/usbx_host_classes/src/ux_host_class_storage_media_open.c **** 
 170:Middlewares/ST/usbx/common/usbx_host_classes/src/ux_host_class_storage_media_open.c ****                 /* Free the memory resources.  */
 171:Middlewares/ST/usbx/common/usbx_host_classes/src/ux_host_class_storage_media_open.c ****                 _ux_utility_memory_free(storage_media -> ux_host_class_storage_media_memory);
 172:Middlewares/ST/usbx/common/usbx_host_classes/src/ux_host_class_storage_media_open.c **** 
 173:Middlewares/ST/usbx/common/usbx_host_classes/src/ux_host_class_storage_media_open.c ****             /* Return completion status.  */
 174:Middlewares/ST/usbx/common/usbx_host_classes/src/ux_host_class_storage_media_open.c ****             return(status);         
 175:Middlewares/ST/usbx/common/usbx_host_classes/src/ux_host_class_storage_media_open.c ****         }
 176:Middlewares/ST/usbx/common/usbx_host_classes/src/ux_host_class_storage_media_open.c **** 
 177:Middlewares/ST/usbx/common/usbx_host_classes/src/ux_host_class_storage_media_open.c ****         /* Move to next entry in the media array.  */
 178:Middlewares/ST/usbx/common/usbx_host_classes/src/ux_host_class_storage_media_open.c ****         storage_media++;
 179:Middlewares/ST/usbx/common/usbx_host_classes/src/ux_host_class_storage_media_open.c ****     }
 180:Middlewares/ST/usbx/common/usbx_host_classes/src/ux_host_class_storage_media_open.c **** 
 181:Middlewares/ST/usbx/common/usbx_host_classes/src/ux_host_class_storage_media_open.c ****     /* Error trap. */
 182:Middlewares/ST/usbx/common/usbx_host_classes/src/ux_host_class_storage_media_open.c ****     _ux_system_error_handler(UX_SYSTEM_LEVEL_THREAD, UX_SYSTEM_CONTEXT_CLASS, UX_HOST_CLASS_MEMORY_
  71              		.loc 1 182 5 is_stmt 1 view .LVU15
  72 000e 6122     		movs	r2, #97
  73              	.LVL4:
  74              		.loc 1 182 5 is_stmt 0 view .LVU16
  75 0010 0721     		movs	r1, #7
  76              	.LVL5:
  77              		.loc 1 182 5 view .LVU17
  78 0012 0220     		movs	r0, #2
  79              	.LVL6:
  80              		.loc 1 182 5 view .LVU18
  81 0014 FFF7FEFF 		bl	_ux_system_error_handler
  82              	.LVL7:
 183:Middlewares/ST/usbx/common/usbx_host_classes/src/ux_host_class_storage_media_open.c **** 
 184:Middlewares/ST/usbx/common/usbx_host_classes/src/ux_host_class_storage_media_open.c ****     /* If trace is enabled, insert this event into the trace buffer.  */
 185:Middlewares/ST/usbx/common/usbx_host_classes/src/ux_host_class_storage_media_open.c ****     UX_TRACE_IN_LINE_INSERT(UX_TRACE_ERROR, UX_HOST_CLASS_MEMORY_ERROR, storage, 0, 0, UX_TRACE_ERR
 186:Middlewares/ST/usbx/common/usbx_host_classes/src/ux_host_class_storage_media_open.c **** 
 187:Middlewares/ST/usbx/common/usbx_host_classes/src/ux_host_class_storage_media_open.c ****     /* Return error.  */    
 188:Middlewares/ST/usbx/common/usbx_host_classes/src/ux_host_class_storage_media_open.c ****     return(UX_HOST_CLASS_MEMORY_ERROR);
  83              		.loc 1 188 5 is_stmt 1 view .LVU19
  84              		.loc 1 188 11 is_stmt 0 view .LVU20
  85 0018 6125     		movs	r5, #97
  86              	.LVL8:
  87              	.L1:
 189:Middlewares/ST/usbx/common/usbx_host_classes/src/ux_host_class_storage_media_open.c **** #endif /* !defined(UX_HOST_CLASS_STORAGE_NO_FILEX) */
 190:Middlewares/ST/usbx/common/usbx_host_classes/src/ux_host_class_storage_media_open.c **** }
  88              		.loc 1 190 1 view .LVU21
  89 001a 2846     		mov	r0, r5
  90 001c 04B0     		add	sp, sp, #16
  91              	.LCFI2:
  92              		.cfi_remember_state
  93              		.cfi_def_cfa_offset 16
  94              		@ sp needed
ARM GAS  C:\Users\HP\AppData\Local\Temp\ccbIbBBQ.s 			page 6


  95 001e 70BD     		pop	{r4, r5, r6, pc}
  96              	.LVL9:
  97              	.L8:
  98              	.LCFI3:
  99              		.cfi_restore_state
 115:Middlewares/ST/usbx/common/usbx_host_classes/src/ux_host_class_storage_media_open.c ****         
 100              		.loc 1 115 9 is_stmt 1 view .LVU22
 118:Middlewares/ST/usbx/common/usbx_host_classes/src/ux_host_class_storage_media_open.c ****         {
 101              		.loc 1 118 9 view .LVU23
 118:Middlewares/ST/usbx/common/usbx_host_classes/src/ux_host_class_storage_media_open.c ****         {
 102              		.loc 1 118 13 is_stmt 0 view .LVU24
 103 0020 2368     		ldr	r3, [r4]
 118:Middlewares/ST/usbx/common/usbx_host_classes/src/ux_host_class_storage_media_open.c ****         {
 104              		.loc 1 118 12 view .LVU25
 105 0022 23B1     		cbz	r3, .L11
 178:Middlewares/ST/usbx/common/usbx_host_classes/src/ux_host_class_storage_media_open.c ****     }
 106              		.loc 1 178 9 is_stmt 1 discriminator 2 view .LVU26
 178:Middlewares/ST/usbx/common/usbx_host_classes/src/ux_host_class_storage_media_open.c ****     }
 107              		.loc 1 178 22 is_stmt 0 discriminator 2 view .LVU27
 108 0024 04F51354 		add	r4, r4, #9408
 109              	.LVL10:
 178:Middlewares/ST/usbx/common/usbx_host_classes/src/ux_host_class_storage_media_open.c ****     }
 110              		.loc 1 178 22 discriminator 2 view .LVU28
 111 0028 1034     		adds	r4, r4, #16
 112              	.LVL11:
 111:Middlewares/ST/usbx/common/usbx_host_classes/src/ux_host_class_storage_media_open.c ****     {
 113              		.loc 1 111 74 is_stmt 1 discriminator 2 view .LVU29
 111:Middlewares/ST/usbx/common/usbx_host_classes/src/ux_host_class_storage_media_open.c ****     {
 114              		.loc 1 111 85 is_stmt 0 discriminator 2 view .LVU30
 115 002a 0132     		adds	r2, r2, #1
 116              	.LVL12:
 111:Middlewares/ST/usbx/common/usbx_host_classes/src/ux_host_class_storage_media_open.c ****     {
 117              		.loc 1 111 85 discriminator 2 view .LVU31
 118 002c EEE7     		b	.L2
 119              	.LVL13:
 120              	.L11:
 122:Middlewares/ST/usbx/common/usbx_host_classes/src/ux_host_class_storage_media_open.c ****                             
 121              		.loc 1 122 13 is_stmt 1 view .LVU32
 122 002e C4F88450 		str	r5, [r4, #132]
 123              	.LVL14:
 125:Middlewares/ST/usbx/common/usbx_host_classes/src/ux_host_class_storage_media_open.c **** 
 124              		.loc 1 125 13 view .LVU33
 125:Middlewares/ST/usbx/common/usbx_host_classes/src/ux_host_class_storage_media_open.c **** 
 125              		.loc 1 125 74 is_stmt 0 view .LVU34
 126 0032 04F50053 		add	r3, r4, #8192
 127 0036 C3F8B814 		str	r1, [r3, #1208]
 128:Middlewares/ST/usbx/common/usbx_host_classes/src/ux_host_class_storage_media_open.c **** 
 128              		.loc 1 128 13 is_stmt 1 view .LVU35
 128:Middlewares/ST/usbx/common/usbx_host_classes/src/ux_host_class_storage_media_open.c **** 
 129              		.loc 1 128 73 is_stmt 0 view .LVU36
 130 003a D5F88020 		ldr	r2, [r5, #128]
 131              	.LVL15:
 128:Middlewares/ST/usbx/common/usbx_host_classes/src/ux_host_class_storage_media_open.c **** 
 132              		.loc 1 128 62 view .LVU37
 133 003e C3F8C424 		str	r2, [r3, #1220]
 131:Middlewares/ST/usbx/common/usbx_host_classes/src/ux_host_class_storage_media_open.c **** 
 134              		.loc 1 131 13 is_stmt 1 view .LVU38
ARM GAS  C:\Users\HP\AppData\Local\Temp\ccbIbBBQ.s 			page 7


 131:Middlewares/ST/usbx/common/usbx_host_classes/src/ux_host_class_storage_media_open.c **** 
 135              		.loc 1 131 81 is_stmt 0 view .LVU39
 136 0042 D5F88820 		ldr	r2, [r5, #136]
 131:Middlewares/ST/usbx/common/usbx_host_classes/src/ux_host_class_storage_media_open.c **** 
 137              		.loc 1 131 70 view .LVU40
 138 0046 C3F8C824 		str	r2, [r3, #1224]
 134:Middlewares/ST/usbx/common/usbx_host_classes/src/ux_host_class_storage_media_open.c ****             {
 139              		.loc 1 134 13 is_stmt 1 view .LVU41
 134:Middlewares/ST/usbx/common/usbx_host_classes/src/ux_host_class_storage_media_open.c ****             {
 140              		.loc 1 134 16 is_stmt 0 view .LVU42
 141 004a B2F5806F 		cmp	r2, #1024
 142 004e 22D8     		bhi	.L12
 144:Middlewares/ST/usbx/common/usbx_host_classes/src/ux_host_class_storage_media_open.c **** 
 143              		.loc 1 144 13 is_stmt 1 view .LVU43
 144 0050 C4F89848 		str	r4, [r4, #2200]
 152:Middlewares/ST/usbx/common/usbx_host_classes/src/ux_host_class_storage_media_open.c ****             if (storage_media -> ux_host_class_storage_media_memory == UX_NULL)
 145              		.loc 1 152 13 view .LVU44
 152:Middlewares/ST/usbx/common/usbx_host_classes/src/ux_host_class_storage_media_open.c ****             if (storage_media -> ux_host_class_storage_media_memory == UX_NULL)
 146              		.loc 1 152 68 is_stmt 0 view .LVU45
 147 0054 4FF48062 		mov	r2, #1024
 148 0058 0121     		movs	r1, #1
 149              	.LVL16:
 152:Middlewares/ST/usbx/common/usbx_host_classes/src/ux_host_class_storage_media_open.c ****             if (storage_media -> ux_host_class_storage_media_memory == UX_NULL)
 150              		.loc 1 152 68 view .LVU46
 151 005a 4FF0FF30 		mov	r0, #-1
 152              	.LVL17:
 152:Middlewares/ST/usbx/common/usbx_host_classes/src/ux_host_class_storage_media_open.c ****             if (storage_media -> ux_host_class_storage_media_memory == UX_NULL)
 153              		.loc 1 152 68 view .LVU47
 154 005e FFF7FEFF 		bl	_ux_utility_memory_allocate
 155              	.LVL18:
 152:Middlewares/ST/usbx/common/usbx_host_classes/src/ux_host_class_storage_media_open.c ****             if (storage_media -> ux_host_class_storage_media_memory == UX_NULL)
 156              		.loc 1 152 65 view .LVU48
 157 0062 04F50053 		add	r3, r4, #8192
 158 0066 C3F8BC04 		str	r0, [r3, #1212]
 153:Middlewares/ST/usbx/common/usbx_host_classes/src/ux_host_class_storage_media_open.c ****                 return(UX_MEMORY_INSUFFICIENT);
 159              		.loc 1 153 13 is_stmt 1 view .LVU49
 153:Middlewares/ST/usbx/common/usbx_host_classes/src/ux_host_class_storage_media_open.c ****                 return(UX_MEMORY_INSUFFICIENT);
 160              		.loc 1 153 16 is_stmt 0 view .LVU50
 161 006a 10B3     		cbz	r0, .L9
 160:Middlewares/ST/usbx/common/usbx_host_classes/src/ux_host_class_storage_media_open.c ****                                         storage, storage_media -> ux_host_class_storage_media_memor
 162              		.loc 1 160 13 is_stmt 1 view .LVU51
 160:Middlewares/ST/usbx/common/usbx_host_classes/src/ux_host_class_storage_media_open.c ****                                         storage, storage_media -> ux_host_class_storage_media_memor
 163              		.loc 1 160 23 is_stmt 0 view .LVU52
 164 006c 42F2B843 		movw	r3, #9400
 165 0070 0293     		str	r3, [sp, #8]
 166 0072 4FF48063 		mov	r3, #1024
 167 0076 0193     		str	r3, [sp, #4]
 168 0078 0090     		str	r0, [sp]
 169 007a 2B46     		mov	r3, r5
 170 007c 0E4A     		ldr	r2, .L13
 171 007e 0F49     		ldr	r1, .L13+4
 172 0080 2046     		mov	r0, r4
 173 0082 FFF7FEFF 		bl	_fxe_media_open
 174              	.LVL19:
 165:Middlewares/ST/usbx/common/usbx_host_classes/src/ux_host_class_storage_media_open.c ****                 storage_media -> ux_host_class_storage_media_status = UX_HOST_CLASS_STORAGE_MEDIA_M
 175              		.loc 1 165 13 is_stmt 1 view .LVU53
 165:Middlewares/ST/usbx/common/usbx_host_classes/src/ux_host_class_storage_media_open.c ****                 storage_media -> ux_host_class_storage_media_status = UX_HOST_CLASS_STORAGE_MEDIA_M
ARM GAS  C:\Users\HP\AppData\Local\Temp\ccbIbBBQ.s 			page 8


 176              		.loc 1 165 16 is_stmt 0 view .LVU54
 177 0086 0546     		mov	r5, r0
 178              	.LVL20:
 165:Middlewares/ST/usbx/common/usbx_host_classes/src/ux_host_class_storage_media_open.c ****                 storage_media -> ux_host_class_storage_media_status = UX_HOST_CLASS_STORAGE_MEDIA_M
 179              		.loc 1 165 16 view .LVU55
 180 0088 60B9     		cbnz	r0, .L6
 166:Middlewares/ST/usbx/common/usbx_host_classes/src/ux_host_class_storage_media_open.c **** 
 181              		.loc 1 166 17 is_stmt 1 view .LVU56
 166:Middlewares/ST/usbx/common/usbx_host_classes/src/ux_host_class_storage_media_open.c **** 
 182              		.loc 1 166 69 is_stmt 0 view .LVU57
 183 008a 04F50054 		add	r4, r4, #8192
 184              	.LVL21:
 166:Middlewares/ST/usbx/common/usbx_host_classes/src/ux_host_class_storage_media_open.c **** 
 185              		.loc 1 166 69 view .LVU58
 186 008e 0123     		movs	r3, #1
 187 0090 C4F8C034 		str	r3, [r4, #1216]
 188 0094 C1E7     		b	.L1
 189              	.LVL22:
 190              	.L12:
 137:Middlewares/ST/usbx/common/usbx_host_classes/src/ux_host_class_storage_media_open.c **** 
 191              		.loc 1 137 17 is_stmt 1 view .LVU59
 192 0096 6122     		movs	r2, #97
 193 0098 0721     		movs	r1, #7
 194              	.LVL23:
 137:Middlewares/ST/usbx/common/usbx_host_classes/src/ux_host_class_storage_media_open.c **** 
 195              		.loc 1 137 17 is_stmt 0 view .LVU60
 196 009a 0220     		movs	r0, #2
 197              	.LVL24:
 137:Middlewares/ST/usbx/common/usbx_host_classes/src/ux_host_class_storage_media_open.c **** 
 198              		.loc 1 137 17 view .LVU61
 199 009c FFF7FEFF 		bl	_ux_system_error_handler
 200              	.LVL25:
 140:Middlewares/ST/usbx/common/usbx_host_classes/src/ux_host_class_storage_media_open.c ****             }
 201              		.loc 1 140 17 is_stmt 1 view .LVU62
 140:Middlewares/ST/usbx/common/usbx_host_classes/src/ux_host_class_storage_media_open.c ****             }
 202              		.loc 1 140 23 is_stmt 0 view .LVU63
 203 00a0 6125     		movs	r5, #97
 204              	.LVL26:
 140:Middlewares/ST/usbx/common/usbx_host_classes/src/ux_host_class_storage_media_open.c ****             }
 205              		.loc 1 140 23 view .LVU64
 206 00a2 BAE7     		b	.L1
 207              	.LVL27:
 208              	.L6:
 171:Middlewares/ST/usbx/common/usbx_host_classes/src/ux_host_class_storage_media_open.c **** 
 209              		.loc 1 171 17 is_stmt 1 view .LVU65
 210 00a4 04F50054 		add	r4, r4, #8192
 211              	.LVL28:
 171:Middlewares/ST/usbx/common/usbx_host_classes/src/ux_host_class_storage_media_open.c **** 
 212              		.loc 1 171 17 is_stmt 0 view .LVU66
 213 00a8 D4F8BC04 		ldr	r0, [r4, #1212]
 214              	.LVL29:
 171:Middlewares/ST/usbx/common/usbx_host_classes/src/ux_host_class_storage_media_open.c **** 
 215              		.loc 1 171 17 view .LVU67
 216 00ac FFF7FEFF 		bl	_ux_utility_memory_free
 217              	.LVL30:
 174:Middlewares/ST/usbx/common/usbx_host_classes/src/ux_host_class_storage_media_open.c ****         }
 218              		.loc 1 174 13 is_stmt 1 view .LVU68
ARM GAS  C:\Users\HP\AppData\Local\Temp\ccbIbBBQ.s 			page 9


 174:Middlewares/ST/usbx/common/usbx_host_classes/src/ux_host_class_storage_media_open.c ****         }
 219              		.loc 1 174 19 is_stmt 0 view .LVU69
 220 00b0 B3E7     		b	.L1
 221              	.LVL31:
 222              	.L9:
 154:Middlewares/ST/usbx/common/usbx_host_classes/src/ux_host_class_storage_media_open.c **** 
 223              		.loc 1 154 23 view .LVU70
 224 00b2 1225     		movs	r5, #18
 225              	.LVL32:
 154:Middlewares/ST/usbx/common/usbx_host_classes/src/ux_host_class_storage_media_open.c **** 
 226              		.loc 1 154 23 view .LVU71
 227 00b4 B1E7     		b	.L1
 228              	.L14:
 229 00b6 00BF     		.align	2
 230              	.L13:
 231 00b8 00000000 		.word	_ux_host_class_storage_driver_entry
 232 00bc 00000000 		.word	.LC0
 233              		.cfi_endproc
 234              	.LFE11:
 236              		.text
 237              	.Letext0:
 238              		.file 2 "Middlewares/ST/threadx/ports/cortex_m4/gnu/inc/tx_port.h"
 239              		.file 3 "Middlewares/ST/threadx/common/inc/tx_api.h"
 240              		.file 4 "Middlewares/ST/usbx/common/core/inc/ux_api.h"
 241              		.file 5 "Middlewares/ST/filex/common/inc/fx_api.h"
 242              		.file 6 "Middlewares/ST/usbx/common/usbx_host_classes/inc/ux_host_class_storage.h"
 243              		.file 7 "Middlewares/ST/usbx/common/core/inc/ux_utility.h"
ARM GAS  C:\Users\HP\AppData\Local\Temp\ccbIbBBQ.s 			page 10

