ARM GAS  C:\Users\HP\AppData\Local\Temp\ccP3tWY0.s 			page 1


   1              		.cpu cortex-m4
   2              		.arch armv7e-m
   3              		.fpu fpv4-sp-d16
   4              		.eabi_attribute 27, 1
   5              		.eabi_attribute 28, 1
   6              		.eabi_attribute 20, 1
   7              		.eabi_attribute 21, 1
   8              		.eabi_attribute 23, 3
   9              		.eabi_attribute 24, 1
  10              		.eabi_attribute 25, 1
  11              		.eabi_attribute 26, 1
  12              		.eabi_attribute 30, 1
  13              		.eabi_attribute 34, 1
  14              		.eabi_attribute 18, 4
  15              		.file	"ux_host_class_storage_entry.c"
  16              		.text
  17              	.Ltext0:
  18              		.cfi_sections	.debug_frame
  19              		.section	.rodata._ux_host_class_storage_entry.str1.4,"aMS",%progbits,1
  20              		.align	2
  21              	.LC0:
  22 0000 75785F68 		.ascii	"ux_host_storage_thread\000"
  22      6F73745F 
  22      73746F72 
  22      6167655F 
  22      74687265 
  23              		.section	.text._ux_host_class_storage_entry,"ax",%progbits
  24              		.align	1
  25              		.global	_ux_host_class_storage_entry
  26              		.syntax unified
  27              		.thumb
  28              		.thumb_func
  30              	_ux_host_class_storage_entry:
  31              	.LVL0:
  32              	.LFB11:
  33              		.file 1 "Middlewares/ST/usbx/common/usbx_host_classes/src/ux_host_class_storage_entry.c"
   1:Middlewares/ST/usbx/common/usbx_host_classes/src/ux_host_class_storage_entry.c **** /**************************************************************************/
   2:Middlewares/ST/usbx/common/usbx_host_classes/src/ux_host_class_storage_entry.c **** /*                                                                        */
   3:Middlewares/ST/usbx/common/usbx_host_classes/src/ux_host_class_storage_entry.c **** /*       Copyright (c) Microsoft Corporation. All rights reserved.        */
   4:Middlewares/ST/usbx/common/usbx_host_classes/src/ux_host_class_storage_entry.c **** /*                                                                        */
   5:Middlewares/ST/usbx/common/usbx_host_classes/src/ux_host_class_storage_entry.c **** /*       This software is licensed under the Microsoft Software License   */
   6:Middlewares/ST/usbx/common/usbx_host_classes/src/ux_host_class_storage_entry.c **** /*       Terms for Microsoft Azure RTOS. Full text of the license can be  */
   7:Middlewares/ST/usbx/common/usbx_host_classes/src/ux_host_class_storage_entry.c **** /*       found in the LICENSE file at https://aka.ms/AzureRTOS_EULA       */
   8:Middlewares/ST/usbx/common/usbx_host_classes/src/ux_host_class_storage_entry.c **** /*       and in the root directory of this software.                      */
   9:Middlewares/ST/usbx/common/usbx_host_classes/src/ux_host_class_storage_entry.c **** /*                                                                        */
  10:Middlewares/ST/usbx/common/usbx_host_classes/src/ux_host_class_storage_entry.c **** /**************************************************************************/
  11:Middlewares/ST/usbx/common/usbx_host_classes/src/ux_host_class_storage_entry.c **** 
  12:Middlewares/ST/usbx/common/usbx_host_classes/src/ux_host_class_storage_entry.c **** 
  13:Middlewares/ST/usbx/common/usbx_host_classes/src/ux_host_class_storage_entry.c **** /**************************************************************************/
  14:Middlewares/ST/usbx/common/usbx_host_classes/src/ux_host_class_storage_entry.c **** /**************************************************************************/
  15:Middlewares/ST/usbx/common/usbx_host_classes/src/ux_host_class_storage_entry.c **** /**                                                                       */ 
  16:Middlewares/ST/usbx/common/usbx_host_classes/src/ux_host_class_storage_entry.c **** /** USBX Component                                                        */ 
  17:Middlewares/ST/usbx/common/usbx_host_classes/src/ux_host_class_storage_entry.c **** /**                                                                       */
  18:Middlewares/ST/usbx/common/usbx_host_classes/src/ux_host_class_storage_entry.c **** /**   Storage Class                                                       */
  19:Middlewares/ST/usbx/common/usbx_host_classes/src/ux_host_class_storage_entry.c **** /**                                                                       */
  20:Middlewares/ST/usbx/common/usbx_host_classes/src/ux_host_class_storage_entry.c **** /**************************************************************************/
  21:Middlewares/ST/usbx/common/usbx_host_classes/src/ux_host_class_storage_entry.c **** /**************************************************************************/
ARM GAS  C:\Users\HP\AppData\Local\Temp\ccP3tWY0.s 			page 2


  22:Middlewares/ST/usbx/common/usbx_host_classes/src/ux_host_class_storage_entry.c **** 
  23:Middlewares/ST/usbx/common/usbx_host_classes/src/ux_host_class_storage_entry.c **** 
  24:Middlewares/ST/usbx/common/usbx_host_classes/src/ux_host_class_storage_entry.c **** /* Include necessary system files.  */
  25:Middlewares/ST/usbx/common/usbx_host_classes/src/ux_host_class_storage_entry.c **** 
  26:Middlewares/ST/usbx/common/usbx_host_classes/src/ux_host_class_storage_entry.c **** #define UX_SOURCE_CODE
  27:Middlewares/ST/usbx/common/usbx_host_classes/src/ux_host_class_storage_entry.c **** 
  28:Middlewares/ST/usbx/common/usbx_host_classes/src/ux_host_class_storage_entry.c **** #include "ux_api.h"
  29:Middlewares/ST/usbx/common/usbx_host_classes/src/ux_host_class_storage_entry.c **** #include "ux_host_class_storage.h"
  30:Middlewares/ST/usbx/common/usbx_host_classes/src/ux_host_class_storage_entry.c **** #include "ux_host_stack.h"
  31:Middlewares/ST/usbx/common/usbx_host_classes/src/ux_host_class_storage_entry.c **** 
  32:Middlewares/ST/usbx/common/usbx_host_classes/src/ux_host_class_storage_entry.c **** UX_COMPILE_TIME_ASSERT(!UX_OVERFLOW_CHECK_MULC_ULONG(sizeof(UX_HOST_CLASS_STORAGE_MEDIA), UX_HOST_C
  33:Middlewares/ST/usbx/common/usbx_host_classes/src/ux_host_class_storage_entry.c **** 
  34:Middlewares/ST/usbx/common/usbx_host_classes/src/ux_host_class_storage_entry.c **** /**************************************************************************/ 
  35:Middlewares/ST/usbx/common/usbx_host_classes/src/ux_host_class_storage_entry.c **** /*                                                                        */ 
  36:Middlewares/ST/usbx/common/usbx_host_classes/src/ux_host_class_storage_entry.c **** /*  FUNCTION                                               RELEASE        */ 
  37:Middlewares/ST/usbx/common/usbx_host_classes/src/ux_host_class_storage_entry.c **** /*                                                                        */ 
  38:Middlewares/ST/usbx/common/usbx_host_classes/src/ux_host_class_storage_entry.c **** /*    _ux_host_class_storage_entry                        PORTABLE C      */ 
  39:Middlewares/ST/usbx/common/usbx_host_classes/src/ux_host_class_storage_entry.c **** /*                                                           6.1.10       */
  40:Middlewares/ST/usbx/common/usbx_host_classes/src/ux_host_class_storage_entry.c **** /*  AUTHOR                                                                */
  41:Middlewares/ST/usbx/common/usbx_host_classes/src/ux_host_class_storage_entry.c **** /*                                                                        */
  42:Middlewares/ST/usbx/common/usbx_host_classes/src/ux_host_class_storage_entry.c **** /*    Chaoqiong Xiao, Microsoft Corporation                               */
  43:Middlewares/ST/usbx/common/usbx_host_classes/src/ux_host_class_storage_entry.c **** /*                                                                        */
  44:Middlewares/ST/usbx/common/usbx_host_classes/src/ux_host_class_storage_entry.c **** /*  DESCRIPTION                                                           */
  45:Middlewares/ST/usbx/common/usbx_host_classes/src/ux_host_class_storage_entry.c **** /*                                                                        */ 
  46:Middlewares/ST/usbx/common/usbx_host_classes/src/ux_host_class_storage_entry.c **** /*    This function is the entry point of the storage class. It will be   */ 
  47:Middlewares/ST/usbx/common/usbx_host_classes/src/ux_host_class_storage_entry.c **** /*    called by the USBX stack enumeration module when there is a new     */ 
  48:Middlewares/ST/usbx/common/usbx_host_classes/src/ux_host_class_storage_entry.c **** /*    USB disk on the bus or when the USB disk is removed.                */
  49:Middlewares/ST/usbx/common/usbx_host_classes/src/ux_host_class_storage_entry.c **** /*                                                                        */
  50:Middlewares/ST/usbx/common/usbx_host_classes/src/ux_host_class_storage_entry.c **** /*    Version 2.0 of the storage class only supports USB FAT media and    */ 
  51:Middlewares/ST/usbx/common/usbx_host_classes/src/ux_host_class_storage_entry.c **** /*    not CD-ROM.                                                         */ 
  52:Middlewares/ST/usbx/common/usbx_host_classes/src/ux_host_class_storage_entry.c **** /*                                                                        */ 
  53:Middlewares/ST/usbx/common/usbx_host_classes/src/ux_host_class_storage_entry.c **** /*  INPUT                                                                 */ 
  54:Middlewares/ST/usbx/common/usbx_host_classes/src/ux_host_class_storage_entry.c **** /*                                                                        */ 
  55:Middlewares/ST/usbx/common/usbx_host_classes/src/ux_host_class_storage_entry.c **** /*    command                               Pointer to class command      */ 
  56:Middlewares/ST/usbx/common/usbx_host_classes/src/ux_host_class_storage_entry.c **** /*                                                                        */ 
  57:Middlewares/ST/usbx/common/usbx_host_classes/src/ux_host_class_storage_entry.c **** /*  OUTPUT                                                                */ 
  58:Middlewares/ST/usbx/common/usbx_host_classes/src/ux_host_class_storage_entry.c **** /*                                                                        */ 
  59:Middlewares/ST/usbx/common/usbx_host_classes/src/ux_host_class_storage_entry.c **** /*    Completion Status                                                   */ 
  60:Middlewares/ST/usbx/common/usbx_host_classes/src/ux_host_class_storage_entry.c **** /*                                                                        */ 
  61:Middlewares/ST/usbx/common/usbx_host_classes/src/ux_host_class_storage_entry.c **** /*  CALLS                                                                 */ 
  62:Middlewares/ST/usbx/common/usbx_host_classes/src/ux_host_class_storage_entry.c **** /*                                                                        */ 
  63:Middlewares/ST/usbx/common/usbx_host_classes/src/ux_host_class_storage_entry.c **** /*    _ux_host_class_storage_activate       Activate storage class        */ 
  64:Middlewares/ST/usbx/common/usbx_host_classes/src/ux_host_class_storage_entry.c **** /*    _ux_host_class_storage_deactivate     Deactivate storage class      */ 
  65:Middlewares/ST/usbx/common/usbx_host_classes/src/ux_host_class_storage_entry.c **** /*    _ux_utility_memory_allocate           Allocate memory block         */ 
  66:Middlewares/ST/usbx/common/usbx_host_classes/src/ux_host_class_storage_entry.c **** /*    _ux_utility_memory_free               Free memory block             */
  67:Middlewares/ST/usbx/common/usbx_host_classes/src/ux_host_class_storage_entry.c **** /*    _ux_utility_thread_create             Create storage class thread   */
  68:Middlewares/ST/usbx/common/usbx_host_classes/src/ux_host_class_storage_entry.c **** /*    _ux_utility_thread_delete             Delete storage class thread   */ 
  69:Middlewares/ST/usbx/common/usbx_host_classes/src/ux_host_class_storage_entry.c **** /*                                                                        */ 
  70:Middlewares/ST/usbx/common/usbx_host_classes/src/ux_host_class_storage_entry.c **** /*  CALLED BY                                                             */ 
  71:Middlewares/ST/usbx/common/usbx_host_classes/src/ux_host_class_storage_entry.c **** /*                                                                        */ 
  72:Middlewares/ST/usbx/common/usbx_host_classes/src/ux_host_class_storage_entry.c **** /*    Host Stack                                                          */ 
  73:Middlewares/ST/usbx/common/usbx_host_classes/src/ux_host_class_storage_entry.c **** /*                                                                        */ 
  74:Middlewares/ST/usbx/common/usbx_host_classes/src/ux_host_class_storage_entry.c **** /*  RELEASE HISTORY                                                       */ 
  75:Middlewares/ST/usbx/common/usbx_host_classes/src/ux_host_class_storage_entry.c **** /*                                                                        */ 
  76:Middlewares/ST/usbx/common/usbx_host_classes/src/ux_host_class_storage_entry.c **** /*    DATE              NAME                      DESCRIPTION             */ 
  77:Middlewares/ST/usbx/common/usbx_host_classes/src/ux_host_class_storage_entry.c **** /*                                                                        */ 
  78:Middlewares/ST/usbx/common/usbx_host_classes/src/ux_host_class_storage_entry.c **** /*  05-19-2020     Chaoqiong Xiao           Initial Version 6.0           */
ARM GAS  C:\Users\HP\AppData\Local\Temp\ccP3tWY0.s 			page 3


  79:Middlewares/ST/usbx/common/usbx_host_classes/src/ux_host_class_storage_entry.c **** /*  09-30-2020     Chaoqiong Xiao           Modified comment(s),          */
  80:Middlewares/ST/usbx/common/usbx_host_classes/src/ux_host_class_storage_entry.c **** /*                                            added destroy command,      */
  81:Middlewares/ST/usbx/common/usbx_host_classes/src/ux_host_class_storage_entry.c **** /*                                            used host class extension   */
  82:Middlewares/ST/usbx/common/usbx_host_classes/src/ux_host_class_storage_entry.c **** /*                                            pointer for class specific  */
  83:Middlewares/ST/usbx/common/usbx_host_classes/src/ux_host_class_storage_entry.c **** /*                                            structured data,            */
  84:Middlewares/ST/usbx/common/usbx_host_classes/src/ux_host_class_storage_entry.c **** /*                                            used UX prefix to refer to  */
  85:Middlewares/ST/usbx/common/usbx_host_classes/src/ux_host_class_storage_entry.c **** /*                                            TX symbols instead of using */
  86:Middlewares/ST/usbx/common/usbx_host_classes/src/ux_host_class_storage_entry.c **** /*                                            them directly,              */
  87:Middlewares/ST/usbx/common/usbx_host_classes/src/ux_host_class_storage_entry.c **** /*                                            resulting in version 6.1    */
  88:Middlewares/ST/usbx/common/usbx_host_classes/src/ux_host_class_storage_entry.c **** /*  11-09-2020     Chaoqiong Xiao           Modified comment(s),          */
  89:Middlewares/ST/usbx/common/usbx_host_classes/src/ux_host_class_storage_entry.c **** /*                                            fixed class ext access,     */
  90:Middlewares/ST/usbx/common/usbx_host_classes/src/ux_host_class_storage_entry.c **** /*                                            resulting in version 6.1.2  */
  91:Middlewares/ST/usbx/common/usbx_host_classes/src/ux_host_class_storage_entry.c **** /*  01-31-2022     Chaoqiong Xiao           Modified comment(s),          */
  92:Middlewares/ST/usbx/common/usbx_host_classes/src/ux_host_class_storage_entry.c **** /*                                            added standalone support,   */
  93:Middlewares/ST/usbx/common/usbx_host_classes/src/ux_host_class_storage_entry.c **** /*                                            resulting in version 6.1.10 */
  94:Middlewares/ST/usbx/common/usbx_host_classes/src/ux_host_class_storage_entry.c **** /*                                                                        */
  95:Middlewares/ST/usbx/common/usbx_host_classes/src/ux_host_class_storage_entry.c **** /**************************************************************************/
  96:Middlewares/ST/usbx/common/usbx_host_classes/src/ux_host_class_storage_entry.c **** UINT  _ux_host_class_storage_entry(UX_HOST_CLASS_COMMAND *command)
  97:Middlewares/ST/usbx/common/usbx_host_classes/src/ux_host_class_storage_entry.c **** {     
  34              		.loc 1 97 1 view -0
  35              		.cfi_startproc
  36              		@ args = 0, pretend = 0, frame = 0
  37              		@ frame_needed = 0, uses_anonymous_args = 0
  38              		.loc 1 97 1 is_stmt 0 view .LVU1
  39 0000 70B5     		push	{r4, r5, r6, lr}
  40              	.LCFI0:
  41              		.cfi_def_cfa_offset 16
  42              		.cfi_offset 4, -16
  43              		.cfi_offset 5, -12
  44              		.cfi_offset 6, -8
  45              		.cfi_offset 14, -4
  46 0002 86B0     		sub	sp, sp, #24
  47              	.LCFI1:
  48              		.cfi_def_cfa_offset 40
  49 0004 0446     		mov	r4, r0
  98:Middlewares/ST/usbx/common/usbx_host_classes/src/ux_host_class_storage_entry.c **** 
  99:Middlewares/ST/usbx/common/usbx_host_classes/src/ux_host_class_storage_entry.c **** UINT                        status;
  50              		.loc 1 99 1 is_stmt 1 view .LVU2
 100:Middlewares/ST/usbx/common/usbx_host_classes/src/ux_host_class_storage_entry.c **** UX_HOST_CLASS               *class_inst;
  51              		.loc 1 100 1 view .LVU3
 101:Middlewares/ST/usbx/common/usbx_host_classes/src/ux_host_class_storage_entry.c **** #if !defined(UX_HOST_STANDALONE)
 102:Middlewares/ST/usbx/common/usbx_host_classes/src/ux_host_class_storage_entry.c **** UX_HOST_CLASS_STORAGE_EXT   *class_ext;
  52              		.loc 1 102 1 view .LVU4
 103:Middlewares/ST/usbx/common/usbx_host_classes/src/ux_host_class_storage_entry.c **** #endif
 104:Middlewares/ST/usbx/common/usbx_host_classes/src/ux_host_class_storage_entry.c **** 
 105:Middlewares/ST/usbx/common/usbx_host_classes/src/ux_host_class_storage_entry.c **** 
 106:Middlewares/ST/usbx/common/usbx_host_classes/src/ux_host_class_storage_entry.c ****     /* The command request will tell us we need to do here, either a enumeration
 107:Middlewares/ST/usbx/common/usbx_host_classes/src/ux_host_class_storage_entry.c ****        query, an activation or a deactivation.  */
 108:Middlewares/ST/usbx/common/usbx_host_classes/src/ux_host_class_storage_entry.c ****     switch (command -> ux_host_class_command_request)
  53              		.loc 1 108 5 view .LVU5
  54              		.loc 1 108 21 is_stmt 0 view .LVU6
  55 0006 0368     		ldr	r3, [r0]
  56              		.loc 1 108 5 view .LVU7
  57 0008 013B     		subs	r3, r3, #1
  58 000a 042B     		cmp	r3, #4
  59 000c 5CD8     		bhi	.L2
  60 000e DFE803F0 		tbb	[pc, r3]
ARM GAS  C:\Users\HP\AppData\Local\Temp\ccP3tWY0.s 			page 4


  61              	.L4:
  62 0012 03       		.byte	(.L8-.L4)/2
  63 0013 0B       		.byte	(.L7-.L4)/2
  64 0014 46       		.byte	(.L6-.L4)/2
  65 0015 49       		.byte	(.L5-.L4)/2
  66 0016 62       		.byte	(.L13-.L4)/2
  67 0017 00       		.p2align 1
  68              	.L8:
 109:Middlewares/ST/usbx/common/usbx_host_classes/src/ux_host_class_storage_entry.c ****     {
 110:Middlewares/ST/usbx/common/usbx_host_classes/src/ux_host_class_storage_entry.c **** 
 111:Middlewares/ST/usbx/common/usbx_host_classes/src/ux_host_class_storage_entry.c ****     case UX_HOST_CLASS_COMMAND_QUERY:
 112:Middlewares/ST/usbx/common/usbx_host_classes/src/ux_host_class_storage_entry.c **** 
 113:Middlewares/ST/usbx/common/usbx_host_classes/src/ux_host_class_storage_entry.c ****         /* The query command is used to let the stack enumeration process know if we want to own
 114:Middlewares/ST/usbx/common/usbx_host_classes/src/ux_host_class_storage_entry.c ****            this device or not.  */
 115:Middlewares/ST/usbx/common/usbx_host_classes/src/ux_host_class_storage_entry.c ****         if ((command -> ux_host_class_command_usage == UX_HOST_CLASS_COMMAND_USAGE_CSP) &&
  69              		.loc 1 115 9 is_stmt 1 view .LVU8
  70              		.loc 1 115 22 is_stmt 0 view .LVU9
  71 0018 C368     		ldr	r3, [r0, #12]
  72              		.loc 1 115 12 view .LVU10
  73 001a 022B     		cmp	r3, #2
  74 001c 5ED1     		bne	.L14
 116:Middlewares/ST/usbx/common/usbx_host_classes/src/ux_host_class_storage_entry.c ****                             (command -> ux_host_class_command_class == UX_HOST_CLASS_STORAGE_CLASS)
  75              		.loc 1 116 38 discriminator 1 view .LVU11
  76 001e 8369     		ldr	r3, [r0, #24]
 115:Middlewares/ST/usbx/common/usbx_host_classes/src/ux_host_class_storage_entry.c ****                             (command -> ux_host_class_command_class == UX_HOST_CLASS_STORAGE_CLASS)
  77              		.loc 1 115 89 discriminator 1 view .LVU12
  78 0020 082B     		cmp	r3, #8
  79 0022 5DD0     		beq	.L15
 117:Middlewares/ST/usbx/common/usbx_host_classes/src/ux_host_class_storage_entry.c ****             return(UX_SUCCESS);                        
 118:Middlewares/ST/usbx/common/usbx_host_classes/src/ux_host_class_storage_entry.c ****         else            
 119:Middlewares/ST/usbx/common/usbx_host_classes/src/ux_host_class_storage_entry.c ****             return(UX_NO_CLASS_MATCH);                        
  80              		.loc 1 119 19 view .LVU13
  81 0024 5720     		movs	r0, #87
  82              	.LVL1:
  83              		.loc 1 119 19 view .LVU14
  84 0026 57E0     		b	.L1
  85              	.LVL2:
  86              	.L7:
 120:Middlewares/ST/usbx/common/usbx_host_classes/src/ux_host_class_storage_entry.c ****                 
 121:Middlewares/ST/usbx/common/usbx_host_classes/src/ux_host_class_storage_entry.c ****     case UX_HOST_CLASS_COMMAND_ACTIVATE:
 122:Middlewares/ST/usbx/common/usbx_host_classes/src/ux_host_class_storage_entry.c **** 
 123:Middlewares/ST/usbx/common/usbx_host_classes/src/ux_host_class_storage_entry.c ****         /* We are assuming the device will mount. If this is the first activation of
 124:Middlewares/ST/usbx/common/usbx_host_classes/src/ux_host_class_storage_entry.c ****            the storage class, we have to fire up one thread for the media insertion
 125:Middlewares/ST/usbx/common/usbx_host_classes/src/ux_host_class_storage_entry.c ****            and acquire some memory for the media array.  */
 126:Middlewares/ST/usbx/common/usbx_host_classes/src/ux_host_class_storage_entry.c **** 
 127:Middlewares/ST/usbx/common/usbx_host_classes/src/ux_host_class_storage_entry.c ****         /* Get class.  */
 128:Middlewares/ST/usbx/common/usbx_host_classes/src/ux_host_class_storage_entry.c ****         class_inst = command -> ux_host_class_command_class_ptr;
  87              		.loc 1 128 9 is_stmt 1 view .LVU15
  88              		.loc 1 128 20 is_stmt 0 view .LVU16
  89 0028 066B     		ldr	r6, [r0, #48]
  90              	.LVL3:
 129:Middlewares/ST/usbx/common/usbx_host_classes/src/ux_host_class_storage_entry.c **** 
 130:Middlewares/ST/usbx/common/usbx_host_classes/src/ux_host_class_storage_entry.c **** #if !defined(UX_HOST_STANDALONE)
 131:Middlewares/ST/usbx/common/usbx_host_classes/src/ux_host_class_storage_entry.c **** 
 132:Middlewares/ST/usbx/common/usbx_host_classes/src/ux_host_class_storage_entry.c ****         /* Allocate UX_HOST_CLASS_STORAGE_EXT.  */
 133:Middlewares/ST/usbx/common/usbx_host_classes/src/ux_host_class_storage_entry.c ****         if (class_inst -> ux_host_class_ext == UX_NULL)
  91              		.loc 1 133 9 is_stmt 1 view .LVU17
ARM GAS  C:\Users\HP\AppData\Local\Temp\ccP3tWY0.s 			page 5


  92              		.loc 1 133 24 is_stmt 0 view .LVU18
  93 002a 756D     		ldr	r5, [r6, #84]
  94              		.loc 1 133 12 view .LVU19
  95 002c 45B1     		cbz	r5, .L20
  96              	.LVL4:
  97              	.L9:
 134:Middlewares/ST/usbx/common/usbx_host_classes/src/ux_host_class_storage_entry.c ****         {
 135:Middlewares/ST/usbx/common/usbx_host_classes/src/ux_host_class_storage_entry.c **** 
 136:Middlewares/ST/usbx/common/usbx_host_classes/src/ux_host_class_storage_entry.c ****             /* Need memory for extension fields.  */
 137:Middlewares/ST/usbx/common/usbx_host_classes/src/ux_host_class_storage_entry.c ****             class_ext = _ux_utility_memory_allocate(UX_NO_ALIGN,
 138:Middlewares/ST/usbx/common/usbx_host_classes/src/ux_host_class_storage_entry.c ****                                             UX_REGULAR_MEMORY,
 139:Middlewares/ST/usbx/common/usbx_host_classes/src/ux_host_class_storage_entry.c ****                                             sizeof(UX_HOST_CLASS_STORAGE_EXT));
 140:Middlewares/ST/usbx/common/usbx_host_classes/src/ux_host_class_storage_entry.c **** 
 141:Middlewares/ST/usbx/common/usbx_host_classes/src/ux_host_class_storage_entry.c ****             /* Check completion status.  */
 142:Middlewares/ST/usbx/common/usbx_host_classes/src/ux_host_class_storage_entry.c ****             if (class_ext == UX_NULL)
 143:Middlewares/ST/usbx/common/usbx_host_classes/src/ux_host_class_storage_entry.c ****                 return(UX_MEMORY_INSUFFICIENT);
 144:Middlewares/ST/usbx/common/usbx_host_classes/src/ux_host_class_storage_entry.c **** 
 145:Middlewares/ST/usbx/common/usbx_host_classes/src/ux_host_class_storage_entry.c ****             /* Create the storage class thread.  */
 146:Middlewares/ST/usbx/common/usbx_host_classes/src/ux_host_class_storage_entry.c ****             status =  _ux_host_thread_create(&class_ext -> ux_host_class_thread,
 147:Middlewares/ST/usbx/common/usbx_host_classes/src/ux_host_class_storage_entry.c ****                                     "ux_host_storage_thread",
 148:Middlewares/ST/usbx/common/usbx_host_classes/src/ux_host_class_storage_entry.c ****                                     _ux_host_class_storage_thread_entry,
 149:Middlewares/ST/usbx/common/usbx_host_classes/src/ux_host_class_storage_entry.c ****                                     (ULONG) (ALIGN_TYPE) class_inst, 
 150:Middlewares/ST/usbx/common/usbx_host_classes/src/ux_host_class_storage_entry.c ****                                     class_ext -> ux_host_class_thread_stack,
 151:Middlewares/ST/usbx/common/usbx_host_classes/src/ux_host_class_storage_entry.c ****                                     UX_HOST_CLASS_STORAGE_THREAD_STACK_SIZE, 
 152:Middlewares/ST/usbx/common/usbx_host_classes/src/ux_host_class_storage_entry.c ****                                     UX_HOST_CLASS_STORAGE_THREAD_PRIORITY_CLASS,
 153:Middlewares/ST/usbx/common/usbx_host_classes/src/ux_host_class_storage_entry.c ****                                     UX_HOST_CLASS_STORAGE_THREAD_PRIORITY_CLASS,
 154:Middlewares/ST/usbx/common/usbx_host_classes/src/ux_host_class_storage_entry.c ****                                     UX_NO_TIME_SLICE, UX_DONT_START);
 155:Middlewares/ST/usbx/common/usbx_host_classes/src/ux_host_class_storage_entry.c **** 
 156:Middlewares/ST/usbx/common/usbx_host_classes/src/ux_host_class_storage_entry.c ****             /* Check the completion status.  */
 157:Middlewares/ST/usbx/common/usbx_host_classes/src/ux_host_class_storage_entry.c ****             if (status != UX_SUCCESS)
 158:Middlewares/ST/usbx/common/usbx_host_classes/src/ux_host_class_storage_entry.c ****             {
 159:Middlewares/ST/usbx/common/usbx_host_classes/src/ux_host_class_storage_entry.c ****                 _ux_utility_memory_free(class_ext);
 160:Middlewares/ST/usbx/common/usbx_host_classes/src/ux_host_class_storage_entry.c ****                 class_inst -> ux_host_class_ext = UX_NULL;
 161:Middlewares/ST/usbx/common/usbx_host_classes/src/ux_host_class_storage_entry.c ****                 return(UX_THREAD_ERROR);
 162:Middlewares/ST/usbx/common/usbx_host_classes/src/ux_host_class_storage_entry.c ****             }
 163:Middlewares/ST/usbx/common/usbx_host_classes/src/ux_host_class_storage_entry.c **** 
 164:Middlewares/ST/usbx/common/usbx_host_classes/src/ux_host_class_storage_entry.c ****             /* Set thead ext ptr.  */
 165:Middlewares/ST/usbx/common/usbx_host_classes/src/ux_host_class_storage_entry.c ****             UX_THREAD_EXTENSION_PTR_SET(&(class_ext -> ux_host_class_thread), class_inst);
 166:Middlewares/ST/usbx/common/usbx_host_classes/src/ux_host_class_storage_entry.c **** 
 167:Middlewares/ST/usbx/common/usbx_host_classes/src/ux_host_class_storage_entry.c ****             /* Save extension.  */
 168:Middlewares/ST/usbx/common/usbx_host_classes/src/ux_host_class_storage_entry.c ****             class_inst -> ux_host_class_ext = (VOID *)class_ext;
 169:Middlewares/ST/usbx/common/usbx_host_classes/src/ux_host_class_storage_entry.c ****         }
 170:Middlewares/ST/usbx/common/usbx_host_classes/src/ux_host_class_storage_entry.c ****         else
 171:Middlewares/ST/usbx/common/usbx_host_classes/src/ux_host_class_storage_entry.c ****         {
 172:Middlewares/ST/usbx/common/usbx_host_classes/src/ux_host_class_storage_entry.c **** 
 173:Middlewares/ST/usbx/common/usbx_host_classes/src/ux_host_class_storage_entry.c ****             /* Get storage class extension.  */
 174:Middlewares/ST/usbx/common/usbx_host_classes/src/ux_host_class_storage_entry.c ****             class_ext = (UX_HOST_CLASS_STORAGE_EXT *)class_inst -> ux_host_class_ext;
 175:Middlewares/ST/usbx/common/usbx_host_classes/src/ux_host_class_storage_entry.c ****         }
 176:Middlewares/ST/usbx/common/usbx_host_classes/src/ux_host_class_storage_entry.c **** #endif
 177:Middlewares/ST/usbx/common/usbx_host_classes/src/ux_host_class_storage_entry.c **** 
 178:Middlewares/ST/usbx/common/usbx_host_classes/src/ux_host_class_storage_entry.c ****         /* Allocate some memory for the media structures used by UX_MEDIA (default FileX).  */
 179:Middlewares/ST/usbx/common/usbx_host_classes/src/ux_host_class_storage_entry.c ****         if (class_inst -> ux_host_class_media == UX_NULL)
  98              		.loc 1 179 9 is_stmt 1 view .LVU20
  99              		.loc 1 179 24 is_stmt 0 view .LVU21
 100 002e 336D     		ldr	r3, [r6, #80]
 101              		.loc 1 179 12 view .LVU22
 102 0030 53B3     		cbz	r3, .L21
ARM GAS  C:\Users\HP\AppData\Local\Temp\ccP3tWY0.s 			page 6


 103              	.L11:
 180:Middlewares/ST/usbx/common/usbx_host_classes/src/ux_host_class_storage_entry.c ****         {
 181:Middlewares/ST/usbx/common/usbx_host_classes/src/ux_host_class_storage_entry.c **** 
 182:Middlewares/ST/usbx/common/usbx_host_classes/src/ux_host_class_storage_entry.c ****             /* UX_HOST_CLASS_STORAGE_MAX_MEDIA*sizeof(UX_HOST_CLASS_STORAGE_MEDIA) overflow
 183:Middlewares/ST/usbx/common/usbx_host_classes/src/ux_host_class_storage_entry.c ****             * is checked outside of function.
 184:Middlewares/ST/usbx/common/usbx_host_classes/src/ux_host_class_storage_entry.c ****             */
 185:Middlewares/ST/usbx/common/usbx_host_classes/src/ux_host_class_storage_entry.c ****             class_inst -> ux_host_class_media =
 186:Middlewares/ST/usbx/common/usbx_host_classes/src/ux_host_class_storage_entry.c ****                     _ux_utility_memory_allocate(UX_NO_ALIGN, UX_REGULAR_MEMORY,
 187:Middlewares/ST/usbx/common/usbx_host_classes/src/ux_host_class_storage_entry.c ****                             UX_HOST_CLASS_STORAGE_MAX_MEDIA*sizeof(UX_HOST_CLASS_STORAGE_MEDIA));
 188:Middlewares/ST/usbx/common/usbx_host_classes/src/ux_host_class_storage_entry.c **** 
 189:Middlewares/ST/usbx/common/usbx_host_classes/src/ux_host_class_storage_entry.c ****             /* Check the completion status.  */
 190:Middlewares/ST/usbx/common/usbx_host_classes/src/ux_host_class_storage_entry.c ****             if (class_inst -> ux_host_class_media == UX_NULL)
 191:Middlewares/ST/usbx/common/usbx_host_classes/src/ux_host_class_storage_entry.c ****                 return(UX_MEMORY_INSUFFICIENT);
 192:Middlewares/ST/usbx/common/usbx_host_classes/src/ux_host_class_storage_entry.c ****         }
 193:Middlewares/ST/usbx/common/usbx_host_classes/src/ux_host_class_storage_entry.c **** 
 194:Middlewares/ST/usbx/common/usbx_host_classes/src/ux_host_class_storage_entry.c ****         /* Now that the extension pointer has been set, resume the thread.  */
 195:Middlewares/ST/usbx/common/usbx_host_classes/src/ux_host_class_storage_entry.c ****         _ux_host_thread_resume(&class_ext -> ux_host_class_thread);
 104              		.loc 1 195 9 is_stmt 1 view .LVU23
 105 0032 2846     		mov	r0, r5
 106 0034 FFF7FEFF 		bl	_ux_utility_thread_resume
 107              	.LVL5:
 196:Middlewares/ST/usbx/common/usbx_host_classes/src/ux_host_class_storage_entry.c **** 
 197:Middlewares/ST/usbx/common/usbx_host_classes/src/ux_host_class_storage_entry.c ****         /* The activate command is used when the device inserted has found a parent and
 198:Middlewares/ST/usbx/common/usbx_host_classes/src/ux_host_class_storage_entry.c ****            is ready to complete the enumeration.   */
 199:Middlewares/ST/usbx/common/usbx_host_classes/src/ux_host_class_storage_entry.c ****         status =  _ux_host_class_storage_activate(command);
 108              		.loc 1 199 9 view .LVU24
 109              		.loc 1 199 19 is_stmt 0 view .LVU25
 110 0038 2046     		mov	r0, r4
 111 003a FFF7FEFF 		bl	_ux_host_class_storage_activate
 112              	.LVL6:
 200:Middlewares/ST/usbx/common/usbx_host_classes/src/ux_host_class_storage_entry.c **** 
 201:Middlewares/ST/usbx/common/usbx_host_classes/src/ux_host_class_storage_entry.c ****         /* Return the completion status.  */
 202:Middlewares/ST/usbx/common/usbx_host_classes/src/ux_host_class_storage_entry.c ****         return(status);
 113              		.loc 1 202 9 is_stmt 1 view .LVU26
 114              		.loc 1 202 15 is_stmt 0 view .LVU27
 115 003e 4BE0     		b	.L1
 116              	.LVL7:
 117              	.L20:
 137:Middlewares/ST/usbx/common/usbx_host_classes/src/ux_host_class_storage_entry.c ****                                             UX_REGULAR_MEMORY,
 118              		.loc 1 137 13 is_stmt 1 view .LVU28
 137:Middlewares/ST/usbx/common/usbx_host_classes/src/ux_host_class_storage_entry.c ****                                             UX_REGULAR_MEMORY,
 119              		.loc 1 137 25 is_stmt 0 view .LVU29
 120 0040 4FF49662 		mov	r2, #1200
 121 0044 0021     		movs	r1, #0
 122 0046 0846     		mov	r0, r1
 123              	.LVL8:
 137:Middlewares/ST/usbx/common/usbx_host_classes/src/ux_host_class_storage_entry.c ****                                             UX_REGULAR_MEMORY,
 124              		.loc 1 137 25 view .LVU30
 125 0048 FFF7FEFF 		bl	_ux_utility_memory_allocate
 126              	.LVL9:
 142:Middlewares/ST/usbx/common/usbx_host_classes/src/ux_host_class_storage_entry.c ****                 return(UX_MEMORY_INSUFFICIENT);
 127              		.loc 1 142 13 is_stmt 1 view .LVU31
 142:Middlewares/ST/usbx/common/usbx_host_classes/src/ux_host_class_storage_entry.c ****                 return(UX_MEMORY_INSUFFICIENT);
 128              		.loc 1 142 16 is_stmt 0 view .LVU32
 129 004c 0546     		mov	r5, r0
 130 004e 0028     		cmp	r0, #0
 131 0050 48D0     		beq	.L16
ARM GAS  C:\Users\HP\AppData\Local\Temp\ccP3tWY0.s 			page 7


 146:Middlewares/ST/usbx/common/usbx_host_classes/src/ux_host_class_storage_entry.c ****                                     "ux_host_storage_thread",
 132              		.loc 1 146 13 is_stmt 1 view .LVU33
 150:Middlewares/ST/usbx/common/usbx_host_classes/src/ux_host_class_storage_entry.c ****                                     UX_HOST_CLASS_STORAGE_THREAD_STACK_SIZE, 
 133              		.loc 1 150 47 is_stmt 0 view .LVU34
 134 0052 00F1B002 		add	r2, r0, #176
 146:Middlewares/ST/usbx/common/usbx_host_classes/src/ux_host_class_storage_entry.c ****                                     "ux_host_storage_thread",
 135              		.loc 1 146 23 view .LVU35
 136 0056 0023     		movs	r3, #0
 137 0058 0593     		str	r3, [sp, #20]
 138 005a 0493     		str	r3, [sp, #16]
 139 005c 1423     		movs	r3, #20
 140 005e 0393     		str	r3, [sp, #12]
 141 0060 0293     		str	r3, [sp, #8]
 142 0062 4FF48063 		mov	r3, #1024
 143 0066 0193     		str	r3, [sp, #4]
 144 0068 0092     		str	r2, [sp]
 145 006a 3346     		mov	r3, r6
 146 006c 1F4A     		ldr	r2, .L23
 147 006e 2049     		ldr	r1, .L23+4
 148 0070 FFF7FEFF 		bl	_ux_utility_thread_create
 149              	.LVL10:
 157:Middlewares/ST/usbx/common/usbx_host_classes/src/ux_host_class_storage_entry.c ****             {
 150              		.loc 1 157 13 is_stmt 1 view .LVU36
 157:Middlewares/ST/usbx/common/usbx_host_classes/src/ux_host_class_storage_entry.c ****             {
 151              		.loc 1 157 16 is_stmt 0 view .LVU37
 152 0074 08B9     		cbnz	r0, .L22
 165:Middlewares/ST/usbx/common/usbx_host_classes/src/ux_host_class_storage_entry.c **** 
 153              		.loc 1 165 90 is_stmt 1 view .LVU38
 168:Middlewares/ST/usbx/common/usbx_host_classes/src/ux_host_class_storage_entry.c ****         }
 154              		.loc 1 168 13 view .LVU39
 168:Middlewares/ST/usbx/common/usbx_host_classes/src/ux_host_class_storage_entry.c ****         }
 155              		.loc 1 168 45 is_stmt 0 view .LVU40
 156 0076 7565     		str	r5, [r6, #84]
 157 0078 D9E7     		b	.L9
 158              	.L22:
 159:Middlewares/ST/usbx/common/usbx_host_classes/src/ux_host_class_storage_entry.c ****                 class_inst -> ux_host_class_ext = UX_NULL;
 159              		.loc 1 159 17 is_stmt 1 view .LVU41
 160 007a 2846     		mov	r0, r5
 161              	.LVL11:
 159:Middlewares/ST/usbx/common/usbx_host_classes/src/ux_host_class_storage_entry.c ****                 class_inst -> ux_host_class_ext = UX_NULL;
 162              		.loc 1 159 17 is_stmt 0 view .LVU42
 163 007c FFF7FEFF 		bl	_ux_utility_memory_free
 164              	.LVL12:
 160:Middlewares/ST/usbx/common/usbx_host_classes/src/ux_host_class_storage_entry.c ****                 return(UX_THREAD_ERROR);
 165              		.loc 1 160 17 is_stmt 1 view .LVU43
 160:Middlewares/ST/usbx/common/usbx_host_classes/src/ux_host_class_storage_entry.c ****                 return(UX_THREAD_ERROR);
 166              		.loc 1 160 49 is_stmt 0 view .LVU44
 167 0080 0023     		movs	r3, #0
 168 0082 7365     		str	r3, [r6, #84]
 161:Middlewares/ST/usbx/common/usbx_host_classes/src/ux_host_class_storage_entry.c ****             }
 169              		.loc 1 161 17 is_stmt 1 view .LVU45
 161:Middlewares/ST/usbx/common/usbx_host_classes/src/ux_host_class_storage_entry.c ****             }
 170              		.loc 1 161 23 is_stmt 0 view .LVU46
 171 0084 1620     		movs	r0, #22
 172 0086 27E0     		b	.L1
 173              	.L21:
 185:Middlewares/ST/usbx/common/usbx_host_classes/src/ux_host_class_storage_entry.c ****                     _ux_utility_memory_allocate(UX_NO_ALIGN, UX_REGULAR_MEMORY,
ARM GAS  C:\Users\HP\AppData\Local\Temp\ccP3tWY0.s 			page 8


 174              		.loc 1 185 13 is_stmt 1 view .LVU47
 186:Middlewares/ST/usbx/common/usbx_host_classes/src/ux_host_class_storage_entry.c ****                             UX_HOST_CLASS_STORAGE_MAX_MEDIA*sizeof(UX_HOST_CLASS_STORAGE_MEDIA));
 175              		.loc 1 186 21 is_stmt 0 view .LVU48
 176 0088 42F2D042 		movw	r2, #9424
 177 008c 0021     		movs	r1, #0
 178 008e 0846     		mov	r0, r1
 179 0090 FFF7FEFF 		bl	_ux_utility_memory_allocate
 180              	.LVL13:
 185:Middlewares/ST/usbx/common/usbx_host_classes/src/ux_host_class_storage_entry.c ****                     _ux_utility_memory_allocate(UX_NO_ALIGN, UX_REGULAR_MEMORY,
 181              		.loc 1 185 47 view .LVU49
 182 0094 3065     		str	r0, [r6, #80]
 190:Middlewares/ST/usbx/common/usbx_host_classes/src/ux_host_class_storage_entry.c ****                 return(UX_MEMORY_INSUFFICIENT);
 183              		.loc 1 190 13 is_stmt 1 view .LVU50
 190:Middlewares/ST/usbx/common/usbx_host_classes/src/ux_host_class_storage_entry.c ****                 return(UX_MEMORY_INSUFFICIENT);
 184              		.loc 1 190 16 is_stmt 0 view .LVU51
 185 0096 0028     		cmp	r0, #0
 186 0098 CBD1     		bne	.L11
 191:Middlewares/ST/usbx/common/usbx_host_classes/src/ux_host_class_storage_entry.c ****         }
 187              		.loc 1 191 23 view .LVU52
 188 009a 1220     		movs	r0, #18
 189 009c 1CE0     		b	.L1
 190              	.LVL14:
 191              	.L6:
 203:Middlewares/ST/usbx/common/usbx_host_classes/src/ux_host_class_storage_entry.c **** 
 204:Middlewares/ST/usbx/common/usbx_host_classes/src/ux_host_class_storage_entry.c ****     case UX_HOST_CLASS_COMMAND_ACTIVATE_WAIT:
 205:Middlewares/ST/usbx/common/usbx_host_classes/src/ux_host_class_storage_entry.c ****         return(UX_STATE_NEXT);
 206:Middlewares/ST/usbx/common/usbx_host_classes/src/ux_host_class_storage_entry.c **** 
 207:Middlewares/ST/usbx/common/usbx_host_classes/src/ux_host_class_storage_entry.c ****     case UX_HOST_CLASS_COMMAND_DEACTIVATE:
 208:Middlewares/ST/usbx/common/usbx_host_classes/src/ux_host_class_storage_entry.c **** 
 209:Middlewares/ST/usbx/common/usbx_host_classes/src/ux_host_class_storage_entry.c ****         /* The deactivate command is used when the device has been extracted either      
 210:Middlewares/ST/usbx/common/usbx_host_classes/src/ux_host_class_storage_entry.c ****            directly or when its parents has been extracted.  */
 211:Middlewares/ST/usbx/common/usbx_host_classes/src/ux_host_class_storage_entry.c ****         status =  _ux_host_class_storage_deactivate(command);
 192              		.loc 1 211 9 is_stmt 1 view .LVU53
 193              		.loc 1 211 19 is_stmt 0 view .LVU54
 194 009e FFF7FEFF 		bl	_ux_host_class_storage_deactivate
 195              	.LVL15:
 212:Middlewares/ST/usbx/common/usbx_host_classes/src/ux_host_class_storage_entry.c **** 
 213:Middlewares/ST/usbx/common/usbx_host_classes/src/ux_host_class_storage_entry.c ****         /* Return the completion status.  */
 214:Middlewares/ST/usbx/common/usbx_host_classes/src/ux_host_class_storage_entry.c ****         return(status);
 196              		.loc 1 214 9 is_stmt 1 view .LVU55
 197              		.loc 1 214 15 is_stmt 0 view .LVU56
 198 00a2 19E0     		b	.L1
 199              	.LVL16:
 200              	.L5:
 215:Middlewares/ST/usbx/common/usbx_host_classes/src/ux_host_class_storage_entry.c **** 
 216:Middlewares/ST/usbx/common/usbx_host_classes/src/ux_host_class_storage_entry.c ****     case UX_HOST_CLASS_COMMAND_DESTROY:
 217:Middlewares/ST/usbx/common/usbx_host_classes/src/ux_host_class_storage_entry.c **** 
 218:Middlewares/ST/usbx/common/usbx_host_classes/src/ux_host_class_storage_entry.c ****         /* The destroy command is used when the class is unregistered.  */
 219:Middlewares/ST/usbx/common/usbx_host_classes/src/ux_host_class_storage_entry.c **** 
 220:Middlewares/ST/usbx/common/usbx_host_classes/src/ux_host_class_storage_entry.c ****         /* Get class.  */
 221:Middlewares/ST/usbx/common/usbx_host_classes/src/ux_host_class_storage_entry.c ****         class_inst = command -> ux_host_class_command_class_ptr;
 201              		.loc 1 221 9 is_stmt 1 view .LVU57
 202              		.loc 1 221 20 is_stmt 0 view .LVU58
 203 00a4 046B     		ldr	r4, [r0, #48]
 204              	.LVL17:
 222:Middlewares/ST/usbx/common/usbx_host_classes/src/ux_host_class_storage_entry.c **** 
 223:Middlewares/ST/usbx/common/usbx_host_classes/src/ux_host_class_storage_entry.c ****         /* Free allocated media structures.  */
ARM GAS  C:\Users\HP\AppData\Local\Temp\ccP3tWY0.s 			page 9


 224:Middlewares/ST/usbx/common/usbx_host_classes/src/ux_host_class_storage_entry.c ****         if (class_inst -> ux_host_class_media)
 205              		.loc 1 224 9 is_stmt 1 view .LVU59
 206              		.loc 1 224 24 is_stmt 0 view .LVU60
 207 00a6 206D     		ldr	r0, [r4, #80]
 208              	.LVL18:
 209              		.loc 1 224 12 view .LVU61
 210 00a8 18B1     		cbz	r0, .L12
 225:Middlewares/ST/usbx/common/usbx_host_classes/src/ux_host_class_storage_entry.c ****         {
 226:Middlewares/ST/usbx/common/usbx_host_classes/src/ux_host_class_storage_entry.c ****             _ux_utility_memory_free(class_inst -> ux_host_class_media);
 211              		.loc 1 226 13 is_stmt 1 view .LVU62
 212 00aa FFF7FEFF 		bl	_ux_utility_memory_free
 213              	.LVL19:
 227:Middlewares/ST/usbx/common/usbx_host_classes/src/ux_host_class_storage_entry.c ****             class_inst -> ux_host_class_media = UX_NULL;
 214              		.loc 1 227 13 view .LVU63
 215              		.loc 1 227 47 is_stmt 0 view .LVU64
 216 00ae 0023     		movs	r3, #0
 217 00b0 2365     		str	r3, [r4, #80]
 218              	.L12:
 228:Middlewares/ST/usbx/common/usbx_host_classes/src/ux_host_class_storage_entry.c ****         }
 229:Middlewares/ST/usbx/common/usbx_host_classes/src/ux_host_class_storage_entry.c **** 
 230:Middlewares/ST/usbx/common/usbx_host_classes/src/ux_host_class_storage_entry.c **** #if !defined(UX_HOST_STANDALONE)
 231:Middlewares/ST/usbx/common/usbx_host_classes/src/ux_host_class_storage_entry.c **** 
 232:Middlewares/ST/usbx/common/usbx_host_classes/src/ux_host_class_storage_entry.c ****         /* Free class extension resources.  */
 233:Middlewares/ST/usbx/common/usbx_host_classes/src/ux_host_class_storage_entry.c ****         if (class_inst -> ux_host_class_ext)
 219              		.loc 1 233 9 is_stmt 1 view .LVU65
 220              		.loc 1 233 24 is_stmt 0 view .LVU66
 221 00b2 656D     		ldr	r5, [r4, #84]
 222              		.loc 1 233 12 view .LVU67
 223 00b4 C5B1     		cbz	r5, .L18
 234:Middlewares/ST/usbx/common/usbx_host_classes/src/ux_host_class_storage_entry.c ****         {
 235:Middlewares/ST/usbx/common/usbx_host_classes/src/ux_host_class_storage_entry.c **** 
 236:Middlewares/ST/usbx/common/usbx_host_classes/src/ux_host_class_storage_entry.c ****             /* Get storage class extension.  */
 237:Middlewares/ST/usbx/common/usbx_host_classes/src/ux_host_class_storage_entry.c ****             class_ext = (UX_HOST_CLASS_STORAGE_EXT *)class_inst -> ux_host_class_ext;
 224              		.loc 1 237 13 is_stmt 1 view .LVU68
 225              	.LVL20:
 238:Middlewares/ST/usbx/common/usbx_host_classes/src/ux_host_class_storage_entry.c **** 
 239:Middlewares/ST/usbx/common/usbx_host_classes/src/ux_host_class_storage_entry.c ****             /* Delete storage thread.  */
 240:Middlewares/ST/usbx/common/usbx_host_classes/src/ux_host_class_storage_entry.c ****             _ux_host_thread_delete(&class_ext -> ux_host_class_thread);
 226              		.loc 1 240 13 view .LVU69
 227 00b6 2846     		mov	r0, r5
 228 00b8 FFF7FEFF 		bl	_ux_utility_thread_delete
 229              	.LVL21:
 241:Middlewares/ST/usbx/common/usbx_host_classes/src/ux_host_class_storage_entry.c **** 
 242:Middlewares/ST/usbx/common/usbx_host_classes/src/ux_host_class_storage_entry.c ****             /* Free class extension memory.  */
 243:Middlewares/ST/usbx/common/usbx_host_classes/src/ux_host_class_storage_entry.c ****             _ux_utility_memory_free(class_ext);
 230              		.loc 1 243 13 view .LVU70
 231 00bc 2846     		mov	r0, r5
 232 00be FFF7FEFF 		bl	_ux_utility_memory_free
 233              	.LVL22:
 244:Middlewares/ST/usbx/common/usbx_host_classes/src/ux_host_class_storage_entry.c **** 
 245:Middlewares/ST/usbx/common/usbx_host_classes/src/ux_host_class_storage_entry.c ****             /* Set extension pointer to NULL.  */
 246:Middlewares/ST/usbx/common/usbx_host_classes/src/ux_host_class_storage_entry.c ****             class_inst -> ux_host_class_ext = UX_NULL;
 234              		.loc 1 246 13 view .LVU71
 235              		.loc 1 246 45 is_stmt 0 view .LVU72
 236 00c2 0020     		movs	r0, #0
 237 00c4 6065     		str	r0, [r4, #84]
 238 00c6 07E0     		b	.L1
ARM GAS  C:\Users\HP\AppData\Local\Temp\ccP3tWY0.s 			page 10


 239              	.LVL23:
 240              	.L2:
 247:Middlewares/ST/usbx/common/usbx_host_classes/src/ux_host_class_storage_entry.c ****         }
 248:Middlewares/ST/usbx/common/usbx_host_classes/src/ux_host_class_storage_entry.c **** #endif
 249:Middlewares/ST/usbx/common/usbx_host_classes/src/ux_host_class_storage_entry.c **** 
 250:Middlewares/ST/usbx/common/usbx_host_classes/src/ux_host_class_storage_entry.c ****         /* Return success.  */
 251:Middlewares/ST/usbx/common/usbx_host_classes/src/ux_host_class_storage_entry.c ****         return(UX_SUCCESS);
 252:Middlewares/ST/usbx/common/usbx_host_classes/src/ux_host_class_storage_entry.c **** 
 253:Middlewares/ST/usbx/common/usbx_host_classes/src/ux_host_class_storage_entry.c ****     default: 
 254:Middlewares/ST/usbx/common/usbx_host_classes/src/ux_host_class_storage_entry.c **** 
 255:Middlewares/ST/usbx/common/usbx_host_classes/src/ux_host_class_storage_entry.c ****         /* Error trap. */
 256:Middlewares/ST/usbx/common/usbx_host_classes/src/ux_host_class_storage_entry.c ****         _ux_system_error_handler(UX_SYSTEM_LEVEL_THREAD, UX_SYSTEM_CONTEXT_CLASS, UX_FUNCTION_NOT_S
 241              		.loc 1 256 9 is_stmt 1 view .LVU73
 242 00c8 5422     		movs	r2, #84
 243 00ca 0721     		movs	r1, #7
 244 00cc 0220     		movs	r0, #2
 245              	.LVL24:
 246              		.loc 1 256 9 is_stmt 0 view .LVU74
 247 00ce FFF7FEFF 		bl	_ux_system_error_handler
 248              	.LVL25:
 257:Middlewares/ST/usbx/common/usbx_host_classes/src/ux_host_class_storage_entry.c **** 
 258:Middlewares/ST/usbx/common/usbx_host_classes/src/ux_host_class_storage_entry.c ****         /* If trace is enabled, insert this event into the trace buffer.  */
 259:Middlewares/ST/usbx/common/usbx_host_classes/src/ux_host_class_storage_entry.c ****         UX_TRACE_IN_LINE_INSERT(UX_TRACE_ERROR, UX_FUNCTION_NOT_SUPPORTED, 0, 0, 0, UX_TRACE_ERRORS
 260:Middlewares/ST/usbx/common/usbx_host_classes/src/ux_host_class_storage_entry.c **** 
 261:Middlewares/ST/usbx/common/usbx_host_classes/src/ux_host_class_storage_entry.c ****         /* Return an error.  */
 262:Middlewares/ST/usbx/common/usbx_host_classes/src/ux_host_class_storage_entry.c ****         return(UX_FUNCTION_NOT_SUPPORTED);
 249              		.loc 1 262 9 is_stmt 1 view .LVU75
 250              		.loc 1 262 15 is_stmt 0 view .LVU76
 251 00d2 5420     		movs	r0, #84
 252 00d4 00E0     		b	.L1
 253              	.LVL26:
 254              	.L13:
 108:Middlewares/ST/usbx/common/usbx_host_classes/src/ux_host_class_storage_entry.c ****     {
 255              		.loc 1 108 5 view .LVU77
 256 00d6 0420     		movs	r0, #4
 257              	.LVL27:
 258              	.L1:
 263:Middlewares/ST/usbx/common/usbx_host_classes/src/ux_host_class_storage_entry.c ****     }   
 264:Middlewares/ST/usbx/common/usbx_host_classes/src/ux_host_class_storage_entry.c **** }
 259              		.loc 1 264 1 view .LVU78
 260 00d8 06B0     		add	sp, sp, #24
 261              	.LCFI2:
 262              		.cfi_remember_state
 263              		.cfi_def_cfa_offset 16
 264              		@ sp needed
 265 00da 70BD     		pop	{r4, r5, r6, pc}
 266              	.LVL28:
 267              	.L14:
 268              	.LCFI3:
 269              		.cfi_restore_state
 119:Middlewares/ST/usbx/common/usbx_host_classes/src/ux_host_class_storage_entry.c ****                 
 270              		.loc 1 119 19 view .LVU79
 271 00dc 5720     		movs	r0, #87
 272              	.LVL29:
 119:Middlewares/ST/usbx/common/usbx_host_classes/src/ux_host_class_storage_entry.c ****                 
 273              		.loc 1 119 19 view .LVU80
 274 00de FBE7     		b	.L1
ARM GAS  C:\Users\HP\AppData\Local\Temp\ccP3tWY0.s 			page 11


 275              	.LVL30:
 276              	.L15:
 117:Middlewares/ST/usbx/common/usbx_host_classes/src/ux_host_class_storage_entry.c ****         else            
 277              		.loc 1 117 19 view .LVU81
 278 00e0 0020     		movs	r0, #0
 279              	.LVL31:
 117:Middlewares/ST/usbx/common/usbx_host_classes/src/ux_host_class_storage_entry.c ****         else            
 280              		.loc 1 117 19 view .LVU82
 281 00e2 F9E7     		b	.L1
 282              	.LVL32:
 283              	.L16:
 143:Middlewares/ST/usbx/common/usbx_host_classes/src/ux_host_class_storage_entry.c **** 
 284              		.loc 1 143 23 view .LVU83
 285 00e4 1220     		movs	r0, #18
 286              	.LVL33:
 143:Middlewares/ST/usbx/common/usbx_host_classes/src/ux_host_class_storage_entry.c **** 
 287              		.loc 1 143 23 view .LVU84
 288 00e6 F7E7     		b	.L1
 289              	.LVL34:
 290              	.L18:
 251:Middlewares/ST/usbx/common/usbx_host_classes/src/ux_host_class_storage_entry.c **** 
 291              		.loc 1 251 15 view .LVU85
 292 00e8 0020     		movs	r0, #0
 293 00ea F5E7     		b	.L1
 294              	.L24:
 295              		.align	2
 296              	.L23:
 297 00ec 00000000 		.word	_ux_host_class_storage_thread_entry
 298 00f0 00000000 		.word	.LC0
 299              		.cfi_endproc
 300              	.LFE11:
 302              		.text
 303              	.Letext0:
 304              		.file 2 "Middlewares/ST/threadx/ports/cortex_m4/gnu/inc/tx_port.h"
 305              		.file 3 "Middlewares/ST/threadx/common/inc/tx_api.h"
 306              		.file 4 "Middlewares/ST/usbx/common/core/inc/ux_api.h"
 307              		.file 5 "Middlewares/ST/usbx/common/usbx_host_classes/inc/ux_host_class_storage.h"
 308              		.file 6 "Middlewares/ST/usbx/common/core/inc/ux_utility.h"
ARM GAS  C:\Users\HP\AppData\Local\Temp\ccP3tWY0.s 			page 12

