ARM GAS  C:\Users\HP\AppData\Local\Temp\ccrAuieQ.s 			page 1


   1              		.cpu cortex-m4
   2              		.arch armv7e-m
   3              		.fpu fpv4-sp-d16
   4              		.eabi_attribute 27, 1
   5              		.eabi_attribute 28, 1
   6              		.eabi_attribute 20, 1
   7              		.eabi_attribute 21, 1
   8              		.eabi_attribute 23, 3
   9              		.eabi_attribute 24, 1
  10              		.eabi_attribute 25, 1
  11              		.eabi_attribute 26, 1
  12              		.eabi_attribute 30, 1
  13              		.eabi_attribute 34, 1
  14              		.eabi_attribute 18, 4
  15              		.file	"ux_host_class_storage_transport_cbi.c"
  16              		.text
  17              	.Ltext0:
  18              		.cfi_sections	.debug_frame
  19              		.section	.text._ux_host_class_storage_transport_cbi,"ax",%progbits
  20              		.align	1
  21              		.global	_ux_host_class_storage_transport_cbi
  22              		.syntax unified
  23              		.thumb
  24              		.thumb_func
  26              	_ux_host_class_storage_transport_cbi:
  27              	.LVL0:
  28              	.LFB11:
  29              		.file 1 "Middlewares/ST/usbx/common/usbx_host_classes/src/ux_host_class_storage_transport_cbi.c"
   1:Middlewares/ST/usbx/common/usbx_host_classes/src/ux_host_class_storage_transport_cbi.c **** /**************************************************************************/
   2:Middlewares/ST/usbx/common/usbx_host_classes/src/ux_host_class_storage_transport_cbi.c **** /*                                                                        */
   3:Middlewares/ST/usbx/common/usbx_host_classes/src/ux_host_class_storage_transport_cbi.c **** /*       Copyright (c) Microsoft Corporation. All rights reserved.        */
   4:Middlewares/ST/usbx/common/usbx_host_classes/src/ux_host_class_storage_transport_cbi.c **** /*                                                                        */
   5:Middlewares/ST/usbx/common/usbx_host_classes/src/ux_host_class_storage_transport_cbi.c **** /*       This software is licensed under the Microsoft Software License   */
   6:Middlewares/ST/usbx/common/usbx_host_classes/src/ux_host_class_storage_transport_cbi.c **** /*       Terms for Microsoft Azure RTOS. Full text of the license can be  */
   7:Middlewares/ST/usbx/common/usbx_host_classes/src/ux_host_class_storage_transport_cbi.c **** /*       found in the LICENSE file at https://aka.ms/AzureRTOS_EULA       */
   8:Middlewares/ST/usbx/common/usbx_host_classes/src/ux_host_class_storage_transport_cbi.c **** /*       and in the root directory of this software.                      */
   9:Middlewares/ST/usbx/common/usbx_host_classes/src/ux_host_class_storage_transport_cbi.c **** /*                                                                        */
  10:Middlewares/ST/usbx/common/usbx_host_classes/src/ux_host_class_storage_transport_cbi.c **** /**************************************************************************/
  11:Middlewares/ST/usbx/common/usbx_host_classes/src/ux_host_class_storage_transport_cbi.c **** 
  12:Middlewares/ST/usbx/common/usbx_host_classes/src/ux_host_class_storage_transport_cbi.c **** 
  13:Middlewares/ST/usbx/common/usbx_host_classes/src/ux_host_class_storage_transport_cbi.c **** /**************************************************************************/
  14:Middlewares/ST/usbx/common/usbx_host_classes/src/ux_host_class_storage_transport_cbi.c **** /**************************************************************************/
  15:Middlewares/ST/usbx/common/usbx_host_classes/src/ux_host_class_storage_transport_cbi.c **** /**                                                                       */ 
  16:Middlewares/ST/usbx/common/usbx_host_classes/src/ux_host_class_storage_transport_cbi.c **** /** USBX Component                                                        */ 
  17:Middlewares/ST/usbx/common/usbx_host_classes/src/ux_host_class_storage_transport_cbi.c **** /**                                                                       */
  18:Middlewares/ST/usbx/common/usbx_host_classes/src/ux_host_class_storage_transport_cbi.c **** /**   Storage Class                                                       */
  19:Middlewares/ST/usbx/common/usbx_host_classes/src/ux_host_class_storage_transport_cbi.c **** /**                                                                       */
  20:Middlewares/ST/usbx/common/usbx_host_classes/src/ux_host_class_storage_transport_cbi.c **** /**************************************************************************/
  21:Middlewares/ST/usbx/common/usbx_host_classes/src/ux_host_class_storage_transport_cbi.c **** /**************************************************************************/
  22:Middlewares/ST/usbx/common/usbx_host_classes/src/ux_host_class_storage_transport_cbi.c **** 
  23:Middlewares/ST/usbx/common/usbx_host_classes/src/ux_host_class_storage_transport_cbi.c **** 
  24:Middlewares/ST/usbx/common/usbx_host_classes/src/ux_host_class_storage_transport_cbi.c **** /* Include necessary system files.  */
  25:Middlewares/ST/usbx/common/usbx_host_classes/src/ux_host_class_storage_transport_cbi.c **** 
  26:Middlewares/ST/usbx/common/usbx_host_classes/src/ux_host_class_storage_transport_cbi.c **** #define UX_SOURCE_CODE
  27:Middlewares/ST/usbx/common/usbx_host_classes/src/ux_host_class_storage_transport_cbi.c **** 
  28:Middlewares/ST/usbx/common/usbx_host_classes/src/ux_host_class_storage_transport_cbi.c **** #include "ux_api.h"
  29:Middlewares/ST/usbx/common/usbx_host_classes/src/ux_host_class_storage_transport_cbi.c **** #include "ux_host_class_storage.h"
ARM GAS  C:\Users\HP\AppData\Local\Temp\ccrAuieQ.s 			page 2


  30:Middlewares/ST/usbx/common/usbx_host_classes/src/ux_host_class_storage_transport_cbi.c **** #include "ux_host_stack.h"
  31:Middlewares/ST/usbx/common/usbx_host_classes/src/ux_host_class_storage_transport_cbi.c **** 
  32:Middlewares/ST/usbx/common/usbx_host_classes/src/ux_host_class_storage_transport_cbi.c **** 
  33:Middlewares/ST/usbx/common/usbx_host_classes/src/ux_host_class_storage_transport_cbi.c **** #if !defined(UX_HOST_STANDALONE)
  34:Middlewares/ST/usbx/common/usbx_host_classes/src/ux_host_class_storage_transport_cbi.c **** /**************************************************************************/ 
  35:Middlewares/ST/usbx/common/usbx_host_classes/src/ux_host_class_storage_transport_cbi.c **** /*                                                                        */ 
  36:Middlewares/ST/usbx/common/usbx_host_classes/src/ux_host_class_storage_transport_cbi.c **** /*  FUNCTION                                               RELEASE        */ 
  37:Middlewares/ST/usbx/common/usbx_host_classes/src/ux_host_class_storage_transport_cbi.c **** /*                                                                        */ 
  38:Middlewares/ST/usbx/common/usbx_host_classes/src/ux_host_class_storage_transport_cbi.c **** /*    _ux_host_class_storage_transport_cbi                PORTABLE C      */ 
  39:Middlewares/ST/usbx/common/usbx_host_classes/src/ux_host_class_storage_transport_cbi.c **** /*                                                           6.1.11       */
  40:Middlewares/ST/usbx/common/usbx_host_classes/src/ux_host_class_storage_transport_cbi.c **** /*  AUTHOR                                                                */
  41:Middlewares/ST/usbx/common/usbx_host_classes/src/ux_host_class_storage_transport_cbi.c **** /*                                                                        */
  42:Middlewares/ST/usbx/common/usbx_host_classes/src/ux_host_class_storage_transport_cbi.c **** /*    Chaoqiong Xiao, Microsoft Corporation                               */
  43:Middlewares/ST/usbx/common/usbx_host_classes/src/ux_host_class_storage_transport_cbi.c **** /*                                                                        */
  44:Middlewares/ST/usbx/common/usbx_host_classes/src/ux_host_class_storage_transport_cbi.c **** /*  DESCRIPTION                                                           */
  45:Middlewares/ST/usbx/common/usbx_host_classes/src/ux_host_class_storage_transport_cbi.c **** /*                                                                        */ 
  46:Middlewares/ST/usbx/common/usbx_host_classes/src/ux_host_class_storage_transport_cbi.c **** /*    This function is the transport layer for the Control/Bulk/Interrupt */
  47:Middlewares/ST/usbx/common/usbx_host_classes/src/ux_host_class_storage_transport_cbi.c **** /*    transport. The command is sent on the control endpoint, the data    */ 
  48:Middlewares/ST/usbx/common/usbx_host_classes/src/ux_host_class_storage_transport_cbi.c **** /*    payload on the bulk endpoint. The status from the command is        */ 
  49:Middlewares/ST/usbx/common/usbx_host_classes/src/ux_host_class_storage_transport_cbi.c **** /*    returned by the interrupt endpoint. This transport is mainly used   */ 
  50:Middlewares/ST/usbx/common/usbx_host_classes/src/ux_host_class_storage_transport_cbi.c **** /*    by storage devices that have very slow read/write commands.         */ 
  51:Middlewares/ST/usbx/common/usbx_host_classes/src/ux_host_class_storage_transport_cbi.c **** /*                                                                        */ 
  52:Middlewares/ST/usbx/common/usbx_host_classes/src/ux_host_class_storage_transport_cbi.c **** /*  INPUT                                                                 */ 
  53:Middlewares/ST/usbx/common/usbx_host_classes/src/ux_host_class_storage_transport_cbi.c **** /*                                                                        */ 
  54:Middlewares/ST/usbx/common/usbx_host_classes/src/ux_host_class_storage_transport_cbi.c **** /*    storage                               Pointer to storage class      */ 
  55:Middlewares/ST/usbx/common/usbx_host_classes/src/ux_host_class_storage_transport_cbi.c **** /*    data_pointer                          Pointer to data               */ 
  56:Middlewares/ST/usbx/common/usbx_host_classes/src/ux_host_class_storage_transport_cbi.c **** /*                                                                        */ 
  57:Middlewares/ST/usbx/common/usbx_host_classes/src/ux_host_class_storage_transport_cbi.c **** /*  OUTPUT                                                                */ 
  58:Middlewares/ST/usbx/common/usbx_host_classes/src/ux_host_class_storage_transport_cbi.c **** /*                                                                        */ 
  59:Middlewares/ST/usbx/common/usbx_host_classes/src/ux_host_class_storage_transport_cbi.c **** /*    Completion Status                                                   */ 
  60:Middlewares/ST/usbx/common/usbx_host_classes/src/ux_host_class_storage_transport_cbi.c **** /*                                                                        */ 
  61:Middlewares/ST/usbx/common/usbx_host_classes/src/ux_host_class_storage_transport_cbi.c **** /*  CALLS                                                                 */ 
  62:Middlewares/ST/usbx/common/usbx_host_classes/src/ux_host_class_storage_transport_cbi.c **** /*                                                                        */ 
  63:Middlewares/ST/usbx/common/usbx_host_classes/src/ux_host_class_storage_transport_cbi.c **** /*    _ux_host_stack_transfer_request       Process host stack transfer   */ 
  64:Middlewares/ST/usbx/common/usbx_host_classes/src/ux_host_class_storage_transport_cbi.c **** /*    _ux_host_stack_transfer_request_abort Abort transfer request        */ 
  65:Middlewares/ST/usbx/common/usbx_host_classes/src/ux_host_class_storage_transport_cbi.c **** /*    _ux_utility_long_get                  Get 32-bit word               */ 
  66:Middlewares/ST/usbx/common/usbx_host_classes/src/ux_host_class_storage_transport_cbi.c **** /*    _ux_host_semaphore_get                Get semaphore                 */ 
  67:Middlewares/ST/usbx/common/usbx_host_classes/src/ux_host_class_storage_transport_cbi.c **** /*                                                                        */ 
  68:Middlewares/ST/usbx/common/usbx_host_classes/src/ux_host_class_storage_transport_cbi.c **** /*  CALLED BY                                                             */ 
  69:Middlewares/ST/usbx/common/usbx_host_classes/src/ux_host_class_storage_transport_cbi.c **** /*                                                                        */ 
  70:Middlewares/ST/usbx/common/usbx_host_classes/src/ux_host_class_storage_transport_cbi.c **** /*    Storage Class                                                       */ 
  71:Middlewares/ST/usbx/common/usbx_host_classes/src/ux_host_class_storage_transport_cbi.c **** /*                                                                        */ 
  72:Middlewares/ST/usbx/common/usbx_host_classes/src/ux_host_class_storage_transport_cbi.c **** /*  RELEASE HISTORY                                                       */ 
  73:Middlewares/ST/usbx/common/usbx_host_classes/src/ux_host_class_storage_transport_cbi.c **** /*                                                                        */ 
  74:Middlewares/ST/usbx/common/usbx_host_classes/src/ux_host_class_storage_transport_cbi.c **** /*    DATE              NAME                      DESCRIPTION             */ 
  75:Middlewares/ST/usbx/common/usbx_host_classes/src/ux_host_class_storage_transport_cbi.c **** /*                                                                        */ 
  76:Middlewares/ST/usbx/common/usbx_host_classes/src/ux_host_class_storage_transport_cbi.c **** /*  05-19-2020     Chaoqiong Xiao           Initial Version 6.0           */
  77:Middlewares/ST/usbx/common/usbx_host_classes/src/ux_host_class_storage_transport_cbi.c **** /*  09-30-2020     Chaoqiong Xiao           Modified comment(s),          */
  78:Middlewares/ST/usbx/common/usbx_host_classes/src/ux_host_class_storage_transport_cbi.c **** /*                                            prefixed UX to MS_TO_TICK,  */
  79:Middlewares/ST/usbx/common/usbx_host_classes/src/ux_host_class_storage_transport_cbi.c **** /*                                            resulting in version 6.1    */
  80:Middlewares/ST/usbx/common/usbx_host_classes/src/ux_host_class_storage_transport_cbi.c **** /*  01-31-2022     Chaoqiong Xiao           Modified comment(s),          */
  81:Middlewares/ST/usbx/common/usbx_host_classes/src/ux_host_class_storage_transport_cbi.c **** /*                                            fixed CBI request index,    */
  82:Middlewares/ST/usbx/common/usbx_host_classes/src/ux_host_class_storage_transport_cbi.c **** /*                                            refined macros names,       */
  83:Middlewares/ST/usbx/common/usbx_host_classes/src/ux_host_class_storage_transport_cbi.c **** /*                                            resulting in version 6.1.10 */
  84:Middlewares/ST/usbx/common/usbx_host_classes/src/ux_host_class_storage_transport_cbi.c **** /*  04-25-2022     Chaoqiong Xiao           Modified comment(s),          */
  85:Middlewares/ST/usbx/common/usbx_host_classes/src/ux_host_class_storage_transport_cbi.c **** /*                                            internal clean up,          */
  86:Middlewares/ST/usbx/common/usbx_host_classes/src/ux_host_class_storage_transport_cbi.c **** /*                                            resulting in version 6.1.11 */
ARM GAS  C:\Users\HP\AppData\Local\Temp\ccrAuieQ.s 			page 3


  87:Middlewares/ST/usbx/common/usbx_host_classes/src/ux_host_class_storage_transport_cbi.c **** /*                                                                        */
  88:Middlewares/ST/usbx/common/usbx_host_classes/src/ux_host_class_storage_transport_cbi.c **** /**************************************************************************/
  89:Middlewares/ST/usbx/common/usbx_host_classes/src/ux_host_class_storage_transport_cbi.c **** UINT  _ux_host_class_storage_transport_cbi(UX_HOST_CLASS_STORAGE *storage, UCHAR *data_pointer)
  90:Middlewares/ST/usbx/common/usbx_host_classes/src/ux_host_class_storage_transport_cbi.c **** {
  30              		.loc 1 90 1 view -0
  31              		.cfi_startproc
  32              		@ args = 0, pretend = 0, frame = 0
  33              		@ frame_needed = 0, uses_anonymous_args = 0
  34              		.loc 1 90 1 is_stmt 0 view .LVU1
  35 0000 F8B5     		push	{r3, r4, r5, r6, r7, lr}
  36              	.LCFI0:
  37              		.cfi_def_cfa_offset 24
  38              		.cfi_offset 3, -24
  39              		.cfi_offset 4, -20
  40              		.cfi_offset 5, -16
  41              		.cfi_offset 6, -12
  42              		.cfi_offset 7, -8
  43              		.cfi_offset 14, -4
  44 0002 0546     		mov	r5, r0
  45 0004 0E46     		mov	r6, r1
  91:Middlewares/ST/usbx/common/usbx_host_classes/src/ux_host_class_storage_transport_cbi.c **** 
  92:Middlewares/ST/usbx/common/usbx_host_classes/src/ux_host_class_storage_transport_cbi.c **** UX_TRANSFER     *transfer_request;
  46              		.loc 1 92 1 is_stmt 1 view .LVU2
  93:Middlewares/ST/usbx/common/usbx_host_classes/src/ux_host_class_storage_transport_cbi.c **** UINT            status;
  47              		.loc 1 93 1 view .LVU3
  94:Middlewares/ST/usbx/common/usbx_host_classes/src/ux_host_class_storage_transport_cbi.c **** UCHAR           *ufi;
  48              		.loc 1 94 1 view .LVU4
  95:Middlewares/ST/usbx/common/usbx_host_classes/src/ux_host_class_storage_transport_cbi.c **** UCHAR           *cbw;
  49              		.loc 1 95 1 view .LVU5
  96:Middlewares/ST/usbx/common/usbx_host_classes/src/ux_host_class_storage_transport_cbi.c **** ULONG           data_phase_requested_length;
  50              		.loc 1 96 1 view .LVU6
  97:Middlewares/ST/usbx/common/usbx_host_classes/src/ux_host_class_storage_transport_cbi.c **** UX_ENDPOINT     *control_endpoint;
  51              		.loc 1 97 1 view .LVU7
  98:Middlewares/ST/usbx/common/usbx_host_classes/src/ux_host_class_storage_transport_cbi.c **** 
  99:Middlewares/ST/usbx/common/usbx_host_classes/src/ux_host_class_storage_transport_cbi.c **** 
 100:Middlewares/ST/usbx/common/usbx_host_classes/src/ux_host_class_storage_transport_cbi.c ****     /* Reset the data phase memory size.  */
 101:Middlewares/ST/usbx/common/usbx_host_classes/src/ux_host_class_storage_transport_cbi.c ****     storage -> ux_host_class_storage_data_phase_length =  0;
  52              		.loc 1 101 5 view .LVU8
  53              		.loc 1 101 56 is_stmt 0 view .LVU9
  54 0006 0023     		movs	r3, #0
  55 0008 C0F88C30 		str	r3, [r0, #140]
 102:Middlewares/ST/usbx/common/usbx_host_classes/src/ux_host_class_storage_transport_cbi.c **** 
 103:Middlewares/ST/usbx/common/usbx_host_classes/src/ux_host_class_storage_transport_cbi.c ****     /* We need to get the default control endpoint transfer request pointer.  */
 104:Middlewares/ST/usbx/common/usbx_host_classes/src/ux_host_class_storage_transport_cbi.c ****     control_endpoint =  &storage -> ux_host_class_storage_device -> ux_device_control_endpoint;
  56              		.loc 1 104 5 is_stmt 1 view .LVU10
  57              		.loc 1 104 34 is_stmt 0 view .LVU11
  58 000c 8468     		ldr	r4, [r0, #8]
  59              	.LVL1:
 105:Middlewares/ST/usbx/common/usbx_host_classes/src/ux_host_class_storage_transport_cbi.c ****     transfer_request =  &control_endpoint -> ux_endpoint_transfer_request;
  60              		.loc 1 105 5 is_stmt 1 view .LVU12
 106:Middlewares/ST/usbx/common/usbx_host_classes/src/ux_host_class_storage_transport_cbi.c **** 
 107:Middlewares/ST/usbx/common/usbx_host_classes/src/ux_host_class_storage_transport_cbi.c ****     /* Initialize the transfer request with the control SETUP values.  */
 108:Middlewares/ST/usbx/common/usbx_host_classes/src/ux_host_class_storage_transport_cbi.c ****     transfer_request -> ux_transfer_request_data_pointer =      UX_NULL;
  61              		.loc 1 108 5 view .LVU13
  62              		.loc 1 108 58 is_stmt 0 view .LVU14
  63 000e C4F8BC30 		str	r3, [r4, #188]
 109:Middlewares/ST/usbx/common/usbx_host_classes/src/ux_host_class_storage_transport_cbi.c ****     transfer_request -> ux_transfer_request_requested_length =  0;
ARM GAS  C:\Users\HP\AppData\Local\Temp\ccrAuieQ.s 			page 4


  64              		.loc 1 109 5 is_stmt 1 view .LVU15
  65              		.loc 1 109 62 is_stmt 0 view .LVU16
  66 0012 C4F8C030 		str	r3, [r4, #192]
 110:Middlewares/ST/usbx/common/usbx_host_classes/src/ux_host_class_storage_transport_cbi.c ****     transfer_request -> ux_transfer_request_function =          0;
  67              		.loc 1 110 5 is_stmt 1 view .LVU17
  68              		.loc 1 110 54 is_stmt 0 view .LVU18
  69 0016 C4F8CC30 		str	r3, [r4, #204]
 111:Middlewares/ST/usbx/common/usbx_host_classes/src/ux_host_class_storage_transport_cbi.c ****     transfer_request -> ux_transfer_request_type =              UX_REQUEST_OUT | UX_REQUEST_TYPE_CL
  70              		.loc 1 111 5 is_stmt 1 view .LVU19
  71              		.loc 1 111 50 is_stmt 0 view .LVU20
  72 001a 2122     		movs	r2, #33
  73 001c C4F8C820 		str	r2, [r4, #200]
 112:Middlewares/ST/usbx/common/usbx_host_classes/src/ux_host_class_storage_transport_cbi.c ****     transfer_request -> ux_transfer_request_value =             0;
  74              		.loc 1 112 5 is_stmt 1 view .LVU21
  75              		.loc 1 112 51 is_stmt 0 view .LVU22
  76 0020 C4F8D030 		str	r3, [r4, #208]
 113:Middlewares/ST/usbx/common/usbx_host_classes/src/ux_host_class_storage_transport_cbi.c ****     transfer_request -> ux_transfer_request_index =             storage -> ux_host_class_storage_in
  77              		.loc 1 113 5 is_stmt 1 view .LVU23
  78              		.loc 1 113 73 is_stmt 0 view .LVU24
  79 0024 C368     		ldr	r3, [r0, #12]
  80              		.loc 1 113 134 view .LVU25
  81 0026 5B69     		ldr	r3, [r3, #20]
  82              		.loc 1 113 51 view .LVU26
  83 0028 C4F8D430 		str	r3, [r4, #212]
 114:Middlewares/ST/usbx/common/usbx_host_classes/src/ux_host_class_storage_transport_cbi.c ****     
 115:Middlewares/ST/usbx/common/usbx_host_classes/src/ux_host_class_storage_transport_cbi.c ****     /* Use a pointer for the ufi portion of the command.  */
 116:Middlewares/ST/usbx/common/usbx_host_classes/src/ux_host_class_storage_transport_cbi.c ****     cbw =  (UCHAR *) storage -> ux_host_class_storage_cbw;
  84              		.loc 1 116 5 is_stmt 1 view .LVU27
  85              	.LVL2:
 117:Middlewares/ST/usbx/common/usbx_host_classes/src/ux_host_class_storage_transport_cbi.c ****     ufi =  cbw + UX_HOST_CLASS_STORAGE_CBW_CB;
  86              		.loc 1 117 5 view .LVU28
  87              		.loc 1 117 9 is_stmt 0 view .LVU29
  88 002c 00F12B03 		add	r3, r0, #43
  89              	.LVL3:
 118:Middlewares/ST/usbx/common/usbx_host_classes/src/ux_host_class_storage_transport_cbi.c **** 
 119:Middlewares/ST/usbx/common/usbx_host_classes/src/ux_host_class_storage_transport_cbi.c ****     /* Fill in the transfer_request parameters.  */
 120:Middlewares/ST/usbx/common/usbx_host_classes/src/ux_host_class_storage_transport_cbi.c ****     transfer_request -> ux_transfer_request_data_pointer =      ufi;
  90              		.loc 1 120 5 is_stmt 1 view .LVU30
  91              		.loc 1 120 58 is_stmt 0 view .LVU31
  92 0030 C4F8BC30 		str	r3, [r4, #188]
 121:Middlewares/ST/usbx/common/usbx_host_classes/src/ux_host_class_storage_transport_cbi.c ****     transfer_request -> ux_transfer_request_requested_length =  (ULONG)*(cbw+UX_HOST_CLASS_STORAGE_
  93              		.loc 1 121 5 is_stmt 1 view .LVU32
  94              		.loc 1 121 72 is_stmt 0 view .LVU33
  95 0034 90F82A30 		ldrb	r3, [r0, #42]	@ zero_extendqisi2
  96              	.LVL4:
  97              		.loc 1 121 62 view .LVU34
  98 0038 C4F8C030 		str	r3, [r4, #192]
 122:Middlewares/ST/usbx/common/usbx_host_classes/src/ux_host_class_storage_transport_cbi.c **** 
 123:Middlewares/ST/usbx/common/usbx_host_classes/src/ux_host_class_storage_transport_cbi.c ****     /* Send the ufi block on the control endpoint.  */
 124:Middlewares/ST/usbx/common/usbx_host_classes/src/ux_host_class_storage_transport_cbi.c ****     _ux_host_stack_transfer_request(transfer_request);
  99              		.loc 1 124 5 is_stmt 1 view .LVU35
 100 003c 04F1B400 		add	r0, r4, #180
 101              	.LVL5:
 102              		.loc 1 124 5 is_stmt 0 view .LVU36
 103 0040 FFF7FEFF 		bl	_ux_host_stack_transfer_request
 104              	.LVL6:
 125:Middlewares/ST/usbx/common/usbx_host_classes/src/ux_host_class_storage_transport_cbi.c **** 
ARM GAS  C:\Users\HP\AppData\Local\Temp\ccrAuieQ.s 			page 5


 126:Middlewares/ST/usbx/common/usbx_host_classes/src/ux_host_class_storage_transport_cbi.c ****     /* Check the transfer status. If there is a transport error, the host must perform
 127:Middlewares/ST/usbx/common/usbx_host_classes/src/ux_host_class_storage_transport_cbi.c ****        a reset recovery.  */
 128:Middlewares/ST/usbx/common/usbx_host_classes/src/ux_host_class_storage_transport_cbi.c ****     if (transfer_request -> ux_transfer_request_completion_code != UX_SUCCESS)
 105              		.loc 1 128 5 is_stmt 1 view .LVU37
 106              		.loc 1 128 26 is_stmt 0 view .LVU38
 107 0044 D4F8E800 		ldr	r0, [r4, #232]
 108              		.loc 1 128 8 view .LVU39
 109 0048 00B1     		cbz	r0, .L8
 110              	.LVL7:
 111              	.L1:
 129:Middlewares/ST/usbx/common/usbx_host_classes/src/ux_host_class_storage_transport_cbi.c ****         return(transfer_request -> ux_transfer_request_completion_code);
 130:Middlewares/ST/usbx/common/usbx_host_classes/src/ux_host_class_storage_transport_cbi.c ****     
 131:Middlewares/ST/usbx/common/usbx_host_classes/src/ux_host_class_storage_transport_cbi.c ****     /* Get the length of the data payload.  */    
 132:Middlewares/ST/usbx/common/usbx_host_classes/src/ux_host_class_storage_transport_cbi.c ****     data_phase_requested_length =  _ux_utility_long_get(cbw+UX_HOST_CLASS_STORAGE_CBW_DATA_LENGTH);
 133:Middlewares/ST/usbx/common/usbx_host_classes/src/ux_host_class_storage_transport_cbi.c ****     
 134:Middlewares/ST/usbx/common/usbx_host_classes/src/ux_host_class_storage_transport_cbi.c ****     /* Perform the data stage - if there is any.  */    
 135:Middlewares/ST/usbx/common/usbx_host_classes/src/ux_host_class_storage_transport_cbi.c ****     if (data_phase_requested_length != 0)
 136:Middlewares/ST/usbx/common/usbx_host_classes/src/ux_host_class_storage_transport_cbi.c ****     {
 137:Middlewares/ST/usbx/common/usbx_host_classes/src/ux_host_class_storage_transport_cbi.c **** 
 138:Middlewares/ST/usbx/common/usbx_host_classes/src/ux_host_class_storage_transport_cbi.c ****         /* Check the direction and determine which endpoint to use.  */
 139:Middlewares/ST/usbx/common/usbx_host_classes/src/ux_host_class_storage_transport_cbi.c ****         if (*(cbw+UX_HOST_CLASS_STORAGE_CBW_FLAGS) == UX_HOST_CLASS_STORAGE_DATA_IN)
 140:Middlewares/ST/usbx/common/usbx_host_classes/src/ux_host_class_storage_transport_cbi.c ****             transfer_request =  &storage -> ux_host_class_storage_bulk_in_endpoint -> ux_endpoint_t
 141:Middlewares/ST/usbx/common/usbx_host_classes/src/ux_host_class_storage_transport_cbi.c ****         else            
 142:Middlewares/ST/usbx/common/usbx_host_classes/src/ux_host_class_storage_transport_cbi.c ****             transfer_request =  &storage -> ux_host_class_storage_bulk_out_endpoint -> ux_endpoint_
 143:Middlewares/ST/usbx/common/usbx_host_classes/src/ux_host_class_storage_transport_cbi.c **** 
 144:Middlewares/ST/usbx/common/usbx_host_classes/src/ux_host_class_storage_transport_cbi.c ****         /* Fill in the transfer_request data payload buffer.  */
 145:Middlewares/ST/usbx/common/usbx_host_classes/src/ux_host_class_storage_transport_cbi.c ****         transfer_request -> ux_transfer_request_data_pointer =  data_pointer;
 146:Middlewares/ST/usbx/common/usbx_host_classes/src/ux_host_class_storage_transport_cbi.c ****         
 147:Middlewares/ST/usbx/common/usbx_host_classes/src/ux_host_class_storage_transport_cbi.c ****         /* Store the requested length in the transfer request.  */
 148:Middlewares/ST/usbx/common/usbx_host_classes/src/ux_host_class_storage_transport_cbi.c ****         transfer_request -> ux_transfer_request_requested_length =  data_phase_requested_length;
 149:Middlewares/ST/usbx/common/usbx_host_classes/src/ux_host_class_storage_transport_cbi.c **** 
 150:Middlewares/ST/usbx/common/usbx_host_classes/src/ux_host_class_storage_transport_cbi.c ****         /* Perform data payload transfer (in or out).  */
 151:Middlewares/ST/usbx/common/usbx_host_classes/src/ux_host_class_storage_transport_cbi.c ****         status =  _ux_host_stack_transfer_request(transfer_request);
 152:Middlewares/ST/usbx/common/usbx_host_classes/src/ux_host_class_storage_transport_cbi.c **** 
 153:Middlewares/ST/usbx/common/usbx_host_classes/src/ux_host_class_storage_transport_cbi.c ****         /* Check the status of the data payload.  */
 154:Middlewares/ST/usbx/common/usbx_host_classes/src/ux_host_class_storage_transport_cbi.c ****         if (status != UX_SUCCESS)
 155:Middlewares/ST/usbx/common/usbx_host_classes/src/ux_host_class_storage_transport_cbi.c ****             return(status);
 156:Middlewares/ST/usbx/common/usbx_host_classes/src/ux_host_class_storage_transport_cbi.c **** 
 157:Middlewares/ST/usbx/common/usbx_host_classes/src/ux_host_class_storage_transport_cbi.c ****         /* Wait for the completion of the transfer request.  */
 158:Middlewares/ST/usbx/common/usbx_host_classes/src/ux_host_class_storage_transport_cbi.c ****         status =  _ux_host_semaphore_get(&transfer_request -> ux_transfer_request_semaphore, UX_MS_
 159:Middlewares/ST/usbx/common/usbx_host_classes/src/ux_host_class_storage_transport_cbi.c **** 
 160:Middlewares/ST/usbx/common/usbx_host_classes/src/ux_host_class_storage_transport_cbi.c ****         /* Get the actual transfer length and update the cumulated stored value for upper layers.  
 161:Middlewares/ST/usbx/common/usbx_host_classes/src/ux_host_class_storage_transport_cbi.c ****            This could be a non complete packet. But we don't test here because it only matters for
 162:Middlewares/ST/usbx/common/usbx_host_classes/src/ux_host_class_storage_transport_cbi.c ****            sector read.  */
 163:Middlewares/ST/usbx/common/usbx_host_classes/src/ux_host_class_storage_transport_cbi.c ****         storage -> ux_host_class_storage_data_phase_length += transfer_request -> ux_transfer_reque
 164:Middlewares/ST/usbx/common/usbx_host_classes/src/ux_host_class_storage_transport_cbi.c **** 
 165:Middlewares/ST/usbx/common/usbx_host_classes/src/ux_host_class_storage_transport_cbi.c ****         /* If the semaphore did not succeed we probably have a time out.  */
 166:Middlewares/ST/usbx/common/usbx_host_classes/src/ux_host_class_storage_transport_cbi.c ****         if (status != UX_SUCCESS)
 167:Middlewares/ST/usbx/common/usbx_host_classes/src/ux_host_class_storage_transport_cbi.c ****         {
 168:Middlewares/ST/usbx/common/usbx_host_classes/src/ux_host_class_storage_transport_cbi.c **** 
 169:Middlewares/ST/usbx/common/usbx_host_classes/src/ux_host_class_storage_transport_cbi.c ****             /* All transfers pending need to abort. There may have been a partial transfer.  */
 170:Middlewares/ST/usbx/common/usbx_host_classes/src/ux_host_class_storage_transport_cbi.c ****             _ux_host_stack_transfer_request_abort(transfer_request);
 171:Middlewares/ST/usbx/common/usbx_host_classes/src/ux_host_class_storage_transport_cbi.c ****         
 172:Middlewares/ST/usbx/common/usbx_host_classes/src/ux_host_class_storage_transport_cbi.c ****             /* Set the completion code.  */
 173:Middlewares/ST/usbx/common/usbx_host_classes/src/ux_host_class_storage_transport_cbi.c ****             transfer_request -> ux_transfer_request_completion_code =  UX_TRANSFER_TIMEOUT;
 174:Middlewares/ST/usbx/common/usbx_host_classes/src/ux_host_class_storage_transport_cbi.c ****         
 175:Middlewares/ST/usbx/common/usbx_host_classes/src/ux_host_class_storage_transport_cbi.c ****             /* Error trap. */
ARM GAS  C:\Users\HP\AppData\Local\Temp\ccrAuieQ.s 			page 6


 176:Middlewares/ST/usbx/common/usbx_host_classes/src/ux_host_class_storage_transport_cbi.c ****             _ux_system_error_handler(UX_SYSTEM_LEVEL_THREAD, UX_SYSTEM_CONTEXT_CLASS, UX_TRANSFER_T
 177:Middlewares/ST/usbx/common/usbx_host_classes/src/ux_host_class_storage_transport_cbi.c **** 
 178:Middlewares/ST/usbx/common/usbx_host_classes/src/ux_host_class_storage_transport_cbi.c ****             /* If trace is enabled, insert this event into the trace buffer.  */
 179:Middlewares/ST/usbx/common/usbx_host_classes/src/ux_host_class_storage_transport_cbi.c ****             UX_TRACE_IN_LINE_INSERT(UX_TRACE_ERROR, UX_TRANSFER_TIMEOUT, transfer_request, 0, 0, UX
 180:Middlewares/ST/usbx/common/usbx_host_classes/src/ux_host_class_storage_transport_cbi.c ****         
 181:Middlewares/ST/usbx/common/usbx_host_classes/src/ux_host_class_storage_transport_cbi.c ****             /* There was an error, return to the caller.  */
 182:Middlewares/ST/usbx/common/usbx_host_classes/src/ux_host_class_storage_transport_cbi.c ****             return(UX_TRANSFER_TIMEOUT);
 183:Middlewares/ST/usbx/common/usbx_host_classes/src/ux_host_class_storage_transport_cbi.c ****         }            
 184:Middlewares/ST/usbx/common/usbx_host_classes/src/ux_host_class_storage_transport_cbi.c **** 
 185:Middlewares/ST/usbx/common/usbx_host_classes/src/ux_host_class_storage_transport_cbi.c ****         /* We need to check the completion code as well.  */
 186:Middlewares/ST/usbx/common/usbx_host_classes/src/ux_host_class_storage_transport_cbi.c ****         if (transfer_request -> ux_transfer_request_completion_code != UX_SUCCESS)
 187:Middlewares/ST/usbx/common/usbx_host_classes/src/ux_host_class_storage_transport_cbi.c ****             return(transfer_request -> ux_transfer_request_completion_code);
 188:Middlewares/ST/usbx/common/usbx_host_classes/src/ux_host_class_storage_transport_cbi.c **** 
 189:Middlewares/ST/usbx/common/usbx_host_classes/src/ux_host_class_storage_transport_cbi.c ****     }
 190:Middlewares/ST/usbx/common/usbx_host_classes/src/ux_host_class_storage_transport_cbi.c **** 
 191:Middlewares/ST/usbx/common/usbx_host_classes/src/ux_host_class_storage_transport_cbi.c ****     /* Arm the interrupt endpoint with a transfer request.  */
 192:Middlewares/ST/usbx/common/usbx_host_classes/src/ux_host_class_storage_transport_cbi.c ****     transfer_request =  &storage -> ux_host_class_storage_interrupt_endpoint -> ux_endpoint_transfe
 193:Middlewares/ST/usbx/common/usbx_host_classes/src/ux_host_class_storage_transport_cbi.c ****     status =  _ux_host_stack_transfer_request(transfer_request);
 194:Middlewares/ST/usbx/common/usbx_host_classes/src/ux_host_class_storage_transport_cbi.c **** 
 195:Middlewares/ST/usbx/common/usbx_host_classes/src/ux_host_class_storage_transport_cbi.c ****     /* Check the status of the data payload.  */
 196:Middlewares/ST/usbx/common/usbx_host_classes/src/ux_host_class_storage_transport_cbi.c ****     if (status != UX_SUCCESS)
 197:Middlewares/ST/usbx/common/usbx_host_classes/src/ux_host_class_storage_transport_cbi.c ****         return(status);
 198:Middlewares/ST/usbx/common/usbx_host_classes/src/ux_host_class_storage_transport_cbi.c ****     
 199:Middlewares/ST/usbx/common/usbx_host_classes/src/ux_host_class_storage_transport_cbi.c ****     /* We must wait for the interrupt endpoint to return the status stage now. This can
 200:Middlewares/ST/usbx/common/usbx_host_classes/src/ux_host_class_storage_transport_cbi.c ****        take a fairly long time.  */
 201:Middlewares/ST/usbx/common/usbx_host_classes/src/ux_host_class_storage_transport_cbi.c ****     status =  _ux_host_semaphore_get(&transfer_request -> ux_transfer_request_semaphore, UX_MS_TO_T
 202:Middlewares/ST/usbx/common/usbx_host_classes/src/ux_host_class_storage_transport_cbi.c **** 
 203:Middlewares/ST/usbx/common/usbx_host_classes/src/ux_host_class_storage_transport_cbi.c ****     /* If the status is not successful, we may have a timeout error.  */
 204:Middlewares/ST/usbx/common/usbx_host_classes/src/ux_host_class_storage_transport_cbi.c ****     if (status != UX_SUCCESS)
 205:Middlewares/ST/usbx/common/usbx_host_classes/src/ux_host_class_storage_transport_cbi.c ****         return(status);
 206:Middlewares/ST/usbx/common/usbx_host_classes/src/ux_host_class_storage_transport_cbi.c **** 
 207:Middlewares/ST/usbx/common/usbx_host_classes/src/ux_host_class_storage_transport_cbi.c ****     /* Return the status code.  */
 208:Middlewares/ST/usbx/common/usbx_host_classes/src/ux_host_class_storage_transport_cbi.c ****     return(transfer_request -> ux_transfer_request_completion_code);
 209:Middlewares/ST/usbx/common/usbx_host_classes/src/ux_host_class_storage_transport_cbi.c **** }
 112              		.loc 1 209 1 view .LVU40
 113 004a F8BD     		pop	{r3, r4, r5, r6, r7, pc}
 114              	.LVL8:
 115              	.L8:
 132:Middlewares/ST/usbx/common/usbx_host_classes/src/ux_host_class_storage_transport_cbi.c ****     
 116              		.loc 1 132 5 is_stmt 1 view .LVU41
 132:Middlewares/ST/usbx/common/usbx_host_classes/src/ux_host_class_storage_transport_cbi.c ****     
 117              		.loc 1 132 36 is_stmt 0 view .LVU42
 118 004c 05F12400 		add	r0, r5, #36
 119 0050 FFF7FEFF 		bl	_ux_utility_long_get
 120              	.LVL9:
 135:Middlewares/ST/usbx/common/usbx_host_classes/src/ux_host_class_storage_transport_cbi.c ****     {
 121              		.loc 1 135 5 is_stmt 1 view .LVU43
 135:Middlewares/ST/usbx/common/usbx_host_classes/src/ux_host_class_storage_transport_cbi.c ****     {
 122              		.loc 1 135 8 is_stmt 0 view .LVU44
 123 0054 0346     		mov	r3, r0
 124 0056 E0B1     		cbz	r0, .L3
 139:Middlewares/ST/usbx/common/usbx_host_classes/src/ux_host_class_storage_transport_cbi.c ****             transfer_request =  &storage -> ux_host_class_storage_bulk_in_endpoint -> ux_endpoint_t
 125              		.loc 1 139 9 is_stmt 1 view .LVU45
 139:Middlewares/ST/usbx/common/usbx_host_classes/src/ux_host_class_storage_transport_cbi.c ****             transfer_request =  &storage -> ux_host_class_storage_bulk_in_endpoint -> ux_endpoint_t
 126              		.loc 1 139 13 is_stmt 0 view .LVU46
 127 0058 95F82820 		ldrb	r2, [r5, #40]	@ zero_extendqisi2
 139:Middlewares/ST/usbx/common/usbx_host_classes/src/ux_host_class_storage_transport_cbi.c ****             transfer_request =  &storage -> ux_host_class_storage_bulk_in_endpoint -> ux_endpoint_t
ARM GAS  C:\Users\HP\AppData\Local\Temp\ccrAuieQ.s 			page 7


 128              		.loc 1 139 12 view .LVU47
 129 005c 802A     		cmp	r2, #128
 130 005e 29D0     		beq	.L9
 142:Middlewares/ST/usbx/common/usbx_host_classes/src/ux_host_class_storage_transport_cbi.c **** 
 131              		.loc 1 142 13 is_stmt 1 view .LVU48
 142:Middlewares/ST/usbx/common/usbx_host_classes/src/ux_host_class_storage_transport_cbi.c **** 
 132              		.loc 1 142 42 is_stmt 0 view .LVU49
 133 0060 2F69     		ldr	r7, [r5, #16]
 142:Middlewares/ST/usbx/common/usbx_host_classes/src/ux_host_class_storage_transport_cbi.c **** 
 134              		.loc 1 142 30 view .LVU50
 135 0062 3037     		adds	r7, r7, #48
 136              	.LVL10:
 137              	.L5:
 145:Middlewares/ST/usbx/common/usbx_host_classes/src/ux_host_class_storage_transport_cbi.c ****         
 138              		.loc 1 145 9 is_stmt 1 view .LVU51
 145:Middlewares/ST/usbx/common/usbx_host_classes/src/ux_host_class_storage_transport_cbi.c ****         
 139              		.loc 1 145 62 is_stmt 0 view .LVU52
 140 0064 BE60     		str	r6, [r7, #8]
 148:Middlewares/ST/usbx/common/usbx_host_classes/src/ux_host_class_storage_transport_cbi.c **** 
 141              		.loc 1 148 9 is_stmt 1 view .LVU53
 148:Middlewares/ST/usbx/common/usbx_host_classes/src/ux_host_class_storage_transport_cbi.c **** 
 142              		.loc 1 148 66 is_stmt 0 view .LVU54
 143 0066 FB60     		str	r3, [r7, #12]
 151:Middlewares/ST/usbx/common/usbx_host_classes/src/ux_host_class_storage_transport_cbi.c **** 
 144              		.loc 1 151 9 is_stmt 1 view .LVU55
 151:Middlewares/ST/usbx/common/usbx_host_classes/src/ux_host_class_storage_transport_cbi.c **** 
 145              		.loc 1 151 19 is_stmt 0 view .LVU56
 146 0068 3846     		mov	r0, r7
 147              	.LVL11:
 151:Middlewares/ST/usbx/common/usbx_host_classes/src/ux_host_class_storage_transport_cbi.c **** 
 148              		.loc 1 151 19 view .LVU57
 149 006a FFF7FEFF 		bl	_ux_host_stack_transfer_request
 150              	.LVL12:
 154:Middlewares/ST/usbx/common/usbx_host_classes/src/ux_host_class_storage_transport_cbi.c ****             return(status);
 151              		.loc 1 154 9 is_stmt 1 view .LVU58
 154:Middlewares/ST/usbx/common/usbx_host_classes/src/ux_host_class_storage_transport_cbi.c ****             return(status);
 152              		.loc 1 154 12 is_stmt 0 view .LVU59
 153 006e 0028     		cmp	r0, #0
 154 0070 EBD1     		bne	.L1
 158:Middlewares/ST/usbx/common/usbx_host_classes/src/ux_host_class_storage_transport_cbi.c **** 
 155              		.loc 1 158 9 is_stmt 1 view .LVU60
 158:Middlewares/ST/usbx/common/usbx_host_classes/src/ux_host_class_storage_transport_cbi.c **** 
 156              		.loc 1 158 19 is_stmt 0 view .LVU61
 157 0072 4FF47A71 		mov	r1, #1000
 158 0076 07F14400 		add	r0, r7, #68
 159              	.LVL13:
 158:Middlewares/ST/usbx/common/usbx_host_classes/src/ux_host_class_storage_transport_cbi.c **** 
 160              		.loc 1 158 19 view .LVU62
 161 007a FFF7FEFF 		bl	_ux_utility_semaphore_get
 162              	.LVL14:
 163:Middlewares/ST/usbx/common/usbx_host_classes/src/ux_host_class_storage_transport_cbi.c **** 
 163              		.loc 1 163 9 is_stmt 1 view .LVU63
 163:Middlewares/ST/usbx/common/usbx_host_classes/src/ux_host_class_storage_transport_cbi.c **** 
 164              		.loc 1 163 80 is_stmt 0 view .LVU64
 165 007e 3A69     		ldr	r2, [r7, #16]
 163:Middlewares/ST/usbx/common/usbx_host_classes/src/ux_host_class_storage_transport_cbi.c **** 
 166              		.loc 1 163 60 view .LVU65
ARM GAS  C:\Users\HP\AppData\Local\Temp\ccrAuieQ.s 			page 8


 167 0080 D5F88C30 		ldr	r3, [r5, #140]
 168 0084 1344     		add	r3, r3, r2
 169 0086 C5F88C30 		str	r3, [r5, #140]
 166:Middlewares/ST/usbx/common/usbx_host_classes/src/ux_host_class_storage_transport_cbi.c ****         {
 170              		.loc 1 166 9 is_stmt 1 view .LVU66
 166:Middlewares/ST/usbx/common/usbx_host_classes/src/ux_host_class_storage_transport_cbi.c ****         {
 171              		.loc 1 166 12 is_stmt 0 view .LVU67
 172 008a B0B9     		cbnz	r0, .L10
 186:Middlewares/ST/usbx/common/usbx_host_classes/src/ux_host_class_storage_transport_cbi.c ****             return(transfer_request -> ux_transfer_request_completion_code);
 173              		.loc 1 186 9 is_stmt 1 view .LVU68
 186:Middlewares/ST/usbx/common/usbx_host_classes/src/ux_host_class_storage_transport_cbi.c ****             return(transfer_request -> ux_transfer_request_completion_code);
 174              		.loc 1 186 30 is_stmt 0 view .LVU69
 175 008c 786B     		ldr	r0, [r7, #52]
 176              	.LVL15:
 186:Middlewares/ST/usbx/common/usbx_host_classes/src/ux_host_class_storage_transport_cbi.c ****             return(transfer_request -> ux_transfer_request_completion_code);
 177              		.loc 1 186 12 view .LVU70
 178 008e 0028     		cmp	r0, #0
 179 0090 DBD1     		bne	.L1
 180              	.LVL16:
 181              	.L3:
 192:Middlewares/ST/usbx/common/usbx_host_classes/src/ux_host_class_storage_transport_cbi.c ****     status =  _ux_host_stack_transfer_request(transfer_request);
 182              		.loc 1 192 5 is_stmt 1 view .LVU71
 192:Middlewares/ST/usbx/common/usbx_host_classes/src/ux_host_class_storage_transport_cbi.c ****     status =  _ux_host_stack_transfer_request(transfer_request);
 183              		.loc 1 192 34 is_stmt 0 view .LVU72
 184 0092 AC69     		ldr	r4, [r5, #24]
 185              	.LVL17:
 193:Middlewares/ST/usbx/common/usbx_host_classes/src/ux_host_class_storage_transport_cbi.c **** 
 186              		.loc 1 193 5 is_stmt 1 view .LVU73
 193:Middlewares/ST/usbx/common/usbx_host_classes/src/ux_host_class_storage_transport_cbi.c **** 
 187              		.loc 1 193 15 is_stmt 0 view .LVU74
 188 0094 04F13000 		add	r0, r4, #48
 189              	.LVL18:
 193:Middlewares/ST/usbx/common/usbx_host_classes/src/ux_host_class_storage_transport_cbi.c **** 
 190              		.loc 1 193 15 view .LVU75
 191 0098 FFF7FEFF 		bl	_ux_host_stack_transfer_request
 192              	.LVL19:
 196:Middlewares/ST/usbx/common/usbx_host_classes/src/ux_host_class_storage_transport_cbi.c ****         return(status);
 193              		.loc 1 196 5 is_stmt 1 view .LVU76
 196:Middlewares/ST/usbx/common/usbx_host_classes/src/ux_host_class_storage_transport_cbi.c ****         return(status);
 194              		.loc 1 196 8 is_stmt 0 view .LVU77
 195 009c 0028     		cmp	r0, #0
 196 009e D4D1     		bne	.L1
 201:Middlewares/ST/usbx/common/usbx_host_classes/src/ux_host_class_storage_transport_cbi.c **** 
 197              		.loc 1 201 5 is_stmt 1 view .LVU78
 201:Middlewares/ST/usbx/common/usbx_host_classes/src/ux_host_class_storage_transport_cbi.c **** 
 198              		.loc 1 201 15 is_stmt 0 view .LVU79
 199 00a0 4FF49671 		mov	r1, #300
 200 00a4 04F17400 		add	r0, r4, #116
 201              	.LVL20:
 201:Middlewares/ST/usbx/common/usbx_host_classes/src/ux_host_class_storage_transport_cbi.c **** 
 202              		.loc 1 201 15 view .LVU80
 203 00a8 FFF7FEFF 		bl	_ux_utility_semaphore_get
 204              	.LVL21:
 204:Middlewares/ST/usbx/common/usbx_host_classes/src/ux_host_class_storage_transport_cbi.c ****         return(status);
 205              		.loc 1 204 5 is_stmt 1 view .LVU81
 204:Middlewares/ST/usbx/common/usbx_host_classes/src/ux_host_class_storage_transport_cbi.c ****         return(status);
 206              		.loc 1 204 8 is_stmt 0 view .LVU82
ARM GAS  C:\Users\HP\AppData\Local\Temp\ccrAuieQ.s 			page 9


 207 00ac 0028     		cmp	r0, #0
 208 00ae CCD1     		bne	.L1
 208:Middlewares/ST/usbx/common/usbx_host_classes/src/ux_host_class_storage_transport_cbi.c **** }
 209              		.loc 1 208 5 is_stmt 1 view .LVU83
 208:Middlewares/ST/usbx/common/usbx_host_classes/src/ux_host_class_storage_transport_cbi.c **** }
 210              		.loc 1 208 29 is_stmt 0 view .LVU84
 211 00b0 606E     		ldr	r0, [r4, #100]
 212              	.LVL22:
 208:Middlewares/ST/usbx/common/usbx_host_classes/src/ux_host_class_storage_transport_cbi.c **** }
 213              		.loc 1 208 29 view .LVU85
 214 00b2 CAE7     		b	.L1
 215              	.LVL23:
 216              	.L9:
 140:Middlewares/ST/usbx/common/usbx_host_classes/src/ux_host_class_storage_transport_cbi.c ****         else            
 217              		.loc 1 140 13 is_stmt 1 view .LVU86
 140:Middlewares/ST/usbx/common/usbx_host_classes/src/ux_host_class_storage_transport_cbi.c ****         else            
 218              		.loc 1 140 42 is_stmt 0 view .LVU87
 219 00b4 6F69     		ldr	r7, [r5, #20]
 140:Middlewares/ST/usbx/common/usbx_host_classes/src/ux_host_class_storage_transport_cbi.c ****         else            
 220              		.loc 1 140 30 view .LVU88
 221 00b6 3037     		adds	r7, r7, #48
 222              	.LVL24:
 140:Middlewares/ST/usbx/common/usbx_host_classes/src/ux_host_class_storage_transport_cbi.c ****         else            
 223              		.loc 1 140 30 view .LVU89
 224 00b8 D4E7     		b	.L5
 225              	.LVL25:
 226              	.L10:
 170:Middlewares/ST/usbx/common/usbx_host_classes/src/ux_host_class_storage_transport_cbi.c ****         
 227              		.loc 1 170 13 is_stmt 1 view .LVU90
 228 00ba 3846     		mov	r0, r7
 229              	.LVL26:
 170:Middlewares/ST/usbx/common/usbx_host_classes/src/ux_host_class_storage_transport_cbi.c ****         
 230              		.loc 1 170 13 is_stmt 0 view .LVU91
 231 00bc FFF7FEFF 		bl	_ux_host_stack_transfer_request_abort
 232              	.LVL27:
 173:Middlewares/ST/usbx/common/usbx_host_classes/src/ux_host_class_storage_transport_cbi.c ****         
 233              		.loc 1 173 13 is_stmt 1 view .LVU92
 173:Middlewares/ST/usbx/common/usbx_host_classes/src/ux_host_class_storage_transport_cbi.c ****         
 234              		.loc 1 173 69 is_stmt 0 view .LVU93
 235 00c0 5C24     		movs	r4, #92
 236              	.LVL28:
 173:Middlewares/ST/usbx/common/usbx_host_classes/src/ux_host_class_storage_transport_cbi.c ****         
 237              		.loc 1 173 69 view .LVU94
 238 00c2 7C63     		str	r4, [r7, #52]
 176:Middlewares/ST/usbx/common/usbx_host_classes/src/ux_host_class_storage_transport_cbi.c **** 
 239              		.loc 1 176 13 is_stmt 1 view .LVU95
 240 00c4 2246     		mov	r2, r4
 241 00c6 0721     		movs	r1, #7
 242 00c8 0220     		movs	r0, #2
 243 00ca FFF7FEFF 		bl	_ux_system_error_handler
 244              	.LVL29:
 182:Middlewares/ST/usbx/common/usbx_host_classes/src/ux_host_class_storage_transport_cbi.c ****         }            
 245              		.loc 1 182 13 view .LVU96
 182:Middlewares/ST/usbx/common/usbx_host_classes/src/ux_host_class_storage_transport_cbi.c ****         }            
 246              		.loc 1 182 19 is_stmt 0 view .LVU97
 247 00ce 2046     		mov	r0, r4
 248 00d0 BBE7     		b	.L1
ARM GAS  C:\Users\HP\AppData\Local\Temp\ccrAuieQ.s 			page 10


 249              		.cfi_endproc
 250              	.LFE11:
 252              		.text
 253              	.Letext0:
 254              		.file 2 "Middlewares/ST/threadx/ports/cortex_m4/gnu/inc/tx_port.h"
 255              		.file 3 "Middlewares/ST/threadx/common/inc/tx_api.h"
 256              		.file 4 "Middlewares/ST/usbx/common/core/inc/ux_api.h"
 257              		.file 5 "Middlewares/ST/usbx/common/usbx_host_classes/inc/ux_host_class_storage.h"
 258              		.file 6 "Middlewares/ST/usbx/common/core/inc/ux_host_stack.h"
 259              		.file 7 "Middlewares/ST/usbx/common/core/inc/ux_utility.h"
ARM GAS  C:\Users\HP\AppData\Local\Temp\ccrAuieQ.s 			page 11

