ARM GAS  C:\Users\HP\AppData\Local\Temp\cc9kXoah.s 			page 1


   1              		.cpu cortex-m4
   2              		.arch armv7e-m
   3              		.fpu fpv4-sp-d16
   4              		.eabi_attribute 27, 1
   5              		.eabi_attribute 28, 1
   6              		.eabi_attribute 20, 1
   7              		.eabi_attribute 21, 1
   8              		.eabi_attribute 23, 3
   9              		.eabi_attribute 24, 1
  10              		.eabi_attribute 25, 1
  11              		.eabi_attribute 26, 1
  12              		.eabi_attribute 30, 1
  13              		.eabi_attribute 34, 1
  14              		.eabi_attribute 18, 4
  15              		.file	"ux_hcd_stm32_request_bulk_transfer.c"
  16              		.text
  17              	.Ltext0:
  18              		.cfi_sections	.debug_frame
  19              		.section	.text._ux_hcd_stm32_request_bulk_transfer,"ax",%progbits
  20              		.align	1
  21              		.global	_ux_hcd_stm32_request_bulk_transfer
  22              		.syntax unified
  23              		.thumb
  24              		.thumb_func
  26              	_ux_hcd_stm32_request_bulk_transfer:
  27              	.LVL0:
  28              	.LFB143:
  29              		.file 1 "Middlewares/ST/usbx/common/usbx_stm32_host_controllers/ux_hcd_stm32_request_bulk_transfer
   1:Middlewares/ST/usbx/common/usbx_stm32_host_controllers/ux_hcd_stm32_request_bulk_transfer.c **** /**************************************************************************/
   2:Middlewares/ST/usbx/common/usbx_stm32_host_controllers/ux_hcd_stm32_request_bulk_transfer.c **** /*                                                                        */
   3:Middlewares/ST/usbx/common/usbx_stm32_host_controllers/ux_hcd_stm32_request_bulk_transfer.c **** /*       Copyright (c) Microsoft Corporation. All rights reserved.        */
   4:Middlewares/ST/usbx/common/usbx_stm32_host_controllers/ux_hcd_stm32_request_bulk_transfer.c **** /*                                                                        */
   5:Middlewares/ST/usbx/common/usbx_stm32_host_controllers/ux_hcd_stm32_request_bulk_transfer.c **** /*       This software is licensed under the Microsoft Software License   */
   6:Middlewares/ST/usbx/common/usbx_stm32_host_controllers/ux_hcd_stm32_request_bulk_transfer.c **** /*       Terms for Microsoft Azure RTOS. Full text of the license can be  */
   7:Middlewares/ST/usbx/common/usbx_stm32_host_controllers/ux_hcd_stm32_request_bulk_transfer.c **** /*       found in the LICENSE file at https://aka.ms/AzureRTOS_EULA       */
   8:Middlewares/ST/usbx/common/usbx_stm32_host_controllers/ux_hcd_stm32_request_bulk_transfer.c **** /*       and in the root directory of this software.                      */
   9:Middlewares/ST/usbx/common/usbx_stm32_host_controllers/ux_hcd_stm32_request_bulk_transfer.c **** /*                                                                        */
  10:Middlewares/ST/usbx/common/usbx_stm32_host_controllers/ux_hcd_stm32_request_bulk_transfer.c **** /**************************************************************************/
  11:Middlewares/ST/usbx/common/usbx_stm32_host_controllers/ux_hcd_stm32_request_bulk_transfer.c **** 
  12:Middlewares/ST/usbx/common/usbx_stm32_host_controllers/ux_hcd_stm32_request_bulk_transfer.c **** 
  13:Middlewares/ST/usbx/common/usbx_stm32_host_controllers/ux_hcd_stm32_request_bulk_transfer.c **** /**************************************************************************/
  14:Middlewares/ST/usbx/common/usbx_stm32_host_controllers/ux_hcd_stm32_request_bulk_transfer.c **** /**************************************************************************/
  15:Middlewares/ST/usbx/common/usbx_stm32_host_controllers/ux_hcd_stm32_request_bulk_transfer.c **** /**                                                                       */
  16:Middlewares/ST/usbx/common/usbx_stm32_host_controllers/ux_hcd_stm32_request_bulk_transfer.c **** /** USBX Component                                                        */
  17:Middlewares/ST/usbx/common/usbx_stm32_host_controllers/ux_hcd_stm32_request_bulk_transfer.c **** /**                                                                       */
  18:Middlewares/ST/usbx/common/usbx_stm32_host_controllers/ux_hcd_stm32_request_bulk_transfer.c **** /**   STM32 Controller Driver                                             */
  19:Middlewares/ST/usbx/common/usbx_stm32_host_controllers/ux_hcd_stm32_request_bulk_transfer.c **** /**                                                                       */
  20:Middlewares/ST/usbx/common/usbx_stm32_host_controllers/ux_hcd_stm32_request_bulk_transfer.c **** /**************************************************************************/
  21:Middlewares/ST/usbx/common/usbx_stm32_host_controllers/ux_hcd_stm32_request_bulk_transfer.c **** /**************************************************************************/
  22:Middlewares/ST/usbx/common/usbx_stm32_host_controllers/ux_hcd_stm32_request_bulk_transfer.c **** 
  23:Middlewares/ST/usbx/common/usbx_stm32_host_controllers/ux_hcd_stm32_request_bulk_transfer.c **** 
  24:Middlewares/ST/usbx/common/usbx_stm32_host_controllers/ux_hcd_stm32_request_bulk_transfer.c **** /* Include necessary system files.  */
  25:Middlewares/ST/usbx/common/usbx_stm32_host_controllers/ux_hcd_stm32_request_bulk_transfer.c **** 
  26:Middlewares/ST/usbx/common/usbx_stm32_host_controllers/ux_hcd_stm32_request_bulk_transfer.c **** #define UX_SOURCE_CODE
  27:Middlewares/ST/usbx/common/usbx_stm32_host_controllers/ux_hcd_stm32_request_bulk_transfer.c **** #define UX_HCD_STM32_SOURCE_CODE
  28:Middlewares/ST/usbx/common/usbx_stm32_host_controllers/ux_hcd_stm32_request_bulk_transfer.c **** 
  29:Middlewares/ST/usbx/common/usbx_stm32_host_controllers/ux_hcd_stm32_request_bulk_transfer.c **** #include "ux_api.h"
ARM GAS  C:\Users\HP\AppData\Local\Temp\cc9kXoah.s 			page 2


  30:Middlewares/ST/usbx/common/usbx_stm32_host_controllers/ux_hcd_stm32_request_bulk_transfer.c **** #include "ux_hcd_stm32.h"
  31:Middlewares/ST/usbx/common/usbx_stm32_host_controllers/ux_hcd_stm32_request_bulk_transfer.c **** #include "ux_host_stack.h"
  32:Middlewares/ST/usbx/common/usbx_stm32_host_controllers/ux_hcd_stm32_request_bulk_transfer.c **** 
  33:Middlewares/ST/usbx/common/usbx_stm32_host_controllers/ux_hcd_stm32_request_bulk_transfer.c **** 
  34:Middlewares/ST/usbx/common/usbx_stm32_host_controllers/ux_hcd_stm32_request_bulk_transfer.c **** /**************************************************************************/
  35:Middlewares/ST/usbx/common/usbx_stm32_host_controllers/ux_hcd_stm32_request_bulk_transfer.c **** /*                                                                        */
  36:Middlewares/ST/usbx/common/usbx_stm32_host_controllers/ux_hcd_stm32_request_bulk_transfer.c **** /*  FUNCTION                                               RELEASE        */
  37:Middlewares/ST/usbx/common/usbx_stm32_host_controllers/ux_hcd_stm32_request_bulk_transfer.c **** /*                                                                        */
  38:Middlewares/ST/usbx/common/usbx_stm32_host_controllers/ux_hcd_stm32_request_bulk_transfer.c **** /*    _ux_hcd_stm32_request_bulk_transfer                 PORTABLE C      */
  39:Middlewares/ST/usbx/common/usbx_stm32_host_controllers/ux_hcd_stm32_request_bulk_transfer.c **** /*                                                           6.1.10       */
  40:Middlewares/ST/usbx/common/usbx_stm32_host_controllers/ux_hcd_stm32_request_bulk_transfer.c **** /*  AUTHOR                                                                */
  41:Middlewares/ST/usbx/common/usbx_stm32_host_controllers/ux_hcd_stm32_request_bulk_transfer.c **** /*                                                                        */
  42:Middlewares/ST/usbx/common/usbx_stm32_host_controllers/ux_hcd_stm32_request_bulk_transfer.c **** /*    Chaoqiong Xiao, Microsoft Corporation                               */
  43:Middlewares/ST/usbx/common/usbx_stm32_host_controllers/ux_hcd_stm32_request_bulk_transfer.c **** /*                                                                        */
  44:Middlewares/ST/usbx/common/usbx_stm32_host_controllers/ux_hcd_stm32_request_bulk_transfer.c **** /*  DESCRIPTION                                                           */
  45:Middlewares/ST/usbx/common/usbx_stm32_host_controllers/ux_hcd_stm32_request_bulk_transfer.c **** /*                                                                        */
  46:Middlewares/ST/usbx/common/usbx_stm32_host_controllers/ux_hcd_stm32_request_bulk_transfer.c **** /*     This function performs a bulk transfer request. A bulk transfer    */
  47:Middlewares/ST/usbx/common/usbx_stm32_host_controllers/ux_hcd_stm32_request_bulk_transfer.c **** /*     can be larger than the size of the stm32 buffer so it may be       */
  48:Middlewares/ST/usbx/common/usbx_stm32_host_controllers/ux_hcd_stm32_request_bulk_transfer.c **** /*     required to chain multiple tds to accommodate this transfer        */
  49:Middlewares/ST/usbx/common/usbx_stm32_host_controllers/ux_hcd_stm32_request_bulk_transfer.c **** /*     request. A bulk transfer is non blocking, so we return before the  */
  50:Middlewares/ST/usbx/common/usbx_stm32_host_controllers/ux_hcd_stm32_request_bulk_transfer.c **** /*     transfer request is completed.                                     */
  51:Middlewares/ST/usbx/common/usbx_stm32_host_controllers/ux_hcd_stm32_request_bulk_transfer.c **** /*                                                                        */
  52:Middlewares/ST/usbx/common/usbx_stm32_host_controllers/ux_hcd_stm32_request_bulk_transfer.c **** /*  INPUT                                                                 */
  53:Middlewares/ST/usbx/common/usbx_stm32_host_controllers/ux_hcd_stm32_request_bulk_transfer.c **** /*                                                                        */
  54:Middlewares/ST/usbx/common/usbx_stm32_host_controllers/ux_hcd_stm32_request_bulk_transfer.c **** /*    hcd_stm32                             Pointer to STM32 controller   */
  55:Middlewares/ST/usbx/common/usbx_stm32_host_controllers/ux_hcd_stm32_request_bulk_transfer.c **** /*    transfer_request                      Pointer to transfer request   */
  56:Middlewares/ST/usbx/common/usbx_stm32_host_controllers/ux_hcd_stm32_request_bulk_transfer.c **** /*                                                                        */
  57:Middlewares/ST/usbx/common/usbx_stm32_host_controllers/ux_hcd_stm32_request_bulk_transfer.c **** /*  OUTPUT                                                                */
  58:Middlewares/ST/usbx/common/usbx_stm32_host_controllers/ux_hcd_stm32_request_bulk_transfer.c **** /*                                                                        */
  59:Middlewares/ST/usbx/common/usbx_stm32_host_controllers/ux_hcd_stm32_request_bulk_transfer.c **** /*    Completion Status                                                   */
  60:Middlewares/ST/usbx/common/usbx_stm32_host_controllers/ux_hcd_stm32_request_bulk_transfer.c **** /*                                                                        */
  61:Middlewares/ST/usbx/common/usbx_stm32_host_controllers/ux_hcd_stm32_request_bulk_transfer.c **** /*  CALLS                                                                 */
  62:Middlewares/ST/usbx/common/usbx_stm32_host_controllers/ux_hcd_stm32_request_bulk_transfer.c **** /*                                                                        */
  63:Middlewares/ST/usbx/common/usbx_stm32_host_controllers/ux_hcd_stm32_request_bulk_transfer.c **** /*    _ux_hcd_stm32_regular_td_obtain     Obtain regular TD               */
  64:Middlewares/ST/usbx/common/usbx_stm32_host_controllers/ux_hcd_stm32_request_bulk_transfer.c **** /*                                                                        */
  65:Middlewares/ST/usbx/common/usbx_stm32_host_controllers/ux_hcd_stm32_request_bulk_transfer.c **** /*  CALLED BY                                                             */
  66:Middlewares/ST/usbx/common/usbx_stm32_host_controllers/ux_hcd_stm32_request_bulk_transfer.c **** /*                                                                        */
  67:Middlewares/ST/usbx/common/usbx_stm32_host_controllers/ux_hcd_stm32_request_bulk_transfer.c **** /*    STM32 Controller Driver                                             */
  68:Middlewares/ST/usbx/common/usbx_stm32_host_controllers/ux_hcd_stm32_request_bulk_transfer.c **** /*                                                                        */
  69:Middlewares/ST/usbx/common/usbx_stm32_host_controllers/ux_hcd_stm32_request_bulk_transfer.c **** /*  RELEASE HISTORY                                                       */
  70:Middlewares/ST/usbx/common/usbx_stm32_host_controllers/ux_hcd_stm32_request_bulk_transfer.c **** /*                                                                        */
  71:Middlewares/ST/usbx/common/usbx_stm32_host_controllers/ux_hcd_stm32_request_bulk_transfer.c **** /*    DATE              NAME                      DESCRIPTION             */
  72:Middlewares/ST/usbx/common/usbx_stm32_host_controllers/ux_hcd_stm32_request_bulk_transfer.c **** /*                                                                        */
  73:Middlewares/ST/usbx/common/usbx_stm32_host_controllers/ux_hcd_stm32_request_bulk_transfer.c **** /*  05-19-2020     Chaoqiong Xiao           Initial Version 6.0           */
  74:Middlewares/ST/usbx/common/usbx_stm32_host_controllers/ux_hcd_stm32_request_bulk_transfer.c **** /*  01-31-2022     Chaoqiong Xiao           Modified comment(s),          */
  75:Middlewares/ST/usbx/common/usbx_stm32_host_controllers/ux_hcd_stm32_request_bulk_transfer.c **** /*                                            added standalone support,   */
  76:Middlewares/ST/usbx/common/usbx_stm32_host_controllers/ux_hcd_stm32_request_bulk_transfer.c **** /*                                            resulting in version 6.1.10 */
  77:Middlewares/ST/usbx/common/usbx_stm32_host_controllers/ux_hcd_stm32_request_bulk_transfer.c **** /*                                                                        */
  78:Middlewares/ST/usbx/common/usbx_stm32_host_controllers/ux_hcd_stm32_request_bulk_transfer.c **** /**************************************************************************/
  79:Middlewares/ST/usbx/common/usbx_stm32_host_controllers/ux_hcd_stm32_request_bulk_transfer.c **** UINT  _ux_hcd_stm32_request_bulk_transfer(UX_HCD_STM32 *hcd_stm32, UX_TRANSFER *transfer_request)
  80:Middlewares/ST/usbx/common/usbx_stm32_host_controllers/ux_hcd_stm32_request_bulk_transfer.c **** {
  30              		.loc 1 80 1 view -0
  31              		.cfi_startproc
  32              		@ args = 0, pretend = 0, frame = 0
  33              		@ frame_needed = 0, uses_anonymous_args = 0
  34              		.loc 1 80 1 is_stmt 0 view .LVU1
  35 0000 F0B5     		push	{r4, r5, r6, r7, lr}
ARM GAS  C:\Users\HP\AppData\Local\Temp\cc9kXoah.s 			page 3


  36              	.LCFI0:
  37              		.cfi_def_cfa_offset 20
  38              		.cfi_offset 4, -20
  39              		.cfi_offset 5, -16
  40              		.cfi_offset 6, -12
  41              		.cfi_offset 7, -8
  42              		.cfi_offset 14, -4
  43 0002 85B0     		sub	sp, sp, #20
  44              	.LCFI1:
  45              		.cfi_def_cfa_offset 40
  46 0004 0646     		mov	r6, r0
  47 0006 0A46     		mov	r2, r1
  81:Middlewares/ST/usbx/common/usbx_stm32_host_controllers/ux_hcd_stm32_request_bulk_transfer.c **** 
  82:Middlewares/ST/usbx/common/usbx_stm32_host_controllers/ux_hcd_stm32_request_bulk_transfer.c **** #if defined(UX_HOST_STANDALONE)
  83:Middlewares/ST/usbx/common/usbx_stm32_host_controllers/ux_hcd_stm32_request_bulk_transfer.c **** UX_INTERRUPT_SAVE_AREA
  84:Middlewares/ST/usbx/common/usbx_stm32_host_controllers/ux_hcd_stm32_request_bulk_transfer.c **** #endif /* defined(UX_HOST_STANDALONE) */
  85:Middlewares/ST/usbx/common/usbx_stm32_host_controllers/ux_hcd_stm32_request_bulk_transfer.c **** UX_ENDPOINT         *endpoint;
  48              		.loc 1 85 1 is_stmt 1 view .LVU2
  86:Middlewares/ST/usbx/common/usbx_stm32_host_controllers/ux_hcd_stm32_request_bulk_transfer.c **** UX_HCD_STM32_ED     *ed;
  49              		.loc 1 86 1 view .LVU3
  87:Middlewares/ST/usbx/common/usbx_stm32_host_controllers/ux_hcd_stm32_request_bulk_transfer.c **** UINT                direction;
  50              		.loc 1 87 1 view .LVU4
  88:Middlewares/ST/usbx/common/usbx_stm32_host_controllers/ux_hcd_stm32_request_bulk_transfer.c **** UINT                length;
  51              		.loc 1 88 1 view .LVU5
  89:Middlewares/ST/usbx/common/usbx_stm32_host_controllers/ux_hcd_stm32_request_bulk_transfer.c **** 
  90:Middlewares/ST/usbx/common/usbx_stm32_host_controllers/ux_hcd_stm32_request_bulk_transfer.c ****     /* Get the pointer to the Endpoint.  */
  91:Middlewares/ST/usbx/common/usbx_stm32_host_controllers/ux_hcd_stm32_request_bulk_transfer.c ****     endpoint =  (UX_ENDPOINT *) transfer_request -> ux_transfer_request_endpoint;
  52              		.loc 1 91 5 view .LVU6
  53              		.loc 1 91 14 is_stmt 0 view .LVU7
  54 0008 4B68     		ldr	r3, [r1, #4]
  55              	.LVL1:
  92:Middlewares/ST/usbx/common/usbx_stm32_host_controllers/ux_hcd_stm32_request_bulk_transfer.c **** 
  93:Middlewares/ST/usbx/common/usbx_stm32_host_controllers/ux_hcd_stm32_request_bulk_transfer.c ****     /* Now get the physical ED attached to this endpoint.  */
  94:Middlewares/ST/usbx/common/usbx_stm32_host_controllers/ux_hcd_stm32_request_bulk_transfer.c ****     ed =  endpoint -> ux_endpoint_ed;
  56              		.loc 1 94 5 is_stmt 1 view .LVU8
  57              		.loc 1 94 8 is_stmt 0 view .LVU9
  58 000a 9C68     		ldr	r4, [r3, #8]
  59              	.LVL2:
  95:Middlewares/ST/usbx/common/usbx_stm32_host_controllers/ux_hcd_stm32_request_bulk_transfer.c **** 
  96:Middlewares/ST/usbx/common/usbx_stm32_host_controllers/ux_hcd_stm32_request_bulk_transfer.c **** #if defined(UX_HOST_STANDALONE)
  97:Middlewares/ST/usbx/common/usbx_stm32_host_controllers/ux_hcd_stm32_request_bulk_transfer.c ****     UX_DISABLE
  98:Middlewares/ST/usbx/common/usbx_stm32_host_controllers/ux_hcd_stm32_request_bulk_transfer.c **** 
  99:Middlewares/ST/usbx/common/usbx_stm32_host_controllers/ux_hcd_stm32_request_bulk_transfer.c ****     /* Check if transfer is still in progress.  */
 100:Middlewares/ST/usbx/common/usbx_stm32_host_controllers/ux_hcd_stm32_request_bulk_transfer.c ****     if ((ed -> ux_stm32_ed_status & UX_HCD_STM32_ED_STATUS_PENDING_MASK) >
 101:Middlewares/ST/usbx/common/usbx_stm32_host_controllers/ux_hcd_stm32_request_bulk_transfer.c ****         UX_HCD_STM32_ED_STATUS_ABORTED)
 102:Middlewares/ST/usbx/common/usbx_stm32_host_controllers/ux_hcd_stm32_request_bulk_transfer.c ****     {
 103:Middlewares/ST/usbx/common/usbx_stm32_host_controllers/ux_hcd_stm32_request_bulk_transfer.c **** 
 104:Middlewares/ST/usbx/common/usbx_stm32_host_controllers/ux_hcd_stm32_request_bulk_transfer.c ****         /* Check done bit.  */
 105:Middlewares/ST/usbx/common/usbx_stm32_host_controllers/ux_hcd_stm32_request_bulk_transfer.c ****         if ((ed -> ux_stm32_ed_status & UX_HCD_STM32_ED_STATUS_TRANSFER_DONE) == 0)
 106:Middlewares/ST/usbx/common/usbx_stm32_host_controllers/ux_hcd_stm32_request_bulk_transfer.c ****         {
 107:Middlewares/ST/usbx/common/usbx_stm32_host_controllers/ux_hcd_stm32_request_bulk_transfer.c ****             UX_RESTORE
 108:Middlewares/ST/usbx/common/usbx_stm32_host_controllers/ux_hcd_stm32_request_bulk_transfer.c ****             return(UX_STATE_WAIT);
 109:Middlewares/ST/usbx/common/usbx_stm32_host_controllers/ux_hcd_stm32_request_bulk_transfer.c ****         }
 110:Middlewares/ST/usbx/common/usbx_stm32_host_controllers/ux_hcd_stm32_request_bulk_transfer.c **** 
 111:Middlewares/ST/usbx/common/usbx_stm32_host_controllers/ux_hcd_stm32_request_bulk_transfer.c ****         /* Check status to see if it's first initialize.  */
 112:Middlewares/ST/usbx/common/usbx_stm32_host_controllers/ux_hcd_stm32_request_bulk_transfer.c ****         if (transfer_request -> ux_transfer_request_status !=
 113:Middlewares/ST/usbx/common/usbx_stm32_host_controllers/ux_hcd_stm32_request_bulk_transfer.c ****             UX_TRANSFER_STATUS_NOT_PENDING)
ARM GAS  C:\Users\HP\AppData\Local\Temp\cc9kXoah.s 			page 4


 114:Middlewares/ST/usbx/common/usbx_stm32_host_controllers/ux_hcd_stm32_request_bulk_transfer.c ****         {
 115:Middlewares/ST/usbx/common/usbx_stm32_host_controllers/ux_hcd_stm32_request_bulk_transfer.c **** 
 116:Middlewares/ST/usbx/common/usbx_stm32_host_controllers/ux_hcd_stm32_request_bulk_transfer.c ****             /* Done, modify status and notify state change.  */
 117:Middlewares/ST/usbx/common/usbx_stm32_host_controllers/ux_hcd_stm32_request_bulk_transfer.c ****             ed -> ux_stm32_ed_status = UX_HCD_STM32_ED_STATUS_ALLOCATED;
 118:Middlewares/ST/usbx/common/usbx_stm32_host_controllers/ux_hcd_stm32_request_bulk_transfer.c ****             UX_RESTORE
 119:Middlewares/ST/usbx/common/usbx_stm32_host_controllers/ux_hcd_stm32_request_bulk_transfer.c ****             return(UX_STATE_NEXT);
 120:Middlewares/ST/usbx/common/usbx_stm32_host_controllers/ux_hcd_stm32_request_bulk_transfer.c ****         }
 121:Middlewares/ST/usbx/common/usbx_stm32_host_controllers/ux_hcd_stm32_request_bulk_transfer.c **** 
 122:Middlewares/ST/usbx/common/usbx_stm32_host_controllers/ux_hcd_stm32_request_bulk_transfer.c ****         /* Maybe transfer completed but state not reported yet.  */
 123:Middlewares/ST/usbx/common/usbx_stm32_host_controllers/ux_hcd_stm32_request_bulk_transfer.c ****     }
 124:Middlewares/ST/usbx/common/usbx_stm32_host_controllers/ux_hcd_stm32_request_bulk_transfer.c ****     transfer_request -> ux_transfer_request_status = UX_TRANSFER_STATUS_PENDING;
 125:Middlewares/ST/usbx/common/usbx_stm32_host_controllers/ux_hcd_stm32_request_bulk_transfer.c **** 
 126:Middlewares/ST/usbx/common/usbx_stm32_host_controllers/ux_hcd_stm32_request_bulk_transfer.c ****     UX_RESTORE
 127:Middlewares/ST/usbx/common/usbx_stm32_host_controllers/ux_hcd_stm32_request_bulk_transfer.c **** #endif /* defined(UX_HOST_STANDALONE) */
 128:Middlewares/ST/usbx/common/usbx_stm32_host_controllers/ux_hcd_stm32_request_bulk_transfer.c **** 
 129:Middlewares/ST/usbx/common/usbx_stm32_host_controllers/ux_hcd_stm32_request_bulk_transfer.c ****     /* Save the pending transfer in the ED.  */
 130:Middlewares/ST/usbx/common/usbx_stm32_host_controllers/ux_hcd_stm32_request_bulk_transfer.c ****     ed -> ux_stm32_ed_transfer_request = transfer_request;
  60              		.loc 1 130 5 is_stmt 1 view .LVU10
  61              		.loc 1 130 40 is_stmt 0 view .LVU11
  62 000c A160     		str	r1, [r4, #8]
 131:Middlewares/ST/usbx/common/usbx_stm32_host_controllers/ux_hcd_stm32_request_bulk_transfer.c **** 
 132:Middlewares/ST/usbx/common/usbx_stm32_host_controllers/ux_hcd_stm32_request_bulk_transfer.c ****     /* Direction, 0 : Output / 1 : Input */
 133:Middlewares/ST/usbx/common/usbx_stm32_host_controllers/ux_hcd_stm32_request_bulk_transfer.c ****     direction = ed -> ux_stm32_ed_dir;
  63              		.loc 1 133 5 is_stmt 1 view .LVU12
  64              		.loc 1 133 20 is_stmt 0 view .LVU13
  65 000e 94F82A70 		ldrb	r7, [r4, #42]	@ zero_extendqisi2
  66              	.LVL3:
 134:Middlewares/ST/usbx/common/usbx_stm32_host_controllers/ux_hcd_stm32_request_bulk_transfer.c **** 
 135:Middlewares/ST/usbx/common/usbx_stm32_host_controllers/ux_hcd_stm32_request_bulk_transfer.c **** #if defined (USBH_HAL_HUB_SPLIT_SUPPORTED)
 136:Middlewares/ST/usbx/common/usbx_stm32_host_controllers/ux_hcd_stm32_request_bulk_transfer.c ****     if (hcd_stm32->hcd_handle->hc[ed -> ux_stm32_ed_channel].do_ssplit == 1U)
 137:Middlewares/ST/usbx/common/usbx_stm32_host_controllers/ux_hcd_stm32_request_bulk_transfer.c ****     {
 138:Middlewares/ST/usbx/common/usbx_stm32_host_controllers/ux_hcd_stm32_request_bulk_transfer.c ****       if ((direction == 0) && (transfer_request -> ux_transfer_request_requested_length > endpoint 
 139:Middlewares/ST/usbx/common/usbx_stm32_host_controllers/ux_hcd_stm32_request_bulk_transfer.c ****       {
 140:Middlewares/ST/usbx/common/usbx_stm32_host_controllers/ux_hcd_stm32_request_bulk_transfer.c ****         /* Set transfer length to MPS.  */
 141:Middlewares/ST/usbx/common/usbx_stm32_host_controllers/ux_hcd_stm32_request_bulk_transfer.c ****         length = endpoint -> ux_endpoint_descriptor.wMaxPacketSize;
 142:Middlewares/ST/usbx/common/usbx_stm32_host_controllers/ux_hcd_stm32_request_bulk_transfer.c ****       }
 143:Middlewares/ST/usbx/common/usbx_stm32_host_controllers/ux_hcd_stm32_request_bulk_transfer.c ****       else
 144:Middlewares/ST/usbx/common/usbx_stm32_host_controllers/ux_hcd_stm32_request_bulk_transfer.c ****       {
 145:Middlewares/ST/usbx/common/usbx_stm32_host_controllers/ux_hcd_stm32_request_bulk_transfer.c ****         /* Keep the original transfer length.  */
 146:Middlewares/ST/usbx/common/usbx_stm32_host_controllers/ux_hcd_stm32_request_bulk_transfer.c ****         length = transfer_request -> ux_transfer_request_requested_length;
 147:Middlewares/ST/usbx/common/usbx_stm32_host_controllers/ux_hcd_stm32_request_bulk_transfer.c ****       }
 148:Middlewares/ST/usbx/common/usbx_stm32_host_controllers/ux_hcd_stm32_request_bulk_transfer.c ****     }
 149:Middlewares/ST/usbx/common/usbx_stm32_host_controllers/ux_hcd_stm32_request_bulk_transfer.c ****     else
 150:Middlewares/ST/usbx/common/usbx_stm32_host_controllers/ux_hcd_stm32_request_bulk_transfer.c **** #endif /* USBH_HAL_HUB_SPLIT_SUPPORTED */
 151:Middlewares/ST/usbx/common/usbx_stm32_host_controllers/ux_hcd_stm32_request_bulk_transfer.c ****     {
 152:Middlewares/ST/usbx/common/usbx_stm32_host_controllers/ux_hcd_stm32_request_bulk_transfer.c **** 
 153:Middlewares/ST/usbx/common/usbx_stm32_host_controllers/ux_hcd_stm32_request_bulk_transfer.c ****       /* If DMA enabled, use max possible transfer length.  */
 154:Middlewares/ST/usbx/common/usbx_stm32_host_controllers/ux_hcd_stm32_request_bulk_transfer.c ****       if (hcd_stm32 -> hcd_handle -> Init.dma_enable)
  67              		.loc 1 154 7 is_stmt 1 view .LVU14
  68              		.loc 1 154 21 is_stmt 0 view .LVU15
  69 0012 816C     		ldr	r1, [r0, #72]
  70              	.LVL4:
  71              		.loc 1 154 42 view .LVU16
  72 0014 0969     		ldr	r1, [r1, #16]
  73              		.loc 1 154 10 view .LVU17
  74 0016 29B1     		cbz	r1, .L2
 155:Middlewares/ST/usbx/common/usbx_stm32_host_controllers/ux_hcd_stm32_request_bulk_transfer.c ****       {
ARM GAS  C:\Users\HP\AppData\Local\Temp\cc9kXoah.s 			page 5


 156:Middlewares/ST/usbx/common/usbx_stm32_host_controllers/ux_hcd_stm32_request_bulk_transfer.c ****         if (transfer_request -> ux_transfer_request_requested_length > endpoint -> ux_endpoint_tran
  75              		.loc 1 156 9 is_stmt 1 view .LVU18
  76              		.loc 1 156 30 is_stmt 0 view .LVU19
  77 0018 D568     		ldr	r5, [r2, #12]
  78              		.loc 1 156 112 view .LVU20
  79 001a DB6D     		ldr	r3, [r3, #92]
  80              	.LVL5:
  81              		.loc 1 156 12 view .LVU21
  82 001c 9D42     		cmp	r5, r3
  83 001e 07D9     		bls	.L3
 157:Middlewares/ST/usbx/common/usbx_stm32_host_controllers/ux_hcd_stm32_request_bulk_transfer.c ****           length = endpoint -> ux_endpoint_transfer_request.ux_transfer_request_maximum_length;
  84              		.loc 1 157 18 view .LVU22
  85 0020 1D46     		mov	r5, r3
  86 0022 05E0     		b	.L3
  87              	.LVL6:
  88              	.L2:
 158:Middlewares/ST/usbx/common/usbx_stm32_host_controllers/ux_hcd_stm32_request_bulk_transfer.c ****         else
 159:Middlewares/ST/usbx/common/usbx_stm32_host_controllers/ux_hcd_stm32_request_bulk_transfer.c ****           length = transfer_request -> ux_transfer_request_requested_length;
 160:Middlewares/ST/usbx/common/usbx_stm32_host_controllers/ux_hcd_stm32_request_bulk_transfer.c ****       }
 161:Middlewares/ST/usbx/common/usbx_stm32_host_controllers/ux_hcd_stm32_request_bulk_transfer.c ****       else
 162:Middlewares/ST/usbx/common/usbx_stm32_host_controllers/ux_hcd_stm32_request_bulk_transfer.c ****       {
 163:Middlewares/ST/usbx/common/usbx_stm32_host_controllers/ux_hcd_stm32_request_bulk_transfer.c ****         /* If the direction is OUT, request size is larger than MPS, and DMA is not used, we need t
 164:Middlewares/ST/usbx/common/usbx_stm32_host_controllers/ux_hcd_stm32_request_bulk_transfer.c ****         if ((direction == 0) && (transfer_request -> ux_transfer_request_requested_length > endpoin
  89              		.loc 1 164 9 is_stmt 1 view .LVU23
  90              		.loc 1 164 12 is_stmt 0 view .LVU24
  91 0024 1FB9     		cbnz	r7, .L4
  92              		.loc 1 164 51 discriminator 1 view .LVU25
  93 0026 D168     		ldr	r1, [r2, #12]
  94              		.loc 1 164 127 discriminator 1 view .LVU26
  95 0028 DD69     		ldr	r5, [r3, #28]
  96              		.loc 1 164 30 discriminator 1 view .LVU27
  97 002a A942     		cmp	r1, r5
  98 002c 00D8     		bhi	.L3
  99              	.L4:
 165:Middlewares/ST/usbx/common/usbx_stm32_host_controllers/ux_hcd_stm32_request_bulk_transfer.c ****         {
 166:Middlewares/ST/usbx/common/usbx_stm32_host_controllers/ux_hcd_stm32_request_bulk_transfer.c **** 
 167:Middlewares/ST/usbx/common/usbx_stm32_host_controllers/ux_hcd_stm32_request_bulk_transfer.c ****           /* Set transfer length to MPS.  */
 168:Middlewares/ST/usbx/common/usbx_stm32_host_controllers/ux_hcd_stm32_request_bulk_transfer.c ****           length = endpoint -> ux_endpoint_descriptor.wMaxPacketSize;
 169:Middlewares/ST/usbx/common/usbx_stm32_host_controllers/ux_hcd_stm32_request_bulk_transfer.c ****         }
 170:Middlewares/ST/usbx/common/usbx_stm32_host_controllers/ux_hcd_stm32_request_bulk_transfer.c ****         else
 171:Middlewares/ST/usbx/common/usbx_stm32_host_controllers/ux_hcd_stm32_request_bulk_transfer.c ****         {
 172:Middlewares/ST/usbx/common/usbx_stm32_host_controllers/ux_hcd_stm32_request_bulk_transfer.c **** 
 173:Middlewares/ST/usbx/common/usbx_stm32_host_controllers/ux_hcd_stm32_request_bulk_transfer.c ****           /* Keep the original transfer length.  */
 174:Middlewares/ST/usbx/common/usbx_stm32_host_controllers/ux_hcd_stm32_request_bulk_transfer.c ****           length = transfer_request -> ux_transfer_request_requested_length;
 100              		.loc 1 174 11 is_stmt 1 view .LVU28
 101              		.loc 1 174 18 is_stmt 0 view .LVU29
 102 002e D568     		ldr	r5, [r2, #12]
 103              	.LVL7:
 104              	.L3:
 175:Middlewares/ST/usbx/common/usbx_stm32_host_controllers/ux_hcd_stm32_request_bulk_transfer.c ****         }
 176:Middlewares/ST/usbx/common/usbx_stm32_host_controllers/ux_hcd_stm32_request_bulk_transfer.c ****       }
 177:Middlewares/ST/usbx/common/usbx_stm32_host_controllers/ux_hcd_stm32_request_bulk_transfer.c ****     }
 178:Middlewares/ST/usbx/common/usbx_stm32_host_controllers/ux_hcd_stm32_request_bulk_transfer.c **** 
 179:Middlewares/ST/usbx/common/usbx_stm32_host_controllers/ux_hcd_stm32_request_bulk_transfer.c ****     /* Save the transfer status in the ED.  */
 180:Middlewares/ST/usbx/common/usbx_stm32_host_controllers/ux_hcd_stm32_request_bulk_transfer.c ****     ed -> ux_stm32_ed_status = direction == 0 ? UX_HCD_STM32_ED_STATUS_BULK_OUT : UX_HCD_STM32_ED_S
 105              		.loc 1 180 5 is_stmt 1 view .LVU30
 106              		.loc 1 180 30 is_stmt 0 view .LVU31
ARM GAS  C:\Users\HP\AppData\Local\Temp\cc9kXoah.s 			page 6


 107 0030 CFB9     		cbnz	r7, .L6
 108 0032 0923     		movs	r3, #9
 109              	.L5:
 110              		.loc 1 180 30 discriminator 4 view .LVU32
 111 0034 84F82830 		strb	r3, [r4, #40]
 181:Middlewares/ST/usbx/common/usbx_stm32_host_controllers/ux_hcd_stm32_request_bulk_transfer.c **** 
 182:Middlewares/ST/usbx/common/usbx_stm32_host_controllers/ux_hcd_stm32_request_bulk_transfer.c ****     /* Save the transfer length.  */
 183:Middlewares/ST/usbx/common/usbx_stm32_host_controllers/ux_hcd_stm32_request_bulk_transfer.c ****     ed -> ux_stm32_ed_packet_length = length;
 112              		.loc 1 183 5 is_stmt 1 discriminator 4 view .LVU33
 113              		.loc 1 183 37 is_stmt 0 discriminator 4 view .LVU34
 114 0038 A561     		str	r5, [r4, #24]
 184:Middlewares/ST/usbx/common/usbx_stm32_host_controllers/ux_hcd_stm32_request_bulk_transfer.c **** 
 185:Middlewares/ST/usbx/common/usbx_stm32_host_controllers/ux_hcd_stm32_request_bulk_transfer.c ****     /* Prepare transactions.  */
 186:Middlewares/ST/usbx/common/usbx_stm32_host_controllers/ux_hcd_stm32_request_bulk_transfer.c ****     _ux_hcd_stm32_request_trans_prepare(hcd_stm32, ed, transfer_request);
 115              		.loc 1 186 5 is_stmt 1 discriminator 4 view .LVU35
 116 003a 2146     		mov	r1, r4
 117 003c 3046     		mov	r0, r6
 118              	.LVL8:
 119              		.loc 1 186 5 is_stmt 0 discriminator 4 view .LVU36
 120 003e FFF7FEFF 		bl	_ux_hcd_stm32_request_trans_prepare
 121              	.LVL9:
 187:Middlewares/ST/usbx/common/usbx_stm32_host_controllers/ux_hcd_stm32_request_bulk_transfer.c **** 
 188:Middlewares/ST/usbx/common/usbx_stm32_host_controllers/ux_hcd_stm32_request_bulk_transfer.c ****     /* Submit the transfer request.  */
 189:Middlewares/ST/usbx/common/usbx_stm32_host_controllers/ux_hcd_stm32_request_bulk_transfer.c ****     HAL_HCD_HC_SubmitRequest(hcd_stm32 -> hcd_handle, ed -> ux_stm32_ed_channel,
 122              		.loc 1 189 5 is_stmt 1 discriminator 4 view .LVU37
 190:Middlewares/ST/usbx/common/usbx_stm32_host_controllers/ux_hcd_stm32_request_bulk_transfer.c ****                              direction,
 191:Middlewares/ST/usbx/common/usbx_stm32_host_controllers/ux_hcd_stm32_request_bulk_transfer.c ****                              EP_TYPE_BULK, USBH_PID_DATA,
 192:Middlewares/ST/usbx/common/usbx_stm32_host_controllers/ux_hcd_stm32_request_bulk_transfer.c ****                              ed -> ux_stm32_ed_data,
 123              		.loc 1 192 33 is_stmt 0 discriminator 4 view .LVU38
 124 0042 2369     		ldr	r3, [r4, #16]
 189:Middlewares/ST/usbx/common/usbx_stm32_host_controllers/ux_hcd_stm32_request_bulk_transfer.c ****                              direction,
 125              		.loc 1 189 5 discriminator 4 view .LVU39
 126 0044 94F82910 		ldrb	r1, [r4, #41]	@ zero_extendqisi2
 127 0048 0024     		movs	r4, #0
 128              	.LVL10:
 189:Middlewares/ST/usbx/common/usbx_stm32_host_controllers/ux_hcd_stm32_request_bulk_transfer.c ****                              direction,
 129              		.loc 1 189 5 discriminator 4 view .LVU40
 130 004a 0394     		str	r4, [sp, #12]
 131 004c ADB2     		uxth	r5, r5
 132              	.LVL11:
 189:Middlewares/ST/usbx/common/usbx_stm32_host_controllers/ux_hcd_stm32_request_bulk_transfer.c ****                              direction,
 133              		.loc 1 189 5 discriminator 4 view .LVU41
 134 004e 0295     		str	r5, [sp, #8]
 135 0050 0193     		str	r3, [sp, #4]
 136 0052 0123     		movs	r3, #1
 137 0054 0093     		str	r3, [sp]
 138 0056 0223     		movs	r3, #2
 139 0058 3A46     		mov	r2, r7
 140 005a B06C     		ldr	r0, [r6, #72]
 141 005c FFF7FEFF 		bl	HAL_HCD_HC_SubmitRequest
 142              	.LVL12:
 193:Middlewares/ST/usbx/common/usbx_stm32_host_controllers/ux_hcd_stm32_request_bulk_transfer.c ****                              length, 0);
 194:Middlewares/ST/usbx/common/usbx_stm32_host_controllers/ux_hcd_stm32_request_bulk_transfer.c **** 
 195:Middlewares/ST/usbx/common/usbx_stm32_host_controllers/ux_hcd_stm32_request_bulk_transfer.c **** #if defined(UX_HOST_STANDALONE)
 196:Middlewares/ST/usbx/common/usbx_stm32_host_controllers/ux_hcd_stm32_request_bulk_transfer.c **** 
 197:Middlewares/ST/usbx/common/usbx_stm32_host_controllers/ux_hcd_stm32_request_bulk_transfer.c ****     /* Background transfer started but not done yet.  */
 198:Middlewares/ST/usbx/common/usbx_stm32_host_controllers/ux_hcd_stm32_request_bulk_transfer.c ****     return(UX_STATE_WAIT);
ARM GAS  C:\Users\HP\AppData\Local\Temp\cc9kXoah.s 			page 7


 199:Middlewares/ST/usbx/common/usbx_stm32_host_controllers/ux_hcd_stm32_request_bulk_transfer.c **** #else
 200:Middlewares/ST/usbx/common/usbx_stm32_host_controllers/ux_hcd_stm32_request_bulk_transfer.c **** 
 201:Middlewares/ST/usbx/common/usbx_stm32_host_controllers/ux_hcd_stm32_request_bulk_transfer.c ****     /* Return successful completion.  */
 202:Middlewares/ST/usbx/common/usbx_stm32_host_controllers/ux_hcd_stm32_request_bulk_transfer.c ****     return(UX_SUCCESS);
 143              		.loc 1 202 5 is_stmt 1 discriminator 4 view .LVU42
 203:Middlewares/ST/usbx/common/usbx_stm32_host_controllers/ux_hcd_stm32_request_bulk_transfer.c **** #endif /* defined(UX_HOST_STANDALONE) */
 204:Middlewares/ST/usbx/common/usbx_stm32_host_controllers/ux_hcd_stm32_request_bulk_transfer.c **** 
 205:Middlewares/ST/usbx/common/usbx_stm32_host_controllers/ux_hcd_stm32_request_bulk_transfer.c **** }
 144              		.loc 1 205 1 is_stmt 0 discriminator 4 view .LVU43
 145 0060 2046     		mov	r0, r4
 146 0062 05B0     		add	sp, sp, #20
 147              	.LCFI2:
 148              		.cfi_remember_state
 149              		.cfi_def_cfa_offset 20
 150              		@ sp needed
 151 0064 F0BD     		pop	{r4, r5, r6, r7, pc}
 152              	.LVL13:
 153              	.L6:
 154              	.LCFI3:
 155              		.cfi_restore_state
 180:Middlewares/ST/usbx/common/usbx_stm32_host_controllers/ux_hcd_stm32_request_bulk_transfer.c **** 
 156              		.loc 1 180 30 view .LVU44
 157 0066 0823     		movs	r3, #8
 158 0068 E4E7     		b	.L5
 159              		.cfi_endproc
 160              	.LFE143:
 162              		.text
 163              	.Letext0:
 164              		.file 2 "c:\\gcc-arm-none-eabi\\arm-none-eabi\\include\\machine\\_default_types.h"
 165              		.file 3 "c:\\gcc-arm-none-eabi\\arm-none-eabi\\include\\sys\\_stdint.h"
 166              		.file 4 "Middlewares/ST/threadx/ports/cortex_m4/gnu/inc/tx_port.h"
 167              		.file 5 "Middlewares/ST/threadx/common/inc/tx_api.h"
 168              		.file 6 "Middlewares/ST/usbx/common/core/inc/ux_api.h"
 169              		.file 7 "Drivers/CMSIS/Device/ST/STM32L4xx/Include/stm32l4r5xx.h"
 170              		.file 8 "Drivers/STM32L4xx_HAL_Driver/Inc/stm32l4xx_hal_def.h"
 171              		.file 9 "Drivers/STM32L4xx_HAL_Driver/Inc/stm32l4xx_ll_usb.h"
 172              		.file 10 "Drivers/STM32L4xx_HAL_Driver/Inc/stm32l4xx_hal_hcd.h"
 173              		.file 11 "Middlewares/ST/usbx/common/usbx_stm32_host_controllers/ux_hcd_stm32.h"
ARM GAS  C:\Users\HP\AppData\Local\Temp\cc9kXoah.s 			page 8

