ARM GAS  C:\Users\HP\AppData\Local\Temp\cc5BDObg.s 			page 1


   1              		.cpu cortex-m4
   2              		.arch armv7e-m
   3              		.fpu fpv4-sp-d16
   4              		.eabi_attribute 27, 1
   5              		.eabi_attribute 28, 1
   6              		.eabi_attribute 20, 1
   7              		.eabi_attribute 21, 1
   8              		.eabi_attribute 23, 3
   9              		.eabi_attribute 24, 1
  10              		.eabi_attribute 25, 1
  11              		.eabi_attribute 26, 1
  12              		.eabi_attribute 30, 1
  13              		.eabi_attribute 34, 1
  14              		.eabi_attribute 18, 4
  15              		.file	"ux_host_stack_interface_setting_select.c"
  16              		.text
  17              	.Ltext0:
  18              		.cfi_sections	.debug_frame
  19              		.section	.text._ux_host_stack_interface_setting_select,"ax",%progbits
  20              		.align	1
  21              		.global	_ux_host_stack_interface_setting_select
  22              		.syntax unified
  23              		.thumb
  24              		.thumb_func
  26              	_ux_host_stack_interface_setting_select:
  27              	.LVL0:
  28              	.LFB11:
  29              		.file 1 "Middlewares/ST/usbx/common/core/src/ux_host_stack_interface_setting_select.c"
   1:Middlewares/ST/usbx/common/core/src/ux_host_stack_interface_setting_select.c **** /**************************************************************************/
   2:Middlewares/ST/usbx/common/core/src/ux_host_stack_interface_setting_select.c **** /*                                                                        */
   3:Middlewares/ST/usbx/common/core/src/ux_host_stack_interface_setting_select.c **** /*       Copyright (c) Microsoft Corporation. All rights reserved.        */
   4:Middlewares/ST/usbx/common/core/src/ux_host_stack_interface_setting_select.c **** /*                                                                        */
   5:Middlewares/ST/usbx/common/core/src/ux_host_stack_interface_setting_select.c **** /*       This software is licensed under the Microsoft Software License   */
   6:Middlewares/ST/usbx/common/core/src/ux_host_stack_interface_setting_select.c **** /*       Terms for Microsoft Azure RTOS. Full text of the license can be  */
   7:Middlewares/ST/usbx/common/core/src/ux_host_stack_interface_setting_select.c **** /*       found in the LICENSE file at https://aka.ms/AzureRTOS_EULA       */
   8:Middlewares/ST/usbx/common/core/src/ux_host_stack_interface_setting_select.c **** /*       and in the root directory of this software.                      */
   9:Middlewares/ST/usbx/common/core/src/ux_host_stack_interface_setting_select.c **** /*                                                                        */
  10:Middlewares/ST/usbx/common/core/src/ux_host_stack_interface_setting_select.c **** /**************************************************************************/
  11:Middlewares/ST/usbx/common/core/src/ux_host_stack_interface_setting_select.c **** 
  12:Middlewares/ST/usbx/common/core/src/ux_host_stack_interface_setting_select.c **** 
  13:Middlewares/ST/usbx/common/core/src/ux_host_stack_interface_setting_select.c **** /**************************************************************************/
  14:Middlewares/ST/usbx/common/core/src/ux_host_stack_interface_setting_select.c **** /**************************************************************************/
  15:Middlewares/ST/usbx/common/core/src/ux_host_stack_interface_setting_select.c **** /**                                                                       */ 
  16:Middlewares/ST/usbx/common/core/src/ux_host_stack_interface_setting_select.c **** /** USBX Component                                                        */ 
  17:Middlewares/ST/usbx/common/core/src/ux_host_stack_interface_setting_select.c **** /**                                                                       */
  18:Middlewares/ST/usbx/common/core/src/ux_host_stack_interface_setting_select.c **** /**   Host Stack                                                          */
  19:Middlewares/ST/usbx/common/core/src/ux_host_stack_interface_setting_select.c **** /**                                                                       */
  20:Middlewares/ST/usbx/common/core/src/ux_host_stack_interface_setting_select.c **** /**************************************************************************/
  21:Middlewares/ST/usbx/common/core/src/ux_host_stack_interface_setting_select.c **** /**************************************************************************/
  22:Middlewares/ST/usbx/common/core/src/ux_host_stack_interface_setting_select.c **** 
  23:Middlewares/ST/usbx/common/core/src/ux_host_stack_interface_setting_select.c **** 
  24:Middlewares/ST/usbx/common/core/src/ux_host_stack_interface_setting_select.c **** /* Include necessary system files.  */
  25:Middlewares/ST/usbx/common/core/src/ux_host_stack_interface_setting_select.c **** 
  26:Middlewares/ST/usbx/common/core/src/ux_host_stack_interface_setting_select.c **** #define UX_SOURCE_CODE
  27:Middlewares/ST/usbx/common/core/src/ux_host_stack_interface_setting_select.c **** 
  28:Middlewares/ST/usbx/common/core/src/ux_host_stack_interface_setting_select.c **** #include "ux_api.h"
  29:Middlewares/ST/usbx/common/core/src/ux_host_stack_interface_setting_select.c **** #include "ux_host_stack.h"
ARM GAS  C:\Users\HP\AppData\Local\Temp\cc5BDObg.s 			page 2


  30:Middlewares/ST/usbx/common/core/src/ux_host_stack_interface_setting_select.c **** 
  31:Middlewares/ST/usbx/common/core/src/ux_host_stack_interface_setting_select.c **** 
  32:Middlewares/ST/usbx/common/core/src/ux_host_stack_interface_setting_select.c **** /**************************************************************************/ 
  33:Middlewares/ST/usbx/common/core/src/ux_host_stack_interface_setting_select.c **** /*                                                                        */ 
  34:Middlewares/ST/usbx/common/core/src/ux_host_stack_interface_setting_select.c **** /*  FUNCTION                                               RELEASE        */ 
  35:Middlewares/ST/usbx/common/core/src/ux_host_stack_interface_setting_select.c **** /*                                                                        */ 
  36:Middlewares/ST/usbx/common/core/src/ux_host_stack_interface_setting_select.c **** /*    _ux_host_stack_interface_setting_select             PORTABLE C      */ 
  37:Middlewares/ST/usbx/common/core/src/ux_host_stack_interface_setting_select.c **** /*                                                           6.1.12       */
  38:Middlewares/ST/usbx/common/core/src/ux_host_stack_interface_setting_select.c **** /*  AUTHOR                                                                */
  39:Middlewares/ST/usbx/common/core/src/ux_host_stack_interface_setting_select.c **** /*                                                                        */
  40:Middlewares/ST/usbx/common/core/src/ux_host_stack_interface_setting_select.c **** /*    Chaoqiong Xiao, Microsoft Corporation                               */
  41:Middlewares/ST/usbx/common/core/src/ux_host_stack_interface_setting_select.c **** /*                                                                        */
  42:Middlewares/ST/usbx/common/core/src/ux_host_stack_interface_setting_select.c **** /*  DESCRIPTION                                                           */
  43:Middlewares/ST/usbx/common/core/src/ux_host_stack_interface_setting_select.c **** /*                                                                        */ 
  44:Middlewares/ST/usbx/common/core/src/ux_host_stack_interface_setting_select.c **** /*    This function selects a specific alternate setting for a given      */
  45:Middlewares/ST/usbx/common/core/src/ux_host_stack_interface_setting_select.c **** /*    interface belonging to the selected configuration.                  */ 
  46:Middlewares/ST/usbx/common/core/src/ux_host_stack_interface_setting_select.c **** /*                                                                        */ 
  47:Middlewares/ST/usbx/common/core/src/ux_host_stack_interface_setting_select.c **** /*  INPUT                                                                 */ 
  48:Middlewares/ST/usbx/common/core/src/ux_host_stack_interface_setting_select.c **** /*                                                                        */ 
  49:Middlewares/ST/usbx/common/core/src/ux_host_stack_interface_setting_select.c **** /*    interface                             Pointer to interface          */ 
  50:Middlewares/ST/usbx/common/core/src/ux_host_stack_interface_setting_select.c **** /*                                                                        */ 
  51:Middlewares/ST/usbx/common/core/src/ux_host_stack_interface_setting_select.c **** /*  OUTPUT                                                                */ 
  52:Middlewares/ST/usbx/common/core/src/ux_host_stack_interface_setting_select.c **** /*                                                                        */ 
  53:Middlewares/ST/usbx/common/core/src/ux_host_stack_interface_setting_select.c **** /*    Completion Status                                                   */ 
  54:Middlewares/ST/usbx/common/core/src/ux_host_stack_interface_setting_select.c **** /*                                                                        */ 
  55:Middlewares/ST/usbx/common/core/src/ux_host_stack_interface_setting_select.c **** /*  CALLS                                                                 */ 
  56:Middlewares/ST/usbx/common/core/src/ux_host_stack_interface_setting_select.c **** /*                                                                        */ 
  57:Middlewares/ST/usbx/common/core/src/ux_host_stack_interface_setting_select.c **** /*    _ux_host_stack_interface_instance_create  Create interface instance */ 
  58:Middlewares/ST/usbx/common/core/src/ux_host_stack_interface_setting_select.c **** /*    _ux_host_stack_interface_instance_delete  Delete interface instance */ 
  59:Middlewares/ST/usbx/common/core/src/ux_host_stack_interface_setting_select.c **** /*    _ux_host_stack_interface_set              Set interface instance    */ 
  60:Middlewares/ST/usbx/common/core/src/ux_host_stack_interface_setting_select.c **** /*    _ux_host_semaphore_get                    Get semaphore             */
  61:Middlewares/ST/usbx/common/core/src/ux_host_stack_interface_setting_select.c **** /*    _ux_host_semaphore_put                    Put semaphore             */
  62:Middlewares/ST/usbx/common/core/src/ux_host_stack_interface_setting_select.c **** /*                                                                        */ 
  63:Middlewares/ST/usbx/common/core/src/ux_host_stack_interface_setting_select.c **** /*  CALLED BY                                                             */ 
  64:Middlewares/ST/usbx/common/core/src/ux_host_stack_interface_setting_select.c **** /*                                                                        */ 
  65:Middlewares/ST/usbx/common/core/src/ux_host_stack_interface_setting_select.c **** /*    Application                                                         */ 
  66:Middlewares/ST/usbx/common/core/src/ux_host_stack_interface_setting_select.c **** /*    USBX Components                                                     */ 
  67:Middlewares/ST/usbx/common/core/src/ux_host_stack_interface_setting_select.c **** /*                                                                        */ 
  68:Middlewares/ST/usbx/common/core/src/ux_host_stack_interface_setting_select.c **** /*  RELEASE HISTORY                                                       */ 
  69:Middlewares/ST/usbx/common/core/src/ux_host_stack_interface_setting_select.c **** /*                                                                        */ 
  70:Middlewares/ST/usbx/common/core/src/ux_host_stack_interface_setting_select.c **** /*    DATE              NAME                      DESCRIPTION             */ 
  71:Middlewares/ST/usbx/common/core/src/ux_host_stack_interface_setting_select.c **** /*                                                                        */ 
  72:Middlewares/ST/usbx/common/core/src/ux_host_stack_interface_setting_select.c **** /*  05-19-2020     Chaoqiong Xiao           Initial Version 6.0           */
  73:Middlewares/ST/usbx/common/core/src/ux_host_stack_interface_setting_select.c **** /*  09-30-2020     Chaoqiong Xiao           Modified comment(s),          */
  74:Middlewares/ST/usbx/common/core/src/ux_host_stack_interface_setting_select.c **** /*                                            resulting in version 6.1    */
  75:Middlewares/ST/usbx/common/core/src/ux_host_stack_interface_setting_select.c **** /*  07-29-2022     Chaoqiong Xiao           Modified comment(s),          */
  76:Middlewares/ST/usbx/common/core/src/ux_host_stack_interface_setting_select.c **** /*                                            protected control request,  */
  77:Middlewares/ST/usbx/common/core/src/ux_host_stack_interface_setting_select.c **** /*                                            resulting in version 6.1.12 */
  78:Middlewares/ST/usbx/common/core/src/ux_host_stack_interface_setting_select.c **** /*                                                                        */
  79:Middlewares/ST/usbx/common/core/src/ux_host_stack_interface_setting_select.c **** /**************************************************************************/
  80:Middlewares/ST/usbx/common/core/src/ux_host_stack_interface_setting_select.c **** UINT  _ux_host_stack_interface_setting_select(UX_INTERFACE *interface_ptr)
  81:Middlewares/ST/usbx/common/core/src/ux_host_stack_interface_setting_select.c **** {
  30              		.loc 1 81 1 view -0
  31              		.cfi_startproc
  32              		@ args = 0, pretend = 0, frame = 0
  33              		@ frame_needed = 0, uses_anonymous_args = 0
  34              		.loc 1 81 1 is_stmt 0 view .LVU1
ARM GAS  C:\Users\HP\AppData\Local\Temp\cc5BDObg.s 			page 3


  35 0000 2DE9F843 		push	{r3, r4, r5, r6, r7, r8, r9, lr}
  36              	.LCFI0:
  37              		.cfi_def_cfa_offset 32
  38              		.cfi_offset 3, -32
  39              		.cfi_offset 4, -28
  40              		.cfi_offset 5, -24
  41              		.cfi_offset 6, -20
  42              		.cfi_offset 7, -16
  43              		.cfi_offset 8, -12
  44              		.cfi_offset 9, -8
  45              		.cfi_offset 14, -4
  82:Middlewares/ST/usbx/common/core/src/ux_host_stack_interface_setting_select.c **** 
  83:Middlewares/ST/usbx/common/core/src/ux_host_stack_interface_setting_select.c **** UX_CONFIGURATION    *configuration;
  46              		.loc 1 83 1 is_stmt 1 view .LVU2
  84:Middlewares/ST/usbx/common/core/src/ux_host_stack_interface_setting_select.c **** UX_INTERFACE        *current_interface;
  47              		.loc 1 84 1 view .LVU3
  85:Middlewares/ST/usbx/common/core/src/ux_host_stack_interface_setting_select.c **** UX_INTERFACE        *previous_interface;
  48              		.loc 1 85 1 view .LVU4
  86:Middlewares/ST/usbx/common/core/src/ux_host_stack_interface_setting_select.c **** UX_INTERFACE        *main_interface;
  49              		.loc 1 86 1 view .LVU5
  87:Middlewares/ST/usbx/common/core/src/ux_host_stack_interface_setting_select.c **** UINT                current_interface_number;
  50              		.loc 1 87 1 view .LVU6
  88:Middlewares/ST/usbx/common/core/src/ux_host_stack_interface_setting_select.c **** UINT                current_alternate_setting;
  51              		.loc 1 88 1 view .LVU7
  89:Middlewares/ST/usbx/common/core/src/ux_host_stack_interface_setting_select.c **** UINT                status;
  52              		.loc 1 89 1 view .LVU8
  90:Middlewares/ST/usbx/common/core/src/ux_host_stack_interface_setting_select.c ****     
  91:Middlewares/ST/usbx/common/core/src/ux_host_stack_interface_setting_select.c ****     /* If trace is enabled, insert this event into the trace buffer.  */
  92:Middlewares/ST/usbx/common/core/src/ux_host_stack_interface_setting_select.c ****     UX_TRACE_IN_LINE_INSERT(UX_TRACE_HOST_STACK_INTERFACE_SETTING_SELECT, interface_ptr, 0, 0, 0, U
  93:Middlewares/ST/usbx/common/core/src/ux_host_stack_interface_setting_select.c **** 
  94:Middlewares/ST/usbx/common/core/src/ux_host_stack_interface_setting_select.c ****     /* Check this alternate setting container. It must be valid before
  95:Middlewares/ST/usbx/common/core/src/ux_host_stack_interface_setting_select.c ****        we continue.  */
  96:Middlewares/ST/usbx/common/core/src/ux_host_stack_interface_setting_select.c ****     if (interface_ptr -> ux_interface_handle != (ULONG) (ALIGN_TYPE) interface_ptr)
  53              		.loc 1 96 5 view .LVU9
  54              		.loc 1 96 23 is_stmt 0 view .LVU10
  55 0004 0368     		ldr	r3, [r0]
  56              		.loc 1 96 8 view .LVU11
  57 0006 8342     		cmp	r3, r0
  58 0008 41D1     		bne	.L8
  59 000a 0646     		mov	r6, r0
  97:Middlewares/ST/usbx/common/core/src/ux_host_stack_interface_setting_select.c ****     {
  98:Middlewares/ST/usbx/common/core/src/ux_host_stack_interface_setting_select.c ****         /* If trace is enabled, insert this event into the trace buffer.  */
  99:Middlewares/ST/usbx/common/core/src/ux_host_stack_interface_setting_select.c ****         UX_TRACE_IN_LINE_INSERT(UX_TRACE_ERROR, UX_INTERFACE_HANDLE_UNKNOWN, interface_ptr, 0, 0, U
 100:Middlewares/ST/usbx/common/core/src/ux_host_stack_interface_setting_select.c **** 
 101:Middlewares/ST/usbx/common/core/src/ux_host_stack_interface_setting_select.c ****         return(UX_INTERFACE_HANDLE_UNKNOWN);
 102:Middlewares/ST/usbx/common/core/src/ux_host_stack_interface_setting_select.c ****     }
 103:Middlewares/ST/usbx/common/core/src/ux_host_stack_interface_setting_select.c **** 
 104:Middlewares/ST/usbx/common/core/src/ux_host_stack_interface_setting_select.c ****     /* From the interface, get the configuration container and the first
 105:Middlewares/ST/usbx/common/core/src/ux_host_stack_interface_setting_select.c ****        interface hooked to this configuration.  */    
 106:Middlewares/ST/usbx/common/core/src/ux_host_stack_interface_setting_select.c ****     configuration =             interface_ptr -> ux_interface_configuration;
  60              		.loc 1 106 5 is_stmt 1 view .LVU12
  61              		.loc 1 106 19 is_stmt 0 view .LVU13
  62 000c D0F84080 		ldr	r8, [r0, #64]
  63              	.LVL1:
 107:Middlewares/ST/usbx/common/core/src/ux_host_stack_interface_setting_select.c ****     current_interface_number =  interface_ptr -> ux_interface_descriptor.bInterfaceNumber;
  64              		.loc 1 107 5 is_stmt 1 view .LVU14
  65              		.loc 1 107 30 is_stmt 0 view .LVU15
ARM GAS  C:\Users\HP\AppData\Local\Temp\cc5BDObg.s 			page 4


  66 0010 4269     		ldr	r2, [r0, #20]
  67              	.LVL2:
 108:Middlewares/ST/usbx/common/core/src/ux_host_stack_interface_setting_select.c ****     current_interface =         configuration -> ux_configuration_first_interface;
  68              		.loc 1 108 5 is_stmt 1 view .LVU16
  69              		.loc 1 108 23 is_stmt 0 view .LVU17
  70 0012 D8F82C40 		ldr	r4, [r8, #44]
  71              	.LVL3:
 109:Middlewares/ST/usbx/common/core/src/ux_host_stack_interface_setting_select.c **** 
 110:Middlewares/ST/usbx/common/core/src/ux_host_stack_interface_setting_select.c ****     /* Remember the main interface to store the next alternate setting.  We set the main interface
 111:Middlewares/ST/usbx/common/core/src/ux_host_stack_interface_setting_select.c ****        to the first interface to keep the compiler happy. */
 112:Middlewares/ST/usbx/common/core/src/ux_host_stack_interface_setting_select.c ****     main_interface =  current_interface;
  72              		.loc 1 112 5 is_stmt 1 view .LVU18
 113:Middlewares/ST/usbx/common/core/src/ux_host_stack_interface_setting_select.c **** 
 114:Middlewares/ST/usbx/common/core/src/ux_host_stack_interface_setting_select.c ****     /* In order to keep the compiler happy, we reset the alternate setting.  */
 115:Middlewares/ST/usbx/common/core/src/ux_host_stack_interface_setting_select.c ****     current_alternate_setting =  0;
  73              		.loc 1 115 5 view .LVU19
 116:Middlewares/ST/usbx/common/core/src/ux_host_stack_interface_setting_select.c ****     previous_interface = UX_NULL;
  74              		.loc 1 116 5 view .LVU20
 112:Middlewares/ST/usbx/common/core/src/ux_host_stack_interface_setting_select.c **** 
  75              		.loc 1 112 20 is_stmt 0 view .LVU21
  76 0016 2746     		mov	r7, r4
 115:Middlewares/ST/usbx/common/core/src/ux_host_stack_interface_setting_select.c ****     previous_interface = UX_NULL;
  77              		.loc 1 115 31 view .LVU22
  78 0018 0025     		movs	r5, #0
  79 001a 02E0     		b	.L7
  80              	.LVL4:
  81              	.L4:
 117:Middlewares/ST/usbx/common/core/src/ux_host_stack_interface_setting_select.c **** 
 118:Middlewares/ST/usbx/common/core/src/ux_host_stack_interface_setting_select.c ****     /* Search for the current alternate setting for this interface.
 119:Middlewares/ST/usbx/common/core/src/ux_host_stack_interface_setting_select.c ****        All its endpoints will need to be destroyed.
 120:Middlewares/ST/usbx/common/core/src/ux_host_stack_interface_setting_select.c ****        Since interfaces in the parent configuration should be linked together
 121:Middlewares/ST/usbx/common/core/src/ux_host_stack_interface_setting_select.c ****        in correct way, just find it in while loop.
 122:Middlewares/ST/usbx/common/core/src/ux_host_stack_interface_setting_select.c ****      */
 123:Middlewares/ST/usbx/common/core/src/ux_host_stack_interface_setting_select.c ****     while (1)
 124:Middlewares/ST/usbx/common/core/src/ux_host_stack_interface_setting_select.c ****     {
 125:Middlewares/ST/usbx/common/core/src/ux_host_stack_interface_setting_select.c **** 
 126:Middlewares/ST/usbx/common/core/src/ux_host_stack_interface_setting_select.c ****         /* Try to locate the first interface container in the interface chain which
 127:Middlewares/ST/usbx/common/core/src/ux_host_stack_interface_setting_select.c ****            has the same interface number as the one supplied by the caller.  */
 128:Middlewares/ST/usbx/common/core/src/ux_host_stack_interface_setting_select.c ****         if (current_interface -> ux_interface_descriptor.bInterfaceNumber == current_interface_numb
 129:Middlewares/ST/usbx/common/core/src/ux_host_stack_interface_setting_select.c ****         {
 130:Middlewares/ST/usbx/common/core/src/ux_host_stack_interface_setting_select.c **** 
 131:Middlewares/ST/usbx/common/core/src/ux_host_stack_interface_setting_select.c ****             /* The alternate setting 0 of this interface has the current selected
 132:Middlewares/ST/usbx/common/core/src/ux_host_stack_interface_setting_select.c ****                alternate setting.  */
 133:Middlewares/ST/usbx/common/core/src/ux_host_stack_interface_setting_select.c ****             if (current_interface -> ux_interface_descriptor.bAlternateSetting == 0)
 134:Middlewares/ST/usbx/common/core/src/ux_host_stack_interface_setting_select.c ****             {
 135:Middlewares/ST/usbx/common/core/src/ux_host_stack_interface_setting_select.c **** 
 136:Middlewares/ST/usbx/common/core/src/ux_host_stack_interface_setting_select.c ****                 /* Set the alternate setting.  */
 137:Middlewares/ST/usbx/common/core/src/ux_host_stack_interface_setting_select.c ****                 current_alternate_setting =  current_interface -> ux_interface_current_alternate_se
 138:Middlewares/ST/usbx/common/core/src/ux_host_stack_interface_setting_select.c **** 
 139:Middlewares/ST/usbx/common/core/src/ux_host_stack_interface_setting_select.c ****                 /* Remember the main interface to store the next alternate setting.  */
 140:Middlewares/ST/usbx/common/core/src/ux_host_stack_interface_setting_select.c ****                 main_interface =  current_interface;
 141:Middlewares/ST/usbx/common/core/src/ux_host_stack_interface_setting_select.c **** 
 142:Middlewares/ST/usbx/common/core/src/ux_host_stack_interface_setting_select.c ****             }
 143:Middlewares/ST/usbx/common/core/src/ux_host_stack_interface_setting_select.c **** 
 144:Middlewares/ST/usbx/common/core/src/ux_host_stack_interface_setting_select.c ****             /* See if the current alternate setting matches that of the interface alternate setting
 145:Middlewares/ST/usbx/common/core/src/ux_host_stack_interface_setting_select.c ****             if (current_alternate_setting == current_interface -> ux_interface_descriptor.bAlternat
  82              		.loc 1 145 13 is_stmt 1 view .LVU23
ARM GAS  C:\Users\HP\AppData\Local\Temp\cc5BDObg.s 			page 5


  83              		.loc 1 145 16 is_stmt 0 view .LVU24
  84 001c AB42     		cmp	r3, r5
  85 001e 09D0     		beq	.L11
  86              	.L3:
 146:Middlewares/ST/usbx/common/core/src/ux_host_stack_interface_setting_select.c ****             {
 147:Middlewares/ST/usbx/common/core/src/ux_host_stack_interface_setting_select.c **** 
 148:Middlewares/ST/usbx/common/core/src/ux_host_stack_interface_setting_select.c ****                 /* Yes, save the current alternate setting.  */
 149:Middlewares/ST/usbx/common/core/src/ux_host_stack_interface_setting_select.c ****                 previous_interface = current_interface;
 150:Middlewares/ST/usbx/common/core/src/ux_host_stack_interface_setting_select.c **** 
 151:Middlewares/ST/usbx/common/core/src/ux_host_stack_interface_setting_select.c ****                 /* Then delete the current interface.  */
 152:Middlewares/ST/usbx/common/core/src/ux_host_stack_interface_setting_select.c ****                 _ux_host_stack_interface_instance_delete(current_interface);
 153:Middlewares/ST/usbx/common/core/src/ux_host_stack_interface_setting_select.c **** 
 154:Middlewares/ST/usbx/common/core/src/ux_host_stack_interface_setting_select.c ****                 /* We are done in this loop.  */
 155:Middlewares/ST/usbx/common/core/src/ux_host_stack_interface_setting_select.c ****                 break;
 156:Middlewares/ST/usbx/common/core/src/ux_host_stack_interface_setting_select.c **** 
 157:Middlewares/ST/usbx/common/core/src/ux_host_stack_interface_setting_select.c ****             }
 158:Middlewares/ST/usbx/common/core/src/ux_host_stack_interface_setting_select.c ****         }                    
 159:Middlewares/ST/usbx/common/core/src/ux_host_stack_interface_setting_select.c **** 
 160:Middlewares/ST/usbx/common/core/src/ux_host_stack_interface_setting_select.c ****         /* Move to the next interface. */
 161:Middlewares/ST/usbx/common/core/src/ux_host_stack_interface_setting_select.c ****         current_interface =  current_interface -> ux_interface_next_interface;
  87              		.loc 1 161 9 is_stmt 1 view .LVU25
  88              		.loc 1 161 27 is_stmt 0 view .LVU26
  89 0020 E46B     		ldr	r4, [r4, #60]
  90              	.LVL5:
 123:Middlewares/ST/usbx/common/core/src/ux_host_stack_interface_setting_select.c ****     {
  91              		.loc 1 123 11 is_stmt 1 view .LVU27
  92              	.L7:
 123:Middlewares/ST/usbx/common/core/src/ux_host_stack_interface_setting_select.c ****     {
  93              		.loc 1 123 5 view .LVU28
 128:Middlewares/ST/usbx/common/core/src/ux_host_stack_interface_setting_select.c ****         {
  94              		.loc 1 128 9 view .LVU29
 128:Middlewares/ST/usbx/common/core/src/ux_host_stack_interface_setting_select.c ****         {
  95              		.loc 1 128 57 is_stmt 0 view .LVU30
  96 0022 6369     		ldr	r3, [r4, #20]
 128:Middlewares/ST/usbx/common/core/src/ux_host_stack_interface_setting_select.c ****         {
  97              		.loc 1 128 12 view .LVU31
  98 0024 9342     		cmp	r3, r2
  99 0026 FBD1     		bne	.L3
 133:Middlewares/ST/usbx/common/core/src/ux_host_stack_interface_setting_select.c ****             {
 100              		.loc 1 133 13 is_stmt 1 view .LVU32
 133:Middlewares/ST/usbx/common/core/src/ux_host_stack_interface_setting_select.c ****             {
 101              		.loc 1 133 61 is_stmt 0 view .LVU33
 102 0028 A369     		ldr	r3, [r4, #24]
 133:Middlewares/ST/usbx/common/core/src/ux_host_stack_interface_setting_select.c ****             {
 103              		.loc 1 133 16 view .LVU34
 104 002a 002B     		cmp	r3, #0
 105 002c F6D1     		bne	.L4
 137:Middlewares/ST/usbx/common/core/src/ux_host_stack_interface_setting_select.c **** 
 106              		.loc 1 137 17 is_stmt 1 view .LVU35
 137:Middlewares/ST/usbx/common/core/src/ux_host_stack_interface_setting_select.c **** 
 107              		.loc 1 137 43 is_stmt 0 view .LVU36
 108 002e A568     		ldr	r5, [r4, #8]
 109              	.LVL6:
 140:Middlewares/ST/usbx/common/core/src/ux_host_stack_interface_setting_select.c **** 
 110              		.loc 1 140 17 is_stmt 1 view .LVU37
 140:Middlewares/ST/usbx/common/core/src/ux_host_stack_interface_setting_select.c **** 
 111              		.loc 1 140 32 is_stmt 0 view .LVU38
ARM GAS  C:\Users\HP\AppData\Local\Temp\cc5BDObg.s 			page 6


 112 0030 2746     		mov	r7, r4
 113 0032 F3E7     		b	.L4
 114              	.LVL7:
 115              	.L11:
 149:Middlewares/ST/usbx/common/core/src/ux_host_stack_interface_setting_select.c **** 
 116              		.loc 1 149 17 is_stmt 1 view .LVU39
 152:Middlewares/ST/usbx/common/core/src/ux_host_stack_interface_setting_select.c **** 
 117              		.loc 1 152 17 view .LVU40
 118 0034 2046     		mov	r0, r4
 119              	.LVL8:
 152:Middlewares/ST/usbx/common/core/src/ux_host_stack_interface_setting_select.c **** 
 120              		.loc 1 152 17 is_stmt 0 view .LVU41
 121 0036 FFF7FEFF 		bl	_ux_host_stack_interface_instance_delete
 122              	.LVL9:
 155:Middlewares/ST/usbx/common/core/src/ux_host_stack_interface_setting_select.c **** 
 123              		.loc 1 155 17 is_stmt 1 view .LVU42
 162:Middlewares/ST/usbx/common/core/src/ux_host_stack_interface_setting_select.c ****     }
 163:Middlewares/ST/usbx/common/core/src/ux_host_stack_interface_setting_select.c **** 
 164:Middlewares/ST/usbx/common/core/src/ux_host_stack_interface_setting_select.c ****     /* Remember the new alternate setting.  */
 165:Middlewares/ST/usbx/common/core/src/ux_host_stack_interface_setting_select.c ****     main_interface -> ux_interface_current_alternate_setting =  interface_ptr -> ux_interface_descr
 124              		.loc 1 165 5 view .LVU43
 125              		.loc 1 165 105 is_stmt 0 view .LVU44
 126 003a B369     		ldr	r3, [r6, #24]
 127              		.loc 1 165 62 view .LVU45
 128 003c BB60     		str	r3, [r7, #8]
 166:Middlewares/ST/usbx/common/core/src/ux_host_stack_interface_setting_select.c **** 
 167:Middlewares/ST/usbx/common/core/src/ux_host_stack_interface_setting_select.c ****     /* Now, the interface must be created with the new alternate setting.  */
 168:Middlewares/ST/usbx/common/core/src/ux_host_stack_interface_setting_select.c ****     status =  _ux_host_stack_interface_instance_create(interface_ptr);
 129              		.loc 1 168 5 is_stmt 1 view .LVU46
 130              		.loc 1 168 15 is_stmt 0 view .LVU47
 131 003e 3046     		mov	r0, r6
 132 0040 FFF7FEFF 		bl	_ux_host_stack_interface_instance_create
 133              	.LVL10:
 169:Middlewares/ST/usbx/common/core/src/ux_host_stack_interface_setting_select.c **** 
 170:Middlewares/ST/usbx/common/core/src/ux_host_stack_interface_setting_select.c ****     /* If we could not create it, we return to the default one.  */
 171:Middlewares/ST/usbx/common/core/src/ux_host_stack_interface_setting_select.c ****     if (status != UX_SUCCESS)
 134              		.loc 1 171 5 is_stmt 1 view .LVU48
 135              		.loc 1 171 8 is_stmt 0 view .LVU49
 136 0044 8146     		mov	r9, r0
 137 0046 D0B9     		cbnz	r0, .L12
 172:Middlewares/ST/usbx/common/core/src/ux_host_stack_interface_setting_select.c ****     {
 173:Middlewares/ST/usbx/common/core/src/ux_host_stack_interface_setting_select.c **** 
 174:Middlewares/ST/usbx/common/core/src/ux_host_stack_interface_setting_select.c ****         /* Then delete the failed interface.  */
 175:Middlewares/ST/usbx/common/core/src/ux_host_stack_interface_setting_select.c ****         _ux_host_stack_interface_instance_delete(interface_ptr);
 176:Middlewares/ST/usbx/common/core/src/ux_host_stack_interface_setting_select.c **** 
 177:Middlewares/ST/usbx/common/core/src/ux_host_stack_interface_setting_select.c ****         /* Error, reset the main interface alternate setting to the default.  */
 178:Middlewares/ST/usbx/common/core/src/ux_host_stack_interface_setting_select.c ****         main_interface -> ux_interface_current_alternate_setting =  current_alternate_setting;
 179:Middlewares/ST/usbx/common/core/src/ux_host_stack_interface_setting_select.c **** 
 180:Middlewares/ST/usbx/common/core/src/ux_host_stack_interface_setting_select.c ****         /* Re-create the previous interface with the old alternate setting.  */
 181:Middlewares/ST/usbx/common/core/src/ux_host_stack_interface_setting_select.c ****         _ux_host_stack_interface_instance_create(previous_interface);
 182:Middlewares/ST/usbx/common/core/src/ux_host_stack_interface_setting_select.c **** 
 183:Middlewares/ST/usbx/common/core/src/ux_host_stack_interface_setting_select.c ****         /* Return error status.  */
 184:Middlewares/ST/usbx/common/core/src/ux_host_stack_interface_setting_select.c ****         return(status);
 185:Middlewares/ST/usbx/common/core/src/ux_host_stack_interface_setting_select.c ****     }
 186:Middlewares/ST/usbx/common/core/src/ux_host_stack_interface_setting_select.c **** 
 187:Middlewares/ST/usbx/common/core/src/ux_host_stack_interface_setting_select.c ****     /* Protect the control endpoint semaphore here.  It will be unprotected in the
 188:Middlewares/ST/usbx/common/core/src/ux_host_stack_interface_setting_select.c ****        transfer request function.  */
ARM GAS  C:\Users\HP\AppData\Local\Temp\cc5BDObg.s 			page 7


 189:Middlewares/ST/usbx/common/core/src/ux_host_stack_interface_setting_select.c ****     status =  _ux_host_semaphore_get(&configuration -> ux_configuration_device -> ux_device_protect
 138              		.loc 1 189 5 is_stmt 1 view .LVU50
 139              		.loc 1 189 53 is_stmt 0 view .LVU51
 140 0048 D8F83400 		ldr	r0, [r8, #52]
 141              	.LVL11:
 142              		.loc 1 189 15 view .LVU52
 143 004c 4FF0FF31 		mov	r1, #-1
 144 0050 2430     		adds	r0, r0, #36
 145 0052 FFF7FEFF 		bl	_ux_utility_semaphore_get
 146              	.LVL12:
 190:Middlewares/ST/usbx/common/core/src/ux_host_stack_interface_setting_select.c ****     if (status != UX_SUCCESS)
 147              		.loc 1 190 5 is_stmt 1 view .LVU53
 148              		.loc 1 190 8 is_stmt 0 view .LVU54
 149 0056 8146     		mov	r9, r0
 150 0058 D8B9     		cbnz	r0, .L1
 191:Middlewares/ST/usbx/common/core/src/ux_host_stack_interface_setting_select.c ****         return(status);
 192:Middlewares/ST/usbx/common/core/src/ux_host_stack_interface_setting_select.c **** 
 193:Middlewares/ST/usbx/common/core/src/ux_host_stack_interface_setting_select.c ****     /* Issue a SET_INTERFACE command to the target device.  */
 194:Middlewares/ST/usbx/common/core/src/ux_host_stack_interface_setting_select.c ****     status =  _ux_host_stack_interface_set(interface_ptr);
 151              		.loc 1 194 5 is_stmt 1 view .LVU55
 152              		.loc 1 194 15 is_stmt 0 view .LVU56
 153 005a 3046     		mov	r0, r6
 154              	.LVL13:
 155              		.loc 1 194 15 view .LVU57
 156 005c FFF7FEFF 		bl	_ux_host_stack_interface_set
 157              	.LVL14:
 195:Middlewares/ST/usbx/common/core/src/ux_host_stack_interface_setting_select.c **** 
 196:Middlewares/ST/usbx/common/core/src/ux_host_stack_interface_setting_select.c ****     /* Check completion status.  */
 197:Middlewares/ST/usbx/common/core/src/ux_host_stack_interface_setting_select.c ****     if (status != UX_SUCCESS)
 158              		.loc 1 197 5 is_stmt 1 view .LVU58
 159              		.loc 1 197 8 is_stmt 0 view .LVU59
 160 0060 8146     		mov	r9, r0
 161 0062 B0B1     		cbz	r0, .L1
 198:Middlewares/ST/usbx/common/core/src/ux_host_stack_interface_setting_select.c ****     {
 199:Middlewares/ST/usbx/common/core/src/ux_host_stack_interface_setting_select.c **** 
 200:Middlewares/ST/usbx/common/core/src/ux_host_stack_interface_setting_select.c ****         /* Error, reset the main interface alternate setting to the default.  */
 201:Middlewares/ST/usbx/common/core/src/ux_host_stack_interface_setting_select.c ****         main_interface -> ux_interface_current_alternate_setting =  current_alternate_setting;
 162              		.loc 1 201 9 is_stmt 1 view .LVU60
 163              		.loc 1 201 66 is_stmt 0 view .LVU61
 164 0064 BD60     		str	r5, [r7, #8]
 202:Middlewares/ST/usbx/common/core/src/ux_host_stack_interface_setting_select.c **** 
 203:Middlewares/ST/usbx/common/core/src/ux_host_stack_interface_setting_select.c ****         /* Delete the current interface.  */
 204:Middlewares/ST/usbx/common/core/src/ux_host_stack_interface_setting_select.c ****         _ux_host_stack_interface_instance_delete(interface_ptr);
 165              		.loc 1 204 9 is_stmt 1 view .LVU62
 166 0066 3046     		mov	r0, r6
 167              	.LVL15:
 168              		.loc 1 204 9 is_stmt 0 view .LVU63
 169 0068 FFF7FEFF 		bl	_ux_host_stack_interface_instance_delete
 170              	.LVL16:
 205:Middlewares/ST/usbx/common/core/src/ux_host_stack_interface_setting_select.c **** 
 206:Middlewares/ST/usbx/common/core/src/ux_host_stack_interface_setting_select.c ****         /* Re-create the previous interface with the old alternate setting.  */
 207:Middlewares/ST/usbx/common/core/src/ux_host_stack_interface_setting_select.c ****         _ux_host_stack_interface_instance_create(previous_interface);
 171              		.loc 1 207 9 is_stmt 1 view .LVU64
 172 006c 2046     		mov	r0, r4
 173 006e FFF7FEFF 		bl	_ux_host_stack_interface_instance_create
 174              	.LVL17:
 208:Middlewares/ST/usbx/common/core/src/ux_host_stack_interface_setting_select.c **** 
ARM GAS  C:\Users\HP\AppData\Local\Temp\cc5BDObg.s 			page 8


 209:Middlewares/ST/usbx/common/core/src/ux_host_stack_interface_setting_select.c ****         /* Return error status.  */
 210:Middlewares/ST/usbx/common/core/src/ux_host_stack_interface_setting_select.c ****         _ux_host_semaphore_put(&configuration -> ux_configuration_device -> ux_device_protection_se
 175              		.loc 1 210 9 view .LVU65
 176              		.loc 1 210 47 is_stmt 0 view .LVU66
 177 0072 D8F83400 		ldr	r0, [r8, #52]
 178              		.loc 1 210 9 view .LVU67
 179 0076 2430     		adds	r0, r0, #36
 180 0078 FFF7FEFF 		bl	_ux_utility_semaphore_put
 181              	.LVL18:
 211:Middlewares/ST/usbx/common/core/src/ux_host_stack_interface_setting_select.c ****         return(status);
 182              		.loc 1 211 9 is_stmt 1 view .LVU68
 183              		.loc 1 211 15 is_stmt 0 view .LVU69
 184 007c 09E0     		b	.L1
 185              	.LVL19:
 186              	.L12:
 175:Middlewares/ST/usbx/common/core/src/ux_host_stack_interface_setting_select.c **** 
 187              		.loc 1 175 9 is_stmt 1 view .LVU70
 188 007e 3046     		mov	r0, r6
 189              	.LVL20:
 175:Middlewares/ST/usbx/common/core/src/ux_host_stack_interface_setting_select.c **** 
 190              		.loc 1 175 9 is_stmt 0 view .LVU71
 191 0080 FFF7FEFF 		bl	_ux_host_stack_interface_instance_delete
 192              	.LVL21:
 178:Middlewares/ST/usbx/common/core/src/ux_host_stack_interface_setting_select.c **** 
 193              		.loc 1 178 9 is_stmt 1 view .LVU72
 178:Middlewares/ST/usbx/common/core/src/ux_host_stack_interface_setting_select.c **** 
 194              		.loc 1 178 66 is_stmt 0 view .LVU73
 195 0084 BD60     		str	r5, [r7, #8]
 181:Middlewares/ST/usbx/common/core/src/ux_host_stack_interface_setting_select.c **** 
 196              		.loc 1 181 9 is_stmt 1 view .LVU74
 197 0086 2046     		mov	r0, r4
 198 0088 FFF7FEFF 		bl	_ux_host_stack_interface_instance_create
 199              	.LVL22:
 184:Middlewares/ST/usbx/common/core/src/ux_host_stack_interface_setting_select.c ****     }
 200              		.loc 1 184 9 view .LVU75
 184:Middlewares/ST/usbx/common/core/src/ux_host_stack_interface_setting_select.c ****     }
 201              		.loc 1 184 15 is_stmt 0 view .LVU76
 202 008c 01E0     		b	.L1
 203              	.LVL23:
 204              	.L8:
 101:Middlewares/ST/usbx/common/core/src/ux_host_stack_interface_setting_select.c ****     }
 205              		.loc 1 101 15 view .LVU77
 206 008e 4FF05209 		mov	r9, #82
 207              	.LVL24:
 208              	.L1:
 212:Middlewares/ST/usbx/common/core/src/ux_host_stack_interface_setting_select.c ****     }
 213:Middlewares/ST/usbx/common/core/src/ux_host_stack_interface_setting_select.c ****     
 214:Middlewares/ST/usbx/common/core/src/ux_host_stack_interface_setting_select.c ****     /* Return to caller.  */
 215:Middlewares/ST/usbx/common/core/src/ux_host_stack_interface_setting_select.c ****     return(status);
 216:Middlewares/ST/usbx/common/core/src/ux_host_stack_interface_setting_select.c **** }
 209              		.loc 1 216 1 view .LVU78
 210 0092 4846     		mov	r0, r9
 211 0094 BDE8F883 		pop	{r3, r4, r5, r6, r7, r8, r9, pc}
 212              		.cfi_endproc
 213              	.LFE11:
 215              		.text
 216              	.Letext0:
ARM GAS  C:\Users\HP\AppData\Local\Temp\cc5BDObg.s 			page 9


 217              		.file 2 "Middlewares/ST/threadx/ports/cortex_m4/gnu/inc/tx_port.h"
 218              		.file 3 "Middlewares/ST/threadx/common/inc/tx_api.h"
 219              		.file 4 "Middlewares/ST/usbx/common/core/inc/ux_api.h"
 220              		.file 5 "Middlewares/ST/usbx/common/core/inc/ux_host_stack.h"
 221              		.file 6 "Middlewares/ST/usbx/common/core/inc/ux_utility.h"
ARM GAS  C:\Users\HP\AppData\Local\Temp\cc5BDObg.s 			page 10

