ARM GAS  C:\Users\HP\AppData\Local\Temp\ccod6KFf.s 			page 1


   1              		.cpu cortex-m4
   2              		.arch armv7e-m
   3              		.fpu fpv4-sp-d16
   4              		.eabi_attribute 27, 1
   5              		.eabi_attribute 28, 1
   6              		.eabi_attribute 20, 1
   7              		.eabi_attribute 21, 1
   8              		.eabi_attribute 23, 3
   9              		.eabi_attribute 24, 1
  10              		.eabi_attribute 25, 1
  11              		.eabi_attribute 26, 1
  12              		.eabi_attribute 30, 1
  13              		.eabi_attribute 34, 1
  14              		.eabi_attribute 18, 4
  15              		.file	"ux_host_class_storage_max_lun_get.c"
  16              		.text
  17              	.Ltext0:
  18              		.cfi_sections	.debug_frame
  19              		.section	.text._ux_host_class_storage_max_lun_get,"ax",%progbits
  20              		.align	1
  21              		.global	_ux_host_class_storage_max_lun_get
  22              		.syntax unified
  23              		.thumb
  24              		.thumb_func
  26              	_ux_host_class_storage_max_lun_get:
  27              	.LVL0:
  28              	.LFB11:
  29              		.file 1 "Middlewares/ST/usbx/common/usbx_host_classes/src/ux_host_class_storage_max_lun_get.c"
   1:Middlewares/ST/usbx/common/usbx_host_classes/src/ux_host_class_storage_max_lun_get.c **** /**************************************************************************/
   2:Middlewares/ST/usbx/common/usbx_host_classes/src/ux_host_class_storage_max_lun_get.c **** /*                                                                        */
   3:Middlewares/ST/usbx/common/usbx_host_classes/src/ux_host_class_storage_max_lun_get.c **** /*       Copyright (c) Microsoft Corporation. All rights reserved.        */
   4:Middlewares/ST/usbx/common/usbx_host_classes/src/ux_host_class_storage_max_lun_get.c **** /*                                                                        */
   5:Middlewares/ST/usbx/common/usbx_host_classes/src/ux_host_class_storage_max_lun_get.c **** /*       This software is licensed under the Microsoft Software License   */
   6:Middlewares/ST/usbx/common/usbx_host_classes/src/ux_host_class_storage_max_lun_get.c **** /*       Terms for Microsoft Azure RTOS. Full text of the license can be  */
   7:Middlewares/ST/usbx/common/usbx_host_classes/src/ux_host_class_storage_max_lun_get.c **** /*       found in the LICENSE file at https://aka.ms/AzureRTOS_EULA       */
   8:Middlewares/ST/usbx/common/usbx_host_classes/src/ux_host_class_storage_max_lun_get.c **** /*       and in the root directory of this software.                      */
   9:Middlewares/ST/usbx/common/usbx_host_classes/src/ux_host_class_storage_max_lun_get.c **** /*                                                                        */
  10:Middlewares/ST/usbx/common/usbx_host_classes/src/ux_host_class_storage_max_lun_get.c **** /**************************************************************************/
  11:Middlewares/ST/usbx/common/usbx_host_classes/src/ux_host_class_storage_max_lun_get.c **** 
  12:Middlewares/ST/usbx/common/usbx_host_classes/src/ux_host_class_storage_max_lun_get.c **** 
  13:Middlewares/ST/usbx/common/usbx_host_classes/src/ux_host_class_storage_max_lun_get.c **** /**************************************************************************/
  14:Middlewares/ST/usbx/common/usbx_host_classes/src/ux_host_class_storage_max_lun_get.c **** /**************************************************************************/
  15:Middlewares/ST/usbx/common/usbx_host_classes/src/ux_host_class_storage_max_lun_get.c **** /**                                                                       */
  16:Middlewares/ST/usbx/common/usbx_host_classes/src/ux_host_class_storage_max_lun_get.c **** /** USBX Component                                                        */
  17:Middlewares/ST/usbx/common/usbx_host_classes/src/ux_host_class_storage_max_lun_get.c **** /**                                                                       */
  18:Middlewares/ST/usbx/common/usbx_host_classes/src/ux_host_class_storage_max_lun_get.c **** /**   Storage Class                                                       */
  19:Middlewares/ST/usbx/common/usbx_host_classes/src/ux_host_class_storage_max_lun_get.c **** /**                                                                       */
  20:Middlewares/ST/usbx/common/usbx_host_classes/src/ux_host_class_storage_max_lun_get.c **** /**************************************************************************/
  21:Middlewares/ST/usbx/common/usbx_host_classes/src/ux_host_class_storage_max_lun_get.c **** /**************************************************************************/
  22:Middlewares/ST/usbx/common/usbx_host_classes/src/ux_host_class_storage_max_lun_get.c **** 
  23:Middlewares/ST/usbx/common/usbx_host_classes/src/ux_host_class_storage_max_lun_get.c **** 
  24:Middlewares/ST/usbx/common/usbx_host_classes/src/ux_host_class_storage_max_lun_get.c **** /* Include necessary system files.  */
  25:Middlewares/ST/usbx/common/usbx_host_classes/src/ux_host_class_storage_max_lun_get.c **** 
  26:Middlewares/ST/usbx/common/usbx_host_classes/src/ux_host_class_storage_max_lun_get.c **** #define UX_SOURCE_CODE
  27:Middlewares/ST/usbx/common/usbx_host_classes/src/ux_host_class_storage_max_lun_get.c **** 
  28:Middlewares/ST/usbx/common/usbx_host_classes/src/ux_host_class_storage_max_lun_get.c **** #include "ux_api.h"
  29:Middlewares/ST/usbx/common/usbx_host_classes/src/ux_host_class_storage_max_lun_get.c **** #include "ux_host_class_storage.h"
ARM GAS  C:\Users\HP\AppData\Local\Temp\ccod6KFf.s 			page 2


  30:Middlewares/ST/usbx/common/usbx_host_classes/src/ux_host_class_storage_max_lun_get.c **** #include "ux_host_stack.h"
  31:Middlewares/ST/usbx/common/usbx_host_classes/src/ux_host_class_storage_max_lun_get.c **** 
  32:Middlewares/ST/usbx/common/usbx_host_classes/src/ux_host_class_storage_max_lun_get.c **** 
  33:Middlewares/ST/usbx/common/usbx_host_classes/src/ux_host_class_storage_max_lun_get.c **** /**************************************************************************/
  34:Middlewares/ST/usbx/common/usbx_host_classes/src/ux_host_class_storage_max_lun_get.c **** /*                                                                        */
  35:Middlewares/ST/usbx/common/usbx_host_classes/src/ux_host_class_storage_max_lun_get.c **** /*  FUNCTION                                               RELEASE        */
  36:Middlewares/ST/usbx/common/usbx_host_classes/src/ux_host_class_storage_max_lun_get.c **** /*                                                                        */
  37:Middlewares/ST/usbx/common/usbx_host_classes/src/ux_host_class_storage_max_lun_get.c **** /*    _ux_host_class_storage_max_lun_get                  PORTABLE C      */
  38:Middlewares/ST/usbx/common/usbx_host_classes/src/ux_host_class_storage_max_lun_get.c **** /*                                                           6.1.10       */
  39:Middlewares/ST/usbx/common/usbx_host_classes/src/ux_host_class_storage_max_lun_get.c **** /*  AUTHOR                                                                */
  40:Middlewares/ST/usbx/common/usbx_host_classes/src/ux_host_class_storage_max_lun_get.c **** /*                                                                        */
  41:Middlewares/ST/usbx/common/usbx_host_classes/src/ux_host_class_storage_max_lun_get.c **** /*    Chaoqiong Xiao, Microsoft Corporation                               */
  42:Middlewares/ST/usbx/common/usbx_host_classes/src/ux_host_class_storage_max_lun_get.c **** /*                                                                        */
  43:Middlewares/ST/usbx/common/usbx_host_classes/src/ux_host_class_storage_max_lun_get.c **** /*  DESCRIPTION                                                           */
  44:Middlewares/ST/usbx/common/usbx_host_classes/src/ux_host_class_storage_max_lun_get.c **** /*                                                                        */
  45:Middlewares/ST/usbx/common/usbx_host_classes/src/ux_host_class_storage_max_lun_get.c **** /*    This function retrieves the maximum number of LUNs from the device. */
  46:Middlewares/ST/usbx/common/usbx_host_classes/src/ux_host_class_storage_max_lun_get.c **** /*                                                                        */
  47:Middlewares/ST/usbx/common/usbx_host_classes/src/ux_host_class_storage_max_lun_get.c **** /*  INPUT                                                                 */
  48:Middlewares/ST/usbx/common/usbx_host_classes/src/ux_host_class_storage_max_lun_get.c **** /*                                                                        */
  49:Middlewares/ST/usbx/common/usbx_host_classes/src/ux_host_class_storage_max_lun_get.c **** /*    storage                               Pointer to storage class      */
  50:Middlewares/ST/usbx/common/usbx_host_classes/src/ux_host_class_storage_max_lun_get.c **** /*                                                                        */
  51:Middlewares/ST/usbx/common/usbx_host_classes/src/ux_host_class_storage_max_lun_get.c **** /*  OUTPUT                                                                */
  52:Middlewares/ST/usbx/common/usbx_host_classes/src/ux_host_class_storage_max_lun_get.c **** /*                                                                        */
  53:Middlewares/ST/usbx/common/usbx_host_classes/src/ux_host_class_storage_max_lun_get.c **** /*    Completion Status                                                   */
  54:Middlewares/ST/usbx/common/usbx_host_classes/src/ux_host_class_storage_max_lun_get.c **** /*                                                                        */
  55:Middlewares/ST/usbx/common/usbx_host_classes/src/ux_host_class_storage_max_lun_get.c **** /*  CALLS                                                                 */
  56:Middlewares/ST/usbx/common/usbx_host_classes/src/ux_host_class_storage_max_lun_get.c **** /*                                                                        */
  57:Middlewares/ST/usbx/common/usbx_host_classes/src/ux_host_class_storage_max_lun_get.c **** /*    _ux_host_stack_transfer_request       Process transfer request      */
  58:Middlewares/ST/usbx/common/usbx_host_classes/src/ux_host_class_storage_max_lun_get.c **** /*    _ux_utility_memory_allocate           Allocate memory block         */
  59:Middlewares/ST/usbx/common/usbx_host_classes/src/ux_host_class_storage_max_lun_get.c **** /*    _ux_utility_memory_free               Release memory block          */
  60:Middlewares/ST/usbx/common/usbx_host_classes/src/ux_host_class_storage_max_lun_get.c **** /*    _ux_host_semaphore_get                Get semaphore                 */
  61:Middlewares/ST/usbx/common/usbx_host_classes/src/ux_host_class_storage_max_lun_get.c **** /*                                                                        */
  62:Middlewares/ST/usbx/common/usbx_host_classes/src/ux_host_class_storage_max_lun_get.c **** /*  CALLED BY                                                             */
  63:Middlewares/ST/usbx/common/usbx_host_classes/src/ux_host_class_storage_max_lun_get.c **** /*                                                                        */
  64:Middlewares/ST/usbx/common/usbx_host_classes/src/ux_host_class_storage_max_lun_get.c **** /*    Storage Class                                                       */
  65:Middlewares/ST/usbx/common/usbx_host_classes/src/ux_host_class_storage_max_lun_get.c **** /*                                                                        */
  66:Middlewares/ST/usbx/common/usbx_host_classes/src/ux_host_class_storage_max_lun_get.c **** /*  RELEASE HISTORY                                                       */
  67:Middlewares/ST/usbx/common/usbx_host_classes/src/ux_host_class_storage_max_lun_get.c **** /*                                                                        */
  68:Middlewares/ST/usbx/common/usbx_host_classes/src/ux_host_class_storage_max_lun_get.c **** /*    DATE              NAME                      DESCRIPTION             */
  69:Middlewares/ST/usbx/common/usbx_host_classes/src/ux_host_class_storage_max_lun_get.c **** /*                                                                        */
  70:Middlewares/ST/usbx/common/usbx_host_classes/src/ux_host_class_storage_max_lun_get.c **** /*  05-19-2020     Chaoqiong Xiao           Initial Version 6.0           */
  71:Middlewares/ST/usbx/common/usbx_host_classes/src/ux_host_class_storage_max_lun_get.c **** /*  09-30-2020     Chaoqiong Xiao           Modified comment(s),          */
  72:Middlewares/ST/usbx/common/usbx_host_classes/src/ux_host_class_storage_max_lun_get.c **** /*                                            resulting in version 6.1    */
  73:Middlewares/ST/usbx/common/usbx_host_classes/src/ux_host_class_storage_max_lun_get.c **** /*  01-31-2022     Chaoqiong Xiao           Modified comment(s),          */
  74:Middlewares/ST/usbx/common/usbx_host_classes/src/ux_host_class_storage_max_lun_get.c **** /*                                            added standalone support,   */
  75:Middlewares/ST/usbx/common/usbx_host_classes/src/ux_host_class_storage_max_lun_get.c **** /*                                            resulting in version 6.1.10 */
  76:Middlewares/ST/usbx/common/usbx_host_classes/src/ux_host_class_storage_max_lun_get.c **** /*                                                                        */
  77:Middlewares/ST/usbx/common/usbx_host_classes/src/ux_host_class_storage_max_lun_get.c **** /**************************************************************************/
  78:Middlewares/ST/usbx/common/usbx_host_classes/src/ux_host_class_storage_max_lun_get.c **** UINT  _ux_host_class_storage_max_lun_get(UX_HOST_CLASS_STORAGE *storage)
  79:Middlewares/ST/usbx/common/usbx_host_classes/src/ux_host_class_storage_max_lun_get.c **** {
  30              		.loc 1 79 1 view -0
  31              		.cfi_startproc
  32              		@ args = 0, pretend = 0, frame = 0
  33              		@ frame_needed = 0, uses_anonymous_args = 0
  34              		.loc 1 79 1 is_stmt 0 view .LVU1
  35 0000 2DE9F041 		push	{r4, r5, r6, r7, r8, lr}
  36              	.LCFI0:
ARM GAS  C:\Users\HP\AppData\Local\Temp\ccod6KFf.s 			page 3


  37              		.cfi_def_cfa_offset 24
  38              		.cfi_offset 4, -24
  39              		.cfi_offset 5, -20
  40              		.cfi_offset 6, -16
  41              		.cfi_offset 7, -12
  42              		.cfi_offset 8, -8
  43              		.cfi_offset 14, -4
  44 0004 0546     		mov	r5, r0
  80:Middlewares/ST/usbx/common/usbx_host_classes/src/ux_host_class_storage_max_lun_get.c **** 
  81:Middlewares/ST/usbx/common/usbx_host_classes/src/ux_host_class_storage_max_lun_get.c **** UX_ENDPOINT     *control_endpoint;
  45              		.loc 1 81 1 is_stmt 1 view .LVU2
  82:Middlewares/ST/usbx/common/usbx_host_classes/src/ux_host_class_storage_max_lun_get.c **** UX_TRANSFER     *transfer_request;
  46              		.loc 1 82 1 view .LVU3
  83:Middlewares/ST/usbx/common/usbx_host_classes/src/ux_host_class_storage_max_lun_get.c **** UINT            status;
  47              		.loc 1 83 1 view .LVU4
  84:Middlewares/ST/usbx/common/usbx_host_classes/src/ux_host_class_storage_max_lun_get.c **** UCHAR           *storage_data_buffer;
  48              		.loc 1 84 1 view .LVU5
  85:Middlewares/ST/usbx/common/usbx_host_classes/src/ux_host_class_storage_max_lun_get.c **** 
  86:Middlewares/ST/usbx/common/usbx_host_classes/src/ux_host_class_storage_max_lun_get.c **** 
  87:Middlewares/ST/usbx/common/usbx_host_classes/src/ux_host_class_storage_max_lun_get.c ****     /* In the case of non BO device or an error on the command the number of lun should be
  88:Middlewares/ST/usbx/common/usbx_host_classes/src/ux_host_class_storage_max_lun_get.c ****        set to 0, indicating 1 lun.  */
  89:Middlewares/ST/usbx/common/usbx_host_classes/src/ux_host_class_storage_max_lun_get.c ****     storage -> ux_host_class_storage_max_lun =  0;
  49              		.loc 1 89 5 view .LVU6
  50              		.loc 1 89 46 is_stmt 0 view .LVU7
  51 0006 0023     		movs	r3, #0
  52 0008 C367     		str	r3, [r0, #124]
  90:Middlewares/ST/usbx/common/usbx_host_classes/src/ux_host_class_storage_max_lun_get.c **** 
  91:Middlewares/ST/usbx/common/usbx_host_classes/src/ux_host_class_storage_max_lun_get.c **** #ifdef UX_HOST_CLASS_STORAGE_INCLUDE_LEGACY_PROTOCOL_SUPPORT
  92:Middlewares/ST/usbx/common/usbx_host_classes/src/ux_host_class_storage_max_lun_get.c ****     /* Check the device type. */
  93:Middlewares/ST/usbx/common/usbx_host_classes/src/ux_host_class_storage_max_lun_get.c ****     if (storage -> ux_host_class_storage_interface -> ux_interface_descriptor.bInterfaceProtocol ==
  94:Middlewares/ST/usbx/common/usbx_host_classes/src/ux_host_class_storage_max_lun_get.c ****     {
  95:Middlewares/ST/usbx/common/usbx_host_classes/src/ux_host_class_storage_max_lun_get.c **** #endif
  96:Middlewares/ST/usbx/common/usbx_host_classes/src/ux_host_class_storage_max_lun_get.c **** 
  97:Middlewares/ST/usbx/common/usbx_host_classes/src/ux_host_class_storage_max_lun_get.c ****     /* We need to get the default control endpoint transfer_request pointer.  */
  98:Middlewares/ST/usbx/common/usbx_host_classes/src/ux_host_class_storage_max_lun_get.c ****     control_endpoint =  &storage -> ux_host_class_storage_device -> ux_device_control_endpoint;
  53              		.loc 1 98 5 is_stmt 1 view .LVU8
  54              		.loc 1 98 34 is_stmt 0 view .LVU9
  55 000a 8468     		ldr	r4, [r0, #8]
  56              	.LVL1:
  99:Middlewares/ST/usbx/common/usbx_host_classes/src/ux_host_class_storage_max_lun_get.c ****     transfer_request =  &control_endpoint -> ux_endpoint_transfer_request;
  57              		.loc 1 99 5 is_stmt 1 view .LVU10
 100:Middlewares/ST/usbx/common/usbx_host_classes/src/ux_host_class_storage_max_lun_get.c **** 
 101:Middlewares/ST/usbx/common/usbx_host_classes/src/ux_host_class_storage_max_lun_get.c ****     /* We need to prevent other threads from simultaneously using the control endpoint. */
 102:Middlewares/ST/usbx/common/usbx_host_classes/src/ux_host_class_storage_max_lun_get.c ****     status = _ux_host_semaphore_get(&control_endpoint -> ux_endpoint_device -> ux_device_protection
  58              		.loc 1 102 5 view .LVU11
  59              		.loc 1 102 55 is_stmt 0 view .LVU12
  60 000c D4F8B000 		ldr	r0, [r4, #176]
  61              	.LVL2:
  62              		.loc 1 102 14 view .LVU13
  63 0010 4FF0FF31 		mov	r1, #-1
  64 0014 2430     		adds	r0, r0, #36
  65 0016 FFF7FEFF 		bl	_ux_utility_semaphore_get
  66              	.LVL3:
 103:Middlewares/ST/usbx/common/usbx_host_classes/src/ux_host_class_storage_max_lun_get.c ****     if (status != UX_SUCCESS)
  67              		.loc 1 103 5 is_stmt 1 view .LVU14
  68              		.loc 1 103 8 is_stmt 0 view .LVU15
  69 001a 0646     		mov	r6, r0
ARM GAS  C:\Users\HP\AppData\Local\Temp\ccod6KFf.s 			page 4


  70 001c 10B1     		cbz	r0, .L6
  71              	.LVL4:
  72              	.L1:
 104:Middlewares/ST/usbx/common/usbx_host_classes/src/ux_host_class_storage_max_lun_get.c ****         return(status);
 105:Middlewares/ST/usbx/common/usbx_host_classes/src/ux_host_class_storage_max_lun_get.c **** 
 106:Middlewares/ST/usbx/common/usbx_host_classes/src/ux_host_class_storage_max_lun_get.c ****     /* Need to allocate memory for the descriptor.  */
 107:Middlewares/ST/usbx/common/usbx_host_classes/src/ux_host_class_storage_max_lun_get.c ****     storage_data_buffer =  _ux_utility_memory_allocate(UX_SAFE_ALIGN, UX_CACHE_SAFE_MEMORY, 1);
 108:Middlewares/ST/usbx/common/usbx_host_classes/src/ux_host_class_storage_max_lun_get.c ****     if (storage_data_buffer == UX_NULL)
 109:Middlewares/ST/usbx/common/usbx_host_classes/src/ux_host_class_storage_max_lun_get.c ****         return(UX_MEMORY_INSUFFICIENT);
 110:Middlewares/ST/usbx/common/usbx_host_classes/src/ux_host_class_storage_max_lun_get.c **** 
 111:Middlewares/ST/usbx/common/usbx_host_classes/src/ux_host_class_storage_max_lun_get.c ****     /* Create a transfer_request for the GET_MAX_LUN request.  */
 112:Middlewares/ST/usbx/common/usbx_host_classes/src/ux_host_class_storage_max_lun_get.c ****     transfer_request -> ux_transfer_request_data_pointer =      storage_data_buffer;
 113:Middlewares/ST/usbx/common/usbx_host_classes/src/ux_host_class_storage_max_lun_get.c ****     transfer_request -> ux_transfer_request_requested_length =  1;
 114:Middlewares/ST/usbx/common/usbx_host_classes/src/ux_host_class_storage_max_lun_get.c ****     transfer_request -> ux_transfer_request_function =          UX_HOST_CLASS_STORAGE_GET_MAX_LUN;
 115:Middlewares/ST/usbx/common/usbx_host_classes/src/ux_host_class_storage_max_lun_get.c ****     transfer_request -> ux_transfer_request_type =              UX_REQUEST_IN | UX_REQUEST_TYPE_CLA
 116:Middlewares/ST/usbx/common/usbx_host_classes/src/ux_host_class_storage_max_lun_get.c ****     transfer_request -> ux_transfer_request_value =             0;
 117:Middlewares/ST/usbx/common/usbx_host_classes/src/ux_host_class_storage_max_lun_get.c ****     transfer_request -> ux_transfer_request_index =             storage -> ux_host_class_storage_in
 118:Middlewares/ST/usbx/common/usbx_host_classes/src/ux_host_class_storage_max_lun_get.c **** 
 119:Middlewares/ST/usbx/common/usbx_host_classes/src/ux_host_class_storage_max_lun_get.c **** #if defined(UX_HOST_STANDALONE)
 120:Middlewares/ST/usbx/common/usbx_host_classes/src/ux_host_class_storage_max_lun_get.c ****     storage -> ux_host_class_storage_memory = storage_data_buffer;
 121:Middlewares/ST/usbx/common/usbx_host_classes/src/ux_host_class_storage_max_lun_get.c ****     storage -> ux_host_class_storage_trans = transfer_request;
 122:Middlewares/ST/usbx/common/usbx_host_classes/src/ux_host_class_storage_max_lun_get.c ****     storage -> ux_host_class_storage_state_state = UX_HOST_CLASS_STORAGE_STATE_TRANSFER;
 123:Middlewares/ST/usbx/common/usbx_host_classes/src/ux_host_class_storage_max_lun_get.c ****     storage -> ux_host_class_storage_state_next = UX_HOST_CLASS_STORAGE_STATE_MAX_LUN_SAVE;
 124:Middlewares/ST/usbx/common/usbx_host_classes/src/ux_host_class_storage_max_lun_get.c ****     UX_TRANSFER_STATE_RESET(transfer_request);
 125:Middlewares/ST/usbx/common/usbx_host_classes/src/ux_host_class_storage_max_lun_get.c **** #else
 126:Middlewares/ST/usbx/common/usbx_host_classes/src/ux_host_class_storage_max_lun_get.c **** 
 127:Middlewares/ST/usbx/common/usbx_host_classes/src/ux_host_class_storage_max_lun_get.c ****     /* Send request to HCD layer.  */
 128:Middlewares/ST/usbx/common/usbx_host_classes/src/ux_host_class_storage_max_lun_get.c ****     status =  _ux_host_stack_transfer_request(transfer_request);
 129:Middlewares/ST/usbx/common/usbx_host_classes/src/ux_host_class_storage_max_lun_get.c **** 
 130:Middlewares/ST/usbx/common/usbx_host_classes/src/ux_host_class_storage_max_lun_get.c ****     /* Check for correct transfer and entire descriptor returned.  */
 131:Middlewares/ST/usbx/common/usbx_host_classes/src/ux_host_class_storage_max_lun_get.c ****     if ((status == UX_SUCCESS) && (transfer_request -> ux_transfer_request_actual_length == 1))
 132:Middlewares/ST/usbx/common/usbx_host_classes/src/ux_host_class_storage_max_lun_get.c ****     {
 133:Middlewares/ST/usbx/common/usbx_host_classes/src/ux_host_class_storage_max_lun_get.c **** 
 134:Middlewares/ST/usbx/common/usbx_host_classes/src/ux_host_class_storage_max_lun_get.c ****         /* Retrieve the number of max LUN for this device.  */
 135:Middlewares/ST/usbx/common/usbx_host_classes/src/ux_host_class_storage_max_lun_get.c ****         storage -> ux_host_class_storage_max_lun =  *storage_data_buffer;
 136:Middlewares/ST/usbx/common/usbx_host_classes/src/ux_host_class_storage_max_lun_get.c **** 
 137:Middlewares/ST/usbx/common/usbx_host_classes/src/ux_host_class_storage_max_lun_get.c ****         /* Is the max LUN index greater than our LUN array's?  */
 138:Middlewares/ST/usbx/common/usbx_host_classes/src/ux_host_class_storage_max_lun_get.c ****         if (storage -> ux_host_class_storage_max_lun > UX_MAX_HOST_LUN - 1)
 139:Middlewares/ST/usbx/common/usbx_host_classes/src/ux_host_class_storage_max_lun_get.c ****         {
 140:Middlewares/ST/usbx/common/usbx_host_classes/src/ux_host_class_storage_max_lun_get.c **** 
 141:Middlewares/ST/usbx/common/usbx_host_classes/src/ux_host_class_storage_max_lun_get.c ****             /* Cap it off.  */
 142:Middlewares/ST/usbx/common/usbx_host_classes/src/ux_host_class_storage_max_lun_get.c ****             storage -> ux_host_class_storage_max_lun =  UX_MAX_HOST_LUN - 1;
 143:Middlewares/ST/usbx/common/usbx_host_classes/src/ux_host_class_storage_max_lun_get.c **** 
 144:Middlewares/ST/usbx/common/usbx_host_classes/src/ux_host_class_storage_max_lun_get.c ****             /* Notify application so it knows to increase UX_MAX_HOST_LUN.  */
 145:Middlewares/ST/usbx/common/usbx_host_classes/src/ux_host_class_storage_max_lun_get.c ****             _ux_system_error_handler(UX_SYSTEM_LEVEL_THREAD, UX_SYSTEM_CONTEXT_CLASS, UX_HOST_CLASS
 146:Middlewares/ST/usbx/common/usbx_host_classes/src/ux_host_class_storage_max_lun_get.c **** 
 147:Middlewares/ST/usbx/common/usbx_host_classes/src/ux_host_class_storage_max_lun_get.c ****             /* If trace is enabled, insert this event into the trace buffer.  */
 148:Middlewares/ST/usbx/common/usbx_host_classes/src/ux_host_class_storage_max_lun_get.c ****             UX_TRACE_IN_LINE_INSERT(UX_TRACE_ERROR, UX_HOST_CLASS_MEMORY_ERROR, storage, 0, 0, UX_T
 149:Middlewares/ST/usbx/common/usbx_host_classes/src/ux_host_class_storage_max_lun_get.c ****         }
 150:Middlewares/ST/usbx/common/usbx_host_classes/src/ux_host_class_storage_max_lun_get.c ****     }
 151:Middlewares/ST/usbx/common/usbx_host_classes/src/ux_host_class_storage_max_lun_get.c **** 
 152:Middlewares/ST/usbx/common/usbx_host_classes/src/ux_host_class_storage_max_lun_get.c ****     /* Free all used resources.  */
 153:Middlewares/ST/usbx/common/usbx_host_classes/src/ux_host_class_storage_max_lun_get.c ****     _ux_utility_memory_free(storage_data_buffer);
 154:Middlewares/ST/usbx/common/usbx_host_classes/src/ux_host_class_storage_max_lun_get.c **** #endif
 155:Middlewares/ST/usbx/common/usbx_host_classes/src/ux_host_class_storage_max_lun_get.c **** 
 156:Middlewares/ST/usbx/common/usbx_host_classes/src/ux_host_class_storage_max_lun_get.c **** #ifdef UX_HOST_CLASS_STORAGE_INCLUDE_LEGACY_PROTOCOL_SUPPORT
 157:Middlewares/ST/usbx/common/usbx_host_classes/src/ux_host_class_storage_max_lun_get.c ****     }
ARM GAS  C:\Users\HP\AppData\Local\Temp\ccod6KFf.s 			page 5


 158:Middlewares/ST/usbx/common/usbx_host_classes/src/ux_host_class_storage_max_lun_get.c **** #if defined(UX_HOST_STANDALONE)
 159:Middlewares/ST/usbx/common/usbx_host_classes/src/ux_host_class_storage_max_lun_get.c ****     else
 160:Middlewares/ST/usbx/common/usbx_host_classes/src/ux_host_class_storage_max_lun_get.c ****     {
 161:Middlewares/ST/usbx/common/usbx_host_classes/src/ux_host_class_storage_max_lun_get.c ****         storage -> ux_host_class_storage_trans = UX_NULL;
 162:Middlewares/ST/usbx/common/usbx_host_classes/src/ux_host_class_storage_max_lun_get.c ****         storage -> ux_host_class_storage_state_state = UX_HOST_CLASS_STORAGE_STATE_MAX_LUN_SAVE;
 163:Middlewares/ST/usbx/common/usbx_host_classes/src/ux_host_class_storage_max_lun_get.c ****     }
 164:Middlewares/ST/usbx/common/usbx_host_classes/src/ux_host_class_storage_max_lun_get.c **** #endif
 165:Middlewares/ST/usbx/common/usbx_host_classes/src/ux_host_class_storage_max_lun_get.c **** #endif
 166:Middlewares/ST/usbx/common/usbx_host_classes/src/ux_host_class_storage_max_lun_get.c **** 
 167:Middlewares/ST/usbx/common/usbx_host_classes/src/ux_host_class_storage_max_lun_get.c ****     /* We always succeed.  */
 168:Middlewares/ST/usbx/common/usbx_host_classes/src/ux_host_class_storage_max_lun_get.c ****     return(UX_SUCCESS);
 169:Middlewares/ST/usbx/common/usbx_host_classes/src/ux_host_class_storage_max_lun_get.c **** }
  73              		.loc 1 169 1 view .LVU16
  74 001e 3046     		mov	r0, r6
  75 0020 BDE8F081 		pop	{r4, r5, r6, r7, r8, pc}
  76              	.LVL5:
  77              	.L6:
  78              		.loc 1 169 1 view .LVU17
  79 0024 04F1B407 		add	r7, r4, #180
 107:Middlewares/ST/usbx/common/usbx_host_classes/src/ux_host_class_storage_max_lun_get.c ****     if (storage_data_buffer == UX_NULL)
  80              		.loc 1 107 5 is_stmt 1 view .LVU18
 107:Middlewares/ST/usbx/common/usbx_host_classes/src/ux_host_class_storage_max_lun_get.c ****     if (storage_data_buffer == UX_NULL)
  81              		.loc 1 107 28 is_stmt 0 view .LVU19
  82 0028 0122     		movs	r2, #1
  83 002a 1146     		mov	r1, r2
  84 002c 4FF0FF30 		mov	r0, #-1
  85              	.LVL6:
 107:Middlewares/ST/usbx/common/usbx_host_classes/src/ux_host_class_storage_max_lun_get.c ****     if (storage_data_buffer == UX_NULL)
  86              		.loc 1 107 28 view .LVU20
  87 0030 FFF7FEFF 		bl	_ux_utility_memory_allocate
  88              	.LVL7:
 108:Middlewares/ST/usbx/common/usbx_host_classes/src/ux_host_class_storage_max_lun_get.c ****         return(UX_MEMORY_INSUFFICIENT);
  89              		.loc 1 108 5 is_stmt 1 view .LVU21
 108:Middlewares/ST/usbx/common/usbx_host_classes/src/ux_host_class_storage_max_lun_get.c ****         return(UX_MEMORY_INSUFFICIENT);
  90              		.loc 1 108 8 is_stmt 0 view .LVU22
  91 0034 8046     		mov	r8, r0
  92 0036 50B3     		cbz	r0, .L4
 112:Middlewares/ST/usbx/common/usbx_host_classes/src/ux_host_class_storage_max_lun_get.c ****     transfer_request -> ux_transfer_request_requested_length =  1;
  93              		.loc 1 112 5 is_stmt 1 view .LVU23
 112:Middlewares/ST/usbx/common/usbx_host_classes/src/ux_host_class_storage_max_lun_get.c ****     transfer_request -> ux_transfer_request_requested_length =  1;
  94              		.loc 1 112 58 is_stmt 0 view .LVU24
  95 0038 C4F8BC00 		str	r0, [r4, #188]
 113:Middlewares/ST/usbx/common/usbx_host_classes/src/ux_host_class_storage_max_lun_get.c ****     transfer_request -> ux_transfer_request_function =          UX_HOST_CLASS_STORAGE_GET_MAX_LUN;
  96              		.loc 1 113 5 is_stmt 1 view .LVU25
 113:Middlewares/ST/usbx/common/usbx_host_classes/src/ux_host_class_storage_max_lun_get.c ****     transfer_request -> ux_transfer_request_function =          UX_HOST_CLASS_STORAGE_GET_MAX_LUN;
  97              		.loc 1 113 62 is_stmt 0 view .LVU26
  98 003c 0123     		movs	r3, #1
  99 003e C4F8C030 		str	r3, [r4, #192]
 114:Middlewares/ST/usbx/common/usbx_host_classes/src/ux_host_class_storage_max_lun_get.c ****     transfer_request -> ux_transfer_request_type =              UX_REQUEST_IN | UX_REQUEST_TYPE_CLA
 100              		.loc 1 114 5 is_stmt 1 view .LVU27
 114:Middlewares/ST/usbx/common/usbx_host_classes/src/ux_host_class_storage_max_lun_get.c ****     transfer_request -> ux_transfer_request_type =              UX_REQUEST_IN | UX_REQUEST_TYPE_CLA
 101              		.loc 1 114 54 is_stmt 0 view .LVU28
 102 0042 FE23     		movs	r3, #254
 103 0044 C4F8CC30 		str	r3, [r4, #204]
 115:Middlewares/ST/usbx/common/usbx_host_classes/src/ux_host_class_storage_max_lun_get.c ****     transfer_request -> ux_transfer_request_value =             0;
 104              		.loc 1 115 5 is_stmt 1 view .LVU29
 115:Middlewares/ST/usbx/common/usbx_host_classes/src/ux_host_class_storage_max_lun_get.c ****     transfer_request -> ux_transfer_request_value =             0;
ARM GAS  C:\Users\HP\AppData\Local\Temp\ccod6KFf.s 			page 6


 105              		.loc 1 115 50 is_stmt 0 view .LVU30
 106 0048 A123     		movs	r3, #161
 107 004a C4F8C830 		str	r3, [r4, #200]
 116:Middlewares/ST/usbx/common/usbx_host_classes/src/ux_host_class_storage_max_lun_get.c ****     transfer_request -> ux_transfer_request_index =             storage -> ux_host_class_storage_in
 108              		.loc 1 116 5 is_stmt 1 view .LVU31
 116:Middlewares/ST/usbx/common/usbx_host_classes/src/ux_host_class_storage_max_lun_get.c ****     transfer_request -> ux_transfer_request_index =             storage -> ux_host_class_storage_in
 109              		.loc 1 116 51 is_stmt 0 view .LVU32
 110 004e 0023     		movs	r3, #0
 111 0050 C4F8D030 		str	r3, [r4, #208]
 117:Middlewares/ST/usbx/common/usbx_host_classes/src/ux_host_class_storage_max_lun_get.c **** 
 112              		.loc 1 117 5 is_stmt 1 view .LVU33
 117:Middlewares/ST/usbx/common/usbx_host_classes/src/ux_host_class_storage_max_lun_get.c **** 
 113              		.loc 1 117 73 is_stmt 0 view .LVU34
 114 0054 EB68     		ldr	r3, [r5, #12]
 117:Middlewares/ST/usbx/common/usbx_host_classes/src/ux_host_class_storage_max_lun_get.c **** 
 115              		.loc 1 117 134 view .LVU35
 116 0056 5B69     		ldr	r3, [r3, #20]
 117:Middlewares/ST/usbx/common/usbx_host_classes/src/ux_host_class_storage_max_lun_get.c **** 
 117              		.loc 1 117 51 view .LVU36
 118 0058 C4F8D430 		str	r3, [r4, #212]
 128:Middlewares/ST/usbx/common/usbx_host_classes/src/ux_host_class_storage_max_lun_get.c **** 
 119              		.loc 1 128 5 is_stmt 1 view .LVU37
 128:Middlewares/ST/usbx/common/usbx_host_classes/src/ux_host_class_storage_max_lun_get.c **** 
 120              		.loc 1 128 15 is_stmt 0 view .LVU38
 121 005c 3846     		mov	r0, r7
 122              	.LVL8:
 128:Middlewares/ST/usbx/common/usbx_host_classes/src/ux_host_class_storage_max_lun_get.c **** 
 123              		.loc 1 128 15 view .LVU39
 124 005e FFF7FEFF 		bl	_ux_host_stack_transfer_request
 125              	.LVL9:
 131:Middlewares/ST/usbx/common/usbx_host_classes/src/ux_host_class_storage_max_lun_get.c ****     {
 126              		.loc 1 131 5 is_stmt 1 view .LVU40
 131:Middlewares/ST/usbx/common/usbx_host_classes/src/ux_host_class_storage_max_lun_get.c ****     {
 127              		.loc 1 131 8 is_stmt 0 view .LVU41
 128 0062 18B9     		cbnz	r0, .L3
 131:Middlewares/ST/usbx/common/usbx_host_classes/src/ux_host_class_storage_max_lun_get.c ****     {
 129              		.loc 1 131 53 discriminator 1 view .LVU42
 130 0064 D4F8C430 		ldr	r3, [r4, #196]
 131:Middlewares/ST/usbx/common/usbx_host_classes/src/ux_host_class_storage_max_lun_get.c ****     {
 131              		.loc 1 131 32 discriminator 1 view .LVU43
 132 0068 012B     		cmp	r3, #1
 133 006a 03D0     		beq	.L7
 134              	.LVL10:
 135              	.L3:
 153:Middlewares/ST/usbx/common/usbx_host_classes/src/ux_host_class_storage_max_lun_get.c **** #endif
 136              		.loc 1 153 5 is_stmt 1 view .LVU44
 137 006c 4046     		mov	r0, r8
 138 006e FFF7FEFF 		bl	_ux_utility_memory_free
 139              	.LVL11:
 168:Middlewares/ST/usbx/common/usbx_host_classes/src/ux_host_class_storage_max_lun_get.c **** }
 140              		.loc 1 168 5 view .LVU45
 168:Middlewares/ST/usbx/common/usbx_host_classes/src/ux_host_class_storage_max_lun_get.c **** }
 141              		.loc 1 168 11 is_stmt 0 view .LVU46
 142 0072 D4E7     		b	.L1
 143              	.LVL12:
 144              	.L7:
 135:Middlewares/ST/usbx/common/usbx_host_classes/src/ux_host_class_storage_max_lun_get.c **** 
ARM GAS  C:\Users\HP\AppData\Local\Temp\ccod6KFf.s 			page 7


 145              		.loc 1 135 9 is_stmt 1 view .LVU47
 135:Middlewares/ST/usbx/common/usbx_host_classes/src/ux_host_class_storage_max_lun_get.c **** 
 146              		.loc 1 135 53 is_stmt 0 view .LVU48
 147 0074 98F80030 		ldrb	r3, [r8]	@ zero_extendqisi2
 135:Middlewares/ST/usbx/common/usbx_host_classes/src/ux_host_class_storage_max_lun_get.c **** 
 148              		.loc 1 135 50 view .LVU49
 149 0078 EB67     		str	r3, [r5, #124]
 138:Middlewares/ST/usbx/common/usbx_host_classes/src/ux_host_class_storage_max_lun_get.c ****         {
 150              		.loc 1 138 9 is_stmt 1 view .LVU50
 138:Middlewares/ST/usbx/common/usbx_host_classes/src/ux_host_class_storage_max_lun_get.c ****         {
 151              		.loc 1 138 12 is_stmt 0 view .LVU51
 152 007a 002B     		cmp	r3, #0
 153 007c F6D0     		beq	.L3
 142:Middlewares/ST/usbx/common/usbx_host_classes/src/ux_host_class_storage_max_lun_get.c **** 
 154              		.loc 1 142 13 is_stmt 1 view .LVU52
 142:Middlewares/ST/usbx/common/usbx_host_classes/src/ux_host_class_storage_max_lun_get.c **** 
 155              		.loc 1 142 54 is_stmt 0 view .LVU53
 156 007e 0023     		movs	r3, #0
 157 0080 EB67     		str	r3, [r5, #124]
 145:Middlewares/ST/usbx/common/usbx_host_classes/src/ux_host_class_storage_max_lun_get.c **** 
 158              		.loc 1 145 13 is_stmt 1 view .LVU54
 159 0082 6122     		movs	r2, #97
 160 0084 0721     		movs	r1, #7
 161 0086 0220     		movs	r0, #2
 162              	.LVL13:
 145:Middlewares/ST/usbx/common/usbx_host_classes/src/ux_host_class_storage_max_lun_get.c **** 
 163              		.loc 1 145 13 is_stmt 0 view .LVU55
 164 0088 FFF7FEFF 		bl	_ux_system_error_handler
 165              	.LVL14:
 166 008c EEE7     		b	.L3
 167              	.LVL15:
 168              	.L4:
 109:Middlewares/ST/usbx/common/usbx_host_classes/src/ux_host_class_storage_max_lun_get.c **** 
 169              		.loc 1 109 15 view .LVU56
 170 008e 1226     		movs	r6, #18
 171              	.LVL16:
 109:Middlewares/ST/usbx/common/usbx_host_classes/src/ux_host_class_storage_max_lun_get.c **** 
 172              		.loc 1 109 15 view .LVU57
 173 0090 C5E7     		b	.L1
 174              		.cfi_endproc
 175              	.LFE11:
 177              		.text
 178              	.Letext0:
 179              		.file 2 "Middlewares/ST/threadx/ports/cortex_m4/gnu/inc/tx_port.h"
 180              		.file 3 "Middlewares/ST/threadx/common/inc/tx_api.h"
 181              		.file 4 "Middlewares/ST/usbx/common/core/inc/ux_api.h"
 182              		.file 5 "Middlewares/ST/usbx/common/usbx_host_classes/inc/ux_host_class_storage.h"
 183              		.file 6 "Middlewares/ST/usbx/common/core/inc/ux_utility.h"
 184              		.file 7 "Middlewares/ST/usbx/common/core/inc/ux_host_stack.h"
ARM GAS  C:\Users\HP\AppData\Local\Temp\ccod6KFf.s 			page 8

