ARM GAS  C:\Users\HP\AppData\Local\Temp\ccqAfmoc.s 			page 1


   1              		.cpu cortex-m4
   2              		.arch armv7e-m
   3              		.fpu fpv4-sp-d16
   4              		.eabi_attribute 27, 1
   5              		.eabi_attribute 28, 1
   6              		.eabi_attribute 20, 1
   7              		.eabi_attribute 21, 1
   8              		.eabi_attribute 23, 3
   9              		.eabi_attribute 24, 1
  10              		.eabi_attribute 25, 1
  11              		.eabi_attribute 26, 1
  12              		.eabi_attribute 30, 1
  13              		.eabi_attribute 34, 1
  14              		.eabi_attribute 18, 4
  15              		.file	"ux_hcd_stm32_initialize.c"
  16              		.text
  17              	.Ltext0:
  18              		.cfi_sections	.debug_frame
  19              		.section	.text._ux_hcd_stm32_initialize,"ax",%progbits
  20              		.align	1
  21              		.global	_ux_hcd_stm32_initialize
  22              		.syntax unified
  23              		.thumb
  24              		.thumb_func
  26              	_ux_hcd_stm32_initialize:
  27              	.LVL0:
  28              	.LFB143:
  29              		.file 1 "Middlewares/ST/usbx/common/usbx_stm32_host_controllers/ux_hcd_stm32_initialize.c"
   1:Middlewares/ST/usbx/common/usbx_stm32_host_controllers/ux_hcd_stm32_initialize.c **** /**************************************************************************/
   2:Middlewares/ST/usbx/common/usbx_stm32_host_controllers/ux_hcd_stm32_initialize.c **** /*                                                                        */
   3:Middlewares/ST/usbx/common/usbx_stm32_host_controllers/ux_hcd_stm32_initialize.c **** /*       Copyright (c) Microsoft Corporation. All rights reserved.        */
   4:Middlewares/ST/usbx/common/usbx_stm32_host_controllers/ux_hcd_stm32_initialize.c **** /*                                                                        */
   5:Middlewares/ST/usbx/common/usbx_stm32_host_controllers/ux_hcd_stm32_initialize.c **** /*       This software is licensed under the Microsoft Software License   */
   6:Middlewares/ST/usbx/common/usbx_stm32_host_controllers/ux_hcd_stm32_initialize.c **** /*       Terms for Microsoft Azure RTOS. Full text of the license can be  */
   7:Middlewares/ST/usbx/common/usbx_stm32_host_controllers/ux_hcd_stm32_initialize.c **** /*       found in the LICENSE file at https://aka.ms/AzureRTOS_EULA       */
   8:Middlewares/ST/usbx/common/usbx_stm32_host_controllers/ux_hcd_stm32_initialize.c **** /*       and in the root directory of this software.                      */
   9:Middlewares/ST/usbx/common/usbx_stm32_host_controllers/ux_hcd_stm32_initialize.c **** /*                                                                        */
  10:Middlewares/ST/usbx/common/usbx_stm32_host_controllers/ux_hcd_stm32_initialize.c **** /**************************************************************************/
  11:Middlewares/ST/usbx/common/usbx_stm32_host_controllers/ux_hcd_stm32_initialize.c **** 
  12:Middlewares/ST/usbx/common/usbx_stm32_host_controllers/ux_hcd_stm32_initialize.c **** 
  13:Middlewares/ST/usbx/common/usbx_stm32_host_controllers/ux_hcd_stm32_initialize.c **** /**************************************************************************/
  14:Middlewares/ST/usbx/common/usbx_stm32_host_controllers/ux_hcd_stm32_initialize.c **** /**************************************************************************/
  15:Middlewares/ST/usbx/common/usbx_stm32_host_controllers/ux_hcd_stm32_initialize.c **** /**                                                                       */
  16:Middlewares/ST/usbx/common/usbx_stm32_host_controllers/ux_hcd_stm32_initialize.c **** /** USBX Component                                                        */
  17:Middlewares/ST/usbx/common/usbx_stm32_host_controllers/ux_hcd_stm32_initialize.c **** /**                                                                       */
  18:Middlewares/ST/usbx/common/usbx_stm32_host_controllers/ux_hcd_stm32_initialize.c **** /**   STM32 Controller Driver                                             */
  19:Middlewares/ST/usbx/common/usbx_stm32_host_controllers/ux_hcd_stm32_initialize.c **** /**                                                                       */
  20:Middlewares/ST/usbx/common/usbx_stm32_host_controllers/ux_hcd_stm32_initialize.c **** /**************************************************************************/
  21:Middlewares/ST/usbx/common/usbx_stm32_host_controllers/ux_hcd_stm32_initialize.c **** /**************************************************************************/
  22:Middlewares/ST/usbx/common/usbx_stm32_host_controllers/ux_hcd_stm32_initialize.c **** 
  23:Middlewares/ST/usbx/common/usbx_stm32_host_controllers/ux_hcd_stm32_initialize.c **** 
  24:Middlewares/ST/usbx/common/usbx_stm32_host_controllers/ux_hcd_stm32_initialize.c **** /* Include necessary system files.  */
  25:Middlewares/ST/usbx/common/usbx_stm32_host_controllers/ux_hcd_stm32_initialize.c **** 
  26:Middlewares/ST/usbx/common/usbx_stm32_host_controllers/ux_hcd_stm32_initialize.c **** #define UX_SOURCE_CODE
  27:Middlewares/ST/usbx/common/usbx_stm32_host_controllers/ux_hcd_stm32_initialize.c **** #define UX_HCD_STM32_SOURCE_CODE
  28:Middlewares/ST/usbx/common/usbx_stm32_host_controllers/ux_hcd_stm32_initialize.c **** 
  29:Middlewares/ST/usbx/common/usbx_stm32_host_controllers/ux_hcd_stm32_initialize.c **** #include "ux_api.h"
ARM GAS  C:\Users\HP\AppData\Local\Temp\ccqAfmoc.s 			page 2


  30:Middlewares/ST/usbx/common/usbx_stm32_host_controllers/ux_hcd_stm32_initialize.c **** #include "ux_hcd_stm32.h"
  31:Middlewares/ST/usbx/common/usbx_stm32_host_controllers/ux_hcd_stm32_initialize.c **** #include "ux_host_stack.h"
  32:Middlewares/ST/usbx/common/usbx_stm32_host_controllers/ux_hcd_stm32_initialize.c **** 
  33:Middlewares/ST/usbx/common/usbx_stm32_host_controllers/ux_hcd_stm32_initialize.c **** 
  34:Middlewares/ST/usbx/common/usbx_stm32_host_controllers/ux_hcd_stm32_initialize.c **** /**************************************************************************/
  35:Middlewares/ST/usbx/common/usbx_stm32_host_controllers/ux_hcd_stm32_initialize.c **** /*                                                                        */
  36:Middlewares/ST/usbx/common/usbx_stm32_host_controllers/ux_hcd_stm32_initialize.c **** /*  FUNCTION                                               RELEASE        */
  37:Middlewares/ST/usbx/common/usbx_stm32_host_controllers/ux_hcd_stm32_initialize.c **** /*                                                                        */
  38:Middlewares/ST/usbx/common/usbx_stm32_host_controllers/ux_hcd_stm32_initialize.c **** /*    _ux_hcd_stm32_initialize                            PORTABLE C      */
  39:Middlewares/ST/usbx/common/usbx_stm32_host_controllers/ux_hcd_stm32_initialize.c **** /*                                                           6.0          */
  40:Middlewares/ST/usbx/common/usbx_stm32_host_controllers/ux_hcd_stm32_initialize.c **** /*  AUTHOR                                                                */
  41:Middlewares/ST/usbx/common/usbx_stm32_host_controllers/ux_hcd_stm32_initialize.c **** /*                                                                        */
  42:Middlewares/ST/usbx/common/usbx_stm32_host_controllers/ux_hcd_stm32_initialize.c **** /*    Chaoqiong Xiao, Microsoft Corporation                               */
  43:Middlewares/ST/usbx/common/usbx_stm32_host_controllers/ux_hcd_stm32_initialize.c **** /*                                                                        */
  44:Middlewares/ST/usbx/common/usbx_stm32_host_controllers/ux_hcd_stm32_initialize.c **** /*  DESCRIPTION                                                           */
  45:Middlewares/ST/usbx/common/usbx_stm32_host_controllers/ux_hcd_stm32_initialize.c **** /*                                                                        */
  46:Middlewares/ST/usbx/common/usbx_stm32_host_controllers/ux_hcd_stm32_initialize.c **** /*    This function initializes the STM32 HS USB host controller. This    */
  47:Middlewares/ST/usbx/common/usbx_stm32_host_controllers/ux_hcd_stm32_initialize.c **** /*    is not for the OTG mode. It forces the chip in Host mode only.      */
  48:Middlewares/ST/usbx/common/usbx_stm32_host_controllers/ux_hcd_stm32_initialize.c **** /*    For OTG support, the filex in the usbx_otg subdirectory must be     */
  49:Middlewares/ST/usbx/common/usbx_stm32_host_controllers/ux_hcd_stm32_initialize.c **** /*    used.                                                               */
  50:Middlewares/ST/usbx/common/usbx_stm32_host_controllers/ux_hcd_stm32_initialize.c **** /*                                                                        */
  51:Middlewares/ST/usbx/common/usbx_stm32_host_controllers/ux_hcd_stm32_initialize.c **** /*  INPUT                                                                 */
  52:Middlewares/ST/usbx/common/usbx_stm32_host_controllers/ux_hcd_stm32_initialize.c **** /*                                                                        */
  53:Middlewares/ST/usbx/common/usbx_stm32_host_controllers/ux_hcd_stm32_initialize.c **** /*    HCD                                   Pointer to HCD                */
  54:Middlewares/ST/usbx/common/usbx_stm32_host_controllers/ux_hcd_stm32_initialize.c **** /*                                                                        */
  55:Middlewares/ST/usbx/common/usbx_stm32_host_controllers/ux_hcd_stm32_initialize.c **** /*  OUTPUT                                                                */
  56:Middlewares/ST/usbx/common/usbx_stm32_host_controllers/ux_hcd_stm32_initialize.c **** /*                                                                        */
  57:Middlewares/ST/usbx/common/usbx_stm32_host_controllers/ux_hcd_stm32_initialize.c **** /*    Completion Status                                                   */
  58:Middlewares/ST/usbx/common/usbx_stm32_host_controllers/ux_hcd_stm32_initialize.c **** /*                                                                        */
  59:Middlewares/ST/usbx/common/usbx_stm32_host_controllers/ux_hcd_stm32_initialize.c **** /*  CALLS                                                                 */
  60:Middlewares/ST/usbx/common/usbx_stm32_host_controllers/ux_hcd_stm32_initialize.c **** /*                                                                        */
  61:Middlewares/ST/usbx/common/usbx_stm32_host_controllers/ux_hcd_stm32_initialize.c **** /*    _ux_utility_memory_allocate             Allocate memory block       */
  62:Middlewares/ST/usbx/common/usbx_stm32_host_controllers/ux_hcd_stm32_initialize.c **** /*                                                                        */
  63:Middlewares/ST/usbx/common/usbx_stm32_host_controllers/ux_hcd_stm32_initialize.c **** /*  CALLED BY                                                             */
  64:Middlewares/ST/usbx/common/usbx_stm32_host_controllers/ux_hcd_stm32_initialize.c **** /*                                                                        */
  65:Middlewares/ST/usbx/common/usbx_stm32_host_controllers/ux_hcd_stm32_initialize.c **** /*    Host Stack                                                          */
  66:Middlewares/ST/usbx/common/usbx_stm32_host_controllers/ux_hcd_stm32_initialize.c **** /*                                                                        */
  67:Middlewares/ST/usbx/common/usbx_stm32_host_controllers/ux_hcd_stm32_initialize.c **** /*  RELEASE HISTORY                                                       */
  68:Middlewares/ST/usbx/common/usbx_stm32_host_controllers/ux_hcd_stm32_initialize.c **** /*                                                                        */
  69:Middlewares/ST/usbx/common/usbx_stm32_host_controllers/ux_hcd_stm32_initialize.c **** /*    DATE              NAME                      DESCRIPTION             */
  70:Middlewares/ST/usbx/common/usbx_stm32_host_controllers/ux_hcd_stm32_initialize.c **** /*                                                                        */
  71:Middlewares/ST/usbx/common/usbx_stm32_host_controllers/ux_hcd_stm32_initialize.c **** /*  05-19-2020     Chaoqiong Xiao           Initial Version 6.0           */
  72:Middlewares/ST/usbx/common/usbx_stm32_host_controllers/ux_hcd_stm32_initialize.c **** /*                                                                        */
  73:Middlewares/ST/usbx/common/usbx_stm32_host_controllers/ux_hcd_stm32_initialize.c **** /**************************************************************************/
  74:Middlewares/ST/usbx/common/usbx_stm32_host_controllers/ux_hcd_stm32_initialize.c **** UINT  _ux_hcd_stm32_initialize(UX_HCD *hcd)
  75:Middlewares/ST/usbx/common/usbx_stm32_host_controllers/ux_hcd_stm32_initialize.c **** {
  30              		.loc 1 75 1 view -0
  31              		.cfi_startproc
  32              		@ args = 0, pretend = 0, frame = 0
  33              		@ frame_needed = 0, uses_anonymous_args = 0
  34              		.loc 1 75 1 is_stmt 0 view .LVU1
  35 0000 70B5     		push	{r4, r5, r6, lr}
  36              	.LCFI0:
  37              		.cfi_def_cfa_offset 16
  38              		.cfi_offset 4, -16
  39              		.cfi_offset 5, -12
  40              		.cfi_offset 6, -8
ARM GAS  C:\Users\HP\AppData\Local\Temp\ccqAfmoc.s 			page 3


  41              		.cfi_offset 14, -4
  42 0002 0446     		mov	r4, r0
  76:Middlewares/ST/usbx/common/usbx_stm32_host_controllers/ux_hcd_stm32_initialize.c **** 
  77:Middlewares/ST/usbx/common/usbx_stm32_host_controllers/ux_hcd_stm32_initialize.c **** UX_HCD_STM32          *hcd_stm32;
  43              		.loc 1 77 1 is_stmt 1 view .LVU2
  78:Middlewares/ST/usbx/common/usbx_stm32_host_controllers/ux_hcd_stm32_initialize.c **** 
  79:Middlewares/ST/usbx/common/usbx_stm32_host_controllers/ux_hcd_stm32_initialize.c **** 
  80:Middlewares/ST/usbx/common/usbx_stm32_host_controllers/ux_hcd_stm32_initialize.c ****     /* The controller initialized here is of STM32 type.  */
  81:Middlewares/ST/usbx/common/usbx_stm32_host_controllers/ux_hcd_stm32_initialize.c ****     hcd -> ux_hcd_controller_type =  UX_HCD_STM32_CONTROLLER;
  44              		.loc 1 81 5 view .LVU3
  45              		.loc 1 81 35 is_stmt 0 view .LVU4
  46 0004 0623     		movs	r3, #6
  47 0006 4364     		str	r3, [r0, #68]
  82:Middlewares/ST/usbx/common/usbx_stm32_host_controllers/ux_hcd_stm32_initialize.c **** 
  83:Middlewares/ST/usbx/common/usbx_stm32_host_controllers/ux_hcd_stm32_initialize.c ****     /* Initialize the max bandwidth for periodic endpoints. On STM32, the spec says
  84:Middlewares/ST/usbx/common/usbx_stm32_host_controllers/ux_hcd_stm32_initialize.c ****        no more than 90% to be allocated for periodic.  */
  85:Middlewares/ST/usbx/common/usbx_stm32_host_controllers/ux_hcd_stm32_initialize.c **** #if UX_MAX_DEVICES > 1
  86:Middlewares/ST/usbx/common/usbx_stm32_host_controllers/ux_hcd_stm32_initialize.c ****     hcd -> ux_hcd_available_bandwidth =  UX_HCD_STM32_AVAILABLE_BANDWIDTH;
  48              		.loc 1 86 5 is_stmt 1 view .LVU5
  49              		.loc 1 86 39 is_stmt 0 view .LVU6
  50 0008 41F27073 		movw	r3, #6000
  51 000c C0F88C30 		str	r3, [r0, #140]
  87:Middlewares/ST/usbx/common/usbx_stm32_host_controllers/ux_hcd_stm32_initialize.c **** #endif
  88:Middlewares/ST/usbx/common/usbx_stm32_host_controllers/ux_hcd_stm32_initialize.c **** 
  89:Middlewares/ST/usbx/common/usbx_stm32_host_controllers/ux_hcd_stm32_initialize.c ****     /* Allocate memory for this STM32 HCD instance.  */
  90:Middlewares/ST/usbx/common/usbx_stm32_host_controllers/ux_hcd_stm32_initialize.c ****     hcd_stm32 =  _ux_utility_memory_allocate(UX_NO_ALIGN, UX_REGULAR_MEMORY, sizeof(UX_HCD_STM32));
  52              		.loc 1 90 5 is_stmt 1 view .LVU7
  53              		.loc 1 90 18 is_stmt 0 view .LVU8
  54 0010 5022     		movs	r2, #80
  55 0012 0021     		movs	r1, #0
  56 0014 0846     		mov	r0, r1
  57              	.LVL1:
  58              		.loc 1 90 18 view .LVU9
  59 0016 FFF7FEFF 		bl	_ux_utility_memory_allocate
  60              	.LVL2:
  91:Middlewares/ST/usbx/common/usbx_stm32_host_controllers/ux_hcd_stm32_initialize.c ****     if (hcd_stm32 == UX_NULL)
  61              		.loc 1 91 5 is_stmt 1 view .LVU10
  62              		.loc 1 91 8 is_stmt 0 view .LVU11
  63 001a 0028     		cmp	r0, #0
  64 001c 32D0     		beq	.L5
  65 001e 0546     		mov	r5, r0
  92:Middlewares/ST/usbx/common/usbx_stm32_host_controllers/ux_hcd_stm32_initialize.c ****         return(UX_MEMORY_INSUFFICIENT);
  93:Middlewares/ST/usbx/common/usbx_stm32_host_controllers/ux_hcd_stm32_initialize.c **** 
  94:Middlewares/ST/usbx/common/usbx_stm32_host_controllers/ux_hcd_stm32_initialize.c ****     /* Set the pointer to the STM32 HCD.  */
  95:Middlewares/ST/usbx/common/usbx_stm32_host_controllers/ux_hcd_stm32_initialize.c ****     hcd -> ux_hcd_controller_hardware =  (VOID *) hcd_stm32;
  66              		.loc 1 95 5 is_stmt 1 view .LVU12
  67              		.loc 1 95 39 is_stmt 0 view .LVU13
  68 0020 6067     		str	r0, [r4, #116]
  96:Middlewares/ST/usbx/common/usbx_stm32_host_controllers/ux_hcd_stm32_initialize.c **** 
  97:Middlewares/ST/usbx/common/usbx_stm32_host_controllers/ux_hcd_stm32_initialize.c ****     /* Set the generic HCD owner for the STM32 HCD.  */
  98:Middlewares/ST/usbx/common/usbx_stm32_host_controllers/ux_hcd_stm32_initialize.c ****     hcd_stm32 -> ux_hcd_stm32_hcd_owner =  hcd;
  69              		.loc 1 98 5 is_stmt 1 view .LVU14
  70              		.loc 1 98 41 is_stmt 0 view .LVU15
  71 0022 0460     		str	r4, [r0]
  99:Middlewares/ST/usbx/common/usbx_stm32_host_controllers/ux_hcd_stm32_initialize.c **** 
 100:Middlewares/ST/usbx/common/usbx_stm32_host_controllers/ux_hcd_stm32_initialize.c ****     /* Initialize the function collector for this HCD.  */
 101:Middlewares/ST/usbx/common/usbx_stm32_host_controllers/ux_hcd_stm32_initialize.c ****     hcd -> ux_hcd_entry_function =  _ux_hcd_stm32_entry;
ARM GAS  C:\Users\HP\AppData\Local\Temp\ccqAfmoc.s 			page 4


  72              		.loc 1 101 5 is_stmt 1 view .LVU16
  73              		.loc 1 101 34 is_stmt 0 view .LVU17
  74 0024 184B     		ldr	r3, .L9
  75 0026 2367     		str	r3, [r4, #112]
 102:Middlewares/ST/usbx/common/usbx_stm32_host_controllers/ux_hcd_stm32_initialize.c **** 
 103:Middlewares/ST/usbx/common/usbx_stm32_host_controllers/ux_hcd_stm32_initialize.c ****     /* Set the state of the controller to HALTED first.  */
 104:Middlewares/ST/usbx/common/usbx_stm32_host_controllers/ux_hcd_stm32_initialize.c ****     hcd -> ux_hcd_status =  UX_HCD_STATUS_HALTED;
  76              		.loc 1 104 5 is_stmt 1 view .LVU18
  77              		.loc 1 104 26 is_stmt 0 view .LVU19
  78 0028 0123     		movs	r3, #1
  79 002a 2364     		str	r3, [r4, #64]
 105:Middlewares/ST/usbx/common/usbx_stm32_host_controllers/ux_hcd_stm32_initialize.c **** 
 106:Middlewares/ST/usbx/common/usbx_stm32_host_controllers/ux_hcd_stm32_initialize.c ****     /* Initialize the number of channels.  */
 107:Middlewares/ST/usbx/common/usbx_stm32_host_controllers/ux_hcd_stm32_initialize.c ****     hcd_stm32 -> ux_hcd_stm32_nb_channels =  UX_HCD_STM32_MAX_NB_CHANNELS;
  80              		.loc 1 107 5 is_stmt 1 view .LVU20
  81              		.loc 1 107 43 is_stmt 0 view .LVU21
  82 002c 0C23     		movs	r3, #12
  83 002e 8363     		str	r3, [r0, #56]
 108:Middlewares/ST/usbx/common/usbx_stm32_host_controllers/ux_hcd_stm32_initialize.c **** 
 109:Middlewares/ST/usbx/common/usbx_stm32_host_controllers/ux_hcd_stm32_initialize.c ****     /* Check if the parameter is null.  */
 110:Middlewares/ST/usbx/common/usbx_stm32_host_controllers/ux_hcd_stm32_initialize.c ****     if (hcd -> ux_hcd_irq == 0)
  84              		.loc 1 110 5 is_stmt 1 view .LVU22
  85              		.loc 1 110 13 is_stmt 0 view .LVU23
  86 0030 A36C     		ldr	r3, [r4, #72]
  87              		.loc 1 110 8 view .LVU24
  88 0032 F3B1     		cbz	r3, .L7
 111:Middlewares/ST/usbx/common/usbx_stm32_host_controllers/ux_hcd_stm32_initialize.c ****     {
 112:Middlewares/ST/usbx/common/usbx_stm32_host_controllers/ux_hcd_stm32_initialize.c ****         _ux_utility_memory_free(hcd_stm32);
 113:Middlewares/ST/usbx/common/usbx_stm32_host_controllers/ux_hcd_stm32_initialize.c ****         return(UX_ERROR);
 114:Middlewares/ST/usbx/common/usbx_stm32_host_controllers/ux_hcd_stm32_initialize.c ****     }
 115:Middlewares/ST/usbx/common/usbx_stm32_host_controllers/ux_hcd_stm32_initialize.c **** 
 116:Middlewares/ST/usbx/common/usbx_stm32_host_controllers/ux_hcd_stm32_initialize.c ****     /* Get HCD handle from parameter.  */
 117:Middlewares/ST/usbx/common/usbx_stm32_host_controllers/ux_hcd_stm32_initialize.c ****     hcd_stm32 -> hcd_handle = (HCD_HandleTypeDef*)hcd -> ux_hcd_irq;
  89              		.loc 1 117 5 is_stmt 1 view .LVU25
  90              		.loc 1 117 29 is_stmt 0 view .LVU26
  91 0034 8364     		str	r3, [r0, #72]
 118:Middlewares/ST/usbx/common/usbx_stm32_host_controllers/ux_hcd_stm32_initialize.c ****     hcd_stm32 -> hcd_handle -> pData = hcd;
  92              		.loc 1 118 5 is_stmt 1 view .LVU27
  93              		.loc 1 118 38 is_stmt 0 view .LVU28
  94 0036 C3F80043 		str	r4, [r3, #768]
 119:Middlewares/ST/usbx/common/usbx_stm32_host_controllers/ux_hcd_stm32_initialize.c **** 
 120:Middlewares/ST/usbx/common/usbx_stm32_host_controllers/ux_hcd_stm32_initialize.c ****     /* Allocate the list of eds.   */
 121:Middlewares/ST/usbx/common/usbx_stm32_host_controllers/ux_hcd_stm32_initialize.c ****     hcd_stm32 -> ux_hcd_stm32_ed_list =  _ux_utility_memory_allocate(UX_NO_ALIGN, UX_REGULAR_MEMORY
  95              		.loc 1 121 5 is_stmt 1 view .LVU29
  96              		.loc 1 121 143 is_stmt 0 view .LVU30
  97 003a 144B     		ldr	r3, .L9+4
  98 003c 1B68     		ldr	r3, [r3]
  99 003e 9A69     		ldr	r2, [r3, #24]
 100              		.loc 1 121 42 view .LVU31
 101 0040 02EB4202 		add	r2, r2, r2, lsl #1
 102 0044 1201     		lsls	r2, r2, #4
 103 0046 0021     		movs	r1, #0
 104 0048 0846     		mov	r0, r1
 105              	.LVL3:
 106              		.loc 1 121 42 view .LVU32
 107 004a FFF7FEFF 		bl	_ux_utility_memory_allocate
 108              	.LVL4:
ARM GAS  C:\Users\HP\AppData\Local\Temp\ccqAfmoc.s 			page 5


 109              		.loc 1 121 39 view .LVU33
 110 004e 6860     		str	r0, [r5, #4]
 122:Middlewares/ST/usbx/common/usbx_stm32_host_controllers/ux_hcd_stm32_initialize.c ****     if (hcd_stm32 -> ux_hcd_stm32_ed_list == UX_NULL)
 111              		.loc 1 122 5 is_stmt 1 view .LVU34
 112              		.loc 1 122 8 is_stmt 0 view .LVU35
 113 0050 98B1     		cbz	r0, .L8
 123:Middlewares/ST/usbx/common/usbx_stm32_host_controllers/ux_hcd_stm32_initialize.c ****     {
 124:Middlewares/ST/usbx/common/usbx_stm32_host_controllers/ux_hcd_stm32_initialize.c ****         _ux_utility_memory_free(hcd_stm32);
 125:Middlewares/ST/usbx/common/usbx_stm32_host_controllers/ux_hcd_stm32_initialize.c ****         return(UX_MEMORY_INSUFFICIENT);
 126:Middlewares/ST/usbx/common/usbx_stm32_host_controllers/ux_hcd_stm32_initialize.c ****     }
 127:Middlewares/ST/usbx/common/usbx_stm32_host_controllers/ux_hcd_stm32_initialize.c **** 
 128:Middlewares/ST/usbx/common/usbx_stm32_host_controllers/ux_hcd_stm32_initialize.c ****     /* Since we know this is a high-speed controller, we can hardwire the version.  */
 129:Middlewares/ST/usbx/common/usbx_stm32_host_controllers/ux_hcd_stm32_initialize.c **** #if UX_MAX_DEVICES > 1
 130:Middlewares/ST/usbx/common/usbx_stm32_host_controllers/ux_hcd_stm32_initialize.c ****     hcd -> ux_hcd_version =  0x200;
 114              		.loc 1 130 5 is_stmt 1 view .LVU36
 115              		.loc 1 130 27 is_stmt 0 view .LVU37
 116 0052 4FF40073 		mov	r3, #512
 117 0056 C4F89030 		str	r3, [r4, #144]
 131:Middlewares/ST/usbx/common/usbx_stm32_host_controllers/ux_hcd_stm32_initialize.c **** #endif
 132:Middlewares/ST/usbx/common/usbx_stm32_host_controllers/ux_hcd_stm32_initialize.c **** 
 133:Middlewares/ST/usbx/common/usbx_stm32_host_controllers/ux_hcd_stm32_initialize.c ****     /* The number of ports on the controller is fixed to 1. The number of ports needs to be reflect
 134:Middlewares/ST/usbx/common/usbx_stm32_host_controllers/ux_hcd_stm32_initialize.c ****        for the generic HCD container and the local stm32 container.  */
 135:Middlewares/ST/usbx/common/usbx_stm32_host_controllers/ux_hcd_stm32_initialize.c ****     hcd -> ux_hcd_nb_root_hubs             =  UX_HCD_STM32_NB_ROOT_PORTS;
 118              		.loc 1 135 5 is_stmt 1 view .LVU38
 119              		.loc 1 135 44 is_stmt 0 view .LVU39
 120 005a 0126     		movs	r6, #1
 121 005c E664     		str	r6, [r4, #76]
 136:Middlewares/ST/usbx/common/usbx_stm32_host_controllers/ux_hcd_stm32_initialize.c **** 
 137:Middlewares/ST/usbx/common/usbx_stm32_host_controllers/ux_hcd_stm32_initialize.c ****     /* The root port must now be powered to pick up device insertion.  */
 138:Middlewares/ST/usbx/common/usbx_stm32_host_controllers/ux_hcd_stm32_initialize.c ****     _ux_hcd_stm32_power_on_port(hcd_stm32, 0);
 122              		.loc 1 138 5 is_stmt 1 view .LVU40
 123 005e 0021     		movs	r1, #0
 124 0060 2846     		mov	r0, r5
 125 0062 FFF7FEFF 		bl	_ux_hcd_stm32_power_on_port
 126              	.LVL5:
 139:Middlewares/ST/usbx/common/usbx_stm32_host_controllers/ux_hcd_stm32_initialize.c **** 
 140:Middlewares/ST/usbx/common/usbx_stm32_host_controllers/ux_hcd_stm32_initialize.c ****     /* The asynchronous queues are empty for now.  */
 141:Middlewares/ST/usbx/common/usbx_stm32_host_controllers/ux_hcd_stm32_initialize.c ****     hcd_stm32 -> ux_hcd_stm32_queue_empty =  UX_TRUE;
 127              		.loc 1 141 5 view .LVU41
 128              		.loc 1 141 43 is_stmt 0 view .LVU42
 129 0066 EE63     		str	r6, [r5, #60]
 142:Middlewares/ST/usbx/common/usbx_stm32_host_controllers/ux_hcd_stm32_initialize.c **** 
 143:Middlewares/ST/usbx/common/usbx_stm32_host_controllers/ux_hcd_stm32_initialize.c ****     /* The periodic scheduler is not active.  */
 144:Middlewares/ST/usbx/common/usbx_stm32_host_controllers/ux_hcd_stm32_initialize.c ****     hcd_stm32 -> ux_hcd_stm32_periodic_scheduler_active =  0;
 130              		.loc 1 144 5 is_stmt 1 view .LVU43
 131              		.loc 1 144 57 is_stmt 0 view .LVU44
 132 0068 0020     		movs	r0, #0
 133 006a 2864     		str	r0, [r5, #64]
 145:Middlewares/ST/usbx/common/usbx_stm32_host_controllers/ux_hcd_stm32_initialize.c **** 
 146:Middlewares/ST/usbx/common/usbx_stm32_host_controllers/ux_hcd_stm32_initialize.c ****     /* Set the host controller into the operational state.  */
 147:Middlewares/ST/usbx/common/usbx_stm32_host_controllers/ux_hcd_stm32_initialize.c ****     hcd -> ux_hcd_status =  UX_HCD_STATUS_OPERATIONAL;
 134              		.loc 1 147 5 is_stmt 1 view .LVU45
 135              		.loc 1 147 26 is_stmt 0 view .LVU46
 136 006c 0223     		movs	r3, #2
 137 006e 2364     		str	r3, [r4, #64]
 148:Middlewares/ST/usbx/common/usbx_stm32_host_controllers/ux_hcd_stm32_initialize.c **** 
 149:Middlewares/ST/usbx/common/usbx_stm32_host_controllers/ux_hcd_stm32_initialize.c ****     /* Return successful completion.  */
ARM GAS  C:\Users\HP\AppData\Local\Temp\ccqAfmoc.s 			page 6


 150:Middlewares/ST/usbx/common/usbx_stm32_host_controllers/ux_hcd_stm32_initialize.c ****     return(UX_SUCCESS);
 138              		.loc 1 150 5 is_stmt 1 view .LVU47
 139              	.LVL6:
 140              	.L1:
 151:Middlewares/ST/usbx/common/usbx_stm32_host_controllers/ux_hcd_stm32_initialize.c **** }
 141              		.loc 1 151 1 is_stmt 0 view .LVU48
 142 0070 70BD     		pop	{r4, r5, r6, pc}
 143              	.LVL7:
 144              	.L7:
 112:Middlewares/ST/usbx/common/usbx_stm32_host_controllers/ux_hcd_stm32_initialize.c ****         return(UX_ERROR);
 145              		.loc 1 112 9 is_stmt 1 view .LVU49
 146 0072 FFF7FEFF 		bl	_ux_utility_memory_free
 147              	.LVL8:
 113:Middlewares/ST/usbx/common/usbx_stm32_host_controllers/ux_hcd_stm32_initialize.c ****     }
 148              		.loc 1 113 9 view .LVU50
 113:Middlewares/ST/usbx/common/usbx_stm32_host_controllers/ux_hcd_stm32_initialize.c ****     }
 149              		.loc 1 113 15 is_stmt 0 view .LVU51
 150 0076 FF20     		movs	r0, #255
 151 0078 FAE7     		b	.L1
 152              	.L8:
 124:Middlewares/ST/usbx/common/usbx_stm32_host_controllers/ux_hcd_stm32_initialize.c ****         return(UX_MEMORY_INSUFFICIENT);
 153              		.loc 1 124 9 is_stmt 1 view .LVU52
 154 007a 2846     		mov	r0, r5
 155 007c FFF7FEFF 		bl	_ux_utility_memory_free
 156              	.LVL9:
 125:Middlewares/ST/usbx/common/usbx_stm32_host_controllers/ux_hcd_stm32_initialize.c ****     }
 157              		.loc 1 125 9 view .LVU53
 125:Middlewares/ST/usbx/common/usbx_stm32_host_controllers/ux_hcd_stm32_initialize.c ****     }
 158              		.loc 1 125 15 is_stmt 0 view .LVU54
 159 0080 1220     		movs	r0, #18
 160 0082 F5E7     		b	.L1
 161              	.LVL10:
 162              	.L5:
  92:Middlewares/ST/usbx/common/usbx_stm32_host_controllers/ux_hcd_stm32_initialize.c **** 
 163              		.loc 1 92 15 view .LVU55
 164 0084 1220     		movs	r0, #18
 165              	.LVL11:
  92:Middlewares/ST/usbx/common/usbx_stm32_host_controllers/ux_hcd_stm32_initialize.c **** 
 166              		.loc 1 92 15 view .LVU56
 167 0086 F3E7     		b	.L1
 168              	.L10:
 169              		.align	2
 170              	.L9:
 171 0088 00000000 		.word	_ux_hcd_stm32_entry
 172 008c 00000000 		.word	_ux_system_host
 173              		.cfi_endproc
 174              	.LFE143:
 176              		.text
 177              	.Letext0:
 178              		.file 2 "c:\\gcc-arm-none-eabi\\arm-none-eabi\\include\\machine\\_default_types.h"
 179              		.file 3 "c:\\gcc-arm-none-eabi\\arm-none-eabi\\include\\sys\\_stdint.h"
 180              		.file 4 "Middlewares/ST/threadx/ports/cortex_m4/gnu/inc/tx_port.h"
 181              		.file 5 "Middlewares/ST/threadx/common/inc/tx_api.h"
 182              		.file 6 "Middlewares/ST/usbx/common/core/inc/ux_api.h"
 183              		.file 7 "Drivers/CMSIS/Device/ST/STM32L4xx/Include/stm32l4r5xx.h"
 184              		.file 8 "Drivers/STM32L4xx_HAL_Driver/Inc/stm32l4xx_hal_def.h"
 185              		.file 9 "Drivers/STM32L4xx_HAL_Driver/Inc/stm32l4xx_ll_usb.h"
ARM GAS  C:\Users\HP\AppData\Local\Temp\ccqAfmoc.s 			page 7


 186              		.file 10 "Drivers/STM32L4xx_HAL_Driver/Inc/stm32l4xx_hal_hcd.h"
 187              		.file 11 "Middlewares/ST/usbx/common/usbx_stm32_host_controllers/ux_hcd_stm32.h"
 188              		.file 12 "Middlewares/ST/usbx/common/core/inc/ux_system.h"
 189              		.file 13 "Middlewares/ST/usbx/common/core/inc/ux_utility.h"
ARM GAS  C:\Users\HP\AppData\Local\Temp\ccqAfmoc.s 			page 8

