ARM GAS  C:\Users\HP\AppData\Local\Temp\cc08XQZI.s 			page 1


   1              		.cpu cortex-m4
   2              		.arch armv7e-m
   3              		.fpu fpv4-sp-d16
   4              		.eabi_attribute 27, 1
   5              		.eabi_attribute 28, 1
   6              		.eabi_attribute 20, 1
   7              		.eabi_attribute 21, 1
   8              		.eabi_attribute 23, 3
   9              		.eabi_attribute 24, 1
  10              		.eabi_attribute 25, 1
  11              		.eabi_attribute 26, 1
  12              		.eabi_attribute 30, 1
  13              		.eabi_attribute 34, 1
  14              		.eabi_attribute 18, 4
  15              		.file	"ux_host_msc.c"
  16              		.text
  17              	.Ltext0:
  18              		.cfi_sections	.debug_frame
  19              		.section	.rodata.msc_process_thread_entry.str1.4,"aMS",%progbits,1
  20              		.align	2
  21              	.LC0:
  22 0000 0A2A2A2A 		.ascii	"\012*** Start Files operations ***\000"
  22      20537461 
  22      72742046 
  22      696C6573 
  22      206F7065 
  23              		.align	2
  24              	.LC1:
  25 0020 46696C65 		.ascii	"File TEST.TXT Created \000"
  25      20544553 
  25      542E5458 
  25      54204372 
  25      65617465 
  26 0037 00       		.align	2
  27              	.LC2:
  28 0038 57726974 		.ascii	"Write Process ...... \000"
  28      65205072 
  28      6F636573 
  28      73202E2E 
  28      2E2E2E2E 
  29 004e 0000     		.align	2
  30              	.LC3:
  31 0050 57726974 		.ascii	"Write Process Success \000"
  31      65205072 
  31      6F636573 
  31      73205375 
  31      63636573 
  32 0067 00       		.align	2
  33              	.LC4:
  34 0068 52656164 		.ascii	"Read Process  ...... \000"
  34      2050726F 
  34      63657373 
  34      20202E2E 
  34      2E2E2E2E 
  35 007e 0000     		.align	2
  36              	.LC5:
  37 0080 52656164 		.ascii	"Read Process Success  \000"
ARM GAS  C:\Users\HP\AppData\Local\Temp\cc08XQZI.s 			page 2


  37      2050726F 
  37      63657373 
  37      20537563 
  37      63657373 
  38 0097 00       		.align	2
  39              	.LC6:
  40 0098 46696C65 		.ascii	"File Closed \000"
  40      20436C6F 
  40      73656420 
  40      00
  41 00a5 000000   		.align	2
  42              	.LC7:
  43 00a8 2A2A2A20 		.ascii	"*** End Files operations ***\000"
  43      456E6420 
  43      46696C65 
  43      73206F70 
  43      65726174 
  44 00c5 000000   		.align	2
  45              	.LC8:
  46 00c8 4552524F 		.ascii	"ERROR: \000"
  46      523A2000 
  47              		.align	2
  48              	.LC9:
  49 00d0 21212052 		.ascii	"!! Read Process Fail !! \000"
  49      65616420 
  49      50726F63 
  49      65737320 
  49      4661696C 
  50 00e9 000000   		.align	2
  51              	.LC10:
  52 00ec 21212057 		.ascii	"!! Write Process Fail !! \000"
  52      72697465 
  52      2050726F 
  52      63657373 
  52      20466169 
  53 0106 0000     		.align	2
  54              	.LC11:
  55 0108 20212120 		.ascii	" !! Could Not Create TEST.TXT File !! \000"
  55      436F756C 
  55      64204E6F 
  55      74204372 
  55      65617465 
  56              		.section	.text.msc_process_thread_entry,"ax",%progbits
  57              		.align	1
  58              		.global	msc_process_thread_entry
  59              		.syntax unified
  60              		.thumb
  61              		.thumb_func
  63              	msc_process_thread_entry:
  64              	.LVL0:
  65              	.LFB143:
  66              		.file 1 "USBX/App/ux_host_msc.c"
   1:USBX/App/ux_host_msc.c **** /* USER CODE BEGIN Header */
   2:USBX/App/ux_host_msc.c **** /**
   3:USBX/App/ux_host_msc.c ****   ******************************************************************************
   4:USBX/App/ux_host_msc.c ****   * @file    ux_host_msc.c
   5:USBX/App/ux_host_msc.c ****   * @author  MCD Application Team
ARM GAS  C:\Users\HP\AppData\Local\Temp\cc08XQZI.s 			page 3


   6:USBX/App/ux_host_msc.c ****   * @brief   USBX Host MSC applicative source file
   7:USBX/App/ux_host_msc.c ****   ******************************************************************************
   8:USBX/App/ux_host_msc.c ****   * @attention
   9:USBX/App/ux_host_msc.c ****   *
  10:USBX/App/ux_host_msc.c ****   * Copyright (c) 2021 STMicroelectronics.
  11:USBX/App/ux_host_msc.c ****   * All rights reserved.
  12:USBX/App/ux_host_msc.c ****   *
  13:USBX/App/ux_host_msc.c ****   * This software is licensed under terms that can be found in the LICENSE file
  14:USBX/App/ux_host_msc.c ****   * in the root directory of this software component.
  15:USBX/App/ux_host_msc.c ****   * If no LICENSE file comes with this software, it is provided AS-IS.
  16:USBX/App/ux_host_msc.c ****   *
  17:USBX/App/ux_host_msc.c ****   ******************************************************************************
  18:USBX/App/ux_host_msc.c ****   */
  19:USBX/App/ux_host_msc.c **** /* USER CODE END Header */
  20:USBX/App/ux_host_msc.c **** 
  21:USBX/App/ux_host_msc.c **** /* Includes ------------------------------------------------------------------*/
  22:USBX/App/ux_host_msc.c **** #include "ux_host_msc.h"
  23:USBX/App/ux_host_msc.c **** 
  24:USBX/App/ux_host_msc.c **** /* Private includes ----------------------------------------------------------*/
  25:USBX/App/ux_host_msc.c **** /* USER CODE BEGIN Includes */
  26:USBX/App/ux_host_msc.c **** #include "app_usbx_host.h"
  27:USBX/App/ux_host_msc.c **** /* USER CODE END Includes */
  28:USBX/App/ux_host_msc.c **** 
  29:USBX/App/ux_host_msc.c **** /* Private typedef -----------------------------------------------------------*/
  30:USBX/App/ux_host_msc.c **** /* USER CODE BEGIN PTD */
  31:USBX/App/ux_host_msc.c **** 
  32:USBX/App/ux_host_msc.c **** /* USER CODE END PTD */
  33:USBX/App/ux_host_msc.c **** 
  34:USBX/App/ux_host_msc.c **** /* Private define ------------------------------------------------------------*/
  35:USBX/App/ux_host_msc.c **** /* USER CODE BEGIN PD */
  36:USBX/App/ux_host_msc.c **** 
  37:USBX/App/ux_host_msc.c **** /* USER CODE END PD */
  38:USBX/App/ux_host_msc.c **** 
  39:USBX/App/ux_host_msc.c **** /* Private macro -------------------------------------------------------------*/
  40:USBX/App/ux_host_msc.c **** /* USER CODE BEGIN PM */
  41:USBX/App/ux_host_msc.c **** 
  42:USBX/App/ux_host_msc.c **** /* USER CODE END PM */
  43:USBX/App/ux_host_msc.c **** 
  44:USBX/App/ux_host_msc.c **** /* Private variables ---------------------------------------------------------*/
  45:USBX/App/ux_host_msc.c **** /* USER CODE BEGIN PV */
  46:USBX/App/ux_host_msc.c **** extern FX_MEDIA *media;
  47:USBX/App/ux_host_msc.c **** extern TX_EVENT_FLAGS_GROUP ux_app_EventFlag;
  48:USBX/App/ux_host_msc.c **** /* USER CODE END PV */
  49:USBX/App/ux_host_msc.c **** 
  50:USBX/App/ux_host_msc.c **** /* Private function prototypes -----------------------------------------------*/
  51:USBX/App/ux_host_msc.c **** /* USER CODE BEGIN PFP */
  52:USBX/App/ux_host_msc.c **** 
  53:USBX/App/ux_host_msc.c **** /* USER CODE END PFP */
  54:USBX/App/ux_host_msc.c **** 
  55:USBX/App/ux_host_msc.c **** /* Private user code ---------------------------------------------------------*/
  56:USBX/App/ux_host_msc.c **** /* USER CODE BEGIN 0 */
  57:USBX/App/ux_host_msc.c **** 
  58:USBX/App/ux_host_msc.c **** /* USER CODE END 0 */
  59:USBX/App/ux_host_msc.c **** 
  60:USBX/App/ux_host_msc.c **** /* USER CODE BEGIN 1 */
  61:USBX/App/ux_host_msc.c **** 
  62:USBX/App/ux_host_msc.c **** /**
ARM GAS  C:\Users\HP\AppData\Local\Temp\cc08XQZI.s 			page 4


  63:USBX/App/ux_host_msc.c ****   * @brief  Function implementing msc_process_thread_entry.
  64:USBX/App/ux_host_msc.c ****   * @param  thread_input: Not used
  65:USBX/App/ux_host_msc.c ****   * @retval none
  66:USBX/App/ux_host_msc.c ****   */
  67:USBX/App/ux_host_msc.c **** VOID msc_process_thread_entry(ULONG thread_input)
  68:USBX/App/ux_host_msc.c **** {
  67              		.loc 1 68 1 view -0
  68              		.cfi_startproc
  69              		@ Volatile: function does not return.
  70              		@ args = 0, pretend = 0, frame = 8
  71              		@ frame_needed = 0, uses_anonymous_args = 0
  72              		.loc 1 68 1 is_stmt 0 view .LVU1
  73 0000 00B5     		push	{lr}
  74              	.LCFI0:
  75              		.cfi_def_cfa_offset 4
  76              		.cfi_offset 14, -4
  77 0002 85B0     		sub	sp, sp, #20
  78              	.LCFI1:
  79              		.cfi_def_cfa_offset 24
  69:USBX/App/ux_host_msc.c ****   ULONG storage_media_flag = 0;
  80              		.loc 1 69 3 is_stmt 1 view .LVU2
  81              		.loc 1 69 9 is_stmt 0 view .LVU3
  82 0004 0023     		movs	r3, #0
  83 0006 0393     		str	r3, [sp, #12]
  84 0008 1FE0     		b	.L2
  85              	.LVL1:
  86              	.L10:
  70:USBX/App/ux_host_msc.c **** 
  71:USBX/App/ux_host_msc.c ****   while(1)
  72:USBX/App/ux_host_msc.c ****   {
  73:USBX/App/ux_host_msc.c ****     /* Wait until the requested flag STORAGE_MEDIA is received */
  74:USBX/App/ux_host_msc.c ****     if (tx_event_flags_get(&ux_app_EventFlag, STORAGE_MEDIA, TX_OR_CLEAR,
  75:USBX/App/ux_host_msc.c ****                            &storage_media_flag, TX_WAIT_FOREVER) != TX_SUCCESS)
  76:USBX/App/ux_host_msc.c ****     {
  77:USBX/App/ux_host_msc.c ****       Error_Handler();
  87              		.loc 1 77 7 is_stmt 1 view .LVU4
  88 000a FFF7FEFF 		bl	Error_Handler
  89              	.LVL2:
  90 000e 27E0     		b	.L3
  91              	.L7:
  78:USBX/App/ux_host_msc.c ****     }
  79:USBX/App/ux_host_msc.c **** 
  80:USBX/App/ux_host_msc.c ****     /* Start file operations once the media is connected */
  81:USBX/App/ux_host_msc.c ****     if (media != NULL)
  82:USBX/App/ux_host_msc.c ****     {
  83:USBX/App/ux_host_msc.c ****       /* Start File operations */
  84:USBX/App/ux_host_msc.c ****       USBH_UsrLog("\n*** Start Files operations ***\n");
  85:USBX/App/ux_host_msc.c **** 
  86:USBX/App/ux_host_msc.c ****       /* Create a file and check status */
  87:USBX/App/ux_host_msc.c ****       if (App_File_Create(media) == UX_SUCCESS)
  88:USBX/App/ux_host_msc.c ****       {
  89:USBX/App/ux_host_msc.c ****         USBH_UsrLog("File TEST.TXT Created \n");
  90:USBX/App/ux_host_msc.c **** 
  91:USBX/App/ux_host_msc.c ****         /* Start write File Operation */
  92:USBX/App/ux_host_msc.c ****         USBH_UsrLog("Write Process ...... \n");
  93:USBX/App/ux_host_msc.c **** 
  94:USBX/App/ux_host_msc.c ****         /* Check status */
ARM GAS  C:\Users\HP\AppData\Local\Temp\cc08XQZI.s 			page 5


  95:USBX/App/ux_host_msc.c ****         if (App_File_Write(media) == UX_SUCCESS)
  96:USBX/App/ux_host_msc.c ****         {
  97:USBX/App/ux_host_msc.c ****           USBH_UsrLog("Write Process Success \n");
  98:USBX/App/ux_host_msc.c **** 
  99:USBX/App/ux_host_msc.c ****           /* Start Read File Operation and comparison operation */
 100:USBX/App/ux_host_msc.c ****           USBH_UsrLog("Read Process  ...... \n");
 101:USBX/App/ux_host_msc.c **** 
 102:USBX/App/ux_host_msc.c ****           /* Check Read Operation */
 103:USBX/App/ux_host_msc.c ****           if (App_File_Read(media) == UX_SUCCESS)
 104:USBX/App/ux_host_msc.c ****           {
 105:USBX/App/ux_host_msc.c ****             USBH_UsrLog("Read Process Success  \n");
 106:USBX/App/ux_host_msc.c ****             USBH_UsrLog("File Closed \n");
 107:USBX/App/ux_host_msc.c ****             USBH_UsrLog("*** End Files operations ***\n")
 108:USBX/App/ux_host_msc.c ****           }
 109:USBX/App/ux_host_msc.c ****           else
 110:USBX/App/ux_host_msc.c ****           {
 111:USBX/App/ux_host_msc.c ****             USBH_ErrLog("!! Read Process Fail !! \n");
  92              		.loc 1 111 13 view .LVU5
  93 0010 3948     		ldr	r0, .L11
  94 0012 FFF7FEFF 		bl	printf
  95              	.LVL3:
  96              		.loc 1 111 13 view .LVU6
  97 0016 3948     		ldr	r0, .L11+4
  98 0018 FFF7FEFF 		bl	puts
  99              	.LVL4:
 100              		.loc 1 111 13 view .LVU7
 101 001c 0A20     		movs	r0, #10
 102 001e FFF7FEFF 		bl	putchar
 103              	.LVL5:
 104 0022 12E0     		b	.L2
 105              	.L6:
 112:USBX/App/ux_host_msc.c ****           }
 113:USBX/App/ux_host_msc.c ****         }
 114:USBX/App/ux_host_msc.c ****         else
 115:USBX/App/ux_host_msc.c ****         {
 116:USBX/App/ux_host_msc.c ****           USBH_ErrLog("!! Write Process Fail !! ");
 106              		.loc 1 116 11 discriminator 1 view .LVU8
 107 0024 3448     		ldr	r0, .L11
 108 0026 FFF7FEFF 		bl	printf
 109              	.LVL6:
 110              		.loc 1 116 11 discriminator 1 view .LVU9
 111 002a 3548     		ldr	r0, .L11+8
 112 002c FFF7FEFF 		bl	printf
 113              	.LVL7:
 114              		.loc 1 116 11 discriminator 1 view .LVU10
 115 0030 0A20     		movs	r0, #10
 116 0032 FFF7FEFF 		bl	putchar
 117              	.LVL8:
 118 0036 08E0     		b	.L2
 119              	.L5:
 117:USBX/App/ux_host_msc.c ****         }
 118:USBX/App/ux_host_msc.c **** 
 119:USBX/App/ux_host_msc.c ****       }
 120:USBX/App/ux_host_msc.c ****       else
 121:USBX/App/ux_host_msc.c ****       {
 122:USBX/App/ux_host_msc.c ****         USBH_ErrLog(" !! Could Not Create TEST.TXT File !! ");
 120              		.loc 1 122 9 discriminator 1 view .LVU11
ARM GAS  C:\Users\HP\AppData\Local\Temp\cc08XQZI.s 			page 6


 121 0038 2F48     		ldr	r0, .L11
 122 003a FFF7FEFF 		bl	printf
 123              	.LVL9:
 124              		.loc 1 122 9 discriminator 1 view .LVU12
 125 003e 3148     		ldr	r0, .L11+12
 126 0040 FFF7FEFF 		bl	printf
 127              	.LVL10:
 128              		.loc 1 122 9 discriminator 1 view .LVU13
 129 0044 0A20     		movs	r0, #10
 130 0046 FFF7FEFF 		bl	putchar
 131              	.LVL11:
 132              	.L2:
  71:USBX/App/ux_host_msc.c ****   {
 133              		.loc 1 71 3 view .LVU14
  74:USBX/App/ux_host_msc.c ****                            &storage_media_flag, TX_WAIT_FOREVER) != TX_SUCCESS)
 134              		.loc 1 74 5 view .LVU15
  74:USBX/App/ux_host_msc.c ****                            &storage_media_flag, TX_WAIT_FOREVER) != TX_SUCCESS)
 135              		.loc 1 74 9 is_stmt 0 view .LVU16
 136 004a 4FF0FF33 		mov	r3, #-1
 137 004e 0093     		str	r3, [sp]
 138 0050 03AB     		add	r3, sp, #12
 139 0052 0122     		movs	r2, #1
 140 0054 1146     		mov	r1, r2
 141 0056 2C48     		ldr	r0, .L11+16
 142 0058 FFF7FEFF 		bl	_txe_event_flags_get
 143              	.LVL12:
  74:USBX/App/ux_host_msc.c ****                            &storage_media_flag, TX_WAIT_FOREVER) != TX_SUCCESS)
 144              		.loc 1 74 8 view .LVU17
 145 005c 0028     		cmp	r0, #0
 146 005e D4D1     		bne	.L10
 147              	.L3:
  81:USBX/App/ux_host_msc.c ****     {
 148              		.loc 1 81 5 is_stmt 1 view .LVU18
  81:USBX/App/ux_host_msc.c ****     {
 149              		.loc 1 81 15 is_stmt 0 view .LVU19
 150 0060 2A4B     		ldr	r3, .L11+20
 151 0062 1B68     		ldr	r3, [r3]
  81:USBX/App/ux_host_msc.c ****     {
 152              		.loc 1 81 8 view .LVU20
 153 0064 002B     		cmp	r3, #0
 154 0066 42D0     		beq	.L4
  84:USBX/App/ux_host_msc.c **** 
 155              		.loc 1 84 7 is_stmt 1 view .LVU21
 156 0068 2948     		ldr	r0, .L11+24
 157 006a FFF7FEFF 		bl	puts
 158              	.LVL13:
  84:USBX/App/ux_host_msc.c **** 
 159              		.loc 1 84 7 view .LVU22
 160 006e 0A20     		movs	r0, #10
 161 0070 FFF7FEFF 		bl	putchar
 162              	.LVL14:
  84:USBX/App/ux_host_msc.c **** 
 163              		.loc 1 84 56 view .LVU23
  87:USBX/App/ux_host_msc.c ****       {
 164              		.loc 1 87 7 view .LVU24
  87:USBX/App/ux_host_msc.c ****       {
 165              		.loc 1 87 11 is_stmt 0 view .LVU25
ARM GAS  C:\Users\HP\AppData\Local\Temp\cc08XQZI.s 			page 7


 166 0074 254B     		ldr	r3, .L11+20
 167 0076 1868     		ldr	r0, [r3]
 168 0078 FFF7FEFF 		bl	App_File_Create
 169              	.LVL15:
  87:USBX/App/ux_host_msc.c ****       {
 170              		.loc 1 87 10 view .LVU26
 171 007c 0028     		cmp	r0, #0
 172 007e DBD1     		bne	.L5
  89:USBX/App/ux_host_msc.c **** 
 173              		.loc 1 89 9 is_stmt 1 view .LVU27
 174 0080 2448     		ldr	r0, .L11+28
 175 0082 FFF7FEFF 		bl	puts
 176              	.LVL16:
  89:USBX/App/ux_host_msc.c **** 
 177              		.loc 1 89 9 view .LVU28
 178 0086 0A20     		movs	r0, #10
 179 0088 FFF7FEFF 		bl	putchar
 180              	.LVL17:
  89:USBX/App/ux_host_msc.c **** 
 181              		.loc 1 89 48 view .LVU29
  92:USBX/App/ux_host_msc.c **** 
 182              		.loc 1 92 9 view .LVU30
 183 008c 2248     		ldr	r0, .L11+32
 184 008e FFF7FEFF 		bl	puts
 185              	.LVL18:
  92:USBX/App/ux_host_msc.c **** 
 186              		.loc 1 92 9 view .LVU31
 187 0092 0A20     		movs	r0, #10
 188 0094 FFF7FEFF 		bl	putchar
 189              	.LVL19:
  92:USBX/App/ux_host_msc.c **** 
 190              		.loc 1 92 47 view .LVU32
  95:USBX/App/ux_host_msc.c ****         {
 191              		.loc 1 95 9 view .LVU33
  95:USBX/App/ux_host_msc.c ****         {
 192              		.loc 1 95 13 is_stmt 0 view .LVU34
 193 0098 1C4B     		ldr	r3, .L11+20
 194 009a 1868     		ldr	r0, [r3]
 195 009c FFF7FEFF 		bl	App_File_Write
 196              	.LVL20:
  95:USBX/App/ux_host_msc.c ****         {
 197              		.loc 1 95 12 view .LVU35
 198 00a0 0028     		cmp	r0, #0
 199 00a2 BFD1     		bne	.L6
  97:USBX/App/ux_host_msc.c **** 
 200              		.loc 1 97 11 is_stmt 1 view .LVU36
 201 00a4 1D48     		ldr	r0, .L11+36
 202 00a6 FFF7FEFF 		bl	puts
 203              	.LVL21:
  97:USBX/App/ux_host_msc.c **** 
 204              		.loc 1 97 11 view .LVU37
 205 00aa 0A20     		movs	r0, #10
 206 00ac FFF7FEFF 		bl	putchar
 207              	.LVL22:
  97:USBX/App/ux_host_msc.c **** 
 208              		.loc 1 97 50 view .LVU38
 100:USBX/App/ux_host_msc.c **** 
ARM GAS  C:\Users\HP\AppData\Local\Temp\cc08XQZI.s 			page 8


 209              		.loc 1 100 11 view .LVU39
 210 00b0 1B48     		ldr	r0, .L11+40
 211 00b2 FFF7FEFF 		bl	puts
 212              	.LVL23:
 100:USBX/App/ux_host_msc.c **** 
 213              		.loc 1 100 11 view .LVU40
 214 00b6 0A20     		movs	r0, #10
 215 00b8 FFF7FEFF 		bl	putchar
 216              	.LVL24:
 100:USBX/App/ux_host_msc.c **** 
 217              		.loc 1 100 49 view .LVU41
 103:USBX/App/ux_host_msc.c ****           {
 218              		.loc 1 103 11 view .LVU42
 103:USBX/App/ux_host_msc.c ****           {
 219              		.loc 1 103 15 is_stmt 0 view .LVU43
 220 00bc 134B     		ldr	r3, .L11+20
 221 00be 1868     		ldr	r0, [r3]
 222 00c0 FFF7FEFF 		bl	App_File_Read
 223              	.LVL25:
 103:USBX/App/ux_host_msc.c ****           {
 224              		.loc 1 103 14 view .LVU44
 225 00c4 0028     		cmp	r0, #0
 226 00c6 A3D1     		bne	.L7
 105:USBX/App/ux_host_msc.c ****             USBH_UsrLog("File Closed \n");
 227              		.loc 1 105 13 is_stmt 1 view .LVU45
 228 00c8 1648     		ldr	r0, .L11+44
 229 00ca FFF7FEFF 		bl	puts
 230              	.LVL26:
 105:USBX/App/ux_host_msc.c ****             USBH_UsrLog("File Closed \n");
 231              		.loc 1 105 13 view .LVU46
 232 00ce 0A20     		movs	r0, #10
 233 00d0 FFF7FEFF 		bl	putchar
 234              	.LVL27:
 105:USBX/App/ux_host_msc.c ****             USBH_UsrLog("File Closed \n");
 235              		.loc 1 105 52 view .LVU47
 106:USBX/App/ux_host_msc.c ****             USBH_UsrLog("*** End Files operations ***\n")
 236              		.loc 1 106 13 view .LVU48
 237 00d4 1448     		ldr	r0, .L11+48
 238 00d6 FFF7FEFF 		bl	puts
 239              	.LVL28:
 106:USBX/App/ux_host_msc.c ****             USBH_UsrLog("*** End Files operations ***\n")
 240              		.loc 1 106 13 view .LVU49
 241 00da 0A20     		movs	r0, #10
 242 00dc FFF7FEFF 		bl	putchar
 243              	.LVL29:
 106:USBX/App/ux_host_msc.c ****             USBH_UsrLog("*** End Files operations ***\n")
 244              		.loc 1 106 42 view .LVU50
 107:USBX/App/ux_host_msc.c ****           }
 245              		.loc 1 107 13 view .LVU51
 246 00e0 1248     		ldr	r0, .L11+52
 247 00e2 FFF7FEFF 		bl	puts
 248              	.LVL30:
 107:USBX/App/ux_host_msc.c ****           }
 249              		.loc 1 107 13 view .LVU52
 250 00e6 0A20     		movs	r0, #10
 251 00e8 FFF7FEFF 		bl	putchar
 252              	.LVL31:
ARM GAS  C:\Users\HP\AppData\Local\Temp\cc08XQZI.s 			page 9


 253 00ec ADE7     		b	.L2
 254              	.L4:
 123:USBX/App/ux_host_msc.c ****       }
 124:USBX/App/ux_host_msc.c **** 
 125:USBX/App/ux_host_msc.c ****     }
 126:USBX/App/ux_host_msc.c ****     else
 127:USBX/App/ux_host_msc.c ****     {
 128:USBX/App/ux_host_msc.c ****       tx_thread_sleep(MS_TO_TICK(10));
 255              		.loc 1 128 7 view .LVU53
 256 00ee 0120     		movs	r0, #1
 257 00f0 FFF7FEFF 		bl	_tx_thread_sleep
 258              	.LVL32:
 259 00f4 A9E7     		b	.L2
 260              	.L12:
 261 00f6 00BF     		.align	2
 262              	.L11:
 263 00f8 C8000000 		.word	.LC8
 264 00fc D0000000 		.word	.LC9
 265 0100 EC000000 		.word	.LC10
 266 0104 08010000 		.word	.LC11
 267 0108 00000000 		.word	ux_app_EventFlag
 268 010c 00000000 		.word	media
 269 0110 00000000 		.word	.LC0
 270 0114 20000000 		.word	.LC1
 271 0118 38000000 		.word	.LC2
 272 011c 50000000 		.word	.LC3
 273 0120 68000000 		.word	.LC4
 274 0124 80000000 		.word	.LC5
 275 0128 98000000 		.word	.LC6
 276 012c A8000000 		.word	.LC7
 277              		.cfi_endproc
 278              	.LFE143:
 280              		.text
 281              	.Letext0:
 282              		.file 2 "Middlewares/ST/threadx/ports/cortex_m4/gnu/inc/tx_port.h"
 283              		.file 3 "Middlewares/ST/threadx/common/inc/tx_api.h"
 284              		.file 4 "Middlewares/ST/filex/common/inc/fx_api.h"
 285              		.file 5 "Core/Inc/main.h"
 286              		.file 6 "c:\\gcc-arm-none-eabi\\arm-none-eabi\\include\\stdio.h"
 287              		.file 7 "<built-in>"
 288              		.file 8 "FileX/App/app_filex.h"
ARM GAS  C:\Users\HP\AppData\Local\Temp\cc08XQZI.s 			page 10


DEFINED SYMBOLS
                            *ABS*:00000000 ux_host_msc.c
C:\Users\HP\AppData\Local\Temp\cc08XQZI.s:20     .rodata.msc_process_thread_entry.str1.4:00000000 $d
C:\Users\HP\AppData\Local\Temp\cc08XQZI.s:57     .text.msc_process_thread_entry:00000000 $t
C:\Users\HP\AppData\Local\Temp\cc08XQZI.s:63     .text.msc_process_thread_entry:00000000 msc_process_thread_entry
C:\Users\HP\AppData\Local\Temp\cc08XQZI.s:263    .text.msc_process_thread_entry:000000f8 $d

UNDEFINED SYMBOLS
Error_Handler
printf
puts
putchar
_txe_event_flags_get
App_File_Create
App_File_Write
App_File_Read
_tx_thread_sleep
ux_app_EventFlag
media
