ARM GAS  C:\Users\HP\AppData\Local\Temp\ccdzaTfd.s 			page 1


   1              		.cpu cortex-m4
   2              		.arch armv7e-m
   3              		.fpu fpv4-sp-d16
   4              		.eabi_attribute 27, 1
   5              		.eabi_attribute 28, 1
   6              		.eabi_attribute 20, 1
   7              		.eabi_attribute 21, 1
   8              		.eabi_attribute 23, 3
   9              		.eabi_attribute 24, 1
  10              		.eabi_attribute 25, 1
  11              		.eabi_attribute 26, 1
  12              		.eabi_attribute 30, 1
  13              		.eabi_attribute 34, 1
  14              		.eabi_attribute 18, 4
  15              		.file	"ux_host_stack_device_configuration_reset.c"
  16              		.text
  17              	.Ltext0:
  18              		.cfi_sections	.debug_frame
  19              		.section	.text._ux_host_stack_device_configuration_reset,"ax",%progbits
  20              		.align	1
  21              		.global	_ux_host_stack_device_configuration_reset
  22              		.syntax unified
  23              		.thumb
  24              		.thumb_func
  26              	_ux_host_stack_device_configuration_reset:
  27              	.LVL0:
  28              	.LFB11:
  29              		.file 1 "Middlewares/ST/usbx/common/core/src/ux_host_stack_device_configuration_reset.c"
   1:Middlewares/ST/usbx/common/core/src/ux_host_stack_device_configuration_reset.c **** /**************************************************************************/
   2:Middlewares/ST/usbx/common/core/src/ux_host_stack_device_configuration_reset.c **** /*                                                                        */
   3:Middlewares/ST/usbx/common/core/src/ux_host_stack_device_configuration_reset.c **** /*       Copyright (c) Microsoft Corporation. All rights reserved.        */
   4:Middlewares/ST/usbx/common/core/src/ux_host_stack_device_configuration_reset.c **** /*                                                                        */
   5:Middlewares/ST/usbx/common/core/src/ux_host_stack_device_configuration_reset.c **** /*       This software is licensed under the Microsoft Software License   */
   6:Middlewares/ST/usbx/common/core/src/ux_host_stack_device_configuration_reset.c **** /*       Terms for Microsoft Azure RTOS. Full text of the license can be  */
   7:Middlewares/ST/usbx/common/core/src/ux_host_stack_device_configuration_reset.c **** /*       found in the LICENSE file at https://aka.ms/AzureRTOS_EULA       */
   8:Middlewares/ST/usbx/common/core/src/ux_host_stack_device_configuration_reset.c **** /*       and in the root directory of this software.                      */
   9:Middlewares/ST/usbx/common/core/src/ux_host_stack_device_configuration_reset.c **** /*                                                                        */
  10:Middlewares/ST/usbx/common/core/src/ux_host_stack_device_configuration_reset.c **** /**************************************************************************/
  11:Middlewares/ST/usbx/common/core/src/ux_host_stack_device_configuration_reset.c **** 
  12:Middlewares/ST/usbx/common/core/src/ux_host_stack_device_configuration_reset.c **** 
  13:Middlewares/ST/usbx/common/core/src/ux_host_stack_device_configuration_reset.c **** /**************************************************************************/
  14:Middlewares/ST/usbx/common/core/src/ux_host_stack_device_configuration_reset.c **** /**************************************************************************/
  15:Middlewares/ST/usbx/common/core/src/ux_host_stack_device_configuration_reset.c **** /**                                                                       */ 
  16:Middlewares/ST/usbx/common/core/src/ux_host_stack_device_configuration_reset.c **** /** USBX Component                                                        */ 
  17:Middlewares/ST/usbx/common/core/src/ux_host_stack_device_configuration_reset.c **** /**                                                                       */
  18:Middlewares/ST/usbx/common/core/src/ux_host_stack_device_configuration_reset.c **** /**   Host Stack                                                          */
  19:Middlewares/ST/usbx/common/core/src/ux_host_stack_device_configuration_reset.c **** /**                                                                       */
  20:Middlewares/ST/usbx/common/core/src/ux_host_stack_device_configuration_reset.c **** /**************************************************************************/
  21:Middlewares/ST/usbx/common/core/src/ux_host_stack_device_configuration_reset.c **** /**************************************************************************/
  22:Middlewares/ST/usbx/common/core/src/ux_host_stack_device_configuration_reset.c **** 
  23:Middlewares/ST/usbx/common/core/src/ux_host_stack_device_configuration_reset.c **** 
  24:Middlewares/ST/usbx/common/core/src/ux_host_stack_device_configuration_reset.c **** /* Include necessary system files.  */
  25:Middlewares/ST/usbx/common/core/src/ux_host_stack_device_configuration_reset.c **** 
  26:Middlewares/ST/usbx/common/core/src/ux_host_stack_device_configuration_reset.c **** #define UX_SOURCE_CODE
  27:Middlewares/ST/usbx/common/core/src/ux_host_stack_device_configuration_reset.c **** 
  28:Middlewares/ST/usbx/common/core/src/ux_host_stack_device_configuration_reset.c **** #include "ux_api.h"
  29:Middlewares/ST/usbx/common/core/src/ux_host_stack_device_configuration_reset.c **** #include "ux_host_stack.h"
ARM GAS  C:\Users\HP\AppData\Local\Temp\ccdzaTfd.s 			page 2


  30:Middlewares/ST/usbx/common/core/src/ux_host_stack_device_configuration_reset.c **** 
  31:Middlewares/ST/usbx/common/core/src/ux_host_stack_device_configuration_reset.c **** 
  32:Middlewares/ST/usbx/common/core/src/ux_host_stack_device_configuration_reset.c **** /**************************************************************************/ 
  33:Middlewares/ST/usbx/common/core/src/ux_host_stack_device_configuration_reset.c **** /*                                                                        */ 
  34:Middlewares/ST/usbx/common/core/src/ux_host_stack_device_configuration_reset.c **** /*  FUNCTION                                               RELEASE        */ 
  35:Middlewares/ST/usbx/common/core/src/ux_host_stack_device_configuration_reset.c **** /*                                                                        */ 
  36:Middlewares/ST/usbx/common/core/src/ux_host_stack_device_configuration_reset.c **** /*    _ux_host_stack_device_configuration_reset           PORTABLE C      */ 
  37:Middlewares/ST/usbx/common/core/src/ux_host_stack_device_configuration_reset.c **** /*                                                           6.1.12       */
  38:Middlewares/ST/usbx/common/core/src/ux_host_stack_device_configuration_reset.c **** /*  AUTHOR                                                                */
  39:Middlewares/ST/usbx/common/core/src/ux_host_stack_device_configuration_reset.c **** /*                                                                        */
  40:Middlewares/ST/usbx/common/core/src/ux_host_stack_device_configuration_reset.c **** /*    Chaoqiong Xiao, Microsoft Corporation                               */
  41:Middlewares/ST/usbx/common/core/src/ux_host_stack_device_configuration_reset.c **** /*                                                                        */
  42:Middlewares/ST/usbx/common/core/src/ux_host_stack_device_configuration_reset.c **** /*  DESCRIPTION                                                           */
  43:Middlewares/ST/usbx/common/core/src/ux_host_stack_device_configuration_reset.c **** /*                                                                        */ 
  44:Middlewares/ST/usbx/common/core/src/ux_host_stack_device_configuration_reset.c **** /*    This function resets the configuration of the device to zero.       */
  45:Middlewares/ST/usbx/common/core/src/ux_host_stack_device_configuration_reset.c **** /*                                                                        */ 
  46:Middlewares/ST/usbx/common/core/src/ux_host_stack_device_configuration_reset.c **** /*  INPUT                                                                 */ 
  47:Middlewares/ST/usbx/common/core/src/ux_host_stack_device_configuration_reset.c **** /*                                                                        */ 
  48:Middlewares/ST/usbx/common/core/src/ux_host_stack_device_configuration_reset.c **** /*    configuration                          Pointer to configuration     */ 
  49:Middlewares/ST/usbx/common/core/src/ux_host_stack_device_configuration_reset.c **** /*                                                                        */ 
  50:Middlewares/ST/usbx/common/core/src/ux_host_stack_device_configuration_reset.c **** /*  OUTPUT                                                                */ 
  51:Middlewares/ST/usbx/common/core/src/ux_host_stack_device_configuration_reset.c **** /*                                                                        */ 
  52:Middlewares/ST/usbx/common/core/src/ux_host_stack_device_configuration_reset.c **** /*    Completion Status                                                   */ 
  53:Middlewares/ST/usbx/common/core/src/ux_host_stack_device_configuration_reset.c **** /*                                                                        */ 
  54:Middlewares/ST/usbx/common/core/src/ux_host_stack_device_configuration_reset.c **** /*  CALLS                                                                 */ 
  55:Middlewares/ST/usbx/common/core/src/ux_host_stack_device_configuration_reset.c **** /*                                                                        */ 
  56:Middlewares/ST/usbx/common/core/src/ux_host_stack_device_configuration_reset.c **** /*    _ux_host_stack_configuration_instance_delete                        */
  57:Middlewares/ST/usbx/common/core/src/ux_host_stack_device_configuration_reset.c **** /*                                           Delete configuration instance*/ 
  58:Middlewares/ST/usbx/common/core/src/ux_host_stack_device_configuration_reset.c **** /*                                                                        */ 
  59:Middlewares/ST/usbx/common/core/src/ux_host_stack_device_configuration_reset.c **** /*  CALLED BY                                                             */ 
  60:Middlewares/ST/usbx/common/core/src/ux_host_stack_device_configuration_reset.c **** /*                                                                        */ 
  61:Middlewares/ST/usbx/common/core/src/ux_host_stack_device_configuration_reset.c **** /*    USBX Components                                                     */ 
  62:Middlewares/ST/usbx/common/core/src/ux_host_stack_device_configuration_reset.c **** /*                                                                        */ 
  63:Middlewares/ST/usbx/common/core/src/ux_host_stack_device_configuration_reset.c **** /*  RELEASE HISTORY                                                       */ 
  64:Middlewares/ST/usbx/common/core/src/ux_host_stack_device_configuration_reset.c **** /*                                                                        */ 
  65:Middlewares/ST/usbx/common/core/src/ux_host_stack_device_configuration_reset.c **** /*    DATE              NAME                      DESCRIPTION             */ 
  66:Middlewares/ST/usbx/common/core/src/ux_host_stack_device_configuration_reset.c **** /*                                                                        */ 
  67:Middlewares/ST/usbx/common/core/src/ux_host_stack_device_configuration_reset.c **** /*  05-19-2020     Chaoqiong Xiao           Initial Version 6.0           */
  68:Middlewares/ST/usbx/common/core/src/ux_host_stack_device_configuration_reset.c **** /*  09-30-2020     Chaoqiong Xiao           Modified comment(s),          */
  69:Middlewares/ST/usbx/common/core/src/ux_host_stack_device_configuration_reset.c **** /*                                            resulting in version 6.1    */
  70:Middlewares/ST/usbx/common/core/src/ux_host_stack_device_configuration_reset.c **** /*  02-02-2021     Chaoqiong Xiao           Modified comment(s),          */
  71:Middlewares/ST/usbx/common/core/src/ux_host_stack_device_configuration_reset.c **** /*                                            used pointer for current    */
  72:Middlewares/ST/usbx/common/core/src/ux_host_stack_device_configuration_reset.c **** /*                                            selected configuration,     */
  73:Middlewares/ST/usbx/common/core/src/ux_host_stack_device_configuration_reset.c **** /*                                            resulting in version 6.1.4  */
  74:Middlewares/ST/usbx/common/core/src/ux_host_stack_device_configuration_reset.c **** /*  01-31-2022     Chaoqiong Xiao           Modified comment(s),          */
  75:Middlewares/ST/usbx/common/core/src/ux_host_stack_device_configuration_reset.c **** /*                                            fixed device state support, */
  76:Middlewares/ST/usbx/common/core/src/ux_host_stack_device_configuration_reset.c **** /*                                            reset device power source,  */
  77:Middlewares/ST/usbx/common/core/src/ux_host_stack_device_configuration_reset.c **** /*                                            resulting in version 6.1.10 */
  78:Middlewares/ST/usbx/common/core/src/ux_host_stack_device_configuration_reset.c **** /*  07-29-2022     Chaoqiong Xiao           Modified comment(s),          */
  79:Middlewares/ST/usbx/common/core/src/ux_host_stack_device_configuration_reset.c **** /*                                            reset shared device config  */
  80:Middlewares/ST/usbx/common/core/src/ux_host_stack_device_configuration_reset.c **** /*                                            descriptor for enum scan,   */
  81:Middlewares/ST/usbx/common/core/src/ux_host_stack_device_configuration_reset.c **** /*                                            resulting in version 6.1.12 */
  82:Middlewares/ST/usbx/common/core/src/ux_host_stack_device_configuration_reset.c **** /*                                                                        */
  83:Middlewares/ST/usbx/common/core/src/ux_host_stack_device_configuration_reset.c **** /**************************************************************************/
  84:Middlewares/ST/usbx/common/core/src/ux_host_stack_device_configuration_reset.c **** UINT  _ux_host_stack_device_configuration_reset(UX_DEVICE *device)
  85:Middlewares/ST/usbx/common/core/src/ux_host_stack_device_configuration_reset.c **** {
  30              		.loc 1 85 1 view -0
ARM GAS  C:\Users\HP\AppData\Local\Temp\ccdzaTfd.s 			page 3


  31              		.cfi_startproc
  32              		@ args = 0, pretend = 0, frame = 0
  33              		@ frame_needed = 0, uses_anonymous_args = 0
  34              		.loc 1 85 1 is_stmt 0 view .LVU1
  35 0000 38B5     		push	{r3, r4, r5, lr}
  36              	.LCFI0:
  37              		.cfi_def_cfa_offset 16
  38              		.cfi_offset 3, -16
  39              		.cfi_offset 4, -12
  40              		.cfi_offset 5, -8
  41              		.cfi_offset 14, -4
  42 0002 0446     		mov	r4, r0
  86:Middlewares/ST/usbx/common/core/src/ux_host_stack_device_configuration_reset.c **** 
  87:Middlewares/ST/usbx/common/core/src/ux_host_stack_device_configuration_reset.c **** UX_TRANSFER             *transfer_request;
  43              		.loc 1 87 1 is_stmt 1 view .LVU2
  88:Middlewares/ST/usbx/common/core/src/ux_host_stack_device_configuration_reset.c **** UX_ENDPOINT             *control_endpoint;
  44              		.loc 1 88 1 view .LVU3
  89:Middlewares/ST/usbx/common/core/src/ux_host_stack_device_configuration_reset.c **** UX_CONFIGURATION        *current_configuration;
  45              		.loc 1 89 1 view .LVU4
  90:Middlewares/ST/usbx/common/core/src/ux_host_stack_device_configuration_reset.c **** UINT                    status;
  46              		.loc 1 90 1 view .LVU5
  91:Middlewares/ST/usbx/common/core/src/ux_host_stack_device_configuration_reset.c ****     
  92:Middlewares/ST/usbx/common/core/src/ux_host_stack_device_configuration_reset.c ****     /* If trace is enabled, insert this event into the trace buffer.  */
  93:Middlewares/ST/usbx/common/core/src/ux_host_stack_device_configuration_reset.c ****     UX_TRACE_IN_LINE_INSERT(UX_TRACE_HOST_STACK_DEVICE_CONFIGURATION_SELECT, device, 0, 0, 0, UX_TR
  94:Middlewares/ST/usbx/common/core/src/ux_host_stack_device_configuration_reset.c **** 
  95:Middlewares/ST/usbx/common/core/src/ux_host_stack_device_configuration_reset.c ****     /* A configuration is selected. Retrieve the pointer to the control endpoint 
  96:Middlewares/ST/usbx/common/core/src/ux_host_stack_device_configuration_reset.c ****        and its transfer request.  */
  97:Middlewares/ST/usbx/common/core/src/ux_host_stack_device_configuration_reset.c ****     control_endpoint =  &device -> ux_device_control_endpoint;
  47              		.loc 1 97 5 view .LVU6
  48              	.LVL1:
  98:Middlewares/ST/usbx/common/core/src/ux_host_stack_device_configuration_reset.c ****     transfer_request =  &control_endpoint -> ux_endpoint_transfer_request;
  49              		.loc 1 98 5 view .LVU7
  50              		.loc 1 98 22 is_stmt 0 view .LVU8
  51 0004 00F1B405 		add	r5, r0, #180
  52              	.LVL2:
  99:Middlewares/ST/usbx/common/core/src/ux_host_stack_device_configuration_reset.c **** 
 100:Middlewares/ST/usbx/common/core/src/ux_host_stack_device_configuration_reset.c ****     /* Check for the state of the device . If the device is already configured, 
 101:Middlewares/ST/usbx/common/core/src/ux_host_stack_device_configuration_reset.c ****        we need to cancel the existing configuration before resetting it.   */
 102:Middlewares/ST/usbx/common/core/src/ux_host_stack_device_configuration_reset.c ****     if (device -> ux_device_state == UX_DEVICE_CONFIGURED)
  53              		.loc 1 102 5 is_stmt 1 view .LVU9
  54              		.loc 1 102 16 is_stmt 0 view .LVU10
  55 0008 8368     		ldr	r3, [r0, #8]
  56              		.loc 1 102 8 view .LVU11
  57 000a 032B     		cmp	r3, #3
  58 000c 1CD0     		beq	.L5
  59              	.LVL3:
  60              	.L2:
 103:Middlewares/ST/usbx/common/core/src/ux_host_stack_device_configuration_reset.c ****     {
 104:Middlewares/ST/usbx/common/core/src/ux_host_stack_device_configuration_reset.c **** 
 105:Middlewares/ST/usbx/common/core/src/ux_host_stack_device_configuration_reset.c ****         /* The device is configured. Get the first configuration pointer.  */
 106:Middlewares/ST/usbx/common/core/src/ux_host_stack_device_configuration_reset.c ****         current_configuration =  device -> ux_device_current_configuration;
 107:Middlewares/ST/usbx/common/core/src/ux_host_stack_device_configuration_reset.c **** 
 108:Middlewares/ST/usbx/common/core/src/ux_host_stack_device_configuration_reset.c ****         /* Deselect this instance */
 109:Middlewares/ST/usbx/common/core/src/ux_host_stack_device_configuration_reset.c ****         _ux_host_stack_configuration_instance_delete(current_configuration);
 110:Middlewares/ST/usbx/common/core/src/ux_host_stack_device_configuration_reset.c ****     }
 111:Middlewares/ST/usbx/common/core/src/ux_host_stack_device_configuration_reset.c **** 
 112:Middlewares/ST/usbx/common/core/src/ux_host_stack_device_configuration_reset.c ****     /* No configuration is selected now.  */
ARM GAS  C:\Users\HP\AppData\Local\Temp\ccdzaTfd.s 			page 4


 113:Middlewares/ST/usbx/common/core/src/ux_host_stack_device_configuration_reset.c ****     device -> ux_device_current_configuration = UX_NULL;
  61              		.loc 1 113 5 is_stmt 1 view .LVU12
  62              		.loc 1 113 47 is_stmt 0 view .LVU13
  63 000e 0023     		movs	r3, #0
  64 0010 A361     		str	r3, [r4, #24]
 114:Middlewares/ST/usbx/common/core/src/ux_host_stack_device_configuration_reset.c **** 
 115:Middlewares/ST/usbx/common/core/src/ux_host_stack_device_configuration_reset.c ****     /* Packed descriptor are not valid now.  */
 116:Middlewares/ST/usbx/common/core/src/ux_host_stack_device_configuration_reset.c ****     if (device -> ux_device_packed_configuration)
  65              		.loc 1 116 5 is_stmt 1 view .LVU14
  66              		.loc 1 116 16 is_stmt 0 view .LVU15
  67 0012 E069     		ldr	r0, [r4, #28]
  68              		.loc 1 116 8 view .LVU16
  69 0014 20B1     		cbz	r0, .L3
 117:Middlewares/ST/usbx/common/core/src/ux_host_stack_device_configuration_reset.c ****     {
 118:Middlewares/ST/usbx/common/core/src/ux_host_stack_device_configuration_reset.c ****         _ux_utility_memory_free(device -> ux_device_packed_configuration);
  70              		.loc 1 118 9 is_stmt 1 view .LVU17
  71 0016 FFF7FEFF 		bl	_ux_utility_memory_free
  72              	.LVL4:
 119:Middlewares/ST/usbx/common/core/src/ux_host_stack_device_configuration_reset.c ****         device -> ux_device_packed_configuration = UX_NULL;
  73              		.loc 1 119 9 view .LVU18
  74              		.loc 1 119 50 is_stmt 0 view .LVU19
  75 001a 0023     		movs	r3, #0
  76 001c E361     		str	r3, [r4, #28]
 120:Middlewares/ST/usbx/common/core/src/ux_host_stack_device_configuration_reset.c ****         device -> ux_device_packed_configuration_keep_count = 0;
  77              		.loc 1 120 9 is_stmt 1 view .LVU20
  78              		.loc 1 120 61 is_stmt 0 view .LVU21
  79 001e 2362     		str	r3, [r4, #32]
  80              	.L3:
 121:Middlewares/ST/usbx/common/core/src/ux_host_stack_device_configuration_reset.c ****     }
 122:Middlewares/ST/usbx/common/core/src/ux_host_stack_device_configuration_reset.c **** 
 123:Middlewares/ST/usbx/common/core/src/ux_host_stack_device_configuration_reset.c ****     /* Set state of device to ADDRESSED.  */
 124:Middlewares/ST/usbx/common/core/src/ux_host_stack_device_configuration_reset.c ****     device -> ux_device_state = UX_DEVICE_ADDRESSED;
  81              		.loc 1 124 5 is_stmt 1 view .LVU22
  82              		.loc 1 124 31 is_stmt 0 view .LVU23
  83 0020 0223     		movs	r3, #2
  84 0022 A360     		str	r3, [r4, #8]
 125:Middlewares/ST/usbx/common/core/src/ux_host_stack_device_configuration_reset.c **** 
 126:Middlewares/ST/usbx/common/core/src/ux_host_stack_device_configuration_reset.c ****     /* Reset power source.  */
 127:Middlewares/ST/usbx/common/core/src/ux_host_stack_device_configuration_reset.c ****     device -> ux_device_power_source = UX_DEVICE_BUS_POWERED;
  85              		.loc 1 127 5 is_stmt 1 view .LVU24
  86              		.loc 1 127 38 is_stmt 0 view .LVU25
  87 0024 0123     		movs	r3, #1
  88 0026 6361     		str	r3, [r4, #20]
 128:Middlewares/ST/usbx/common/core/src/ux_host_stack_device_configuration_reset.c **** 
 129:Middlewares/ST/usbx/common/core/src/ux_host_stack_device_configuration_reset.c ****     /* Create a transfer_request for the SET_CONFIGURATION request. No data for this request.  */
 130:Middlewares/ST/usbx/common/core/src/ux_host_stack_device_configuration_reset.c ****     transfer_request -> ux_transfer_request_requested_length =  0;
  89              		.loc 1 130 5 is_stmt 1 view .LVU26
  90              		.loc 1 130 62 is_stmt 0 view .LVU27
  91 0028 0023     		movs	r3, #0
  92 002a C4F8C030 		str	r3, [r4, #192]
 131:Middlewares/ST/usbx/common/core/src/ux_host_stack_device_configuration_reset.c ****     transfer_request -> ux_transfer_request_function =          UX_SET_CONFIGURATION;
  93              		.loc 1 131 5 is_stmt 1 view .LVU28
  94              		.loc 1 131 54 is_stmt 0 view .LVU29
  95 002e 0922     		movs	r2, #9
  96 0030 C4F8CC20 		str	r2, [r4, #204]
 132:Middlewares/ST/usbx/common/core/src/ux_host_stack_device_configuration_reset.c ****     transfer_request -> ux_transfer_request_type =              UX_REQUEST_OUT | UX_REQUEST_TYPE_ST
  97              		.loc 1 132 5 is_stmt 1 view .LVU30
ARM GAS  C:\Users\HP\AppData\Local\Temp\ccdzaTfd.s 			page 5


  98              		.loc 1 132 50 is_stmt 0 view .LVU31
  99 0034 C4F8C830 		str	r3, [r4, #200]
 133:Middlewares/ST/usbx/common/core/src/ux_host_stack_device_configuration_reset.c ****     transfer_request -> ux_transfer_request_value =             0;
 100              		.loc 1 133 5 is_stmt 1 view .LVU32
 101              		.loc 1 133 51 is_stmt 0 view .LVU33
 102 0038 C4F8D030 		str	r3, [r4, #208]
 134:Middlewares/ST/usbx/common/core/src/ux_host_stack_device_configuration_reset.c ****     transfer_request -> ux_transfer_request_index =             0;
 103              		.loc 1 134 5 is_stmt 1 view .LVU34
 104              		.loc 1 134 51 is_stmt 0 view .LVU35
 105 003c C4F8D430 		str	r3, [r4, #212]
 135:Middlewares/ST/usbx/common/core/src/ux_host_stack_device_configuration_reset.c **** 
 136:Middlewares/ST/usbx/common/core/src/ux_host_stack_device_configuration_reset.c ****     /* Send request to HCD layer.  */
 137:Middlewares/ST/usbx/common/core/src/ux_host_stack_device_configuration_reset.c ****     status =  _ux_host_stack_transfer_request(transfer_request);
 106              		.loc 1 137 5 is_stmt 1 view .LVU36
 107              		.loc 1 137 15 is_stmt 0 view .LVU37
 108 0040 2846     		mov	r0, r5
 109 0042 FFF7FEFF 		bl	_ux_host_stack_transfer_request
 110              	.LVL5:
 138:Middlewares/ST/usbx/common/core/src/ux_host_stack_device_configuration_reset.c **** 
 139:Middlewares/ST/usbx/common/core/src/ux_host_stack_device_configuration_reset.c ****     /* Return status.  */
 140:Middlewares/ST/usbx/common/core/src/ux_host_stack_device_configuration_reset.c ****     return(status);
 111              		.loc 1 140 5 is_stmt 1 view .LVU38
 141:Middlewares/ST/usbx/common/core/src/ux_host_stack_device_configuration_reset.c **** }
 112              		.loc 1 141 1 is_stmt 0 view .LVU39
 113 0046 38BD     		pop	{r3, r4, r5, pc}
 114              	.LVL6:
 115              	.L5:
 106:Middlewares/ST/usbx/common/core/src/ux_host_stack_device_configuration_reset.c **** 
 116              		.loc 1 106 9 is_stmt 1 view .LVU40
 109:Middlewares/ST/usbx/common/core/src/ux_host_stack_device_configuration_reset.c ****     }
 117              		.loc 1 109 9 view .LVU41
 118 0048 8069     		ldr	r0, [r0, #24]
 119              	.LVL7:
 109:Middlewares/ST/usbx/common/core/src/ux_host_stack_device_configuration_reset.c ****     }
 120              		.loc 1 109 9 is_stmt 0 view .LVU42
 121 004a FFF7FEFF 		bl	_ux_host_stack_configuration_instance_delete
 122              	.LVL8:
 109:Middlewares/ST/usbx/common/core/src/ux_host_stack_device_configuration_reset.c ****     }
 123              		.loc 1 109 9 view .LVU43
 124 004e DEE7     		b	.L2
 125              		.cfi_endproc
 126              	.LFE11:
 128              		.text
 129              	.Letext0:
 130              		.file 2 "Middlewares/ST/threadx/ports/cortex_m4/gnu/inc/tx_port.h"
 131              		.file 3 "Middlewares/ST/threadx/common/inc/tx_api.h"
 132              		.file 4 "Middlewares/ST/usbx/common/core/inc/ux_api.h"
 133              		.file 5 "Middlewares/ST/usbx/common/core/inc/ux_utility.h"
 134              		.file 6 "Middlewares/ST/usbx/common/core/inc/ux_host_stack.h"
ARM GAS  C:\Users\HP\AppData\Local\Temp\ccdzaTfd.s 			page 6

