ARM GAS  C:\Users\HP\AppData\Local\Temp\ccs5m9P6.s 			page 1


   1              		.cpu cortex-m4
   2              		.arch armv7e-m
   3              		.fpu fpv4-sp-d16
   4              		.eabi_attribute 27, 1
   5              		.eabi_attribute 28, 1
   6              		.eabi_attribute 20, 1
   7              		.eabi_attribute 21, 1
   8              		.eabi_attribute 23, 3
   9              		.eabi_attribute 24, 1
  10              		.eabi_attribute 25, 1
  11              		.eabi_attribute 26, 1
  12              		.eabi_attribute 30, 1
  13              		.eabi_attribute 34, 1
  14              		.eabi_attribute 18, 4
  15              		.file	"ux_host_class_storage_transport_bo.c"
  16              		.text
  17              	.Ltext0:
  18              		.cfi_sections	.debug_frame
  19              		.section	.text._ux_host_class_storage_transport_bo,"ax",%progbits
  20              		.align	1
  21              		.global	_ux_host_class_storage_transport_bo
  22              		.syntax unified
  23              		.thumb
  24              		.thumb_func
  26              	_ux_host_class_storage_transport_bo:
  27              	.LVL0:
  28              	.LFB11:
  29              		.file 1 "Middlewares/ST/usbx/common/usbx_host_classes/src/ux_host_class_storage_transport_bo.c"
   1:Middlewares/ST/usbx/common/usbx_host_classes/src/ux_host_class_storage_transport_bo.c **** /**************************************************************************/
   2:Middlewares/ST/usbx/common/usbx_host_classes/src/ux_host_class_storage_transport_bo.c **** /*                                                                        */
   3:Middlewares/ST/usbx/common/usbx_host_classes/src/ux_host_class_storage_transport_bo.c **** /*       Copyright (c) Microsoft Corporation. All rights reserved.        */
   4:Middlewares/ST/usbx/common/usbx_host_classes/src/ux_host_class_storage_transport_bo.c **** /*                                                                        */
   5:Middlewares/ST/usbx/common/usbx_host_classes/src/ux_host_class_storage_transport_bo.c **** /*       This software is licensed under the Microsoft Software License   */
   6:Middlewares/ST/usbx/common/usbx_host_classes/src/ux_host_class_storage_transport_bo.c **** /*       Terms for Microsoft Azure RTOS. Full text of the license can be  */
   7:Middlewares/ST/usbx/common/usbx_host_classes/src/ux_host_class_storage_transport_bo.c **** /*       found in the LICENSE file at https://aka.ms/AzureRTOS_EULA       */
   8:Middlewares/ST/usbx/common/usbx_host_classes/src/ux_host_class_storage_transport_bo.c **** /*       and in the root directory of this software.                      */
   9:Middlewares/ST/usbx/common/usbx_host_classes/src/ux_host_class_storage_transport_bo.c **** /*                                                                        */
  10:Middlewares/ST/usbx/common/usbx_host_classes/src/ux_host_class_storage_transport_bo.c **** /**************************************************************************/
  11:Middlewares/ST/usbx/common/usbx_host_classes/src/ux_host_class_storage_transport_bo.c **** 
  12:Middlewares/ST/usbx/common/usbx_host_classes/src/ux_host_class_storage_transport_bo.c **** 
  13:Middlewares/ST/usbx/common/usbx_host_classes/src/ux_host_class_storage_transport_bo.c **** /**************************************************************************/
  14:Middlewares/ST/usbx/common/usbx_host_classes/src/ux_host_class_storage_transport_bo.c **** /**************************************************************************/
  15:Middlewares/ST/usbx/common/usbx_host_classes/src/ux_host_class_storage_transport_bo.c **** /**                                                                       */
  16:Middlewares/ST/usbx/common/usbx_host_classes/src/ux_host_class_storage_transport_bo.c **** /** USBX Component                                                        */
  17:Middlewares/ST/usbx/common/usbx_host_classes/src/ux_host_class_storage_transport_bo.c **** /**                                                                       */
  18:Middlewares/ST/usbx/common/usbx_host_classes/src/ux_host_class_storage_transport_bo.c **** /**   Storage Class                                                       */
  19:Middlewares/ST/usbx/common/usbx_host_classes/src/ux_host_class_storage_transport_bo.c **** /**                                                                       */
  20:Middlewares/ST/usbx/common/usbx_host_classes/src/ux_host_class_storage_transport_bo.c **** /**************************************************************************/
  21:Middlewares/ST/usbx/common/usbx_host_classes/src/ux_host_class_storage_transport_bo.c **** /**************************************************************************/
  22:Middlewares/ST/usbx/common/usbx_host_classes/src/ux_host_class_storage_transport_bo.c **** 
  23:Middlewares/ST/usbx/common/usbx_host_classes/src/ux_host_class_storage_transport_bo.c **** 
  24:Middlewares/ST/usbx/common/usbx_host_classes/src/ux_host_class_storage_transport_bo.c **** /* Include necessary system files.  */
  25:Middlewares/ST/usbx/common/usbx_host_classes/src/ux_host_class_storage_transport_bo.c **** 
  26:Middlewares/ST/usbx/common/usbx_host_classes/src/ux_host_class_storage_transport_bo.c **** #define UX_SOURCE_CODE
  27:Middlewares/ST/usbx/common/usbx_host_classes/src/ux_host_class_storage_transport_bo.c **** 
  28:Middlewares/ST/usbx/common/usbx_host_classes/src/ux_host_class_storage_transport_bo.c **** #include "ux_api.h"
  29:Middlewares/ST/usbx/common/usbx_host_classes/src/ux_host_class_storage_transport_bo.c **** #include "ux_host_class_storage.h"
ARM GAS  C:\Users\HP\AppData\Local\Temp\ccs5m9P6.s 			page 2


  30:Middlewares/ST/usbx/common/usbx_host_classes/src/ux_host_class_storage_transport_bo.c **** #include "ux_host_stack.h"
  31:Middlewares/ST/usbx/common/usbx_host_classes/src/ux_host_class_storage_transport_bo.c **** 
  32:Middlewares/ST/usbx/common/usbx_host_classes/src/ux_host_class_storage_transport_bo.c **** 
  33:Middlewares/ST/usbx/common/usbx_host_classes/src/ux_host_class_storage_transport_bo.c **** #if !defined(UX_HOST_STANDALONE)
  34:Middlewares/ST/usbx/common/usbx_host_classes/src/ux_host_class_storage_transport_bo.c **** /**************************************************************************/
  35:Middlewares/ST/usbx/common/usbx_host_classes/src/ux_host_class_storage_transport_bo.c **** /*                                                                        */
  36:Middlewares/ST/usbx/common/usbx_host_classes/src/ux_host_class_storage_transport_bo.c **** /*  FUNCTION                                               RELEASE        */
  37:Middlewares/ST/usbx/common/usbx_host_classes/src/ux_host_class_storage_transport_bo.c **** /*                                                                        */
  38:Middlewares/ST/usbx/common/usbx_host_classes/src/ux_host_class_storage_transport_bo.c **** /*    _ux_host_class_storage_transport_bo                 PORTABLE C      */
  39:Middlewares/ST/usbx/common/usbx_host_classes/src/ux_host_class_storage_transport_bo.c **** /*                                                           6.1.10       */
  40:Middlewares/ST/usbx/common/usbx_host_classes/src/ux_host_class_storage_transport_bo.c **** /*  AUTHOR                                                                */
  41:Middlewares/ST/usbx/common/usbx_host_classes/src/ux_host_class_storage_transport_bo.c **** /*                                                                        */
  42:Middlewares/ST/usbx/common/usbx_host_classes/src/ux_host_class_storage_transport_bo.c **** /*    Chaoqiong Xiao, Microsoft Corporation                               */
  43:Middlewares/ST/usbx/common/usbx_host_classes/src/ux_host_class_storage_transport_bo.c **** /*                                                                        */
  44:Middlewares/ST/usbx/common/usbx_host_classes/src/ux_host_class_storage_transport_bo.c **** /*  DESCRIPTION                                                           */
  45:Middlewares/ST/usbx/common/usbx_host_classes/src/ux_host_class_storage_transport_bo.c **** /*                                                                        */
  46:Middlewares/ST/usbx/common/usbx_host_classes/src/ux_host_class_storage_transport_bo.c **** /*    This function is the transport layer for the Bulk Only protocol.    */
  47:Middlewares/ST/usbx/common/usbx_host_classes/src/ux_host_class_storage_transport_bo.c **** /*                                                                        */
  48:Middlewares/ST/usbx/common/usbx_host_classes/src/ux_host_class_storage_transport_bo.c **** /*  INPUT                                                                 */
  49:Middlewares/ST/usbx/common/usbx_host_classes/src/ux_host_class_storage_transport_bo.c **** /*                                                                        */
  50:Middlewares/ST/usbx/common/usbx_host_classes/src/ux_host_class_storage_transport_bo.c **** /*    storage                               Pointer to storage class      */
  51:Middlewares/ST/usbx/common/usbx_host_classes/src/ux_host_class_storage_transport_bo.c **** /*    data_pointer                          Pointer to data               */
  52:Middlewares/ST/usbx/common/usbx_host_classes/src/ux_host_class_storage_transport_bo.c **** /*                                                                        */
  53:Middlewares/ST/usbx/common/usbx_host_classes/src/ux_host_class_storage_transport_bo.c **** /*  OUTPUT                                                                */
  54:Middlewares/ST/usbx/common/usbx_host_classes/src/ux_host_class_storage_transport_bo.c **** /*                                                                        */
  55:Middlewares/ST/usbx/common/usbx_host_classes/src/ux_host_class_storage_transport_bo.c **** /*    The transfer completion status. It's possible for the transfer to   */
  56:Middlewares/ST/usbx/common/usbx_host_classes/src/ux_host_class_storage_transport_bo.c **** /*    succeed but for the command to fail. The CSW must be checked to     */
  57:Middlewares/ST/usbx/common/usbx_host_classes/src/ux_host_class_storage_transport_bo.c **** /*    determine command status.                                           */
  58:Middlewares/ST/usbx/common/usbx_host_classes/src/ux_host_class_storage_transport_bo.c **** /*                                                                        */
  59:Middlewares/ST/usbx/common/usbx_host_classes/src/ux_host_class_storage_transport_bo.c **** /*  CALLS                                                                 */
  60:Middlewares/ST/usbx/common/usbx_host_classes/src/ux_host_class_storage_transport_bo.c **** /*                                                                        */
  61:Middlewares/ST/usbx/common/usbx_host_classes/src/ux_host_class_storage_transport_bo.c **** /*    _ux_host_class_storage_device_reset   Reset mass storage            */
  62:Middlewares/ST/usbx/common/usbx_host_classes/src/ux_host_class_storage_transport_bo.c **** /*    _ux_host_stack_endpoint_reset         Reset endpoint                */
  63:Middlewares/ST/usbx/common/usbx_host_classes/src/ux_host_class_storage_transport_bo.c **** /*    _ux_host_stack_transfer_request       Process host stack transfer   */
  64:Middlewares/ST/usbx/common/usbx_host_classes/src/ux_host_class_storage_transport_bo.c **** /*    _ux_host_stack_transfer_request_abort Abort transfer request        */
  65:Middlewares/ST/usbx/common/usbx_host_classes/src/ux_host_class_storage_transport_bo.c **** /*    _ux_utility_memory_allocate           Allocate memory               */
  66:Middlewares/ST/usbx/common/usbx_host_classes/src/ux_host_class_storage_transport_bo.c **** /*    _ux_utility_memory_free               Free memory                   */
  67:Middlewares/ST/usbx/common/usbx_host_classes/src/ux_host_class_storage_transport_bo.c **** /*    _ux_utility_long_get                  Get 32-bit word               */
  68:Middlewares/ST/usbx/common/usbx_host_classes/src/ux_host_class_storage_transport_bo.c **** /*    _ux_host_semaphore_get                Get semaphore                 */
  69:Middlewares/ST/usbx/common/usbx_host_classes/src/ux_host_class_storage_transport_bo.c **** /*                                                                        */
  70:Middlewares/ST/usbx/common/usbx_host_classes/src/ux_host_class_storage_transport_bo.c **** /*  CALLED BY                                                             */
  71:Middlewares/ST/usbx/common/usbx_host_classes/src/ux_host_class_storage_transport_bo.c **** /*                                                                        */
  72:Middlewares/ST/usbx/common/usbx_host_classes/src/ux_host_class_storage_transport_bo.c **** /*    Storage Class                                                       */
  73:Middlewares/ST/usbx/common/usbx_host_classes/src/ux_host_class_storage_transport_bo.c **** /*                                                                        */
  74:Middlewares/ST/usbx/common/usbx_host_classes/src/ux_host_class_storage_transport_bo.c **** /*  RELEASE HISTORY                                                       */
  75:Middlewares/ST/usbx/common/usbx_host_classes/src/ux_host_class_storage_transport_bo.c **** /*                                                                        */
  76:Middlewares/ST/usbx/common/usbx_host_classes/src/ux_host_class_storage_transport_bo.c **** /*    DATE              NAME                      DESCRIPTION             */
  77:Middlewares/ST/usbx/common/usbx_host_classes/src/ux_host_class_storage_transport_bo.c **** /*                                                                        */
  78:Middlewares/ST/usbx/common/usbx_host_classes/src/ux_host_class_storage_transport_bo.c **** /*  05-19-2020     Chaoqiong Xiao           Initial Version 6.0           */
  79:Middlewares/ST/usbx/common/usbx_host_classes/src/ux_host_class_storage_transport_bo.c **** /*  09-30-2020     Chaoqiong Xiao           Modified comment(s),          */
  80:Middlewares/ST/usbx/common/usbx_host_classes/src/ux_host_class_storage_transport_bo.c **** /*                                            prefixed UX to MS_TO_TICK,  */
  81:Middlewares/ST/usbx/common/usbx_host_classes/src/ux_host_class_storage_transport_bo.c **** /*                                            resulting in version 6.1    */
  82:Middlewares/ST/usbx/common/usbx_host_classes/src/ux_host_class_storage_transport_bo.c **** /*  01-31-2022     Chaoqiong Xiao           Modified comment(s),          */
  83:Middlewares/ST/usbx/common/usbx_host_classes/src/ux_host_class_storage_transport_bo.c **** /*                                            refined macros names,       */
  84:Middlewares/ST/usbx/common/usbx_host_classes/src/ux_host_class_storage_transport_bo.c **** /*                                            resulting in version 6.1.10 */
  85:Middlewares/ST/usbx/common/usbx_host_classes/src/ux_host_class_storage_transport_bo.c **** /*                                                                        */
  86:Middlewares/ST/usbx/common/usbx_host_classes/src/ux_host_class_storage_transport_bo.c **** /**************************************************************************/
ARM GAS  C:\Users\HP\AppData\Local\Temp\ccs5m9P6.s 			page 3


  87:Middlewares/ST/usbx/common/usbx_host_classes/src/ux_host_class_storage_transport_bo.c **** UINT  _ux_host_class_storage_transport_bo(UX_HOST_CLASS_STORAGE *storage, UCHAR *data_pointer)
  88:Middlewares/ST/usbx/common/usbx_host_classes/src/ux_host_class_storage_transport_bo.c **** {
  30              		.loc 1 88 1 view -0
  31              		.cfi_startproc
  32              		@ args = 0, pretend = 0, frame = 0
  33              		@ frame_needed = 0, uses_anonymous_args = 0
  34              		.loc 1 88 1 is_stmt 0 view .LVU1
  35 0000 2DE9F047 		push	{r4, r5, r6, r7, r8, r9, r10, lr}
  36              	.LCFI0:
  37              		.cfi_def_cfa_offset 32
  38              		.cfi_offset 4, -32
  39              		.cfi_offset 5, -28
  40              		.cfi_offset 6, -24
  41              		.cfi_offset 7, -20
  42              		.cfi_offset 8, -16
  43              		.cfi_offset 9, -12
  44              		.cfi_offset 10, -8
  45              		.cfi_offset 14, -4
  46 0004 0646     		mov	r6, r0
  47 0006 8946     		mov	r9, r1
  89:Middlewares/ST/usbx/common/usbx_host_classes/src/ux_host_class_storage_transport_bo.c **** 
  90:Middlewares/ST/usbx/common/usbx_host_classes/src/ux_host_class_storage_transport_bo.c **** UX_TRANSFER     *transfer_request;
  48              		.loc 1 90 1 is_stmt 1 view .LVU2
  91:Middlewares/ST/usbx/common/usbx_host_classes/src/ux_host_class_storage_transport_bo.c **** UINT            status;
  49              		.loc 1 91 1 view .LVU3
  92:Middlewares/ST/usbx/common/usbx_host_classes/src/ux_host_class_storage_transport_bo.c **** UCHAR           *cbw;
  50              		.loc 1 92 1 view .LVU4
  93:Middlewares/ST/usbx/common/usbx_host_classes/src/ux_host_class_storage_transport_bo.c **** UINT            retry;
  51              		.loc 1 93 1 view .LVU5
  94:Middlewares/ST/usbx/common/usbx_host_classes/src/ux_host_class_storage_transport_bo.c **** ULONG           data_phase_requested_length;
  52              		.loc 1 94 1 view .LVU6
  95:Middlewares/ST/usbx/common/usbx_host_classes/src/ux_host_class_storage_transport_bo.c **** ULONG           data_phase_transfer_size;
  53              		.loc 1 95 1 view .LVU7
  96:Middlewares/ST/usbx/common/usbx_host_classes/src/ux_host_class_storage_transport_bo.c **** UCHAR           *get_status_response;
  54              		.loc 1 96 1 view .LVU8
  97:Middlewares/ST/usbx/common/usbx_host_classes/src/ux_host_class_storage_transport_bo.c **** 
  98:Middlewares/ST/usbx/common/usbx_host_classes/src/ux_host_class_storage_transport_bo.c **** 
  99:Middlewares/ST/usbx/common/usbx_host_classes/src/ux_host_class_storage_transport_bo.c ****     /* Get the pointer to the transfer request.  */
 100:Middlewares/ST/usbx/common/usbx_host_classes/src/ux_host_class_storage_transport_bo.c ****     transfer_request =  &storage -> ux_host_class_storage_bulk_out_endpoint -> ux_endpoint_transfer
  55              		.loc 1 100 5 view .LVU9
  56              		.loc 1 100 34 is_stmt 0 view .LVU10
  57 0008 0469     		ldr	r4, [r0, #16]
  58              		.loc 1 100 22 view .LVU11
  59 000a 04F13007 		add	r7, r4, #48
  60              	.LVL1:
 101:Middlewares/ST/usbx/common/usbx_host_classes/src/ux_host_class_storage_transport_bo.c **** 
 102:Middlewares/ST/usbx/common/usbx_host_classes/src/ux_host_class_storage_transport_bo.c ****     /* Use a pointer for the cbw, easier to manipulate.  */
 103:Middlewares/ST/usbx/common/usbx_host_classes/src/ux_host_class_storage_transport_bo.c ****     cbw =  (UCHAR *) storage -> ux_host_class_storage_cbw;
  61              		.loc 1 103 5 is_stmt 1 view .LVU12
  62              		.loc 1 103 9 is_stmt 0 view .LVU13
  63 000e 00F11C03 		add	r3, r0, #28
  64              	.LVL2:
 104:Middlewares/ST/usbx/common/usbx_host_classes/src/ux_host_class_storage_transport_bo.c **** 
 105:Middlewares/ST/usbx/common/usbx_host_classes/src/ux_host_class_storage_transport_bo.c ****     /* Fill in the transfer request parameters.  */
 106:Middlewares/ST/usbx/common/usbx_host_classes/src/ux_host_class_storage_transport_bo.c ****     transfer_request -> ux_transfer_request_data_pointer =      cbw;
  65              		.loc 1 106 5 is_stmt 1 view .LVU14
  66              		.loc 1 106 58 is_stmt 0 view .LVU15
ARM GAS  C:\Users\HP\AppData\Local\Temp\ccs5m9P6.s 			page 4


  67 0012 A363     		str	r3, [r4, #56]
 107:Middlewares/ST/usbx/common/usbx_host_classes/src/ux_host_class_storage_transport_bo.c ****     transfer_request -> ux_transfer_request_requested_length =  UX_HOST_CLASS_STORAGE_CBW_LENGTH;
  68              		.loc 1 107 5 is_stmt 1 view .LVU16
  69              		.loc 1 107 62 is_stmt 0 view .LVU17
  70 0014 1F23     		movs	r3, #31
  71              	.LVL3:
  72              		.loc 1 107 62 view .LVU18
  73 0016 E363     		str	r3, [r4, #60]
 108:Middlewares/ST/usbx/common/usbx_host_classes/src/ux_host_class_storage_transport_bo.c **** 
 109:Middlewares/ST/usbx/common/usbx_host_classes/src/ux_host_class_storage_transport_bo.c ****     /* It's possible for the bulk out endpoint to stall; in that case, we clear
 110:Middlewares/ST/usbx/common/usbx_host_classes/src/ux_host_class_storage_transport_bo.c ****        it and try again.  */
 111:Middlewares/ST/usbx/common/usbx_host_classes/src/ux_host_class_storage_transport_bo.c ****     for (retry =  0; ; retry++)
  74              		.loc 1 111 5 is_stmt 1 view .LVU19
  75              	.LVL4:
  76              		.loc 1 111 16 is_stmt 0 view .LVU20
  77 0018 4FF00008 		mov	r8, #0
  78              	.LVL5:
  79              	.L5:
 112:Middlewares/ST/usbx/common/usbx_host_classes/src/ux_host_class_storage_transport_bo.c ****     {
 113:Middlewares/ST/usbx/common/usbx_host_classes/src/ux_host_class_storage_transport_bo.c **** 
 114:Middlewares/ST/usbx/common/usbx_host_classes/src/ux_host_class_storage_transport_bo.c ****         /* Send the CBW on the bulk out endpoint.  */
 115:Middlewares/ST/usbx/common/usbx_host_classes/src/ux_host_class_storage_transport_bo.c ****         status =  _ux_host_stack_transfer_request(transfer_request);
  80              		.loc 1 115 9 is_stmt 1 view .LVU21
  81              		.loc 1 115 19 is_stmt 0 view .LVU22
  82 001c 3846     		mov	r0, r7
  83 001e FFF7FEFF 		bl	_ux_host_stack_transfer_request
  84              	.LVL6:
 116:Middlewares/ST/usbx/common/usbx_host_classes/src/ux_host_class_storage_transport_bo.c **** 
 117:Middlewares/ST/usbx/common/usbx_host_classes/src/ux_host_class_storage_transport_bo.c ****         /* Check the status of the command (NB, the command is not sent yet since
 118:Middlewares/ST/usbx/common/usbx_host_classes/src/ux_host_class_storage_transport_bo.c ****            the bulk transport is non blocking).  */
 119:Middlewares/ST/usbx/common/usbx_host_classes/src/ux_host_class_storage_transport_bo.c ****         if (status != UX_SUCCESS)
  85              		.loc 1 119 9 is_stmt 1 view .LVU23
  86              		.loc 1 119 12 is_stmt 0 view .LVU24
  87 0022 0546     		mov	r5, r0
  88 0024 D8B9     		cbnz	r0, .L1
 120:Middlewares/ST/usbx/common/usbx_host_classes/src/ux_host_class_storage_transport_bo.c ****             return(status);
 121:Middlewares/ST/usbx/common/usbx_host_classes/src/ux_host_class_storage_transport_bo.c **** 
 122:Middlewares/ST/usbx/common/usbx_host_classes/src/ux_host_class_storage_transport_bo.c ****         /* Wait for the completion of the transfer request.  */
 123:Middlewares/ST/usbx/common/usbx_host_classes/src/ux_host_class_storage_transport_bo.c ****         status =  _ux_host_semaphore_get(&transfer_request -> ux_transfer_request_semaphore, UX_MS_
  89              		.loc 1 123 9 is_stmt 1 view .LVU25
  90              		.loc 1 123 19 is_stmt 0 view .LVU26
  91 0026 4FF47A71 		mov	r1, #1000
  92 002a 04F17400 		add	r0, r4, #116
  93              	.LVL7:
  94              		.loc 1 123 19 view .LVU27
  95 002e FFF7FEFF 		bl	_ux_utility_semaphore_get
  96              	.LVL8:
 124:Middlewares/ST/usbx/common/usbx_host_classes/src/ux_host_class_storage_transport_bo.c **** 
 125:Middlewares/ST/usbx/common/usbx_host_classes/src/ux_host_class_storage_transport_bo.c ****         /* If the semaphore did not succeed we probably have a time out.  */
 126:Middlewares/ST/usbx/common/usbx_host_classes/src/ux_host_class_storage_transport_bo.c ****         if (status != UX_SUCCESS)
  97              		.loc 1 126 9 is_stmt 1 view .LVU28
  98              		.loc 1 126 12 is_stmt 0 view .LVU29
  99 0032 50B9     		cbnz	r0, .L28
 127:Middlewares/ST/usbx/common/usbx_host_classes/src/ux_host_class_storage_transport_bo.c ****         {
 128:Middlewares/ST/usbx/common/usbx_host_classes/src/ux_host_class_storage_transport_bo.c **** 
 129:Middlewares/ST/usbx/common/usbx_host_classes/src/ux_host_class_storage_transport_bo.c ****             /* All transfers pending need to abort. There may have been a partial transfer.  */
 130:Middlewares/ST/usbx/common/usbx_host_classes/src/ux_host_class_storage_transport_bo.c ****             _ux_host_stack_transfer_request_abort(transfer_request);
ARM GAS  C:\Users\HP\AppData\Local\Temp\ccs5m9P6.s 			page 5


 131:Middlewares/ST/usbx/common/usbx_host_classes/src/ux_host_class_storage_transport_bo.c **** 
 132:Middlewares/ST/usbx/common/usbx_host_classes/src/ux_host_class_storage_transport_bo.c ****             /* Set the completion code.  */
 133:Middlewares/ST/usbx/common/usbx_host_classes/src/ux_host_class_storage_transport_bo.c ****             transfer_request -> ux_transfer_request_completion_code =  UX_TRANSFER_TIMEOUT;
 134:Middlewares/ST/usbx/common/usbx_host_classes/src/ux_host_class_storage_transport_bo.c **** 
 135:Middlewares/ST/usbx/common/usbx_host_classes/src/ux_host_class_storage_transport_bo.c ****             /* Error trap.  */
 136:Middlewares/ST/usbx/common/usbx_host_classes/src/ux_host_class_storage_transport_bo.c ****             _ux_system_error_handler(UX_SYSTEM_LEVEL_THREAD, UX_SYSTEM_CONTEXT_CLASS, UX_TRANSFER_T
 137:Middlewares/ST/usbx/common/usbx_host_classes/src/ux_host_class_storage_transport_bo.c **** 
 138:Middlewares/ST/usbx/common/usbx_host_classes/src/ux_host_class_storage_transport_bo.c ****             /* If trace is enabled, insert this event into the trace buffer.  */
 139:Middlewares/ST/usbx/common/usbx_host_classes/src/ux_host_class_storage_transport_bo.c ****             UX_TRACE_IN_LINE_INSERT(UX_TRACE_ERROR, UX_TRANSFER_TIMEOUT, transfer_request, 0, 0, UX
 140:Middlewares/ST/usbx/common/usbx_host_classes/src/ux_host_class_storage_transport_bo.c **** 
 141:Middlewares/ST/usbx/common/usbx_host_classes/src/ux_host_class_storage_transport_bo.c ****             /* There was an error, return to the caller.  */
 142:Middlewares/ST/usbx/common/usbx_host_classes/src/ux_host_class_storage_transport_bo.c ****             return(UX_TRANSFER_TIMEOUT);
 143:Middlewares/ST/usbx/common/usbx_host_classes/src/ux_host_class_storage_transport_bo.c ****         }
 144:Middlewares/ST/usbx/common/usbx_host_classes/src/ux_host_class_storage_transport_bo.c **** 
 145:Middlewares/ST/usbx/common/usbx_host_classes/src/ux_host_class_storage_transport_bo.c ****         /* Did we successfully send the CBW?  */
 146:Middlewares/ST/usbx/common/usbx_host_classes/src/ux_host_class_storage_transport_bo.c ****         if (transfer_request -> ux_transfer_request_completion_code == UX_SUCCESS)
 100              		.loc 1 146 9 is_stmt 1 view .LVU30
 101              		.loc 1 146 30 is_stmt 0 view .LVU31
 102 0034 656E     		ldr	r5, [r4, #100]
 103              		.loc 1 146 12 view .LVU32
 104 0036 ADB1     		cbz	r5, .L4
 147:Middlewares/ST/usbx/common/usbx_host_classes/src/ux_host_class_storage_transport_bo.c **** 
 148:Middlewares/ST/usbx/common/usbx_host_classes/src/ux_host_class_storage_transport_bo.c ****             /* Jump to the data stage.  */
 149:Middlewares/ST/usbx/common/usbx_host_classes/src/ux_host_class_storage_transport_bo.c ****             break;
 150:Middlewares/ST/usbx/common/usbx_host_classes/src/ux_host_class_storage_transport_bo.c **** 
 151:Middlewares/ST/usbx/common/usbx_host_classes/src/ux_host_class_storage_transport_bo.c ****         /* The transfer stalled. Is this the first time?  */
 152:Middlewares/ST/usbx/common/usbx_host_classes/src/ux_host_class_storage_transport_bo.c ****         if (retry == 0)
 105              		.loc 1 152 9 is_stmt 1 view .LVU33
 106              		.loc 1 152 12 is_stmt 0 view .LVU34
 107 0038 B8F1000F 		cmp	r8, #0
 108 003c 0FD1     		bne	.L1
 153:Middlewares/ST/usbx/common/usbx_host_classes/src/ux_host_class_storage_transport_bo.c ****         {
 154:Middlewares/ST/usbx/common/usbx_host_classes/src/ux_host_class_storage_transport_bo.c **** 
 155:Middlewares/ST/usbx/common/usbx_host_classes/src/ux_host_class_storage_transport_bo.c ****             /* We must do a reset recovery.  */
 156:Middlewares/ST/usbx/common/usbx_host_classes/src/ux_host_class_storage_transport_bo.c ****             _ux_host_class_storage_device_reset(storage);
 109              		.loc 1 156 13 is_stmt 1 view .LVU35
 110 003e 3046     		mov	r0, r6
 111              	.LVL9:
 112              		.loc 1 156 13 is_stmt 0 view .LVU36
 113 0040 FFF7FEFF 		bl	_ux_host_class_storage_device_reset
 114              	.LVL10:
 111:Middlewares/ST/usbx/common/usbx_host_classes/src/ux_host_class_storage_transport_bo.c ****     {
 115              		.loc 1 111 24 is_stmt 1 view .LVU37
 111:Middlewares/ST/usbx/common/usbx_host_classes/src/ux_host_class_storage_transport_bo.c ****     {
 116              		.loc 1 111 29 is_stmt 0 view .LVU38
 117 0044 08F10108 		add	r8, r8, #1
 118              	.LVL11:
 111:Middlewares/ST/usbx/common/usbx_host_classes/src/ux_host_class_storage_transport_bo.c ****     {
 119              		.loc 1 111 22 is_stmt 1 view .LVU39
 115:Middlewares/ST/usbx/common/usbx_host_classes/src/ux_host_class_storage_transport_bo.c **** 
 120              		.loc 1 115 16 is_stmt 0 view .LVU40
 121 0048 E8E7     		b	.L5
 122              	.LVL12:
 123              	.L28:
 130:Middlewares/ST/usbx/common/usbx_host_classes/src/ux_host_class_storage_transport_bo.c **** 
 124              		.loc 1 130 13 is_stmt 1 view .LVU41
 125 004a 3846     		mov	r0, r7
ARM GAS  C:\Users\HP\AppData\Local\Temp\ccs5m9P6.s 			page 6


 126              	.LVL13:
 130:Middlewares/ST/usbx/common/usbx_host_classes/src/ux_host_class_storage_transport_bo.c **** 
 127              		.loc 1 130 13 is_stmt 0 view .LVU42
 128 004c FFF7FEFF 		bl	_ux_host_stack_transfer_request_abort
 129              	.LVL14:
 133:Middlewares/ST/usbx/common/usbx_host_classes/src/ux_host_class_storage_transport_bo.c **** 
 130              		.loc 1 133 13 is_stmt 1 view .LVU43
 133:Middlewares/ST/usbx/common/usbx_host_classes/src/ux_host_class_storage_transport_bo.c **** 
 131              		.loc 1 133 69 is_stmt 0 view .LVU44
 132 0050 5C25     		movs	r5, #92
 133 0052 6566     		str	r5, [r4, #100]
 136:Middlewares/ST/usbx/common/usbx_host_classes/src/ux_host_class_storage_transport_bo.c **** 
 134              		.loc 1 136 13 is_stmt 1 view .LVU45
 135 0054 2A46     		mov	r2, r5
 136 0056 0721     		movs	r1, #7
 137 0058 0220     		movs	r0, #2
 138 005a FFF7FEFF 		bl	_ux_system_error_handler
 139              	.LVL15:
 142:Middlewares/ST/usbx/common/usbx_host_classes/src/ux_host_class_storage_transport_bo.c ****         }
 140              		.loc 1 142 13 view .LVU46
 141              	.L1:
 157:Middlewares/ST/usbx/common/usbx_host_classes/src/ux_host_class_storage_transport_bo.c **** 
 158:Middlewares/ST/usbx/common/usbx_host_classes/src/ux_host_class_storage_transport_bo.c ****             /* In virtually all cases, the reset should've fixed it, so just
 159:Middlewares/ST/usbx/common/usbx_host_classes/src/ux_host_class_storage_transport_bo.c ****                resend the command.  */
 160:Middlewares/ST/usbx/common/usbx_host_classes/src/ux_host_class_storage_transport_bo.c ****         }
 161:Middlewares/ST/usbx/common/usbx_host_classes/src/ux_host_class_storage_transport_bo.c ****         else
 162:Middlewares/ST/usbx/common/usbx_host_classes/src/ux_host_class_storage_transport_bo.c ****         {
 163:Middlewares/ST/usbx/common/usbx_host_classes/src/ux_host_class_storage_transport_bo.c **** 
 164:Middlewares/ST/usbx/common/usbx_host_classes/src/ux_host_class_storage_transport_bo.c ****             /* Well, we tried!  */
 165:Middlewares/ST/usbx/common/usbx_host_classes/src/ux_host_class_storage_transport_bo.c ****             return(transfer_request -> ux_transfer_request_completion_code);
 166:Middlewares/ST/usbx/common/usbx_host_classes/src/ux_host_class_storage_transport_bo.c ****         }
 167:Middlewares/ST/usbx/common/usbx_host_classes/src/ux_host_class_storage_transport_bo.c ****     }
 168:Middlewares/ST/usbx/common/usbx_host_classes/src/ux_host_class_storage_transport_bo.c **** 
 169:Middlewares/ST/usbx/common/usbx_host_classes/src/ux_host_class_storage_transport_bo.c ****     /* Get the length of the data payload.  */
 170:Middlewares/ST/usbx/common/usbx_host_classes/src/ux_host_class_storage_transport_bo.c ****     data_phase_requested_length =  _ux_utility_long_get(cbw + UX_HOST_CLASS_STORAGE_CBW_DATA_LENGTH
 171:Middlewares/ST/usbx/common/usbx_host_classes/src/ux_host_class_storage_transport_bo.c **** 
 172:Middlewares/ST/usbx/common/usbx_host_classes/src/ux_host_class_storage_transport_bo.c ****     /* Reset the data phase memory size.  */
 173:Middlewares/ST/usbx/common/usbx_host_classes/src/ux_host_class_storage_transport_bo.c ****     storage -> ux_host_class_storage_data_phase_length =  0;
 174:Middlewares/ST/usbx/common/usbx_host_classes/src/ux_host_class_storage_transport_bo.c **** 
 175:Middlewares/ST/usbx/common/usbx_host_classes/src/ux_host_class_storage_transport_bo.c ****     /* Perform the data stage - if there is any.  */
 176:Middlewares/ST/usbx/common/usbx_host_classes/src/ux_host_class_storage_transport_bo.c ****     while (data_phase_requested_length != 0)
 177:Middlewares/ST/usbx/common/usbx_host_classes/src/ux_host_class_storage_transport_bo.c ****     {
 178:Middlewares/ST/usbx/common/usbx_host_classes/src/ux_host_class_storage_transport_bo.c **** 
 179:Middlewares/ST/usbx/common/usbx_host_classes/src/ux_host_class_storage_transport_bo.c ****         /* Check if we can finish the transaction with one data phase.  */
 180:Middlewares/ST/usbx/common/usbx_host_classes/src/ux_host_class_storage_transport_bo.c ****         if (data_phase_requested_length > UX_HOST_CLASS_STORAGE_MAX_TRANSFER_SIZE)
 181:Middlewares/ST/usbx/common/usbx_host_classes/src/ux_host_class_storage_transport_bo.c **** 
 182:Middlewares/ST/usbx/common/usbx_host_classes/src/ux_host_class_storage_transport_bo.c ****             /* We have too much data to send in one phase. Split into smaller chunks.  */
 183:Middlewares/ST/usbx/common/usbx_host_classes/src/ux_host_class_storage_transport_bo.c ****             data_phase_transfer_size =  UX_HOST_CLASS_STORAGE_MAX_TRANSFER_SIZE;
 184:Middlewares/ST/usbx/common/usbx_host_classes/src/ux_host_class_storage_transport_bo.c **** 
 185:Middlewares/ST/usbx/common/usbx_host_classes/src/ux_host_class_storage_transport_bo.c ****         else
 186:Middlewares/ST/usbx/common/usbx_host_classes/src/ux_host_class_storage_transport_bo.c **** 
 187:Middlewares/ST/usbx/common/usbx_host_classes/src/ux_host_class_storage_transport_bo.c ****             /* The transfer size can be the requested length.  */
 188:Middlewares/ST/usbx/common/usbx_host_classes/src/ux_host_class_storage_transport_bo.c ****             data_phase_transfer_size =  data_phase_requested_length;
 189:Middlewares/ST/usbx/common/usbx_host_classes/src/ux_host_class_storage_transport_bo.c **** 
 190:Middlewares/ST/usbx/common/usbx_host_classes/src/ux_host_class_storage_transport_bo.c ****         /* Check the direction and determine which endpoint to use.  */
 191:Middlewares/ST/usbx/common/usbx_host_classes/src/ux_host_class_storage_transport_bo.c ****         if (*(cbw + UX_HOST_CLASS_STORAGE_CBW_FLAGS) == UX_HOST_CLASS_STORAGE_DATA_IN)
 192:Middlewares/ST/usbx/common/usbx_host_classes/src/ux_host_class_storage_transport_bo.c ****             transfer_request =  &storage -> ux_host_class_storage_bulk_in_endpoint -> ux_endpoint_t
ARM GAS  C:\Users\HP\AppData\Local\Temp\ccs5m9P6.s 			page 7


 193:Middlewares/ST/usbx/common/usbx_host_classes/src/ux_host_class_storage_transport_bo.c **** 
 194:Middlewares/ST/usbx/common/usbx_host_classes/src/ux_host_class_storage_transport_bo.c ****         /* Fill in the transfer request data payload buffer.  */
 195:Middlewares/ST/usbx/common/usbx_host_classes/src/ux_host_class_storage_transport_bo.c ****         transfer_request -> ux_transfer_request_data_pointer =  data_pointer;
 196:Middlewares/ST/usbx/common/usbx_host_classes/src/ux_host_class_storage_transport_bo.c **** 
 197:Middlewares/ST/usbx/common/usbx_host_classes/src/ux_host_class_storage_transport_bo.c ****         /* Store the requested length in the transfer request.  */
 198:Middlewares/ST/usbx/common/usbx_host_classes/src/ux_host_class_storage_transport_bo.c ****         transfer_request -> ux_transfer_request_requested_length =  data_phase_transfer_size;
 199:Middlewares/ST/usbx/common/usbx_host_classes/src/ux_host_class_storage_transport_bo.c **** 
 200:Middlewares/ST/usbx/common/usbx_host_classes/src/ux_host_class_storage_transport_bo.c ****         /* Perform data payload transfer (in or out).  */
 201:Middlewares/ST/usbx/common/usbx_host_classes/src/ux_host_class_storage_transport_bo.c ****         status =  _ux_host_stack_transfer_request(transfer_request);
 202:Middlewares/ST/usbx/common/usbx_host_classes/src/ux_host_class_storage_transport_bo.c **** 
 203:Middlewares/ST/usbx/common/usbx_host_classes/src/ux_host_class_storage_transport_bo.c ****         /* Check the status of the data payload.  */
 204:Middlewares/ST/usbx/common/usbx_host_classes/src/ux_host_class_storage_transport_bo.c ****         if (status == UX_SUCCESS)
 205:Middlewares/ST/usbx/common/usbx_host_classes/src/ux_host_class_storage_transport_bo.c **** 
 206:Middlewares/ST/usbx/common/usbx_host_classes/src/ux_host_class_storage_transport_bo.c ****             /* Wait for the completion of the transfer request.  */
 207:Middlewares/ST/usbx/common/usbx_host_classes/src/ux_host_class_storage_transport_bo.c ****             status =  _ux_host_semaphore_get(&transfer_request -> ux_transfer_request_semaphore, UX
 208:Middlewares/ST/usbx/common/usbx_host_classes/src/ux_host_class_storage_transport_bo.c **** 
 209:Middlewares/ST/usbx/common/usbx_host_classes/src/ux_host_class_storage_transport_bo.c ****         /* If the semaphore did not succeed we may have a time out or if we had a problem during th
 210:Middlewares/ST/usbx/common/usbx_host_classes/src/ux_host_class_storage_transport_bo.c ****            we should abort the SCSI transaction.  */
 211:Middlewares/ST/usbx/common/usbx_host_classes/src/ux_host_class_storage_transport_bo.c ****         if (status != UX_SUCCESS)
 212:Middlewares/ST/usbx/common/usbx_host_classes/src/ux_host_class_storage_transport_bo.c ****         {
 213:Middlewares/ST/usbx/common/usbx_host_classes/src/ux_host_class_storage_transport_bo.c **** 
 214:Middlewares/ST/usbx/common/usbx_host_classes/src/ux_host_class_storage_transport_bo.c ****             /* All transfers pending need to abort. There may have been a partial transfer.  */
 215:Middlewares/ST/usbx/common/usbx_host_classes/src/ux_host_class_storage_transport_bo.c ****             _ux_host_stack_transfer_request_abort(transfer_request);
 216:Middlewares/ST/usbx/common/usbx_host_classes/src/ux_host_class_storage_transport_bo.c **** 
 217:Middlewares/ST/usbx/common/usbx_host_classes/src/ux_host_class_storage_transport_bo.c ****             /* Set the completion code.  */
 218:Middlewares/ST/usbx/common/usbx_host_classes/src/ux_host_class_storage_transport_bo.c ****             transfer_request -> ux_transfer_request_completion_code =  UX_TRANSFER_TIMEOUT;
 219:Middlewares/ST/usbx/common/usbx_host_classes/src/ux_host_class_storage_transport_bo.c **** 
 220:Middlewares/ST/usbx/common/usbx_host_classes/src/ux_host_class_storage_transport_bo.c ****             /* Error trap. */
 221:Middlewares/ST/usbx/common/usbx_host_classes/src/ux_host_class_storage_transport_bo.c ****             _ux_system_error_handler(UX_SYSTEM_LEVEL_THREAD, UX_SYSTEM_CONTEXT_CLASS, UX_TRANSFER_T
 222:Middlewares/ST/usbx/common/usbx_host_classes/src/ux_host_class_storage_transport_bo.c **** 
 223:Middlewares/ST/usbx/common/usbx_host_classes/src/ux_host_class_storage_transport_bo.c ****             /* If trace is enabled, insert this event into the trace buffer.  */
 224:Middlewares/ST/usbx/common/usbx_host_classes/src/ux_host_class_storage_transport_bo.c ****             UX_TRACE_IN_LINE_INSERT(UX_TRACE_ERROR, UX_TRANSFER_TIMEOUT, transfer_request, 0, 0, UX
 225:Middlewares/ST/usbx/common/usbx_host_classes/src/ux_host_class_storage_transport_bo.c **** 
 226:Middlewares/ST/usbx/common/usbx_host_classes/src/ux_host_class_storage_transport_bo.c ****             /* There was an error that cannot be recovered, return to the caller.  */
 227:Middlewares/ST/usbx/common/usbx_host_classes/src/ux_host_class_storage_transport_bo.c ****             return(UX_TRANSFER_TIMEOUT);
 228:Middlewares/ST/usbx/common/usbx_host_classes/src/ux_host_class_storage_transport_bo.c ****         }
 229:Middlewares/ST/usbx/common/usbx_host_classes/src/ux_host_class_storage_transport_bo.c **** 
 230:Middlewares/ST/usbx/common/usbx_host_classes/src/ux_host_class_storage_transport_bo.c ****         /* Check the transfer status. If there is a transport error, we still need to read the CSW
 231:Middlewares/ST/usbx/common/usbx_host_classes/src/ux_host_class_storage_transport_bo.c ****            and let the upper layer retry.  */
 232:Middlewares/ST/usbx/common/usbx_host_classes/src/ux_host_class_storage_transport_bo.c ****         if (transfer_request -> ux_transfer_request_completion_code != UX_SUCCESS)
 233:Middlewares/ST/usbx/common/usbx_host_classes/src/ux_host_class_storage_transport_bo.c ****         {
 234:Middlewares/ST/usbx/common/usbx_host_classes/src/ux_host_class_storage_transport_bo.c **** 
 235:Middlewares/ST/usbx/common/usbx_host_classes/src/ux_host_class_storage_transport_bo.c ****             /* This is most likely a STALL. We must clear it and go straight
 236:Middlewares/ST/usbx/common/usbx_host_classes/src/ux_host_class_storage_transport_bo.c ****                to reading the CSW. Note this doesn't necessarily mean the transfer
 237:Middlewares/ST/usbx/common/usbx_host_classes/src/ux_host_class_storage_transport_bo.c ****                failed completely failed. For example, if this was a read, it
 238:Middlewares/ST/usbx/common/usbx_host_classes/src/ux_host_class_storage_transport_bo.c ****                could mean the device had less data to send than we requested,
 239:Middlewares/ST/usbx/common/usbx_host_classes/src/ux_host_class_storage_transport_bo.c ****                but we still received data.  */
 240:Middlewares/ST/usbx/common/usbx_host_classes/src/ux_host_class_storage_transport_bo.c **** 
 241:Middlewares/ST/usbx/common/usbx_host_classes/src/ux_host_class_storage_transport_bo.c ****             /* Check the direction and determine which endpoint to reset.  */
 242:Middlewares/ST/usbx/common/usbx_host_classes/src/ux_host_class_storage_transport_bo.c ****             if (*(cbw + UX_HOST_CLASS_STORAGE_CBW_FLAGS) == UX_HOST_CLASS_STORAGE_DATA_IN)
 243:Middlewares/ST/usbx/common/usbx_host_classes/src/ux_host_class_storage_transport_bo.c ****                 _ux_host_stack_endpoint_reset(storage -> ux_host_class_storage_bulk_in_endpoint);
 244:Middlewares/ST/usbx/common/usbx_host_classes/src/ux_host_class_storage_transport_bo.c ****             else
 245:Middlewares/ST/usbx/common/usbx_host_classes/src/ux_host_class_storage_transport_bo.c ****                 _ux_host_stack_endpoint_reset(storage -> ux_host_class_storage_bulk_out_endpoint);
 246:Middlewares/ST/usbx/common/usbx_host_classes/src/ux_host_class_storage_transport_bo.c **** 
 247:Middlewares/ST/usbx/common/usbx_host_classes/src/ux_host_class_storage_transport_bo.c ****             /* We need to read the CSW now.   */
 248:Middlewares/ST/usbx/common/usbx_host_classes/src/ux_host_class_storage_transport_bo.c ****             break;
 249:Middlewares/ST/usbx/common/usbx_host_classes/src/ux_host_class_storage_transport_bo.c ****         }
ARM GAS  C:\Users\HP\AppData\Local\Temp\ccs5m9P6.s 			page 8


 250:Middlewares/ST/usbx/common/usbx_host_classes/src/ux_host_class_storage_transport_bo.c **** 
 251:Middlewares/ST/usbx/common/usbx_host_classes/src/ux_host_class_storage_transport_bo.c ****         /* Adjust the total size that was requested.  */
 252:Middlewares/ST/usbx/common/usbx_host_classes/src/ux_host_class_storage_transport_bo.c ****         data_phase_requested_length -=  data_phase_transfer_size;
 253:Middlewares/ST/usbx/common/usbx_host_classes/src/ux_host_class_storage_transport_bo.c **** 
 254:Middlewares/ST/usbx/common/usbx_host_classes/src/ux_host_class_storage_transport_bo.c ****         /* And the data pointer.  */
 255:Middlewares/ST/usbx/common/usbx_host_classes/src/ux_host_class_storage_transport_bo.c ****         data_pointer +=  data_phase_transfer_size;
 256:Middlewares/ST/usbx/common/usbx_host_classes/src/ux_host_class_storage_transport_bo.c ****     }
 257:Middlewares/ST/usbx/common/usbx_host_classes/src/ux_host_class_storage_transport_bo.c **** 
 258:Middlewares/ST/usbx/common/usbx_host_classes/src/ux_host_class_storage_transport_bo.c ****     /* Now perform the status phase, i.e. try to get the CSW from the device.
 259:Middlewares/ST/usbx/common/usbx_host_classes/src/ux_host_class_storage_transport_bo.c ****        According to the spec, if there is a failure the first time, we need to retry once
 260:Middlewares/ST/usbx/common/usbx_host_classes/src/ux_host_class_storage_transport_bo.c ****        before reporting an error.  */
 261:Middlewares/ST/usbx/common/usbx_host_classes/src/ux_host_class_storage_transport_bo.c **** 
 262:Middlewares/ST/usbx/common/usbx_host_classes/src/ux_host_class_storage_transport_bo.c ****     /* Get the pointer to the transfer request, on the bulk in endpoint.  */
 263:Middlewares/ST/usbx/common/usbx_host_classes/src/ux_host_class_storage_transport_bo.c ****     transfer_request =  &storage -> ux_host_class_storage_bulk_in_endpoint -> ux_endpoint_transfer_
 264:Middlewares/ST/usbx/common/usbx_host_classes/src/ux_host_class_storage_transport_bo.c **** 
 265:Middlewares/ST/usbx/common/usbx_host_classes/src/ux_host_class_storage_transport_bo.c ****     /* Fill in the transfer_request parameters.  */
 266:Middlewares/ST/usbx/common/usbx_host_classes/src/ux_host_class_storage_transport_bo.c ****     transfer_request -> ux_transfer_request_data_pointer =      (UCHAR *) &storage -> ux_host_class
 267:Middlewares/ST/usbx/common/usbx_host_classes/src/ux_host_class_storage_transport_bo.c ****     transfer_request -> ux_transfer_request_requested_length =  UX_HOST_CLASS_STORAGE_CSW_LENGTH;
 268:Middlewares/ST/usbx/common/usbx_host_classes/src/ux_host_class_storage_transport_bo.c **** 
 269:Middlewares/ST/usbx/common/usbx_host_classes/src/ux_host_class_storage_transport_bo.c ****     /* Retry loop, we have 2 tries here.  */
 270:Middlewares/ST/usbx/common/usbx_host_classes/src/ux_host_class_storage_transport_bo.c ****     for (retry =  0; retry < 2; retry++)
 271:Middlewares/ST/usbx/common/usbx_host_classes/src/ux_host_class_storage_transport_bo.c ****     {
 272:Middlewares/ST/usbx/common/usbx_host_classes/src/ux_host_class_storage_transport_bo.c **** 
 273:Middlewares/ST/usbx/common/usbx_host_classes/src/ux_host_class_storage_transport_bo.c ****         /* Get the CSW on the bulk in endpoint.  */
 274:Middlewares/ST/usbx/common/usbx_host_classes/src/ux_host_class_storage_transport_bo.c ****         status =  _ux_host_stack_transfer_request(transfer_request);
 275:Middlewares/ST/usbx/common/usbx_host_classes/src/ux_host_class_storage_transport_bo.c ****         if (status != UX_SUCCESS)
 276:Middlewares/ST/usbx/common/usbx_host_classes/src/ux_host_class_storage_transport_bo.c ****             return(status);
 277:Middlewares/ST/usbx/common/usbx_host_classes/src/ux_host_class_storage_transport_bo.c **** 
 278:Middlewares/ST/usbx/common/usbx_host_classes/src/ux_host_class_storage_transport_bo.c ****         /* Wait for the completion of the transfer request.  */
 279:Middlewares/ST/usbx/common/usbx_host_classes/src/ux_host_class_storage_transport_bo.c ****         status =  _ux_host_semaphore_get(&transfer_request -> ux_transfer_request_semaphore, UX_MS_
 280:Middlewares/ST/usbx/common/usbx_host_classes/src/ux_host_class_storage_transport_bo.c **** 
 281:Middlewares/ST/usbx/common/usbx_host_classes/src/ux_host_class_storage_transport_bo.c ****         /* Check semaphore status.  */
 282:Middlewares/ST/usbx/common/usbx_host_classes/src/ux_host_class_storage_transport_bo.c ****         if (status != UX_SUCCESS)
 283:Middlewares/ST/usbx/common/usbx_host_classes/src/ux_host_class_storage_transport_bo.c ****         {
 284:Middlewares/ST/usbx/common/usbx_host_classes/src/ux_host_class_storage_transport_bo.c **** 
 285:Middlewares/ST/usbx/common/usbx_host_classes/src/ux_host_class_storage_transport_bo.c ****             /* All transfers pending need to abort. There may have been a partial transfer.  */
 286:Middlewares/ST/usbx/common/usbx_host_classes/src/ux_host_class_storage_transport_bo.c ****             _ux_host_stack_transfer_request_abort(transfer_request);
 287:Middlewares/ST/usbx/common/usbx_host_classes/src/ux_host_class_storage_transport_bo.c **** 
 288:Middlewares/ST/usbx/common/usbx_host_classes/src/ux_host_class_storage_transport_bo.c ****             /* Set the completion code.  */
 289:Middlewares/ST/usbx/common/usbx_host_classes/src/ux_host_class_storage_transport_bo.c ****             transfer_request -> ux_transfer_request_completion_code =  UX_TRANSFER_TIMEOUT;
 290:Middlewares/ST/usbx/common/usbx_host_classes/src/ux_host_class_storage_transport_bo.c **** 
 291:Middlewares/ST/usbx/common/usbx_host_classes/src/ux_host_class_storage_transport_bo.c ****             /* Error trap. */
 292:Middlewares/ST/usbx/common/usbx_host_classes/src/ux_host_class_storage_transport_bo.c ****             _ux_system_error_handler(UX_SYSTEM_LEVEL_THREAD, UX_SYSTEM_CONTEXT_CLASS, UX_TRANSFER_T
 293:Middlewares/ST/usbx/common/usbx_host_classes/src/ux_host_class_storage_transport_bo.c **** 
 294:Middlewares/ST/usbx/common/usbx_host_classes/src/ux_host_class_storage_transport_bo.c ****             /* If trace is enabled, insert this event into the trace buffer.  */
 295:Middlewares/ST/usbx/common/usbx_host_classes/src/ux_host_class_storage_transport_bo.c ****             UX_TRACE_IN_LINE_INSERT(UX_TRACE_ERROR, UX_TRANSFER_TIMEOUT, transfer_request, 0, 0, UX
 296:Middlewares/ST/usbx/common/usbx_host_classes/src/ux_host_class_storage_transport_bo.c **** 
 297:Middlewares/ST/usbx/common/usbx_host_classes/src/ux_host_class_storage_transport_bo.c ****             /* There was an error, return to the caller.  */
 298:Middlewares/ST/usbx/common/usbx_host_classes/src/ux_host_class_storage_transport_bo.c ****             return(UX_TRANSFER_TIMEOUT);
 299:Middlewares/ST/usbx/common/usbx_host_classes/src/ux_host_class_storage_transport_bo.c ****         }
 300:Middlewares/ST/usbx/common/usbx_host_classes/src/ux_host_class_storage_transport_bo.c **** 
 301:Middlewares/ST/usbx/common/usbx_host_classes/src/ux_host_class_storage_transport_bo.c ****         /* Did the transfer succeed?  */
 302:Middlewares/ST/usbx/common/usbx_host_classes/src/ux_host_class_storage_transport_bo.c ****         if (transfer_request -> ux_transfer_request_completion_code == UX_SUCCESS)
 303:Middlewares/ST/usbx/common/usbx_host_classes/src/ux_host_class_storage_transport_bo.c ****         {
 304:Middlewares/ST/usbx/common/usbx_host_classes/src/ux_host_class_storage_transport_bo.c **** 
 305:Middlewares/ST/usbx/common/usbx_host_classes/src/ux_host_class_storage_transport_bo.c ****             /* The PASSED and COMMAND_FAILED error codes are nearly interchangeable
 306:Middlewares/ST/usbx/common/usbx_host_classes/src/ux_host_class_storage_transport_bo.c ****                according to the spec, so we treat them similarly.  */
ARM GAS  C:\Users\HP\AppData\Local\Temp\ccs5m9P6.s 			page 9


 307:Middlewares/ST/usbx/common/usbx_host_classes/src/ux_host_class_storage_transport_bo.c ****             if (storage -> ux_host_class_storage_csw[UX_HOST_CLASS_STORAGE_CSW_STATUS] == UX_HOST_C
 308:Middlewares/ST/usbx/common/usbx_host_classes/src/ux_host_class_storage_transport_bo.c ****                 storage -> ux_host_class_storage_csw[UX_HOST_CLASS_STORAGE_CSW_STATUS] == UX_HOST_C
 309:Middlewares/ST/usbx/common/usbx_host_classes/src/ux_host_class_storage_transport_bo.c ****             {
 310:Middlewares/ST/usbx/common/usbx_host_classes/src/ux_host_class_storage_transport_bo.c **** 
 311:Middlewares/ST/usbx/common/usbx_host_classes/src/ux_host_class_storage_transport_bo.c ****                 /* Was this an OUT transport?  */
 312:Middlewares/ST/usbx/common/usbx_host_classes/src/ux_host_class_storage_transport_bo.c ****                 if (*(cbw + UX_HOST_CLASS_STORAGE_CBW_FLAGS) == UX_HOST_CLASS_STORAGE_DATA_OUT)
 313:Middlewares/ST/usbx/common/usbx_host_classes/src/ux_host_class_storage_transport_bo.c ****                 {
 314:Middlewares/ST/usbx/common/usbx_host_classes/src/ux_host_class_storage_transport_bo.c **** 
 315:Middlewares/ST/usbx/common/usbx_host_classes/src/ux_host_class_storage_transport_bo.c ****                     /* Did the command fail, or succeed with non-zero data residue?  */
 316:Middlewares/ST/usbx/common/usbx_host_classes/src/ux_host_class_storage_transport_bo.c ****                     if (storage -> ux_host_class_storage_csw[UX_HOST_CLASS_STORAGE_CSW_STATUS] == U
 317:Middlewares/ST/usbx/common/usbx_host_classes/src/ux_host_class_storage_transport_bo.c ****                         _ux_utility_long_get(storage -> ux_host_class_storage_csw + UX_HOST_CLASS_S
 318:Middlewares/ST/usbx/common/usbx_host_classes/src/ux_host_class_storage_transport_bo.c ****                     {
 319:Middlewares/ST/usbx/common/usbx_host_classes/src/ux_host_class_storage_transport_bo.c **** 
 320:Middlewares/ST/usbx/common/usbx_host_classes/src/ux_host_class_storage_transport_bo.c ****                         /* It's possible the bulk out endpoint is stalled.
 321:Middlewares/ST/usbx/common/usbx_host_classes/src/ux_host_class_storage_transport_bo.c ****                            This happens when 1) the device expects less data
 322:Middlewares/ST/usbx/common/usbx_host_classes/src/ux_host_class_storage_transport_bo.c ****                            than the host wants to send and 2) the endpoint
 323:Middlewares/ST/usbx/common/usbx_host_classes/src/ux_host_class_storage_transport_bo.c ****                            stalls after the last packet was sent (otherwise,
 324:Middlewares/ST/usbx/common/usbx_host_classes/src/ux_host_class_storage_transport_bo.c ****                            we'd have seen the stall during the data stage).
 325:Middlewares/ST/usbx/common/usbx_host_classes/src/ux_host_class_storage_transport_bo.c ****                            Query its status before clearing the stall.  */
 326:Middlewares/ST/usbx/common/usbx_host_classes/src/ux_host_class_storage_transport_bo.c **** 
 327:Middlewares/ST/usbx/common/usbx_host_classes/src/ux_host_class_storage_transport_bo.c ****                         /* Allocate memory for Get Status response.  */
 328:Middlewares/ST/usbx/common/usbx_host_classes/src/ux_host_class_storage_transport_bo.c ****                         get_status_response =  _ux_utility_memory_allocate(UX_SAFE_ALIGN, UX_CACHE_
 329:Middlewares/ST/usbx/common/usbx_host_classes/src/ux_host_class_storage_transport_bo.c ****                         if (get_status_response == UX_NULL)
 330:Middlewares/ST/usbx/common/usbx_host_classes/src/ux_host_class_storage_transport_bo.c ****                             return(UX_MEMORY_INSUFFICIENT);
 331:Middlewares/ST/usbx/common/usbx_host_classes/src/ux_host_class_storage_transport_bo.c **** 
 332:Middlewares/ST/usbx/common/usbx_host_classes/src/ux_host_class_storage_transport_bo.c ****                         /* Get the control endpoint's transfer request.  */
 333:Middlewares/ST/usbx/common/usbx_host_classes/src/ux_host_class_storage_transport_bo.c ****                         transfer_request =  &storage -> ux_host_class_storage_device -> ux_device_c
 334:Middlewares/ST/usbx/common/usbx_host_classes/src/ux_host_class_storage_transport_bo.c **** 
 335:Middlewares/ST/usbx/common/usbx_host_classes/src/ux_host_class_storage_transport_bo.c ****                         /* Setup transfer request for Get Status command.  */
 336:Middlewares/ST/usbx/common/usbx_host_classes/src/ux_host_class_storage_transport_bo.c ****                         transfer_request -> ux_transfer_request_data_pointer =      get_status_resp
 337:Middlewares/ST/usbx/common/usbx_host_classes/src/ux_host_class_storage_transport_bo.c ****                         transfer_request -> ux_transfer_request_requested_length =  0x02;
 338:Middlewares/ST/usbx/common/usbx_host_classes/src/ux_host_class_storage_transport_bo.c ****                         transfer_request -> ux_transfer_request_function =          UX_GET_STATUS;
 339:Middlewares/ST/usbx/common/usbx_host_classes/src/ux_host_class_storage_transport_bo.c ****                         transfer_request -> ux_transfer_request_type =              UX_REQUEST_IN |
 340:Middlewares/ST/usbx/common/usbx_host_classes/src/ux_host_class_storage_transport_bo.c ****                         transfer_request -> ux_transfer_request_value =             0;
 341:Middlewares/ST/usbx/common/usbx_host_classes/src/ux_host_class_storage_transport_bo.c ****                         transfer_request -> ux_transfer_request_index =             storage -> ux_h
 342:Middlewares/ST/usbx/common/usbx_host_classes/src/ux_host_class_storage_transport_bo.c **** 
 343:Middlewares/ST/usbx/common/usbx_host_classes/src/ux_host_class_storage_transport_bo.c ****                         /* Send transfer request.  */
 344:Middlewares/ST/usbx/common/usbx_host_classes/src/ux_host_class_storage_transport_bo.c ****                         status =  _ux_host_stack_transfer_request(transfer_request);
 345:Middlewares/ST/usbx/common/usbx_host_classes/src/ux_host_class_storage_transport_bo.c **** 
 346:Middlewares/ST/usbx/common/usbx_host_classes/src/ux_host_class_storage_transport_bo.c ****                         /* Check status of transfer.  */
 347:Middlewares/ST/usbx/common/usbx_host_classes/src/ux_host_class_storage_transport_bo.c ****                         if (status == UX_SUCCESS)
 348:Middlewares/ST/usbx/common/usbx_host_classes/src/ux_host_class_storage_transport_bo.c ****                         {
 349:Middlewares/ST/usbx/common/usbx_host_classes/src/ux_host_class_storage_transport_bo.c **** 
 350:Middlewares/ST/usbx/common/usbx_host_classes/src/ux_host_class_storage_transport_bo.c ****                             /* Check the Halt bit.  */
 351:Middlewares/ST/usbx/common/usbx_host_classes/src/ux_host_class_storage_transport_bo.c ****                             if (get_status_response[0] & 0x01)
 352:Middlewares/ST/usbx/common/usbx_host_classes/src/ux_host_class_storage_transport_bo.c ****                             {
 353:Middlewares/ST/usbx/common/usbx_host_classes/src/ux_host_class_storage_transport_bo.c **** 
 354:Middlewares/ST/usbx/common/usbx_host_classes/src/ux_host_class_storage_transport_bo.c ****                                 /* Clear the halt.  */
 355:Middlewares/ST/usbx/common/usbx_host_classes/src/ux_host_class_storage_transport_bo.c ****                                 status =  _ux_host_stack_endpoint_reset(storage -> ux_host_class_st
 356:Middlewares/ST/usbx/common/usbx_host_classes/src/ux_host_class_storage_transport_bo.c ****                             }
 357:Middlewares/ST/usbx/common/usbx_host_classes/src/ux_host_class_storage_transport_bo.c ****                         }
 358:Middlewares/ST/usbx/common/usbx_host_classes/src/ux_host_class_storage_transport_bo.c **** 
 359:Middlewares/ST/usbx/common/usbx_host_classes/src/ux_host_class_storage_transport_bo.c ****                         /* Free the get status memory.  */
 360:Middlewares/ST/usbx/common/usbx_host_classes/src/ux_host_class_storage_transport_bo.c ****                         _ux_utility_memory_free(get_status_response);
 361:Middlewares/ST/usbx/common/usbx_host_classes/src/ux_host_class_storage_transport_bo.c **** 
 362:Middlewares/ST/usbx/common/usbx_host_classes/src/ux_host_class_storage_transport_bo.c ****                         /* Check result of Get Status and Clear Feature commands. */
 363:Middlewares/ST/usbx/common/usbx_host_classes/src/ux_host_class_storage_transport_bo.c ****                         if (status != UX_SUCCESS)
ARM GAS  C:\Users\HP\AppData\Local\Temp\ccs5m9P6.s 			page 10


 364:Middlewares/ST/usbx/common/usbx_host_classes/src/ux_host_class_storage_transport_bo.c ****                             return(status);
 365:Middlewares/ST/usbx/common/usbx_host_classes/src/ux_host_class_storage_transport_bo.c ****                     }
 366:Middlewares/ST/usbx/common/usbx_host_classes/src/ux_host_class_storage_transport_bo.c ****                 }
 367:Middlewares/ST/usbx/common/usbx_host_classes/src/ux_host_class_storage_transport_bo.c **** 
 368:Middlewares/ST/usbx/common/usbx_host_classes/src/ux_host_class_storage_transport_bo.c ****                 /* Save the amount of relevant data.  */
 369:Middlewares/ST/usbx/common/usbx_host_classes/src/ux_host_class_storage_transport_bo.c ****                 storage -> ux_host_class_storage_data_phase_length =  _ux_utility_long_get(cbw + UX
 370:Middlewares/ST/usbx/common/usbx_host_classes/src/ux_host_class_storage_transport_bo.c ****                     _ux_utility_long_get(storage -> ux_host_class_storage_csw + UX_HOST_CLASS_STORA
 371:Middlewares/ST/usbx/common/usbx_host_classes/src/ux_host_class_storage_transport_bo.c ****             }
 372:Middlewares/ST/usbx/common/usbx_host_classes/src/ux_host_class_storage_transport_bo.c ****             else
 373:Middlewares/ST/usbx/common/usbx_host_classes/src/ux_host_class_storage_transport_bo.c ****             {
 374:Middlewares/ST/usbx/common/usbx_host_classes/src/ux_host_class_storage_transport_bo.c **** 
 375:Middlewares/ST/usbx/common/usbx_host_classes/src/ux_host_class_storage_transport_bo.c ****                 /* Must be phase error. Need to reset the device.  */
 376:Middlewares/ST/usbx/common/usbx_host_classes/src/ux_host_class_storage_transport_bo.c ****                 _ux_host_class_storage_device_reset(storage);
 377:Middlewares/ST/usbx/common/usbx_host_classes/src/ux_host_class_storage_transport_bo.c ****             }
 378:Middlewares/ST/usbx/common/usbx_host_classes/src/ux_host_class_storage_transport_bo.c **** 
 379:Middlewares/ST/usbx/common/usbx_host_classes/src/ux_host_class_storage_transport_bo.c ****             /* Return success since the transfer succeeded. The caller should
 380:Middlewares/ST/usbx/common/usbx_host_classes/src/ux_host_class_storage_transport_bo.c ****                look at the CSW to determine if the command's status.  */
 381:Middlewares/ST/usbx/common/usbx_host_classes/src/ux_host_class_storage_transport_bo.c ****             return(UX_SUCCESS);
 382:Middlewares/ST/usbx/common/usbx_host_classes/src/ux_host_class_storage_transport_bo.c ****         }
 383:Middlewares/ST/usbx/common/usbx_host_classes/src/ux_host_class_storage_transport_bo.c **** 
 384:Middlewares/ST/usbx/common/usbx_host_classes/src/ux_host_class_storage_transport_bo.c ****         /* The transfer stalled. We must clear the stall and attempt to read
 385:Middlewares/ST/usbx/common/usbx_host_classes/src/ux_host_class_storage_transport_bo.c ****            the CSW again.  */
 386:Middlewares/ST/usbx/common/usbx_host_classes/src/ux_host_class_storage_transport_bo.c ****         _ux_host_stack_endpoint_reset(storage -> ux_host_class_storage_bulk_in_endpoint);
 387:Middlewares/ST/usbx/common/usbx_host_classes/src/ux_host_class_storage_transport_bo.c ****     }
 388:Middlewares/ST/usbx/common/usbx_host_classes/src/ux_host_class_storage_transport_bo.c **** 
 389:Middlewares/ST/usbx/common/usbx_host_classes/src/ux_host_class_storage_transport_bo.c ****     /* If we get here, the CSW transfer stalled twice. We must reset the device.  */
 390:Middlewares/ST/usbx/common/usbx_host_classes/src/ux_host_class_storage_transport_bo.c ****     _ux_host_class_storage_device_reset(storage);
 391:Middlewares/ST/usbx/common/usbx_host_classes/src/ux_host_class_storage_transport_bo.c **** 
 392:Middlewares/ST/usbx/common/usbx_host_classes/src/ux_host_class_storage_transport_bo.c ****     /* Return the error.  */
 393:Middlewares/ST/usbx/common/usbx_host_classes/src/ux_host_class_storage_transport_bo.c ****     return(transfer_request -> ux_transfer_request_completion_code);
 394:Middlewares/ST/usbx/common/usbx_host_classes/src/ux_host_class_storage_transport_bo.c **** }
 142              		.loc 1 394 1 is_stmt 0 view .LVU47
 143 005e 2846     		mov	r0, r5
 144 0060 BDE8F087 		pop	{r4, r5, r6, r7, r8, r9, r10, pc}
 145              	.LVL16:
 146              	.L4:
 170:Middlewares/ST/usbx/common/usbx_host_classes/src/ux_host_class_storage_transport_bo.c **** 
 147              		.loc 1 170 5 is_stmt 1 view .LVU48
 170:Middlewares/ST/usbx/common/usbx_host_classes/src/ux_host_class_storage_transport_bo.c **** 
 148              		.loc 1 170 36 is_stmt 0 view .LVU49
 149 0064 06F1240A 		add	r10, r6, #36
 150 0068 5046     		mov	r0, r10
 151              	.LVL17:
 170:Middlewares/ST/usbx/common/usbx_host_classes/src/ux_host_class_storage_transport_bo.c **** 
 152              		.loc 1 170 36 view .LVU50
 153 006a FFF7FEFF 		bl	_ux_utility_long_get
 154              	.LVL18:
 155 006e 0446     		mov	r4, r0
 156              	.LVL19:
 173:Middlewares/ST/usbx/common/usbx_host_classes/src/ux_host_class_storage_transport_bo.c **** 
 157              		.loc 1 173 5 is_stmt 1 view .LVU51
 173:Middlewares/ST/usbx/common/usbx_host_classes/src/ux_host_class_storage_transport_bo.c **** 
 158              		.loc 1 173 56 is_stmt 0 view .LVU52
 159 0070 0023     		movs	r3, #0
 160 0072 C6F88C30 		str	r3, [r6, #140]
 176:Middlewares/ST/usbx/common/usbx_host_classes/src/ux_host_class_storage_transport_bo.c ****     {
 161              		.loc 1 176 5 is_stmt 1 view .LVU53
ARM GAS  C:\Users\HP\AppData\Local\Temp\ccs5m9P6.s 			page 11


 176:Middlewares/ST/usbx/common/usbx_host_classes/src/ux_host_class_storage_transport_bo.c ****     {
 162              		.loc 1 176 11 is_stmt 0 view .LVU54
 163 0076 13E0     		b	.L6
 164              	.LVL20:
 165              	.L24:
 188:Middlewares/ST/usbx/common/usbx_host_classes/src/ux_host_class_storage_transport_bo.c **** 
 166              		.loc 1 188 38 view .LVU55
 167 0078 A046     		mov	r8, r4
 168              	.L7:
 169              	.LVL21:
 191:Middlewares/ST/usbx/common/usbx_host_classes/src/ux_host_class_storage_transport_bo.c ****             transfer_request =  &storage -> ux_host_class_storage_bulk_in_endpoint -> ux_endpoint_t
 170              		.loc 1 191 9 is_stmt 1 view .LVU56
 191:Middlewares/ST/usbx/common/usbx_host_classes/src/ux_host_class_storage_transport_bo.c ****             transfer_request =  &storage -> ux_host_class_storage_bulk_in_endpoint -> ux_endpoint_t
 171              		.loc 1 191 13 is_stmt 0 view .LVU57
 172 007a 96F82830 		ldrb	r3, [r6, #40]	@ zero_extendqisi2
 191:Middlewares/ST/usbx/common/usbx_host_classes/src/ux_host_class_storage_transport_bo.c ****             transfer_request =  &storage -> ux_host_class_storage_bulk_in_endpoint -> ux_endpoint_t
 173              		.loc 1 191 12 view .LVU58
 174 007e 802B     		cmp	r3, #128
 175 0080 15D0     		beq	.L29
 176              	.L8:
 195:Middlewares/ST/usbx/common/usbx_host_classes/src/ux_host_class_storage_transport_bo.c **** 
 177              		.loc 1 195 9 is_stmt 1 view .LVU59
 195:Middlewares/ST/usbx/common/usbx_host_classes/src/ux_host_class_storage_transport_bo.c **** 
 178              		.loc 1 195 62 is_stmt 0 view .LVU60
 179 0082 C7F80890 		str	r9, [r7, #8]
 198:Middlewares/ST/usbx/common/usbx_host_classes/src/ux_host_class_storage_transport_bo.c **** 
 180              		.loc 1 198 9 is_stmt 1 view .LVU61
 198:Middlewares/ST/usbx/common/usbx_host_classes/src/ux_host_class_storage_transport_bo.c **** 
 181              		.loc 1 198 66 is_stmt 0 view .LVU62
 182 0086 C7F80C80 		str	r8, [r7, #12]
 201:Middlewares/ST/usbx/common/usbx_host_classes/src/ux_host_class_storage_transport_bo.c **** 
 183              		.loc 1 201 9 is_stmt 1 view .LVU63
 201:Middlewares/ST/usbx/common/usbx_host_classes/src/ux_host_class_storage_transport_bo.c **** 
 184              		.loc 1 201 19 is_stmt 0 view .LVU64
 185 008a 3846     		mov	r0, r7
 186 008c FFF7FEFF 		bl	_ux_host_stack_transfer_request
 187              	.LVL22:
 204:Middlewares/ST/usbx/common/usbx_host_classes/src/ux_host_class_storage_transport_bo.c **** 
 188              		.loc 1 204 9 is_stmt 1 view .LVU65
 204:Middlewares/ST/usbx/common/usbx_host_classes/src/ux_host_class_storage_transport_bo.c **** 
 189              		.loc 1 204 12 is_stmt 0 view .LVU66
 190 0090 0346     		mov	r3, r0
 191 0092 78B1     		cbz	r0, .L30
 192              	.L9:
 211:Middlewares/ST/usbx/common/usbx_host_classes/src/ux_host_class_storage_transport_bo.c ****         {
 193              		.loc 1 211 9 is_stmt 1 view .LVU67
 211:Middlewares/ST/usbx/common/usbx_host_classes/src/ux_host_class_storage_transport_bo.c ****         {
 194              		.loc 1 211 12 is_stmt 0 view .LVU68
 195 0094 B3B9     		cbnz	r3, .L31
 232:Middlewares/ST/usbx/common/usbx_host_classes/src/ux_host_class_storage_transport_bo.c ****         {
 196              		.loc 1 232 9 is_stmt 1 view .LVU69
 232:Middlewares/ST/usbx/common/usbx_host_classes/src/ux_host_class_storage_transport_bo.c ****         {
 197              		.loc 1 232 30 is_stmt 0 view .LVU70
 198 0096 7B6B     		ldr	r3, [r7, #52]
 232:Middlewares/ST/usbx/common/usbx_host_classes/src/ux_host_class_storage_transport_bo.c ****         {
 199              		.loc 1 232 12 view .LVU71
 200 0098 FBB9     		cbnz	r3, .L32
ARM GAS  C:\Users\HP\AppData\Local\Temp\ccs5m9P6.s 			page 12


 252:Middlewares/ST/usbx/common/usbx_host_classes/src/ux_host_class_storage_transport_bo.c **** 
 201              		.loc 1 252 9 is_stmt 1 view .LVU72
 252:Middlewares/ST/usbx/common/usbx_host_classes/src/ux_host_class_storage_transport_bo.c **** 
 202              		.loc 1 252 37 is_stmt 0 view .LVU73
 203 009a A4EB0804 		sub	r4, r4, r8
 204              	.LVL23:
 255:Middlewares/ST/usbx/common/usbx_host_classes/src/ux_host_class_storage_transport_bo.c ****     }
 205              		.loc 1 255 9 is_stmt 1 view .LVU74
 255:Middlewares/ST/usbx/common/usbx_host_classes/src/ux_host_class_storage_transport_bo.c ****     }
 206              		.loc 1 255 22 is_stmt 0 view .LVU75
 207 009e C144     		add	r9, r9, r8
 208              	.LVL24:
 209              	.L6:
 176:Middlewares/ST/usbx/common/usbx_host_classes/src/ux_host_class_storage_transport_bo.c ****     {
 210              		.loc 1 176 11 is_stmt 1 view .LVU76
 211 00a0 14B3     		cbz	r4, .L13
 180:Middlewares/ST/usbx/common/usbx_host_classes/src/ux_host_class_storage_transport_bo.c **** 
 212              		.loc 1 180 9 view .LVU77
 180:Middlewares/ST/usbx/common/usbx_host_classes/src/ux_host_class_storage_transport_bo.c **** 
 213              		.loc 1 180 12 is_stmt 0 view .LVU78
 214 00a2 B4F5806F 		cmp	r4, #1024
 215 00a6 E7D9     		bls	.L24
 183:Middlewares/ST/usbx/common/usbx_host_classes/src/ux_host_class_storage_transport_bo.c **** 
 216              		.loc 1 183 38 view .LVU79
 217 00a8 4FF48068 		mov	r8, #1024
 218 00ac E5E7     		b	.L7
 219              	.LVL25:
 220              	.L29:
 192:Middlewares/ST/usbx/common/usbx_host_classes/src/ux_host_class_storage_transport_bo.c **** 
 221              		.loc 1 192 13 is_stmt 1 view .LVU80
 192:Middlewares/ST/usbx/common/usbx_host_classes/src/ux_host_class_storage_transport_bo.c **** 
 222              		.loc 1 192 42 is_stmt 0 view .LVU81
 223 00ae 7769     		ldr	r7, [r6, #20]
 224              	.LVL26:
 192:Middlewares/ST/usbx/common/usbx_host_classes/src/ux_host_class_storage_transport_bo.c **** 
 225              		.loc 1 192 30 view .LVU82
 226 00b0 3037     		adds	r7, r7, #48
 227              	.LVL27:
 192:Middlewares/ST/usbx/common/usbx_host_classes/src/ux_host_class_storage_transport_bo.c **** 
 228              		.loc 1 192 30 view .LVU83
 229 00b2 E6E7     		b	.L8
 230              	.LVL28:
 231              	.L30:
 207:Middlewares/ST/usbx/common/usbx_host_classes/src/ux_host_class_storage_transport_bo.c **** 
 232              		.loc 1 207 13 is_stmt 1 view .LVU84
 207:Middlewares/ST/usbx/common/usbx_host_classes/src/ux_host_class_storage_transport_bo.c **** 
 233              		.loc 1 207 23 is_stmt 0 view .LVU85
 234 00b4 4FF47A71 		mov	r1, #1000
 235 00b8 07F14400 		add	r0, r7, #68
 236              	.LVL29:
 207:Middlewares/ST/usbx/common/usbx_host_classes/src/ux_host_class_storage_transport_bo.c **** 
 237              		.loc 1 207 23 view .LVU86
 238 00bc FFF7FEFF 		bl	_ux_utility_semaphore_get
 239              	.LVL30:
 207:Middlewares/ST/usbx/common/usbx_host_classes/src/ux_host_class_storage_transport_bo.c **** 
 240              		.loc 1 207 23 view .LVU87
 241 00c0 0346     		mov	r3, r0
ARM GAS  C:\Users\HP\AppData\Local\Temp\ccs5m9P6.s 			page 13


 242              	.LVL31:
 207:Middlewares/ST/usbx/common/usbx_host_classes/src/ux_host_class_storage_transport_bo.c **** 
 243              		.loc 1 207 23 view .LVU88
 244 00c2 E7E7     		b	.L9
 245              	.L31:
 215:Middlewares/ST/usbx/common/usbx_host_classes/src/ux_host_class_storage_transport_bo.c **** 
 246              		.loc 1 215 13 is_stmt 1 view .LVU89
 247 00c4 3846     		mov	r0, r7
 248              	.LVL32:
 215:Middlewares/ST/usbx/common/usbx_host_classes/src/ux_host_class_storage_transport_bo.c **** 
 249              		.loc 1 215 13 is_stmt 0 view .LVU90
 250 00c6 FFF7FEFF 		bl	_ux_host_stack_transfer_request_abort
 251              	.LVL33:
 218:Middlewares/ST/usbx/common/usbx_host_classes/src/ux_host_class_storage_transport_bo.c **** 
 252              		.loc 1 218 13 is_stmt 1 view .LVU91
 218:Middlewares/ST/usbx/common/usbx_host_classes/src/ux_host_class_storage_transport_bo.c **** 
 253              		.loc 1 218 69 is_stmt 0 view .LVU92
 254 00ca 5C25     		movs	r5, #92
 255 00cc 7D63     		str	r5, [r7, #52]
 221:Middlewares/ST/usbx/common/usbx_host_classes/src/ux_host_class_storage_transport_bo.c **** 
 256              		.loc 1 221 13 is_stmt 1 view .LVU93
 257 00ce 2A46     		mov	r2, r5
 258 00d0 0721     		movs	r1, #7
 259 00d2 0220     		movs	r0, #2
 260 00d4 FFF7FEFF 		bl	_ux_system_error_handler
 261              	.LVL34:
 227:Middlewares/ST/usbx/common/usbx_host_classes/src/ux_host_class_storage_transport_bo.c ****         }
 262              		.loc 1 227 13 view .LVU94
 227:Middlewares/ST/usbx/common/usbx_host_classes/src/ux_host_class_storage_transport_bo.c ****         }
 263              		.loc 1 227 19 is_stmt 0 view .LVU95
 264 00d8 C1E7     		b	.L1
 265              	.LVL35:
 266              	.L32:
 242:Middlewares/ST/usbx/common/usbx_host_classes/src/ux_host_class_storage_transport_bo.c ****                 _ux_host_stack_endpoint_reset(storage -> ux_host_class_storage_bulk_in_endpoint);
 267              		.loc 1 242 13 is_stmt 1 view .LVU96
 242:Middlewares/ST/usbx/common/usbx_host_classes/src/ux_host_class_storage_transport_bo.c ****                 _ux_host_stack_endpoint_reset(storage -> ux_host_class_storage_bulk_in_endpoint);
 268              		.loc 1 242 17 is_stmt 0 view .LVU97
 269 00da 96F82830 		ldrb	r3, [r6, #40]	@ zero_extendqisi2
 242:Middlewares/ST/usbx/common/usbx_host_classes/src/ux_host_class_storage_transport_bo.c ****                 _ux_host_stack_endpoint_reset(storage -> ux_host_class_storage_bulk_in_endpoint);
 270              		.loc 1 242 16 view .LVU98
 271 00de 802B     		cmp	r3, #128
 272 00e0 1FD0     		beq	.L33
 245:Middlewares/ST/usbx/common/usbx_host_classes/src/ux_host_class_storage_transport_bo.c **** 
 273              		.loc 1 245 17 is_stmt 1 view .LVU99
 274 00e2 3069     		ldr	r0, [r6, #16]
 275              	.LVL36:
 245:Middlewares/ST/usbx/common/usbx_host_classes/src/ux_host_class_storage_transport_bo.c **** 
 276              		.loc 1 245 17 is_stmt 0 view .LVU100
 277 00e4 FFF7FEFF 		bl	_ux_host_stack_endpoint_reset
 278              	.LVL37:
 279              	.L13:
 263:Middlewares/ST/usbx/common/usbx_host_classes/src/ux_host_class_storage_transport_bo.c **** 
 280              		.loc 1 263 5 is_stmt 1 view .LVU101
 263:Middlewares/ST/usbx/common/usbx_host_classes/src/ux_host_class_storage_transport_bo.c **** 
 281              		.loc 1 263 34 is_stmt 0 view .LVU102
 282 00e8 7469     		ldr	r4, [r6, #20]
 283              	.LVL38:
ARM GAS  C:\Users\HP\AppData\Local\Temp\ccs5m9P6.s 			page 14


 263:Middlewares/ST/usbx/common/usbx_host_classes/src/ux_host_class_storage_transport_bo.c **** 
 284              		.loc 1 263 22 view .LVU103
 285 00ea 04F13008 		add	r8, r4, #48
 286              	.LVL39:
 266:Middlewares/ST/usbx/common/usbx_host_classes/src/ux_host_class_storage_transport_bo.c ****     transfer_request -> ux_transfer_request_requested_length =  UX_HOST_CLASS_STORAGE_CSW_LENGTH;
 287              		.loc 1 266 5 is_stmt 1 view .LVU104
 266:Middlewares/ST/usbx/common/usbx_host_classes/src/ux_host_class_storage_transport_bo.c ****     transfer_request -> ux_transfer_request_requested_length =  UX_HOST_CLASS_STORAGE_CSW_LENGTH;
 288              		.loc 1 266 75 is_stmt 0 view .LVU105
 289 00ee 06F15C03 		add	r3, r6, #92
 266:Middlewares/ST/usbx/common/usbx_host_classes/src/ux_host_class_storage_transport_bo.c ****     transfer_request -> ux_transfer_request_requested_length =  UX_HOST_CLASS_STORAGE_CSW_LENGTH;
 290              		.loc 1 266 58 view .LVU106
 291 00f2 A363     		str	r3, [r4, #56]
 267:Middlewares/ST/usbx/common/usbx_host_classes/src/ux_host_class_storage_transport_bo.c **** 
 292              		.loc 1 267 5 is_stmt 1 view .LVU107
 267:Middlewares/ST/usbx/common/usbx_host_classes/src/ux_host_class_storage_transport_bo.c **** 
 293              		.loc 1 267 62 is_stmt 0 view .LVU108
 294 00f4 0D23     		movs	r3, #13
 295 00f6 E363     		str	r3, [r4, #60]
 270:Middlewares/ST/usbx/common/usbx_host_classes/src/ux_host_class_storage_transport_bo.c ****     {
 296              		.loc 1 270 5 is_stmt 1 view .LVU109
 297              	.LVL40:
 298              	.L15:
 270:Middlewares/ST/usbx/common/usbx_host_classes/src/ux_host_class_storage_transport_bo.c ****     {
 299              		.loc 1 270 22 discriminator 1 view .LVU110
 270:Middlewares/ST/usbx/common/usbx_host_classes/src/ux_host_class_storage_transport_bo.c ****     {
 300              		.loc 1 270 5 is_stmt 0 discriminator 1 view .LVU111
 301 00f8 012D     		cmp	r5, #1
 302 00fa 6FD8     		bhi	.L34
 274:Middlewares/ST/usbx/common/usbx_host_classes/src/ux_host_class_storage_transport_bo.c ****         if (status != UX_SUCCESS)
 303              		.loc 1 274 9 is_stmt 1 view .LVU112
 274:Middlewares/ST/usbx/common/usbx_host_classes/src/ux_host_class_storage_transport_bo.c ****         if (status != UX_SUCCESS)
 304              		.loc 1 274 19 is_stmt 0 view .LVU113
 305 00fc 4046     		mov	r0, r8
 306 00fe FFF7FEFF 		bl	_ux_host_stack_transfer_request
 307              	.LVL41:
 275:Middlewares/ST/usbx/common/usbx_host_classes/src/ux_host_class_storage_transport_bo.c ****             return(status);
 308              		.loc 1 275 9 is_stmt 1 view .LVU114
 275:Middlewares/ST/usbx/common/usbx_host_classes/src/ux_host_class_storage_transport_bo.c ****             return(status);
 309              		.loc 1 275 12 is_stmt 0 view .LVU115
 310 0102 0028     		cmp	r0, #0
 311 0104 6FD1     		bne	.L25
 279:Middlewares/ST/usbx/common/usbx_host_classes/src/ux_host_class_storage_transport_bo.c **** 
 312              		.loc 1 279 9 is_stmt 1 view .LVU116
 279:Middlewares/ST/usbx/common/usbx_host_classes/src/ux_host_class_storage_transport_bo.c **** 
 313              		.loc 1 279 19 is_stmt 0 view .LVU117
 314 0106 4FF47A71 		mov	r1, #1000
 315 010a 04F17400 		add	r0, r4, #116
 316              	.LVL42:
 279:Middlewares/ST/usbx/common/usbx_host_classes/src/ux_host_class_storage_transport_bo.c **** 
 317              		.loc 1 279 19 view .LVU118
 318 010e FFF7FEFF 		bl	_ux_utility_semaphore_get
 319              	.LVL43:
 282:Middlewares/ST/usbx/common/usbx_host_classes/src/ux_host_class_storage_transport_bo.c ****         {
 320              		.loc 1 282 9 is_stmt 1 view .LVU119
 282:Middlewares/ST/usbx/common/usbx_host_classes/src/ux_host_class_storage_transport_bo.c ****         {
 321              		.loc 1 282 12 is_stmt 0 view .LVU120
 322 0112 50B9     		cbnz	r0, .L35
ARM GAS  C:\Users\HP\AppData\Local\Temp\ccs5m9P6.s 			page 15


 302:Middlewares/ST/usbx/common/usbx_host_classes/src/ux_host_class_storage_transport_bo.c ****         {
 323              		.loc 1 302 9 is_stmt 1 view .LVU121
 302:Middlewares/ST/usbx/common/usbx_host_classes/src/ux_host_class_storage_transport_bo.c ****         {
 324              		.loc 1 302 30 is_stmt 0 view .LVU122
 325 0114 676E     		ldr	r7, [r4, #100]
 302:Middlewares/ST/usbx/common/usbx_host_classes/src/ux_host_class_storage_transport_bo.c ****         {
 326              		.loc 1 302 12 view .LVU123
 327 0116 9FB1     		cbz	r7, .L36
 386:Middlewares/ST/usbx/common/usbx_host_classes/src/ux_host_class_storage_transport_bo.c ****     }
 328              		.loc 1 386 9 is_stmt 1 discriminator 2 view .LVU124
 329 0118 7069     		ldr	r0, [r6, #20]
 330              	.LVL44:
 386:Middlewares/ST/usbx/common/usbx_host_classes/src/ux_host_class_storage_transport_bo.c ****     }
 331              		.loc 1 386 9 is_stmt 0 discriminator 2 view .LVU125
 332 011a FFF7FEFF 		bl	_ux_host_stack_endpoint_reset
 333              	.LVL45:
 270:Middlewares/ST/usbx/common/usbx_host_classes/src/ux_host_class_storage_transport_bo.c ****     {
 334              		.loc 1 270 33 is_stmt 1 discriminator 2 view .LVU126
 270:Middlewares/ST/usbx/common/usbx_host_classes/src/ux_host_class_storage_transport_bo.c ****     {
 335              		.loc 1 270 38 is_stmt 0 discriminator 2 view .LVU127
 336 011e 0135     		adds	r5, r5, #1
 337              	.LVL46:
 270:Middlewares/ST/usbx/common/usbx_host_classes/src/ux_host_class_storage_transport_bo.c ****     {
 338              		.loc 1 270 38 discriminator 2 view .LVU128
 339 0120 EAE7     		b	.L15
 340              	.LVL47:
 341              	.L33:
 243:Middlewares/ST/usbx/common/usbx_host_classes/src/ux_host_class_storage_transport_bo.c ****             else
 342              		.loc 1 243 17 is_stmt 1 view .LVU129
 343 0122 7069     		ldr	r0, [r6, #20]
 344              	.LVL48:
 243:Middlewares/ST/usbx/common/usbx_host_classes/src/ux_host_class_storage_transport_bo.c ****             else
 345              		.loc 1 243 17 is_stmt 0 view .LVU130
 346 0124 FFF7FEFF 		bl	_ux_host_stack_endpoint_reset
 347              	.LVL49:
 348 0128 DEE7     		b	.L13
 349              	.LVL50:
 350              	.L35:
 286:Middlewares/ST/usbx/common/usbx_host_classes/src/ux_host_class_storage_transport_bo.c **** 
 351              		.loc 1 286 13 is_stmt 1 view .LVU131
 352 012a 4046     		mov	r0, r8
 353              	.LVL51:
 286:Middlewares/ST/usbx/common/usbx_host_classes/src/ux_host_class_storage_transport_bo.c **** 
 354              		.loc 1 286 13 is_stmt 0 view .LVU132
 355 012c FFF7FEFF 		bl	_ux_host_stack_transfer_request_abort
 356              	.LVL52:
 289:Middlewares/ST/usbx/common/usbx_host_classes/src/ux_host_class_storage_transport_bo.c **** 
 357              		.loc 1 289 13 is_stmt 1 view .LVU133
 289:Middlewares/ST/usbx/common/usbx_host_classes/src/ux_host_class_storage_transport_bo.c **** 
 358              		.loc 1 289 69 is_stmt 0 view .LVU134
 359 0130 5C25     		movs	r5, #92
 360              	.LVL53:
 289:Middlewares/ST/usbx/common/usbx_host_classes/src/ux_host_class_storage_transport_bo.c **** 
 361              		.loc 1 289 69 view .LVU135
 362 0132 6566     		str	r5, [r4, #100]
 292:Middlewares/ST/usbx/common/usbx_host_classes/src/ux_host_class_storage_transport_bo.c **** 
 363              		.loc 1 292 13 is_stmt 1 view .LVU136
ARM GAS  C:\Users\HP\AppData\Local\Temp\ccs5m9P6.s 			page 16


 364 0134 2A46     		mov	r2, r5
 365 0136 0721     		movs	r1, #7
 366 0138 0220     		movs	r0, #2
 367 013a FFF7FEFF 		bl	_ux_system_error_handler
 368              	.LVL54:
 298:Middlewares/ST/usbx/common/usbx_host_classes/src/ux_host_class_storage_transport_bo.c ****         }
 369              		.loc 1 298 13 view .LVU137
 298:Middlewares/ST/usbx/common/usbx_host_classes/src/ux_host_class_storage_transport_bo.c ****         }
 370              		.loc 1 298 19 is_stmt 0 view .LVU138
 371 013e 8EE7     		b	.L1
 372              	.LVL55:
 373              	.L36:
 307:Middlewares/ST/usbx/common/usbx_host_classes/src/ux_host_class_storage_transport_bo.c ****                 storage -> ux_host_class_storage_csw[UX_HOST_CLASS_STORAGE_CSW_STATUS] == UX_HOST_C
 374              		.loc 1 307 13 is_stmt 1 view .LVU139
 307:Middlewares/ST/usbx/common/usbx_host_classes/src/ux_host_class_storage_transport_bo.c ****                 storage -> ux_host_class_storage_csw[UX_HOST_CLASS_STORAGE_CSW_STATUS] == UX_HOST_C
 375              		.loc 1 307 53 is_stmt 0 view .LVU140
 376 0140 96F86830 		ldrb	r3, [r6, #104]	@ zero_extendqisi2
 307:Middlewares/ST/usbx/common/usbx_host_classes/src/ux_host_class_storage_transport_bo.c ****                 storage -> ux_host_class_storage_csw[UX_HOST_CLASS_STORAGE_CSW_STATUS] == UX_HOST_C
 377              		.loc 1 307 16 view .LVU141
 378 0144 012B     		cmp	r3, #1
 379 0146 45D8     		bhi	.L18
 312:Middlewares/ST/usbx/common/usbx_host_classes/src/ux_host_class_storage_transport_bo.c ****                 {
 380              		.loc 1 312 17 is_stmt 1 view .LVU142
 312:Middlewares/ST/usbx/common/usbx_host_classes/src/ux_host_class_storage_transport_bo.c ****                 {
 381              		.loc 1 312 21 is_stmt 0 view .LVU143
 382 0148 96F82820 		ldrb	r2, [r6, #40]	@ zero_extendqisi2
 312:Middlewares/ST/usbx/common/usbx_host_classes/src/ux_host_class_storage_transport_bo.c ****                 {
 383              		.loc 1 312 20 view .LVU144
 384 014c 82BB     		cbnz	r2, .L19
 316:Middlewares/ST/usbx/common/usbx_host_classes/src/ux_host_class_storage_transport_bo.c ****                         _ux_utility_long_get(storage -> ux_host_class_storage_csw + UX_HOST_CLASS_S
 385              		.loc 1 316 21 is_stmt 1 view .LVU145
 316:Middlewares/ST/usbx/common/usbx_host_classes/src/ux_host_class_storage_transport_bo.c ****                         _ux_utility_long_get(storage -> ux_host_class_storage_csw + UX_HOST_CLASS_S
 386              		.loc 1 316 24 is_stmt 0 view .LVU146
 387 014e 012B     		cmp	r3, #1
 388 0150 04D0     		beq	.L20
 317:Middlewares/ST/usbx/common/usbx_host_classes/src/ux_host_class_storage_transport_bo.c ****                     {
 389              		.loc 1 317 25 discriminator 1 view .LVU147
 390 0152 06F16400 		add	r0, r6, #100
 391              	.LVL56:
 317:Middlewares/ST/usbx/common/usbx_host_classes/src/ux_host_class_storage_transport_bo.c ****                     {
 392              		.loc 1 317 25 discriminator 1 view .LVU148
 393 0156 FFF7FEFF 		bl	_ux_utility_long_get
 394              	.LVL57:
 316:Middlewares/ST/usbx/common/usbx_host_classes/src/ux_host_class_storage_transport_bo.c ****                         _ux_utility_long_get(storage -> ux_host_class_storage_csw + UX_HOST_CLASS_S
 395              		.loc 1 316 132 discriminator 1 view .LVU149
 396 015a 48B3     		cbz	r0, .L19
 397              	.L20:
 328:Middlewares/ST/usbx/common/usbx_host_classes/src/ux_host_class_storage_transport_bo.c ****                         if (get_status_response == UX_NULL)
 398              		.loc 1 328 25 is_stmt 1 view .LVU150
 328:Middlewares/ST/usbx/common/usbx_host_classes/src/ux_host_class_storage_transport_bo.c ****                         if (get_status_response == UX_NULL)
 399              		.loc 1 328 48 is_stmt 0 view .LVU151
 400 015c 0222     		movs	r2, #2
 401 015e 0121     		movs	r1, #1
 402 0160 4FF0FF30 		mov	r0, #-1
 403 0164 FFF7FEFF 		bl	_ux_utility_memory_allocate
 404              	.LVL58:
 329:Middlewares/ST/usbx/common/usbx_host_classes/src/ux_host_class_storage_transport_bo.c ****                             return(UX_MEMORY_INSUFFICIENT);
ARM GAS  C:\Users\HP\AppData\Local\Temp\ccs5m9P6.s 			page 17


 405              		.loc 1 329 25 is_stmt 1 view .LVU152
 329:Middlewares/ST/usbx/common/usbx_host_classes/src/ux_host_class_storage_transport_bo.c ****                             return(UX_MEMORY_INSUFFICIENT);
 406              		.loc 1 329 28 is_stmt 0 view .LVU153
 407 0168 0446     		mov	r4, r0
 408 016a 0028     		cmp	r0, #0
 409 016c 3DD0     		beq	.L26
 333:Middlewares/ST/usbx/common/usbx_host_classes/src/ux_host_class_storage_transport_bo.c **** 
 410              		.loc 1 333 25 is_stmt 1 view .LVU154
 333:Middlewares/ST/usbx/common/usbx_host_classes/src/ux_host_class_storage_transport_bo.c **** 
 411              		.loc 1 333 54 is_stmt 0 view .LVU155
 412 016e B068     		ldr	r0, [r6, #8]
 413              	.LVL59:
 336:Middlewares/ST/usbx/common/usbx_host_classes/src/ux_host_class_storage_transport_bo.c ****                         transfer_request -> ux_transfer_request_requested_length =  0x02;
 414              		.loc 1 336 25 is_stmt 1 view .LVU156
 336:Middlewares/ST/usbx/common/usbx_host_classes/src/ux_host_class_storage_transport_bo.c ****                         transfer_request -> ux_transfer_request_requested_length =  0x02;
 415              		.loc 1 336 78 is_stmt 0 view .LVU157
 416 0170 C0F8BC40 		str	r4, [r0, #188]
 337:Middlewares/ST/usbx/common/usbx_host_classes/src/ux_host_class_storage_transport_bo.c ****                         transfer_request -> ux_transfer_request_function =          UX_GET_STATUS;
 417              		.loc 1 337 25 is_stmt 1 view .LVU158
 337:Middlewares/ST/usbx/common/usbx_host_classes/src/ux_host_class_storage_transport_bo.c ****                         transfer_request -> ux_transfer_request_function =          UX_GET_STATUS;
 418              		.loc 1 337 82 is_stmt 0 view .LVU159
 419 0174 0223     		movs	r3, #2
 420 0176 C0F8C030 		str	r3, [r0, #192]
 338:Middlewares/ST/usbx/common/usbx_host_classes/src/ux_host_class_storage_transport_bo.c ****                         transfer_request -> ux_transfer_request_type =              UX_REQUEST_IN |
 421              		.loc 1 338 25 is_stmt 1 view .LVU160
 338:Middlewares/ST/usbx/common/usbx_host_classes/src/ux_host_class_storage_transport_bo.c ****                         transfer_request -> ux_transfer_request_type =              UX_REQUEST_IN |
 422              		.loc 1 338 74 is_stmt 0 view .LVU161
 423 017a 0023     		movs	r3, #0
 424 017c C0F8CC30 		str	r3, [r0, #204]
 339:Middlewares/ST/usbx/common/usbx_host_classes/src/ux_host_class_storage_transport_bo.c ****                         transfer_request -> ux_transfer_request_value =             0;
 425              		.loc 1 339 25 is_stmt 1 view .LVU162
 339:Middlewares/ST/usbx/common/usbx_host_classes/src/ux_host_class_storage_transport_bo.c ****                         transfer_request -> ux_transfer_request_value =             0;
 426              		.loc 1 339 70 is_stmt 0 view .LVU163
 427 0180 8222     		movs	r2, #130
 428 0182 C0F8C820 		str	r2, [r0, #200]
 340:Middlewares/ST/usbx/common/usbx_host_classes/src/ux_host_class_storage_transport_bo.c ****                         transfer_request -> ux_transfer_request_index =             storage -> ux_h
 429              		.loc 1 340 25 is_stmt 1 view .LVU164
 340:Middlewares/ST/usbx/common/usbx_host_classes/src/ux_host_class_storage_transport_bo.c ****                         transfer_request -> ux_transfer_request_index =             storage -> ux_h
 430              		.loc 1 340 71 is_stmt 0 view .LVU165
 431 0186 C0F8D030 		str	r3, [r0, #208]
 341:Middlewares/ST/usbx/common/usbx_host_classes/src/ux_host_class_storage_transport_bo.c **** 
 432              		.loc 1 341 25 is_stmt 1 view .LVU166
 341:Middlewares/ST/usbx/common/usbx_host_classes/src/ux_host_class_storage_transport_bo.c **** 
 433              		.loc 1 341 93 is_stmt 0 view .LVU167
 434 018a 3369     		ldr	r3, [r6, #16]
 341:Middlewares/ST/usbx/common/usbx_host_classes/src/ux_host_class_storage_transport_bo.c **** 
 435              		.loc 1 341 160 view .LVU168
 436 018c 5B69     		ldr	r3, [r3, #20]
 341:Middlewares/ST/usbx/common/usbx_host_classes/src/ux_host_class_storage_transport_bo.c **** 
 437              		.loc 1 341 71 view .LVU169
 438 018e C0F8D430 		str	r3, [r0, #212]
 344:Middlewares/ST/usbx/common/usbx_host_classes/src/ux_host_class_storage_transport_bo.c **** 
 439              		.loc 1 344 25 is_stmt 1 view .LVU170
 344:Middlewares/ST/usbx/common/usbx_host_classes/src/ux_host_class_storage_transport_bo.c **** 
 440              		.loc 1 344 35 is_stmt 0 view .LVU171
 441 0192 B430     		adds	r0, r0, #180
 442              	.LVL60:
ARM GAS  C:\Users\HP\AppData\Local\Temp\ccs5m9P6.s 			page 18


 344:Middlewares/ST/usbx/common/usbx_host_classes/src/ux_host_class_storage_transport_bo.c **** 
 443              		.loc 1 344 35 view .LVU172
 444 0194 FFF7FEFF 		bl	_ux_host_stack_transfer_request
 445              	.LVL61:
 347:Middlewares/ST/usbx/common/usbx_host_classes/src/ux_host_class_storage_transport_bo.c ****                         {
 446              		.loc 1 347 25 is_stmt 1 view .LVU173
 347:Middlewares/ST/usbx/common/usbx_host_classes/src/ux_host_class_storage_transport_bo.c ****                         {
 447              		.loc 1 347 28 is_stmt 0 view .LVU174
 448 0198 0546     		mov	r5, r0
 449              	.LVL62:
 347:Middlewares/ST/usbx/common/usbx_host_classes/src/ux_host_class_storage_transport_bo.c ****                         {
 450              		.loc 1 347 28 view .LVU175
 451 019a 18B9     		cbnz	r0, .L21
 351:Middlewares/ST/usbx/common/usbx_host_classes/src/ux_host_class_storage_transport_bo.c ****                             {
 452              		.loc 1 351 29 is_stmt 1 view .LVU176
 351:Middlewares/ST/usbx/common/usbx_host_classes/src/ux_host_class_storage_transport_bo.c ****                             {
 453              		.loc 1 351 52 is_stmt 0 view .LVU177
 454 019c 2378     		ldrb	r3, [r4]	@ zero_extendqisi2
 351:Middlewares/ST/usbx/common/usbx_host_classes/src/ux_host_class_storage_transport_bo.c ****                             {
 455              		.loc 1 351 32 view .LVU178
 456 019e 13F0010F 		tst	r3, #1
 457 01a2 12D1     		bne	.L37
 458              	.L21:
 360:Middlewares/ST/usbx/common/usbx_host_classes/src/ux_host_class_storage_transport_bo.c **** 
 459              		.loc 1 360 25 is_stmt 1 view .LVU179
 460 01a4 2046     		mov	r0, r4
 461              	.LVL63:
 360:Middlewares/ST/usbx/common/usbx_host_classes/src/ux_host_class_storage_transport_bo.c **** 
 462              		.loc 1 360 25 is_stmt 0 view .LVU180
 463 01a6 FFF7FEFF 		bl	_ux_utility_memory_free
 464              	.LVL64:
 363:Middlewares/ST/usbx/common/usbx_host_classes/src/ux_host_class_storage_transport_bo.c ****                             return(status);
 465              		.loc 1 363 25 is_stmt 1 view .LVU181
 363:Middlewares/ST/usbx/common/usbx_host_classes/src/ux_host_class_storage_transport_bo.c ****                             return(status);
 466              		.loc 1 363 28 is_stmt 0 view .LVU182
 467 01aa 002D     		cmp	r5, #0
 468 01ac 7FF457AF 		bne	.L1
 469              	.LVL65:
 470              	.L19:
 369:Middlewares/ST/usbx/common/usbx_host_classes/src/ux_host_class_storage_transport_bo.c ****                     _ux_utility_long_get(storage -> ux_host_class_storage_csw + UX_HOST_CLASS_STORA
 471              		.loc 1 369 17 is_stmt 1 view .LVU183
 369:Middlewares/ST/usbx/common/usbx_host_classes/src/ux_host_class_storage_transport_bo.c ****                     _ux_utility_long_get(storage -> ux_host_class_storage_csw + UX_HOST_CLASS_STORA
 472              		.loc 1 369 71 is_stmt 0 view .LVU184
 473 01b0 5046     		mov	r0, r10
 474 01b2 FFF7FEFF 		bl	_ux_utility_long_get
 475              	.LVL66:
 476 01b6 0446     		mov	r4, r0
 370:Middlewares/ST/usbx/common/usbx_host_classes/src/ux_host_class_storage_transport_bo.c ****             }
 477              		.loc 1 370 21 view .LVU185
 478 01b8 06F16400 		add	r0, r6, #100
 479 01bc FFF7FEFF 		bl	_ux_utility_long_get
 480              	.LVL67:
 369:Middlewares/ST/usbx/common/usbx_host_classes/src/ux_host_class_storage_transport_bo.c ****                     _ux_utility_long_get(storage -> ux_host_class_storage_csw + UX_HOST_CLASS_STORA
 481              		.loc 1 369 137 view .LVU186
 482 01c0 241A     		subs	r4, r4, r0
 369:Middlewares/ST/usbx/common/usbx_host_classes/src/ux_host_class_storage_transport_bo.c ****                     _ux_utility_long_get(storage -> ux_host_class_storage_csw + UX_HOST_CLASS_STORA
 483              		.loc 1 369 68 view .LVU187
ARM GAS  C:\Users\HP\AppData\Local\Temp\ccs5m9P6.s 			page 19


 484 01c2 C6F88C40 		str	r4, [r6, #140]
 485              	.L22:
 381:Middlewares/ST/usbx/common/usbx_host_classes/src/ux_host_class_storage_transport_bo.c ****         }
 486              		.loc 1 381 13 is_stmt 1 view .LVU188
 381:Middlewares/ST/usbx/common/usbx_host_classes/src/ux_host_class_storage_transport_bo.c ****         }
 487              		.loc 1 381 19 is_stmt 0 view .LVU189
 488 01c6 3D46     		mov	r5, r7
 489 01c8 49E7     		b	.L1
 490              	.LVL68:
 491              	.L37:
 355:Middlewares/ST/usbx/common/usbx_host_classes/src/ux_host_class_storage_transport_bo.c ****                             }
 492              		.loc 1 355 33 is_stmt 1 view .LVU190
 355:Middlewares/ST/usbx/common/usbx_host_classes/src/ux_host_class_storage_transport_bo.c ****                             }
 493              		.loc 1 355 43 is_stmt 0 view .LVU191
 494 01ca 3069     		ldr	r0, [r6, #16]
 495              	.LVL69:
 355:Middlewares/ST/usbx/common/usbx_host_classes/src/ux_host_class_storage_transport_bo.c ****                             }
 496              		.loc 1 355 43 view .LVU192
 497 01cc FFF7FEFF 		bl	_ux_host_stack_endpoint_reset
 498              	.LVL70:
 499 01d0 0546     		mov	r5, r0
 500              	.LVL71:
 355:Middlewares/ST/usbx/common/usbx_host_classes/src/ux_host_class_storage_transport_bo.c ****                             }
 501              		.loc 1 355 43 view .LVU193
 502 01d2 E7E7     		b	.L21
 503              	.LVL72:
 504              	.L18:
 376:Middlewares/ST/usbx/common/usbx_host_classes/src/ux_host_class_storage_transport_bo.c ****             }
 505              		.loc 1 376 17 is_stmt 1 view .LVU194
 506 01d4 3046     		mov	r0, r6
 507              	.LVL73:
 376:Middlewares/ST/usbx/common/usbx_host_classes/src/ux_host_class_storage_transport_bo.c ****             }
 508              		.loc 1 376 17 is_stmt 0 view .LVU195
 509 01d6 FFF7FEFF 		bl	_ux_host_class_storage_device_reset
 510              	.LVL74:
 511 01da F4E7     		b	.L22
 512              	.L34:
 390:Middlewares/ST/usbx/common/usbx_host_classes/src/ux_host_class_storage_transport_bo.c **** 
 513              		.loc 1 390 5 is_stmt 1 view .LVU196
 514 01dc 3046     		mov	r0, r6
 515 01de FFF7FEFF 		bl	_ux_host_class_storage_device_reset
 516              	.LVL75:
 393:Middlewares/ST/usbx/common/usbx_host_classes/src/ux_host_class_storage_transport_bo.c **** }
 517              		.loc 1 393 5 view .LVU197
 393:Middlewares/ST/usbx/common/usbx_host_classes/src/ux_host_class_storage_transport_bo.c **** }
 518              		.loc 1 393 29 is_stmt 0 view .LVU198
 519 01e2 656E     		ldr	r5, [r4, #100]
 520              	.LVL76:
 393:Middlewares/ST/usbx/common/usbx_host_classes/src/ux_host_class_storage_transport_bo.c **** }
 521              		.loc 1 393 29 view .LVU199
 522 01e4 3BE7     		b	.L1
 523              	.LVL77:
 524              	.L25:
 276:Middlewares/ST/usbx/common/usbx_host_classes/src/ux_host_class_storage_transport_bo.c **** 
 525              		.loc 1 276 19 view .LVU200
 526 01e6 0546     		mov	r5, r0
 527              	.LVL78:
ARM GAS  C:\Users\HP\AppData\Local\Temp\ccs5m9P6.s 			page 20


 276:Middlewares/ST/usbx/common/usbx_host_classes/src/ux_host_class_storage_transport_bo.c **** 
 528              		.loc 1 276 19 view .LVU201
 529 01e8 39E7     		b	.L1
 530              	.LVL79:
 531              	.L26:
 330:Middlewares/ST/usbx/common/usbx_host_classes/src/ux_host_class_storage_transport_bo.c **** 
 532              		.loc 1 330 35 view .LVU202
 533 01ea 1225     		movs	r5, #18
 534              	.LVL80:
 330:Middlewares/ST/usbx/common/usbx_host_classes/src/ux_host_class_storage_transport_bo.c **** 
 535              		.loc 1 330 35 view .LVU203
 536 01ec 37E7     		b	.L1
 537              		.cfi_endproc
 538              	.LFE11:
 540              		.text
 541              	.Letext0:
 542              		.file 2 "Middlewares/ST/threadx/ports/cortex_m4/gnu/inc/tx_port.h"
 543              		.file 3 "Middlewares/ST/threadx/common/inc/tx_api.h"
 544              		.file 4 "Middlewares/ST/usbx/common/core/inc/ux_api.h"
 545              		.file 5 "Middlewares/ST/usbx/common/usbx_host_classes/inc/ux_host_class_storage.h"
 546              		.file 6 "Middlewares/ST/usbx/common/core/inc/ux_host_stack.h"
 547              		.file 7 "Middlewares/ST/usbx/common/core/inc/ux_utility.h"
ARM GAS  C:\Users\HP\AppData\Local\Temp\ccs5m9P6.s 			page 21

