ARM GAS  C:\Users\HP\AppData\Local\Temp\ccJ8D1uf.s 			page 1


   1              		.cpu cortex-m4
   2              		.arch armv7e-m
   3              		.fpu fpv4-sp-d16
   4              		.eabi_attribute 27, 1
   5              		.eabi_attribute 28, 1
   6              		.eabi_attribute 20, 1
   7              		.eabi_attribute 21, 1
   8              		.eabi_attribute 23, 3
   9              		.eabi_attribute 24, 1
  10              		.eabi_attribute 25, 1
  11              		.eabi_attribute 26, 1
  12              		.eabi_attribute 30, 1
  13              		.eabi_attribute 34, 1
  14              		.eabi_attribute 18, 4
  15              		.file	"ux_host_class_storage_partition_read.c"
  16              		.text
  17              	.Ltext0:
  18              		.cfi_sections	.debug_frame
  19              		.section	.text._ux_host_class_storage_partition_read,"ax",%progbits
  20              		.align	1
  21              		.global	_ux_host_class_storage_partition_read
  22              		.syntax unified
  23              		.thumb
  24              		.thumb_func
  26              	_ux_host_class_storage_partition_read:
  27              	.LVL0:
  28              	.LFB11:
  29              		.file 1 "Middlewares/ST/usbx/common/usbx_host_classes/src/ux_host_class_storage_partition_read.c"
   1:Middlewares/ST/usbx/common/usbx_host_classes/src/ux_host_class_storage_partition_read.c **** /**************************************************************************/
   2:Middlewares/ST/usbx/common/usbx_host_classes/src/ux_host_class_storage_partition_read.c **** /*                                                                        */
   3:Middlewares/ST/usbx/common/usbx_host_classes/src/ux_host_class_storage_partition_read.c **** /*       Copyright (c) Microsoft Corporation. All rights reserved.        */
   4:Middlewares/ST/usbx/common/usbx_host_classes/src/ux_host_class_storage_partition_read.c **** /*                                                                        */
   5:Middlewares/ST/usbx/common/usbx_host_classes/src/ux_host_class_storage_partition_read.c **** /*       This software is licensed under the Microsoft Software License   */
   6:Middlewares/ST/usbx/common/usbx_host_classes/src/ux_host_class_storage_partition_read.c **** /*       Terms for Microsoft Azure RTOS. Full text of the license can be  */
   7:Middlewares/ST/usbx/common/usbx_host_classes/src/ux_host_class_storage_partition_read.c **** /*       found in the LICENSE file at https://aka.ms/AzureRTOS_EULA       */
   8:Middlewares/ST/usbx/common/usbx_host_classes/src/ux_host_class_storage_partition_read.c **** /*       and in the root directory of this software.                      */
   9:Middlewares/ST/usbx/common/usbx_host_classes/src/ux_host_class_storage_partition_read.c **** /*                                                                        */
  10:Middlewares/ST/usbx/common/usbx_host_classes/src/ux_host_class_storage_partition_read.c **** /**************************************************************************/
  11:Middlewares/ST/usbx/common/usbx_host_classes/src/ux_host_class_storage_partition_read.c **** 
  12:Middlewares/ST/usbx/common/usbx_host_classes/src/ux_host_class_storage_partition_read.c **** 
  13:Middlewares/ST/usbx/common/usbx_host_classes/src/ux_host_class_storage_partition_read.c **** /**************************************************************************/
  14:Middlewares/ST/usbx/common/usbx_host_classes/src/ux_host_class_storage_partition_read.c **** /**************************************************************************/
  15:Middlewares/ST/usbx/common/usbx_host_classes/src/ux_host_class_storage_partition_read.c **** /**                                                                       */ 
  16:Middlewares/ST/usbx/common/usbx_host_classes/src/ux_host_class_storage_partition_read.c **** /** USBX Component                                                        */ 
  17:Middlewares/ST/usbx/common/usbx_host_classes/src/ux_host_class_storage_partition_read.c **** /**                                                                       */
  18:Middlewares/ST/usbx/common/usbx_host_classes/src/ux_host_class_storage_partition_read.c **** /**   Storage Class                                                       */
  19:Middlewares/ST/usbx/common/usbx_host_classes/src/ux_host_class_storage_partition_read.c **** /**                                                                       */
  20:Middlewares/ST/usbx/common/usbx_host_classes/src/ux_host_class_storage_partition_read.c **** /**************************************************************************/
  21:Middlewares/ST/usbx/common/usbx_host_classes/src/ux_host_class_storage_partition_read.c **** /**************************************************************************/
  22:Middlewares/ST/usbx/common/usbx_host_classes/src/ux_host_class_storage_partition_read.c **** 
  23:Middlewares/ST/usbx/common/usbx_host_classes/src/ux_host_class_storage_partition_read.c **** 
  24:Middlewares/ST/usbx/common/usbx_host_classes/src/ux_host_class_storage_partition_read.c **** /* Include necessary system files.  */
  25:Middlewares/ST/usbx/common/usbx_host_classes/src/ux_host_class_storage_partition_read.c **** 
  26:Middlewares/ST/usbx/common/usbx_host_classes/src/ux_host_class_storage_partition_read.c **** #define UX_SOURCE_CODE
  27:Middlewares/ST/usbx/common/usbx_host_classes/src/ux_host_class_storage_partition_read.c **** 
  28:Middlewares/ST/usbx/common/usbx_host_classes/src/ux_host_class_storage_partition_read.c **** #include "ux_api.h"
  29:Middlewares/ST/usbx/common/usbx_host_classes/src/ux_host_class_storage_partition_read.c **** #include "ux_host_class_storage.h"
ARM GAS  C:\Users\HP\AppData\Local\Temp\ccJ8D1uf.s 			page 2


  30:Middlewares/ST/usbx/common/usbx_host_classes/src/ux_host_class_storage_partition_read.c **** #include "ux_host_stack.h"
  31:Middlewares/ST/usbx/common/usbx_host_classes/src/ux_host_class_storage_partition_read.c **** 
  32:Middlewares/ST/usbx/common/usbx_host_classes/src/ux_host_class_storage_partition_read.c **** 
  33:Middlewares/ST/usbx/common/usbx_host_classes/src/ux_host_class_storage_partition_read.c **** /**************************************************************************/ 
  34:Middlewares/ST/usbx/common/usbx_host_classes/src/ux_host_class_storage_partition_read.c **** /*                                                                        */ 
  35:Middlewares/ST/usbx/common/usbx_host_classes/src/ux_host_class_storage_partition_read.c **** /*  FUNCTION                                               RELEASE        */ 
  36:Middlewares/ST/usbx/common/usbx_host_classes/src/ux_host_class_storage_partition_read.c **** /*                                                                        */ 
  37:Middlewares/ST/usbx/common/usbx_host_classes/src/ux_host_class_storage_partition_read.c **** /*    _ux_host_class_storage_partition_read               PORTABLE C      */ 
  38:Middlewares/ST/usbx/common/usbx_host_classes/src/ux_host_class_storage_partition_read.c **** /*                                                           6.1.2        */
  39:Middlewares/ST/usbx/common/usbx_host_classes/src/ux_host_class_storage_partition_read.c **** /*  AUTHOR                                                                */
  40:Middlewares/ST/usbx/common/usbx_host_classes/src/ux_host_class_storage_partition_read.c **** /*                                                                        */
  41:Middlewares/ST/usbx/common/usbx_host_classes/src/ux_host_class_storage_partition_read.c **** /*    Chaoqiong Xiao, Microsoft Corporation                               */
  42:Middlewares/ST/usbx/common/usbx_host_classes/src/ux_host_class_storage_partition_read.c **** /*                                                                        */
  43:Middlewares/ST/usbx/common/usbx_host_classes/src/ux_host_class_storage_partition_read.c **** /*  DESCRIPTION                                                           */
  44:Middlewares/ST/usbx/common/usbx_host_classes/src/ux_host_class_storage_partition_read.c **** /*                                                                        */ 
  45:Middlewares/ST/usbx/common/usbx_host_classes/src/ux_host_class_storage_partition_read.c **** /*    This function will analyze the partition table and parse all the    */
  46:Middlewares/ST/usbx/common/usbx_host_classes/src/ux_host_class_storage_partition_read.c **** /*    partitions. It may happen that a partition entry points to a        */
  47:Middlewares/ST/usbx/common/usbx_host_classes/src/ux_host_class_storage_partition_read.c **** /*    secondary partition table.                                          */ 
  48:Middlewares/ST/usbx/common/usbx_host_classes/src/ux_host_class_storage_partition_read.c **** /*                                                                        */ 
  49:Middlewares/ST/usbx/common/usbx_host_classes/src/ux_host_class_storage_partition_read.c **** /*  INPUT                                                                 */ 
  50:Middlewares/ST/usbx/common/usbx_host_classes/src/ux_host_class_storage_partition_read.c **** /*                                                                        */ 
  51:Middlewares/ST/usbx/common/usbx_host_classes/src/ux_host_class_storage_partition_read.c **** /*    storage                               Pointer to storage class      */ 
  52:Middlewares/ST/usbx/common/usbx_host_classes/src/ux_host_class_storage_partition_read.c **** /*    sector_memory                         Pointer to memory for sector  */ 
  53:Middlewares/ST/usbx/common/usbx_host_classes/src/ux_host_class_storage_partition_read.c **** /*    sector                                Sector number                 */ 
  54:Middlewares/ST/usbx/common/usbx_host_classes/src/ux_host_class_storage_partition_read.c **** /*                                                                        */ 
  55:Middlewares/ST/usbx/common/usbx_host_classes/src/ux_host_class_storage_partition_read.c **** /*  OUTPUT                                                                */ 
  56:Middlewares/ST/usbx/common/usbx_host_classes/src/ux_host_class_storage_partition_read.c **** /*                                                                        */ 
  57:Middlewares/ST/usbx/common/usbx_host_classes/src/ux_host_class_storage_partition_read.c **** /*    Completion Status                                                   */ 
  58:Middlewares/ST/usbx/common/usbx_host_classes/src/ux_host_class_storage_partition_read.c **** /*                                                                        */ 
  59:Middlewares/ST/usbx/common/usbx_host_classes/src/ux_host_class_storage_partition_read.c **** /*  CALLS                                                                 */ 
  60:Middlewares/ST/usbx/common/usbx_host_classes/src/ux_host_class_storage_partition_read.c **** /*                                                                        */ 
  61:Middlewares/ST/usbx/common/usbx_host_classes/src/ux_host_class_storage_partition_read.c **** /*    _ux_host_class_storage_media_mount    Mount media                   */ 
  62:Middlewares/ST/usbx/common/usbx_host_classes/src/ux_host_class_storage_partition_read.c **** /*    _ux_host_class_storage_media_open     Open media                    */ 
  63:Middlewares/ST/usbx/common/usbx_host_classes/src/ux_host_class_storage_partition_read.c **** /*    _ux_utility_long_get                  Get 32-bit word               */ 
  64:Middlewares/ST/usbx/common/usbx_host_classes/src/ux_host_class_storage_partition_read.c **** /*                                                                        */ 
  65:Middlewares/ST/usbx/common/usbx_host_classes/src/ux_host_class_storage_partition_read.c **** /*  CALLED BY                                                             */ 
  66:Middlewares/ST/usbx/common/usbx_host_classes/src/ux_host_class_storage_partition_read.c **** /*                                                                        */ 
  67:Middlewares/ST/usbx/common/usbx_host_classes/src/ux_host_class_storage_partition_read.c **** /*    _ux_host_class_storage_media_mount    Mount media                   */ 
  68:Middlewares/ST/usbx/common/usbx_host_classes/src/ux_host_class_storage_partition_read.c **** /*                                                                        */ 
  69:Middlewares/ST/usbx/common/usbx_host_classes/src/ux_host_class_storage_partition_read.c **** /*  RELEASE HISTORY                                                       */ 
  70:Middlewares/ST/usbx/common/usbx_host_classes/src/ux_host_class_storage_partition_read.c **** /*                                                                        */ 
  71:Middlewares/ST/usbx/common/usbx_host_classes/src/ux_host_class_storage_partition_read.c **** /*    DATE              NAME                      DESCRIPTION             */ 
  72:Middlewares/ST/usbx/common/usbx_host_classes/src/ux_host_class_storage_partition_read.c **** /*                                                                        */ 
  73:Middlewares/ST/usbx/common/usbx_host_classes/src/ux_host_class_storage_partition_read.c **** /*  05-19-2020     Chaoqiong Xiao           Initial Version 6.0           */
  74:Middlewares/ST/usbx/common/usbx_host_classes/src/ux_host_class_storage_partition_read.c **** /*  09-30-2020     Chaoqiong Xiao           Modified comment(s),          */
  75:Middlewares/ST/usbx/common/usbx_host_classes/src/ux_host_class_storage_partition_read.c **** /*                                            added option to disable FX  */
  76:Middlewares/ST/usbx/common/usbx_host_classes/src/ux_host_class_storage_partition_read.c **** /*                                            media integration,          */
  77:Middlewares/ST/usbx/common/usbx_host_classes/src/ux_host_class_storage_partition_read.c **** /*                                            resulting in version 6.1    */
  78:Middlewares/ST/usbx/common/usbx_host_classes/src/ux_host_class_storage_partition_read.c **** /*  11-09-2020     Chaoqiong Xiao           Modified comment(s),          */
  79:Middlewares/ST/usbx/common/usbx_host_classes/src/ux_host_class_storage_partition_read.c **** /*                                            added exFAT support,        */
  80:Middlewares/ST/usbx/common/usbx_host_classes/src/ux_host_class_storage_partition_read.c **** /*                                            resulting in version 6.1.2  */
  81:Middlewares/ST/usbx/common/usbx_host_classes/src/ux_host_class_storage_partition_read.c **** /*                                                                        */
  82:Middlewares/ST/usbx/common/usbx_host_classes/src/ux_host_class_storage_partition_read.c **** /**************************************************************************/
  83:Middlewares/ST/usbx/common/usbx_host_classes/src/ux_host_class_storage_partition_read.c **** UINT  _ux_host_class_storage_partition_read(UX_HOST_CLASS_STORAGE *storage, UCHAR *sector_memory, U
  84:Middlewares/ST/usbx/common/usbx_host_classes/src/ux_host_class_storage_partition_read.c **** {
  30              		.loc 1 84 1 view -0
  31              		.cfi_startproc
ARM GAS  C:\Users\HP\AppData\Local\Temp\ccJ8D1uf.s 			page 3


  32              		@ args = 0, pretend = 0, frame = 0
  33              		@ frame_needed = 0, uses_anonymous_args = 0
  34              		.loc 1 84 1 is_stmt 0 view .LVU1
  35 0000 F8B5     		push	{r3, r4, r5, r6, r7, lr}
  36              	.LCFI0:
  37              		.cfi_def_cfa_offset 24
  38              		.cfi_offset 3, -24
  39              		.cfi_offset 4, -20
  40              		.cfi_offset 5, -16
  41              		.cfi_offset 6, -12
  42              		.cfi_offset 7, -8
  43              		.cfi_offset 14, -4
  44 0002 0746     		mov	r7, r0
  45 0004 1646     		mov	r6, r2
  85:Middlewares/ST/usbx/common/usbx_host_classes/src/ux_host_class_storage_partition_read.c **** #if defined(UX_HOST_CLASS_STORAGE_NO_FILEX)
  86:Middlewares/ST/usbx/common/usbx_host_classes/src/ux_host_class_storage_partition_read.c ****     UX_PARAMETER_NOT_USED(storage);
  87:Middlewares/ST/usbx/common/usbx_host_classes/src/ux_host_class_storage_partition_read.c ****     UX_PARAMETER_NOT_USED(sector_memory);
  88:Middlewares/ST/usbx/common/usbx_host_classes/src/ux_host_class_storage_partition_read.c ****     UX_PARAMETER_NOT_USED(sector);
  89:Middlewares/ST/usbx/common/usbx_host_classes/src/ux_host_class_storage_partition_read.c ****     return(UX_FUNCTION_NOT_SUPPORTED);
  90:Middlewares/ST/usbx/common/usbx_host_classes/src/ux_host_class_storage_partition_read.c **** #else
  91:Middlewares/ST/usbx/common/usbx_host_classes/src/ux_host_class_storage_partition_read.c **** UINT        status =  UX_ERROR;
  46              		.loc 1 91 1 is_stmt 1 view .LVU2
  47              	.LVL1:
  92:Middlewares/ST/usbx/common/usbx_host_classes/src/ux_host_class_storage_partition_read.c **** UINT        partition_index;
  48              		.loc 1 92 1 view .LVU3
  93:Middlewares/ST/usbx/common/usbx_host_classes/src/ux_host_class_storage_partition_read.c ****     
  94:Middlewares/ST/usbx/common/usbx_host_classes/src/ux_host_class_storage_partition_read.c **** 
  95:Middlewares/ST/usbx/common/usbx_host_classes/src/ux_host_class_storage_partition_read.c ****     /* Point the sector buffer to the first partition entry.  */
  96:Middlewares/ST/usbx/common/usbx_host_classes/src/ux_host_class_storage_partition_read.c ****     sector_memory +=  UX_HOST_CLASS_STORAGE_PARTITION_TABLE_START;
  49              		.loc 1 96 5 view .LVU4
  50              		.loc 1 96 19 is_stmt 0 view .LVU5
  51 0006 01F5DF74 		add	r4, r1, #446
  52              	.LVL2:
  97:Middlewares/ST/usbx/common/usbx_host_classes/src/ux_host_class_storage_partition_read.c ****     
  98:Middlewares/ST/usbx/common/usbx_host_classes/src/ux_host_class_storage_partition_read.c ****     /* There are 4 partitions in a partition table.  */
  99:Middlewares/ST/usbx/common/usbx_host_classes/src/ux_host_class_storage_partition_read.c ****     for (partition_index = 0; partition_index < 4; partition_index++)
  53              		.loc 1 99 5 is_stmt 1 view .LVU6
  54              		.loc 1 99 26 is_stmt 0 view .LVU7
  55 000a 0025     		movs	r5, #0
  91:Middlewares/ST/usbx/common/usbx_host_classes/src/ux_host_class_storage_partition_read.c **** UINT        partition_index;
  56              		.loc 1 91 13 view .LVU8
  57 000c FF20     		movs	r0, #255
  58              	.LVL3:
  59              		.loc 1 99 5 view .LVU9
  60 000e 09E0     		b	.L2
  61              	.LVL4:
  62              	.L6:
 100:Middlewares/ST/usbx/common/usbx_host_classes/src/ux_host_class_storage_partition_read.c ****     {
 101:Middlewares/ST/usbx/common/usbx_host_classes/src/ux_host_class_storage_partition_read.c **** 
 102:Middlewares/ST/usbx/common/usbx_host_classes/src/ux_host_class_storage_partition_read.c ****         /* Check if we recognize this partition entry.  */
 103:Middlewares/ST/usbx/common/usbx_host_classes/src/ux_host_class_storage_partition_read.c ****         switch(*(sector_memory + UX_HOST_CLASS_STORAGE_PARTITION_TYPE))
 104:Middlewares/ST/usbx/common/usbx_host_classes/src/ux_host_class_storage_partition_read.c ****         {
 105:Middlewares/ST/usbx/common/usbx_host_classes/src/ux_host_class_storage_partition_read.c **** 
 106:Middlewares/ST/usbx/common/usbx_host_classes/src/ux_host_class_storage_partition_read.c ****         case UX_HOST_CLASS_STORAGE_PARTITION_FAT_12:       
 107:Middlewares/ST/usbx/common/usbx_host_classes/src/ux_host_class_storage_partition_read.c ****         case UX_HOST_CLASS_STORAGE_PARTITION_FAT_16:   
 108:Middlewares/ST/usbx/common/usbx_host_classes/src/ux_host_class_storage_partition_read.c ****         case UX_HOST_CLASS_STORAGE_PARTITION_FAT_16L: 
 109:Middlewares/ST/usbx/common/usbx_host_classes/src/ux_host_class_storage_partition_read.c ****         case UX_HOST_CLASS_STORAGE_PARTITION_FAT_16_LBA_MAPPED: 
ARM GAS  C:\Users\HP\AppData\Local\Temp\ccJ8D1uf.s 			page 4


 110:Middlewares/ST/usbx/common/usbx_host_classes/src/ux_host_class_storage_partition_read.c ****         case UX_HOST_CLASS_STORAGE_PARTITION_FAT_32_1:   
 111:Middlewares/ST/usbx/common/usbx_host_classes/src/ux_host_class_storage_partition_read.c ****         case UX_HOST_CLASS_STORAGE_PARTITION_FAT_32_2:   
 112:Middlewares/ST/usbx/common/usbx_host_classes/src/ux_host_class_storage_partition_read.c ****         case UX_HOST_CLASS_STORAGE_PARTITION_EXFAT:
 113:Middlewares/ST/usbx/common/usbx_host_classes/src/ux_host_class_storage_partition_read.c **** 
 114:Middlewares/ST/usbx/common/usbx_host_classes/src/ux_host_class_storage_partition_read.c ****             /* We have found a legal partition entry pointing to a potential boot sector.  */
 115:Middlewares/ST/usbx/common/usbx_host_classes/src/ux_host_class_storage_partition_read.c ****             status =  _ux_host_class_storage_media_open(storage, sector + _ux_utility_long_get(sect
  63              		.loc 1 115 13 is_stmt 1 view .LVU10
  64              		.loc 1 115 75 is_stmt 0 view .LVU11
  65 0010 04F10800 		add	r0, r4, #8
  66              	.LVL5:
  67              		.loc 1 115 75 view .LVU12
  68 0014 FFF7FEFF 		bl	_ux_utility_long_get
  69              	.LVL6:
  70              		.loc 1 115 23 view .LVU13
  71 0018 8119     		adds	r1, r0, r6
  72 001a 3846     		mov	r0, r7
  73 001c FFF7FEFF 		bl	_ux_host_class_storage_media_open
  74              	.LVL7:
 116:Middlewares/ST/usbx/common/usbx_host_classes/src/ux_host_class_storage_partition_read.c ****             break;                              
  75              		.loc 1 116 13 is_stmt 1 view .LVU14
  76              	.L3:
 117:Middlewares/ST/usbx/common/usbx_host_classes/src/ux_host_class_storage_partition_read.c ****             
 118:Middlewares/ST/usbx/common/usbx_host_classes/src/ux_host_class_storage_partition_read.c ****         case UX_HOST_CLASS_STORAGE_PARTITION_EXTENDED:   
 119:Middlewares/ST/usbx/common/usbx_host_classes/src/ux_host_class_storage_partition_read.c ****         case UX_HOST_CLASS_STORAGE_PARTITION_EXTENDED_LBA_MAPPED:   
 120:Middlewares/ST/usbx/common/usbx_host_classes/src/ux_host_class_storage_partition_read.c **** 
 121:Middlewares/ST/usbx/common/usbx_host_classes/src/ux_host_class_storage_partition_read.c ****             /* We have found an entry to an extended partition. We need to read that partition sect
 122:Middlewares/ST/usbx/common/usbx_host_classes/src/ux_host_class_storage_partition_read.c ****                and recursively mount all partitions found.  */
 123:Middlewares/ST/usbx/common/usbx_host_classes/src/ux_host_class_storage_partition_read.c ****             status =  _ux_host_class_storage_media_mount(storage, sector + _ux_utility_long_get(sec
 124:Middlewares/ST/usbx/common/usbx_host_classes/src/ux_host_class_storage_partition_read.c ****             break;
 125:Middlewares/ST/usbx/common/usbx_host_classes/src/ux_host_class_storage_partition_read.c ****                 
 126:Middlewares/ST/usbx/common/usbx_host_classes/src/ux_host_class_storage_partition_read.c ****         default:
 127:Middlewares/ST/usbx/common/usbx_host_classes/src/ux_host_class_storage_partition_read.c **** 
 128:Middlewares/ST/usbx/common/usbx_host_classes/src/ux_host_class_storage_partition_read.c ****             /* We have found something which is not a DOS recognized partition, or an empty entry.
 129:Middlewares/ST/usbx/common/usbx_host_classes/src/ux_host_class_storage_partition_read.c ****                Ignore it and proceed with the rest.  */
 130:Middlewares/ST/usbx/common/usbx_host_classes/src/ux_host_class_storage_partition_read.c ****             break;
 131:Middlewares/ST/usbx/common/usbx_host_classes/src/ux_host_class_storage_partition_read.c ****         }
 132:Middlewares/ST/usbx/common/usbx_host_classes/src/ux_host_class_storage_partition_read.c **** 
 133:Middlewares/ST/usbx/common/usbx_host_classes/src/ux_host_class_storage_partition_read.c ****         /* Move to the next partition entry.  */
 134:Middlewares/ST/usbx/common/usbx_host_classes/src/ux_host_class_storage_partition_read.c ****         sector_memory +=  UX_HOST_CLASS_STORAGE_PARTITION_TABLE_SIZE;
  77              		.loc 1 134 9 discriminator 2 view .LVU15
  78              		.loc 1 134 23 is_stmt 0 discriminator 2 view .LVU16
  79 0020 1034     		adds	r4, r4, #16
  80              	.LVL8:
  99:Middlewares/ST/usbx/common/usbx_host_classes/src/ux_host_class_storage_partition_read.c ****     {
  81              		.loc 1 99 52 is_stmt 1 discriminator 2 view .LVU17
  99:Middlewares/ST/usbx/common/usbx_host_classes/src/ux_host_class_storage_partition_read.c ****     {
  82              		.loc 1 99 67 is_stmt 0 discriminator 2 view .LVU18
  83 0022 0135     		adds	r5, r5, #1
  84              	.LVL9:
  85              	.L2:
  99:Middlewares/ST/usbx/common/usbx_host_classes/src/ux_host_class_storage_partition_read.c ****     {
  86              		.loc 1 99 31 is_stmt 1 discriminator 1 view .LVU19
  99:Middlewares/ST/usbx/common/usbx_host_classes/src/ux_host_class_storage_partition_read.c ****     {
  87              		.loc 1 99 5 is_stmt 0 discriminator 1 view .LVU20
  88 0024 032D     		cmp	r5, #3
  89 0026 2ED8     		bhi	.L9
 103:Middlewares/ST/usbx/common/usbx_host_classes/src/ux_host_class_storage_partition_read.c ****         {
ARM GAS  C:\Users\HP\AppData\Local\Temp\ccJ8D1uf.s 			page 5


  90              		.loc 1 103 9 is_stmt 1 view .LVU21
 103:Middlewares/ST/usbx/common/usbx_host_classes/src/ux_host_class_storage_partition_read.c ****         {
  91              		.loc 1 103 16 is_stmt 0 view .LVU22
  92 0028 2379     		ldrb	r3, [r4, #4]	@ zero_extendqisi2
 103:Middlewares/ST/usbx/common/usbx_host_classes/src/ux_host_class_storage_partition_read.c ****         {
  93              		.loc 1 103 9 view .LVU23
  94 002a 013B     		subs	r3, r3, #1
  95 002c 0E2B     		cmp	r3, #14
  96 002e F7D8     		bhi	.L3
  97 0030 01A2     		adr	r2, .L5
  98 0032 52F823F0 		ldr	pc, [r2, r3, lsl #2]
  99 0036 00BF     		.p2align 2
 100              	.L5:
 101 0038 11000000 		.word	.L6+1
 102 003c 21000000 		.word	.L3+1
 103 0040 21000000 		.word	.L3+1
 104 0044 11000000 		.word	.L6+1
 105 0048 75000000 		.word	.L4+1
 106 004c 11000000 		.word	.L6+1
 107 0050 11000000 		.word	.L6+1
 108 0054 21000000 		.word	.L3+1
 109 0058 21000000 		.word	.L3+1
 110 005c 21000000 		.word	.L3+1
 111 0060 11000000 		.word	.L6+1
 112 0064 11000000 		.word	.L6+1
 113 0068 21000000 		.word	.L3+1
 114 006c 11000000 		.word	.L6+1
 115 0070 75000000 		.word	.L4+1
 116              		.p2align 1
 117              	.L4:
 123:Middlewares/ST/usbx/common/usbx_host_classes/src/ux_host_class_storage_partition_read.c ****             break;
 118              		.loc 1 123 13 is_stmt 1 view .LVU24
 123:Middlewares/ST/usbx/common/usbx_host_classes/src/ux_host_class_storage_partition_read.c ****             break;
 119              		.loc 1 123 76 is_stmt 0 view .LVU25
 120 0074 04F10800 		add	r0, r4, #8
 121              	.LVL10:
 123:Middlewares/ST/usbx/common/usbx_host_classes/src/ux_host_class_storage_partition_read.c ****             break;
 122              		.loc 1 123 76 view .LVU26
 123 0078 FFF7FEFF 		bl	_ux_utility_long_get
 124              	.LVL11:
 123:Middlewares/ST/usbx/common/usbx_host_classes/src/ux_host_class_storage_partition_read.c ****             break;
 125              		.loc 1 123 23 view .LVU27
 126 007c 8119     		adds	r1, r0, r6
 127 007e 3846     		mov	r0, r7
 128 0080 FFF7FEFF 		bl	_ux_host_class_storage_media_mount
 129              	.LVL12:
 124:Middlewares/ST/usbx/common/usbx_host_classes/src/ux_host_class_storage_partition_read.c ****                 
 130              		.loc 1 124 13 is_stmt 1 view .LVU28
 131 0084 CCE7     		b	.L3
 132              	.L9:
 135:Middlewares/ST/usbx/common/usbx_host_classes/src/ux_host_class_storage_partition_read.c ****     }
 136:Middlewares/ST/usbx/common/usbx_host_classes/src/ux_host_class_storage_partition_read.c **** 
 137:Middlewares/ST/usbx/common/usbx_host_classes/src/ux_host_class_storage_partition_read.c ****     /* Return completion status.  */
 138:Middlewares/ST/usbx/common/usbx_host_classes/src/ux_host_class_storage_partition_read.c ****     return(status);
 133              		.loc 1 138 5 view .LVU29
 139:Middlewares/ST/usbx/common/usbx_host_classes/src/ux_host_class_storage_partition_read.c **** #endif
 140:Middlewares/ST/usbx/common/usbx_host_classes/src/ux_host_class_storage_partition_read.c **** }
ARM GAS  C:\Users\HP\AppData\Local\Temp\ccJ8D1uf.s 			page 6


 134              		.loc 1 140 1 is_stmt 0 view .LVU30
 135 0086 F8BD     		pop	{r3, r4, r5, r6, r7, pc}
 136              		.loc 1 140 1 view .LVU31
 137              		.cfi_endproc
 138              	.LFE11:
 140              		.text
 141              	.Letext0:
 142              		.file 2 "Middlewares/ST/threadx/ports/cortex_m4/gnu/inc/tx_port.h"
 143              		.file 3 "Middlewares/ST/threadx/common/inc/tx_api.h"
 144              		.file 4 "Middlewares/ST/usbx/common/core/inc/ux_api.h"
 145              		.file 5 "Middlewares/ST/usbx/common/usbx_host_classes/inc/ux_host_class_storage.h"
 146              		.file 6 "Middlewares/ST/usbx/common/core/inc/ux_utility.h"
ARM GAS  C:\Users\HP\AppData\Local\Temp\ccJ8D1uf.s 			page 7

