ARM GAS  C:\Users\HP\AppData\Local\Temp\ccVLCuss.s 			page 1


   1              		.cpu cortex-m4
   2              		.arch armv7e-m
   3              		.fpu fpv4-sp-d16
   4              		.eabi_attribute 27, 1
   5              		.eabi_attribute 28, 1
   6              		.eabi_attribute 20, 1
   7              		.eabi_attribute 21, 1
   8              		.eabi_attribute 23, 3
   9              		.eabi_attribute 24, 1
  10              		.eabi_attribute 25, 1
  11              		.eabi_attribute 26, 1
  12              		.eabi_attribute 30, 1
  13              		.eabi_attribute 34, 1
  14              		.eabi_attribute 18, 4
  15              		.file	"ux_hcd_stm32_interrupt_handler.c"
  16              		.text
  17              	.Ltext0:
  18              		.cfi_sections	.debug_frame
  19              		.section	.text._ux_hcd_stm32_interrupt_handler,"ax",%progbits
  20              		.align	1
  21              		.global	_ux_hcd_stm32_interrupt_handler
  22              		.syntax unified
  23              		.thumb
  24              		.thumb_func
  26              	_ux_hcd_stm32_interrupt_handler:
  27              	.LFB143:
  28              		.file 1 "Middlewares/ST/usbx/common/usbx_stm32_host_controllers/ux_hcd_stm32_interrupt_handler.c"
   1:Middlewares/ST/usbx/common/usbx_stm32_host_controllers/ux_hcd_stm32_interrupt_handler.c **** /**************************************************************************/
   2:Middlewares/ST/usbx/common/usbx_stm32_host_controllers/ux_hcd_stm32_interrupt_handler.c **** /*                                                                        */
   3:Middlewares/ST/usbx/common/usbx_stm32_host_controllers/ux_hcd_stm32_interrupt_handler.c **** /*       Copyright (c) Microsoft Corporation. All rights reserved.        */
   4:Middlewares/ST/usbx/common/usbx_stm32_host_controllers/ux_hcd_stm32_interrupt_handler.c **** /*                                                                        */
   5:Middlewares/ST/usbx/common/usbx_stm32_host_controllers/ux_hcd_stm32_interrupt_handler.c **** /*       This software is licensed under the Microsoft Software License   */
   6:Middlewares/ST/usbx/common/usbx_stm32_host_controllers/ux_hcd_stm32_interrupt_handler.c **** /*       Terms for Microsoft Azure RTOS. Full text of the license can be  */
   7:Middlewares/ST/usbx/common/usbx_stm32_host_controllers/ux_hcd_stm32_interrupt_handler.c **** /*       found in the LICENSE file at https://aka.ms/AzureRTOS_EULA       */
   8:Middlewares/ST/usbx/common/usbx_stm32_host_controllers/ux_hcd_stm32_interrupt_handler.c **** /*       and in the root directory of this software.                      */
   9:Middlewares/ST/usbx/common/usbx_stm32_host_controllers/ux_hcd_stm32_interrupt_handler.c **** /*                                                                        */
  10:Middlewares/ST/usbx/common/usbx_stm32_host_controllers/ux_hcd_stm32_interrupt_handler.c **** /**************************************************************************/
  11:Middlewares/ST/usbx/common/usbx_stm32_host_controllers/ux_hcd_stm32_interrupt_handler.c **** 
  12:Middlewares/ST/usbx/common/usbx_stm32_host_controllers/ux_hcd_stm32_interrupt_handler.c **** 
  13:Middlewares/ST/usbx/common/usbx_stm32_host_controllers/ux_hcd_stm32_interrupt_handler.c **** /**************************************************************************/
  14:Middlewares/ST/usbx/common/usbx_stm32_host_controllers/ux_hcd_stm32_interrupt_handler.c **** /**************************************************************************/
  15:Middlewares/ST/usbx/common/usbx_stm32_host_controllers/ux_hcd_stm32_interrupt_handler.c **** /**                                                                       */
  16:Middlewares/ST/usbx/common/usbx_stm32_host_controllers/ux_hcd_stm32_interrupt_handler.c **** /** USBX Component                                                        */
  17:Middlewares/ST/usbx/common/usbx_stm32_host_controllers/ux_hcd_stm32_interrupt_handler.c **** /**                                                                       */
  18:Middlewares/ST/usbx/common/usbx_stm32_host_controllers/ux_hcd_stm32_interrupt_handler.c **** /**   STM32 Controller Driver                                             */
  19:Middlewares/ST/usbx/common/usbx_stm32_host_controllers/ux_hcd_stm32_interrupt_handler.c **** /**                                                                       */
  20:Middlewares/ST/usbx/common/usbx_stm32_host_controllers/ux_hcd_stm32_interrupt_handler.c **** /**************************************************************************/
  21:Middlewares/ST/usbx/common/usbx_stm32_host_controllers/ux_hcd_stm32_interrupt_handler.c **** /**************************************************************************/
  22:Middlewares/ST/usbx/common/usbx_stm32_host_controllers/ux_hcd_stm32_interrupt_handler.c **** 
  23:Middlewares/ST/usbx/common/usbx_stm32_host_controllers/ux_hcd_stm32_interrupt_handler.c **** 
  24:Middlewares/ST/usbx/common/usbx_stm32_host_controllers/ux_hcd_stm32_interrupt_handler.c **** /* Include necessary system files.  */
  25:Middlewares/ST/usbx/common/usbx_stm32_host_controllers/ux_hcd_stm32_interrupt_handler.c **** 
  26:Middlewares/ST/usbx/common/usbx_stm32_host_controllers/ux_hcd_stm32_interrupt_handler.c **** #define UX_SOURCE_CODE
  27:Middlewares/ST/usbx/common/usbx_stm32_host_controllers/ux_hcd_stm32_interrupt_handler.c **** #define UX_HCD_STM32_SOURCE_CODE
  28:Middlewares/ST/usbx/common/usbx_stm32_host_controllers/ux_hcd_stm32_interrupt_handler.c **** 
  29:Middlewares/ST/usbx/common/usbx_stm32_host_controllers/ux_hcd_stm32_interrupt_handler.c **** #include "ux_api.h"
  30:Middlewares/ST/usbx/common/usbx_stm32_host_controllers/ux_hcd_stm32_interrupt_handler.c **** #include "ux_hcd_stm32.h"
ARM GAS  C:\Users\HP\AppData\Local\Temp\ccVLCuss.s 			page 2


  31:Middlewares/ST/usbx/common/usbx_stm32_host_controllers/ux_hcd_stm32_interrupt_handler.c **** #include "ux_host_stack.h"
  32:Middlewares/ST/usbx/common/usbx_stm32_host_controllers/ux_hcd_stm32_interrupt_handler.c **** 
  33:Middlewares/ST/usbx/common/usbx_stm32_host_controllers/ux_hcd_stm32_interrupt_handler.c **** /**************************************************************************/
  34:Middlewares/ST/usbx/common/usbx_stm32_host_controllers/ux_hcd_stm32_interrupt_handler.c **** /*                                                                        */
  35:Middlewares/ST/usbx/common/usbx_stm32_host_controllers/ux_hcd_stm32_interrupt_handler.c **** /*  FUNCTION                                               RELEASE        */
  36:Middlewares/ST/usbx/common/usbx_stm32_host_controllers/ux_hcd_stm32_interrupt_handler.c **** /*                                                                        */
  37:Middlewares/ST/usbx/common/usbx_stm32_host_controllers/ux_hcd_stm32_interrupt_handler.c **** /*    _ux_hcd_stm32_interrupt_handler                     PORTABLE C      */
  38:Middlewares/ST/usbx/common/usbx_stm32_host_controllers/ux_hcd_stm32_interrupt_handler.c **** /*                                                           6.0          */
  39:Middlewares/ST/usbx/common/usbx_stm32_host_controllers/ux_hcd_stm32_interrupt_handler.c **** /*  AUTHOR                                                                */
  40:Middlewares/ST/usbx/common/usbx_stm32_host_controllers/ux_hcd_stm32_interrupt_handler.c **** /*                                                                        */
  41:Middlewares/ST/usbx/common/usbx_stm32_host_controllers/ux_hcd_stm32_interrupt_handler.c **** /*    Chaoqiong Xiao, Microsoft Corporation                               */
  42:Middlewares/ST/usbx/common/usbx_stm32_host_controllers/ux_hcd_stm32_interrupt_handler.c **** /*                                                                        */
  43:Middlewares/ST/usbx/common/usbx_stm32_host_controllers/ux_hcd_stm32_interrupt_handler.c **** /*  DESCRIPTION                                                           */
  44:Middlewares/ST/usbx/common/usbx_stm32_host_controllers/ux_hcd_stm32_interrupt_handler.c **** /*                                                                        */
  45:Middlewares/ST/usbx/common/usbx_stm32_host_controllers/ux_hcd_stm32_interrupt_handler.c **** /*     This function is the interrupt handler for the USB interrupts.     */
  46:Middlewares/ST/usbx/common/usbx_stm32_host_controllers/ux_hcd_stm32_interrupt_handler.c **** /*     This function calls HAL driver for interrupt handling.             */
  47:Middlewares/ST/usbx/common/usbx_stm32_host_controllers/ux_hcd_stm32_interrupt_handler.c **** /*                                                                        */
  48:Middlewares/ST/usbx/common/usbx_stm32_host_controllers/ux_hcd_stm32_interrupt_handler.c **** /*  INPUT                                                                 */
  49:Middlewares/ST/usbx/common/usbx_stm32_host_controllers/ux_hcd_stm32_interrupt_handler.c **** /*                                                                        */
  50:Middlewares/ST/usbx/common/usbx_stm32_host_controllers/ux_hcd_stm32_interrupt_handler.c **** /*    None                                                                */
  51:Middlewares/ST/usbx/common/usbx_stm32_host_controllers/ux_hcd_stm32_interrupt_handler.c **** /*                                                                        */
  52:Middlewares/ST/usbx/common/usbx_stm32_host_controllers/ux_hcd_stm32_interrupt_handler.c **** /*  OUTPUT                                                                */
  53:Middlewares/ST/usbx/common/usbx_stm32_host_controllers/ux_hcd_stm32_interrupt_handler.c **** /*                                                                        */
  54:Middlewares/ST/usbx/common/usbx_stm32_host_controllers/ux_hcd_stm32_interrupt_handler.c **** /*    None                                                                */
  55:Middlewares/ST/usbx/common/usbx_stm32_host_controllers/ux_hcd_stm32_interrupt_handler.c **** /*                                                                        */
  56:Middlewares/ST/usbx/common/usbx_stm32_host_controllers/ux_hcd_stm32_interrupt_handler.c **** /*  CALLS                                                                 */
  57:Middlewares/ST/usbx/common/usbx_stm32_host_controllers/ux_hcd_stm32_interrupt_handler.c **** /*                                                                        */
  58:Middlewares/ST/usbx/common/usbx_stm32_host_controllers/ux_hcd_stm32_interrupt_handler.c **** /*    HAL_HCD_IRQHandler                      Interrupt handler           */
  59:Middlewares/ST/usbx/common/usbx_stm32_host_controllers/ux_hcd_stm32_interrupt_handler.c **** /*                                                                        */
  60:Middlewares/ST/usbx/common/usbx_stm32_host_controllers/ux_hcd_stm32_interrupt_handler.c **** /*  CALLED BY                                                             */
  61:Middlewares/ST/usbx/common/usbx_stm32_host_controllers/ux_hcd_stm32_interrupt_handler.c **** /*                                                                        */
  62:Middlewares/ST/usbx/common/usbx_stm32_host_controllers/ux_hcd_stm32_interrupt_handler.c **** /*    ThreadX Interrupt Handler                                           */
  63:Middlewares/ST/usbx/common/usbx_stm32_host_controllers/ux_hcd_stm32_interrupt_handler.c **** /*                                                                        */
  64:Middlewares/ST/usbx/common/usbx_stm32_host_controllers/ux_hcd_stm32_interrupt_handler.c **** /*  RELEASE HISTORY                                                       */
  65:Middlewares/ST/usbx/common/usbx_stm32_host_controllers/ux_hcd_stm32_interrupt_handler.c **** /*                                                                        */
  66:Middlewares/ST/usbx/common/usbx_stm32_host_controllers/ux_hcd_stm32_interrupt_handler.c **** /*    DATE              NAME                      DESCRIPTION             */
  67:Middlewares/ST/usbx/common/usbx_stm32_host_controllers/ux_hcd_stm32_interrupt_handler.c **** /*                                                                        */
  68:Middlewares/ST/usbx/common/usbx_stm32_host_controllers/ux_hcd_stm32_interrupt_handler.c **** /*  05-19-2020     Chaoqiong Xiao           Initial Version 6.0           */
  69:Middlewares/ST/usbx/common/usbx_stm32_host_controllers/ux_hcd_stm32_interrupt_handler.c **** /*                                                                        */
  70:Middlewares/ST/usbx/common/usbx_stm32_host_controllers/ux_hcd_stm32_interrupt_handler.c **** /**************************************************************************/
  71:Middlewares/ST/usbx/common/usbx_stm32_host_controllers/ux_hcd_stm32_interrupt_handler.c **** VOID  _ux_hcd_stm32_interrupt_handler(VOID)
  72:Middlewares/ST/usbx/common/usbx_stm32_host_controllers/ux_hcd_stm32_interrupt_handler.c **** {
  29              		.loc 1 72 1 view -0
  30              		.cfi_startproc
  31              		@ args = 0, pretend = 0, frame = 0
  32              		@ frame_needed = 0, uses_anonymous_args = 0
  33 0000 10B5     		push	{r4, lr}
  34              	.LCFI0:
  35              		.cfi_def_cfa_offset 8
  36              		.cfi_offset 4, -8
  37              		.cfi_offset 14, -4
  73:Middlewares/ST/usbx/common/usbx_stm32_host_controllers/ux_hcd_stm32_interrupt_handler.c **** 
  74:Middlewares/ST/usbx/common/usbx_stm32_host_controllers/ux_hcd_stm32_interrupt_handler.c **** UINT                hcd_index;
  38              		.loc 1 74 1 view .LVU1
  75:Middlewares/ST/usbx/common/usbx_stm32_host_controllers/ux_hcd_stm32_interrupt_handler.c **** UX_HCD              *hcd;
  39              		.loc 1 75 1 view .LVU2
  76:Middlewares/ST/usbx/common/usbx_stm32_host_controllers/ux_hcd_stm32_interrupt_handler.c **** UX_HCD_STM32        *hcd_stm32;
ARM GAS  C:\Users\HP\AppData\Local\Temp\ccVLCuss.s 			page 3


  40              		.loc 1 76 1 view .LVU3
  77:Middlewares/ST/usbx/common/usbx_stm32_host_controllers/ux_hcd_stm32_interrupt_handler.c **** 
  78:Middlewares/ST/usbx/common/usbx_stm32_host_controllers/ux_hcd_stm32_interrupt_handler.c **** 
  79:Middlewares/ST/usbx/common/usbx_stm32_host_controllers/ux_hcd_stm32_interrupt_handler.c ****     /* We need to parse the controller driver table to find all controllers that
  80:Middlewares/ST/usbx/common/usbx_stm32_host_controllers/ux_hcd_stm32_interrupt_handler.c ****       are registered as STM32.  */
  81:Middlewares/ST/usbx/common/usbx_stm32_host_controllers/ux_hcd_stm32_interrupt_handler.c ****     for (hcd_index = 0; hcd_index < _ux_system_host -> ux_system_host_registered_hcd; hcd_index++)
  41              		.loc 1 81 5 view .LVU4
  42              	.LVL0:
  43              		.loc 1 81 20 is_stmt 0 view .LVU5
  44 0002 0024     		movs	r4, #0
  45              		.loc 1 81 5 view .LVU6
  46 0004 00E0     		b	.L2
  47              	.LVL1:
  48              	.L3:
  49              		.loc 1 81 87 is_stmt 1 discriminator 2 view .LVU7
  50              		.loc 1 81 96 is_stmt 0 discriminator 2 view .LVU8
  51 0006 0134     		adds	r4, r4, #1
  52              	.LVL2:
  53              	.L2:
  54              		.loc 1 81 25 is_stmt 1 discriminator 1 view .LVU9
  55              		.loc 1 81 53 is_stmt 0 discriminator 1 view .LVU10
  56 0008 084B     		ldr	r3, .L7
  57 000a 1B68     		ldr	r3, [r3]
  58 000c 9A68     		ldr	r2, [r3, #8]
  59              		.loc 1 81 5 discriminator 1 view .LVU11
  60 000e A242     		cmp	r2, r4
  61 0010 0BD9     		bls	.L6
  82:Middlewares/ST/usbx/common/usbx_stm32_host_controllers/ux_hcd_stm32_interrupt_handler.c ****     {
  83:Middlewares/ST/usbx/common/usbx_stm32_host_controllers/ux_hcd_stm32_interrupt_handler.c **** 
  84:Middlewares/ST/usbx/common/usbx_stm32_host_controllers/ux_hcd_stm32_interrupt_handler.c ****         /* Check type of controller.  */
  85:Middlewares/ST/usbx/common/usbx_stm32_host_controllers/ux_hcd_stm32_interrupt_handler.c ****         if (_ux_system_host -> ux_system_host_hcd_array[hcd_index].ux_hcd_controller_type == UX_HCD
  62              		.loc 1 85 9 is_stmt 1 view .LVU12
  63              		.loc 1 85 29 is_stmt 0 view .LVU13
  64 0012 DB68     		ldr	r3, [r3, #12]
  65              		.loc 1 85 56 view .LVU14
  66 0014 9422     		movs	r2, #148
  67 0016 02FB0433 		mla	r3, r2, r4, r3
  68              		.loc 1 85 67 view .LVU15
  69 001a 5A6C     		ldr	r2, [r3, #68]
  70              		.loc 1 85 12 view .LVU16
  71 001c 062A     		cmp	r2, #6
  72 001e F2D1     		bne	.L3
  86:Middlewares/ST/usbx/common/usbx_stm32_host_controllers/ux_hcd_stm32_interrupt_handler.c ****         {
  87:Middlewares/ST/usbx/common/usbx_stm32_host_controllers/ux_hcd_stm32_interrupt_handler.c **** 
  88:Middlewares/ST/usbx/common/usbx_stm32_host_controllers/ux_hcd_stm32_interrupt_handler.c ****             /* Get the pointers to the generic HCD and STM32 specific areas.  */
  89:Middlewares/ST/usbx/common/usbx_stm32_host_controllers/ux_hcd_stm32_interrupt_handler.c ****             hcd =  &_ux_system_host -> ux_system_host_hcd_array[hcd_index];
  73              		.loc 1 89 13 is_stmt 1 view .LVU17
  74              	.LVL3:
  90:Middlewares/ST/usbx/common/usbx_stm32_host_controllers/ux_hcd_stm32_interrupt_handler.c ****             hcd_stm32 =  (UX_HCD_STM32 *) hcd -> ux_hcd_controller_hardware;
  75              		.loc 1 90 13 view .LVU18
  76              		.loc 1 90 23 is_stmt 0 view .LVU19
  77 0020 5B6F     		ldr	r3, [r3, #116]
  78              	.LVL4:
  91:Middlewares/ST/usbx/common/usbx_stm32_host_controllers/ux_hcd_stm32_interrupt_handler.c **** 
  92:Middlewares/ST/usbx/common/usbx_stm32_host_controllers/ux_hcd_stm32_interrupt_handler.c ****             /* Call HAL interrupt handler.  */
  93:Middlewares/ST/usbx/common/usbx_stm32_host_controllers/ux_hcd_stm32_interrupt_handler.c ****             HAL_HCD_IRQHandler(hcd_stm32 -> hcd_handle);
  79              		.loc 1 93 13 is_stmt 1 view .LVU20
ARM GAS  C:\Users\HP\AppData\Local\Temp\ccVLCuss.s 			page 4


  80 0022 986C     		ldr	r0, [r3, #72]
  81 0024 FFF7FEFF 		bl	HAL_HCD_IRQHandler
  82              	.LVL5:
  83              		.loc 1 93 13 is_stmt 0 view .LVU21
  84 0028 EDE7     		b	.L3
  85              	.L6:
  94:Middlewares/ST/usbx/common/usbx_stm32_host_controllers/ux_hcd_stm32_interrupt_handler.c ****         }
  95:Middlewares/ST/usbx/common/usbx_stm32_host_controllers/ux_hcd_stm32_interrupt_handler.c ****     }
  96:Middlewares/ST/usbx/common/usbx_stm32_host_controllers/ux_hcd_stm32_interrupt_handler.c **** }
  86              		.loc 1 96 1 view .LVU22
  87 002a 10BD     		pop	{r4, pc}
  88              	.LVL6:
  89              	.L8:
  90              		.loc 1 96 1 view .LVU23
  91              		.align	2
  92              	.L7:
  93 002c 00000000 		.word	_ux_system_host
  94              		.cfi_endproc
  95              	.LFE143:
  97              		.text
  98              	.Letext0:
  99              		.file 2 "c:\\gcc-arm-none-eabi\\arm-none-eabi\\include\\machine\\_default_types.h"
 100              		.file 3 "c:\\gcc-arm-none-eabi\\arm-none-eabi\\include\\sys\\_stdint.h"
 101              		.file 4 "Middlewares/ST/threadx/ports/cortex_m4/gnu/inc/tx_port.h"
 102              		.file 5 "Middlewares/ST/threadx/common/inc/tx_api.h"
 103              		.file 6 "Middlewares/ST/usbx/common/core/inc/ux_api.h"
 104              		.file 7 "Drivers/CMSIS/Device/ST/STM32L4xx/Include/stm32l4r5xx.h"
 105              		.file 8 "Drivers/STM32L4xx_HAL_Driver/Inc/stm32l4xx_hal_def.h"
 106              		.file 9 "Drivers/STM32L4xx_HAL_Driver/Inc/stm32l4xx_ll_usb.h"
 107              		.file 10 "Drivers/STM32L4xx_HAL_Driver/Inc/stm32l4xx_hal_hcd.h"
 108              		.file 11 "Middlewares/ST/usbx/common/usbx_stm32_host_controllers/ux_hcd_stm32.h"
 109              		.file 12 "Middlewares/ST/usbx/common/core/inc/ux_system.h"
ARM GAS  C:\Users\HP\AppData\Local\Temp\ccVLCuss.s 			page 5


DEFINED SYMBOLS
                            *ABS*:00000000 ux_hcd_stm32_interrupt_handler.c
C:\Users\HP\AppData\Local\Temp\ccVLCuss.s:20     .text._ux_hcd_stm32_interrupt_handler:00000000 $t
C:\Users\HP\AppData\Local\Temp\ccVLCuss.s:26     .text._ux_hcd_stm32_interrupt_handler:00000000 _ux_hcd_stm32_interrupt_handler
C:\Users\HP\AppData\Local\Temp\ccVLCuss.s:93     .text._ux_hcd_stm32_interrupt_handler:0000002c $d

UNDEFINED SYMBOLS
HAL_HCD_IRQHandler
_ux_system_host
