ARM GAS  C:\Users\HP\AppData\Local\Temp\ccwbGQU0.s 			page 1


   1              		.cpu cortex-m4
   2              		.arch armv7e-m
   3              		.fpu fpv4-sp-d16
   4              		.eabi_attribute 27, 1
   5              		.eabi_attribute 28, 1
   6              		.eabi_attribute 20, 1
   7              		.eabi_attribute 21, 1
   8              		.eabi_attribute 23, 3
   9              		.eabi_attribute 24, 1
  10              		.eabi_attribute 25, 1
  11              		.eabi_attribute 26, 1
  12              		.eabi_attribute 30, 1
  13              		.eabi_attribute 34, 1
  14              		.eabi_attribute 18, 4
  15              		.file	"ux_host_class_storage_media_characteristics_get.c"
  16              		.text
  17              	.Ltext0:
  18              		.cfi_sections	.debug_frame
  19              		.section	.text._ux_host_class_storage_media_characteristics_get,"ax",%progbits
  20              		.align	1
  21              		.global	_ux_host_class_storage_media_characteristics_get
  22              		.syntax unified
  23              		.thumb
  24              		.thumb_func
  26              	_ux_host_class_storage_media_characteristics_get:
  27              	.LVL0:
  28              	.LFB11:
  29              		.file 1 "Middlewares/ST/usbx/common/usbx_host_classes/src/ux_host_class_storage_media_characterist
   1:Middlewares/ST/usbx/common/usbx_host_classes/src/ux_host_class_storage_media_characteristics_get.c **** /**************************************************************************/
   2:Middlewares/ST/usbx/common/usbx_host_classes/src/ux_host_class_storage_media_characteristics_get.c **** /*                                                                        */
   3:Middlewares/ST/usbx/common/usbx_host_classes/src/ux_host_class_storage_media_characteristics_get.c **** /*       Copyright (c) Microsoft Corporation. All rights reserved.        */
   4:Middlewares/ST/usbx/common/usbx_host_classes/src/ux_host_class_storage_media_characteristics_get.c **** /*                                                                        */
   5:Middlewares/ST/usbx/common/usbx_host_classes/src/ux_host_class_storage_media_characteristics_get.c **** /*       This software is licensed under the Microsoft Software License   */
   6:Middlewares/ST/usbx/common/usbx_host_classes/src/ux_host_class_storage_media_characteristics_get.c **** /*       Terms for Microsoft Azure RTOS. Full text of the license can be  */
   7:Middlewares/ST/usbx/common/usbx_host_classes/src/ux_host_class_storage_media_characteristics_get.c **** /*       found in the LICENSE file at https://aka.ms/AzureRTOS_EULA       */
   8:Middlewares/ST/usbx/common/usbx_host_classes/src/ux_host_class_storage_media_characteristics_get.c **** /*       and in the root directory of this software.                      */
   9:Middlewares/ST/usbx/common/usbx_host_classes/src/ux_host_class_storage_media_characteristics_get.c **** /*                                                                        */
  10:Middlewares/ST/usbx/common/usbx_host_classes/src/ux_host_class_storage_media_characteristics_get.c **** /**************************************************************************/
  11:Middlewares/ST/usbx/common/usbx_host_classes/src/ux_host_class_storage_media_characteristics_get.c **** 
  12:Middlewares/ST/usbx/common/usbx_host_classes/src/ux_host_class_storage_media_characteristics_get.c **** 
  13:Middlewares/ST/usbx/common/usbx_host_classes/src/ux_host_class_storage_media_characteristics_get.c **** /**************************************************************************/
  14:Middlewares/ST/usbx/common/usbx_host_classes/src/ux_host_class_storage_media_characteristics_get.c **** /**************************************************************************/
  15:Middlewares/ST/usbx/common/usbx_host_classes/src/ux_host_class_storage_media_characteristics_get.c **** /**                                                                       */ 
  16:Middlewares/ST/usbx/common/usbx_host_classes/src/ux_host_class_storage_media_characteristics_get.c **** /** USBX Component                                                        */ 
  17:Middlewares/ST/usbx/common/usbx_host_classes/src/ux_host_class_storage_media_characteristics_get.c **** /**                                                                       */
  18:Middlewares/ST/usbx/common/usbx_host_classes/src/ux_host_class_storage_media_characteristics_get.c **** /**   Storage Class                                                       */
  19:Middlewares/ST/usbx/common/usbx_host_classes/src/ux_host_class_storage_media_characteristics_get.c **** /**                                                                       */
  20:Middlewares/ST/usbx/common/usbx_host_classes/src/ux_host_class_storage_media_characteristics_get.c **** /**************************************************************************/
  21:Middlewares/ST/usbx/common/usbx_host_classes/src/ux_host_class_storage_media_characteristics_get.c **** /**************************************************************************/
  22:Middlewares/ST/usbx/common/usbx_host_classes/src/ux_host_class_storage_media_characteristics_get.c **** 
  23:Middlewares/ST/usbx/common/usbx_host_classes/src/ux_host_class_storage_media_characteristics_get.c **** 
  24:Middlewares/ST/usbx/common/usbx_host_classes/src/ux_host_class_storage_media_characteristics_get.c **** /* Include necessary system files.  */
  25:Middlewares/ST/usbx/common/usbx_host_classes/src/ux_host_class_storage_media_characteristics_get.c **** 
  26:Middlewares/ST/usbx/common/usbx_host_classes/src/ux_host_class_storage_media_characteristics_get.c **** #define UX_SOURCE_CODE
  27:Middlewares/ST/usbx/common/usbx_host_classes/src/ux_host_class_storage_media_characteristics_get.c **** 
  28:Middlewares/ST/usbx/common/usbx_host_classes/src/ux_host_class_storage_media_characteristics_get.c **** #include "ux_api.h"
  29:Middlewares/ST/usbx/common/usbx_host_classes/src/ux_host_class_storage_media_characteristics_get.c **** #include "ux_host_class_storage.h"
ARM GAS  C:\Users\HP\AppData\Local\Temp\ccwbGQU0.s 			page 2


  30:Middlewares/ST/usbx/common/usbx_host_classes/src/ux_host_class_storage_media_characteristics_get.c **** #include "ux_host_stack.h"
  31:Middlewares/ST/usbx/common/usbx_host_classes/src/ux_host_class_storage_media_characteristics_get.c **** 
  32:Middlewares/ST/usbx/common/usbx_host_classes/src/ux_host_class_storage_media_characteristics_get.c **** 
  33:Middlewares/ST/usbx/common/usbx_host_classes/src/ux_host_class_storage_media_characteristics_get.c **** /**************************************************************************/ 
  34:Middlewares/ST/usbx/common/usbx_host_classes/src/ux_host_class_storage_media_characteristics_get.c **** /*                                                                        */ 
  35:Middlewares/ST/usbx/common/usbx_host_classes/src/ux_host_class_storage_media_characteristics_get.c **** /*  FUNCTION                                               RELEASE        */ 
  36:Middlewares/ST/usbx/common/usbx_host_classes/src/ux_host_class_storage_media_characteristics_get.c **** /*                                                                        */ 
  37:Middlewares/ST/usbx/common/usbx_host_classes/src/ux_host_class_storage_media_characteristics_get.c **** /*    _ux_host_class_storage_media_characteristics_get    PORTABLE C      */ 
  38:Middlewares/ST/usbx/common/usbx_host_classes/src/ux_host_class_storage_media_characteristics_get.c **** /*                                                           6.1.10       */
  39:Middlewares/ST/usbx/common/usbx_host_classes/src/ux_host_class_storage_media_characteristics_get.c **** /*  AUTHOR                                                                */
  40:Middlewares/ST/usbx/common/usbx_host_classes/src/ux_host_class_storage_media_characteristics_get.c **** /*                                                                        */
  41:Middlewares/ST/usbx/common/usbx_host_classes/src/ux_host_class_storage_media_characteristics_get.c **** /*    Chaoqiong Xiao, Microsoft Corporation                               */
  42:Middlewares/ST/usbx/common/usbx_host_classes/src/ux_host_class_storage_media_characteristics_get.c **** /*                                                                        */
  43:Middlewares/ST/usbx/common/usbx_host_classes/src/ux_host_class_storage_media_characteristics_get.c **** /*  DESCRIPTION                                                           */
  44:Middlewares/ST/usbx/common/usbx_host_classes/src/ux_host_class_storage_media_characteristics_get.c **** /*                                                                        */ 
  45:Middlewares/ST/usbx/common/usbx_host_classes/src/ux_host_class_storage_media_characteristics_get.c **** /*    This function will send a INQUIRY command to get the type of        */
  46:Middlewares/ST/usbx/common/usbx_host_classes/src/ux_host_class_storage_media_characteristics_get.c **** /*    device/media we are dealing with.                                   */ 
  47:Middlewares/ST/usbx/common/usbx_host_classes/src/ux_host_class_storage_media_characteristics_get.c **** /*                                                                        */ 
  48:Middlewares/ST/usbx/common/usbx_host_classes/src/ux_host_class_storage_media_characteristics_get.c **** /*  INPUT                                                                 */ 
  49:Middlewares/ST/usbx/common/usbx_host_classes/src/ux_host_class_storage_media_characteristics_get.c **** /*                                                                        */ 
  50:Middlewares/ST/usbx/common/usbx_host_classes/src/ux_host_class_storage_media_characteristics_get.c **** /*    storage                               Pointer to storage class      */ 
  51:Middlewares/ST/usbx/common/usbx_host_classes/src/ux_host_class_storage_media_characteristics_get.c **** /*                                                                        */ 
  52:Middlewares/ST/usbx/common/usbx_host_classes/src/ux_host_class_storage_media_characteristics_get.c **** /*  OUTPUT                                                                */ 
  53:Middlewares/ST/usbx/common/usbx_host_classes/src/ux_host_class_storage_media_characteristics_get.c **** /*                                                                        */ 
  54:Middlewares/ST/usbx/common/usbx_host_classes/src/ux_host_class_storage_media_characteristics_get.c **** /*    Completion Status                                                   */ 
  55:Middlewares/ST/usbx/common/usbx_host_classes/src/ux_host_class_storage_media_characteristics_get.c **** /*                                                                        */ 
  56:Middlewares/ST/usbx/common/usbx_host_classes/src/ux_host_class_storage_media_characteristics_get.c **** /*  CALLS                                                                 */ 
  57:Middlewares/ST/usbx/common/usbx_host_classes/src/ux_host_class_storage_media_characteristics_get.c **** /*                                                                        */ 
  58:Middlewares/ST/usbx/common/usbx_host_classes/src/ux_host_class_storage_media_characteristics_get.c **** /*    _ux_host_class_storage_cbw_initialize Initialize CBW                */ 
  59:Middlewares/ST/usbx/common/usbx_host_classes/src/ux_host_class_storage_media_characteristics_get.c **** /*    _ux_host_class_storage_transport      Send command                  */ 
  60:Middlewares/ST/usbx/common/usbx_host_classes/src/ux_host_class_storage_media_characteristics_get.c **** /*    _ux_host_class_storage_media_capacity_get                           */
  61:Middlewares/ST/usbx/common/usbx_host_classes/src/ux_host_class_storage_media_characteristics_get.c **** /*                                          Get media capacity            */
  62:Middlewares/ST/usbx/common/usbx_host_classes/src/ux_host_class_storage_media_characteristics_get.c **** /*    _ux_utility_memory_allocate           Allocate memory block         */ 
  63:Middlewares/ST/usbx/common/usbx_host_classes/src/ux_host_class_storage_media_characteristics_get.c **** /*    _ux_utility_memory_free               Release memory block          */ 
  64:Middlewares/ST/usbx/common/usbx_host_classes/src/ux_host_class_storage_media_characteristics_get.c **** /*                                                                        */ 
  65:Middlewares/ST/usbx/common/usbx_host_classes/src/ux_host_class_storage_media_characteristics_get.c **** /*  CALLED BY                                                             */ 
  66:Middlewares/ST/usbx/common/usbx_host_classes/src/ux_host_class_storage_media_characteristics_get.c **** /*                                                                        */ 
  67:Middlewares/ST/usbx/common/usbx_host_classes/src/ux_host_class_storage_media_characteristics_get.c **** /*    Storage Class                                                       */ 
  68:Middlewares/ST/usbx/common/usbx_host_classes/src/ux_host_class_storage_media_characteristics_get.c **** /*                                                                        */ 
  69:Middlewares/ST/usbx/common/usbx_host_classes/src/ux_host_class_storage_media_characteristics_get.c **** /*  RELEASE HISTORY                                                       */ 
  70:Middlewares/ST/usbx/common/usbx_host_classes/src/ux_host_class_storage_media_characteristics_get.c **** /*                                                                        */ 
  71:Middlewares/ST/usbx/common/usbx_host_classes/src/ux_host_class_storage_media_characteristics_get.c **** /*    DATE              NAME                      DESCRIPTION             */ 
  72:Middlewares/ST/usbx/common/usbx_host_classes/src/ux_host_class_storage_media_characteristics_get.c **** /*                                                                        */ 
  73:Middlewares/ST/usbx/common/usbx_host_classes/src/ux_host_class_storage_media_characteristics_get.c **** /*  05-19-2020     Chaoqiong Xiao           Initial Version 6.0           */
  74:Middlewares/ST/usbx/common/usbx_host_classes/src/ux_host_class_storage_media_characteristics_get.c **** /*  09-30-2020     Chaoqiong Xiao           Modified comment(s),          */
  75:Middlewares/ST/usbx/common/usbx_host_classes/src/ux_host_class_storage_media_characteristics_get.c **** /*                                            resulting in version 6.1    */
  76:Middlewares/ST/usbx/common/usbx_host_classes/src/ux_host_class_storage_media_characteristics_get.c **** /*  01-31-2022     Chaoqiong Xiao           Modified comment(s),          */
  77:Middlewares/ST/usbx/common/usbx_host_classes/src/ux_host_class_storage_media_characteristics_get.c **** /*                                            added standalone support,   */
  78:Middlewares/ST/usbx/common/usbx_host_classes/src/ux_host_class_storage_media_characteristics_get.c **** /*                                            resulting in version 6.1.10 */
  79:Middlewares/ST/usbx/common/usbx_host_classes/src/ux_host_class_storage_media_characteristics_get.c **** /*                                                                        */
  80:Middlewares/ST/usbx/common/usbx_host_classes/src/ux_host_class_storage_media_characteristics_get.c **** /**************************************************************************/
  81:Middlewares/ST/usbx/common/usbx_host_classes/src/ux_host_class_storage_media_characteristics_get.c **** UINT  _ux_host_class_storage_media_characteristics_get(UX_HOST_CLASS_STORAGE *storage)
  82:Middlewares/ST/usbx/common/usbx_host_classes/src/ux_host_class_storage_media_characteristics_get.c **** {
  30              		.loc 1 82 1 view -0
  31              		.cfi_startproc
  32              		@ args = 0, pretend = 0, frame = 0
  33              		@ frame_needed = 0, uses_anonymous_args = 0
ARM GAS  C:\Users\HP\AppData\Local\Temp\ccwbGQU0.s 			page 3


  34              		.loc 1 82 1 is_stmt 0 view .LVU1
  35 0000 70B5     		push	{r4, r5, r6, lr}
  36              	.LCFI0:
  37              		.cfi_def_cfa_offset 16
  38              		.cfi_offset 4, -16
  39              		.cfi_offset 5, -12
  40              		.cfi_offset 6, -8
  41              		.cfi_offset 14, -4
  42 0002 0446     		mov	r4, r0
  83:Middlewares/ST/usbx/common/usbx_host_classes/src/ux_host_class_storage_media_characteristics_get.c **** 
  84:Middlewares/ST/usbx/common/usbx_host_classes/src/ux_host_class_storage_media_characteristics_get.c **** UINT            status;
  43              		.loc 1 84 1 is_stmt 1 view .LVU2
  85:Middlewares/ST/usbx/common/usbx_host_classes/src/ux_host_class_storage_media_characteristics_get.c **** UCHAR           *cbw;
  44              		.loc 1 85 1 view .LVU3
  86:Middlewares/ST/usbx/common/usbx_host_classes/src/ux_host_class_storage_media_characteristics_get.c **** UCHAR           *inquiry_response;
  45              		.loc 1 86 1 view .LVU4
  87:Middlewares/ST/usbx/common/usbx_host_classes/src/ux_host_class_storage_media_characteristics_get.c **** UINT            command_length;
  46              		.loc 1 87 1 view .LVU5
  88:Middlewares/ST/usbx/common/usbx_host_classes/src/ux_host_class_storage_media_characteristics_get.c **** 
  89:Middlewares/ST/usbx/common/usbx_host_classes/src/ux_host_class_storage_media_characteristics_get.c ****     /* Use a pointer for the cbw, easier to manipulate.  */
  90:Middlewares/ST/usbx/common/usbx_host_classes/src/ux_host_class_storage_media_characteristics_get.c ****     cbw =  (UCHAR *) storage -> ux_host_class_storage_cbw;
  47              		.loc 1 90 5 view .LVU6
  48              	.LVL1:
  91:Middlewares/ST/usbx/common/usbx_host_classes/src/ux_host_class_storage_media_characteristics_get.c **** 
  92:Middlewares/ST/usbx/common/usbx_host_classes/src/ux_host_class_storage_media_characteristics_get.c ****     /* Get the Write Command Length.  */
  93:Middlewares/ST/usbx/common/usbx_host_classes/src/ux_host_class_storage_media_characteristics_get.c **** #ifdef UX_HOST_CLASS_STORAGE_INCLUDE_LEGACY_PROTOCOL_SUPPORT
  94:Middlewares/ST/usbx/common/usbx_host_classes/src/ux_host_class_storage_media_characteristics_get.c ****     if (storage -> ux_host_class_storage_interface -> ux_interface_descriptor.bInterfaceSubClass ==
  95:Middlewares/ST/usbx/common/usbx_host_classes/src/ux_host_class_storage_media_characteristics_get.c ****         command_length =  UX_HOST_CLASS_STORAGE_INQUIRY_COMMAND_LENGTH_UFI;
  96:Middlewares/ST/usbx/common/usbx_host_classes/src/ux_host_class_storage_media_characteristics_get.c ****     else
  97:Middlewares/ST/usbx/common/usbx_host_classes/src/ux_host_class_storage_media_characteristics_get.c ****         command_length =  UX_HOST_CLASS_STORAGE_INQUIRY_COMMAND_LENGTH_SBC;
  98:Middlewares/ST/usbx/common/usbx_host_classes/src/ux_host_class_storage_media_characteristics_get.c **** #else
  99:Middlewares/ST/usbx/common/usbx_host_classes/src/ux_host_class_storage_media_characteristics_get.c ****     command_length =  UX_HOST_CLASS_STORAGE_INQUIRY_COMMAND_LENGTH_SBC;
  49              		.loc 1 99 5 view .LVU7
 100:Middlewares/ST/usbx/common/usbx_host_classes/src/ux_host_class_storage_media_characteristics_get.c **** #endif
 101:Middlewares/ST/usbx/common/usbx_host_classes/src/ux_host_class_storage_media_characteristics_get.c **** 
 102:Middlewares/ST/usbx/common/usbx_host_classes/src/ux_host_class_storage_media_characteristics_get.c ****     /* Initialize the CBW for this command.  */
 103:Middlewares/ST/usbx/common/usbx_host_classes/src/ux_host_class_storage_media_characteristics_get.c ****     _ux_host_class_storage_cbw_initialize(storage, UX_HOST_CLASS_STORAGE_DATA_IN, UX_HOST_CLASS_STO
  50              		.loc 1 103 5 view .LVU8
  51 0004 0623     		movs	r3, #6
  52 0006 2422     		movs	r2, #36
  53 0008 8021     		movs	r1, #128
  54 000a FFF7FEFF 		bl	_ux_host_class_storage_cbw_initialize
  55              	.LVL2:
 104:Middlewares/ST/usbx/common/usbx_host_classes/src/ux_host_class_storage_media_characteristics_get.c ****     
 105:Middlewares/ST/usbx/common/usbx_host_classes/src/ux_host_class_storage_media_characteristics_get.c ****     /* Prepare the INQUIRY command block.  */
 106:Middlewares/ST/usbx/common/usbx_host_classes/src/ux_host_class_storage_media_characteristics_get.c ****     *(cbw + UX_HOST_CLASS_STORAGE_CBW_CB + UX_HOST_CLASS_STORAGE_INQUIRY_OPERATION) =  UX_HOST_CLAS
  56              		.loc 1 106 5 view .LVU9
  57              		.loc 1 106 85 is_stmt 0 view .LVU10
  58 000e 1223     		movs	r3, #18
  59 0010 84F82B30 		strb	r3, [r4, #43]
 107:Middlewares/ST/usbx/common/usbx_host_classes/src/ux_host_class_storage_media_characteristics_get.c ****     
 108:Middlewares/ST/usbx/common/usbx_host_classes/src/ux_host_class_storage_media_characteristics_get.c ****     /* Store the length of the Inquiry Response.  */
 109:Middlewares/ST/usbx/common/usbx_host_classes/src/ux_host_class_storage_media_characteristics_get.c ****     *(cbw + UX_HOST_CLASS_STORAGE_CBW_CB + UX_HOST_CLASS_STORAGE_INQUIRY_ALLOCATION_LENGTH) =  UX_H
  60              		.loc 1 109 5 is_stmt 1 view .LVU11
  61              		.loc 1 109 93 is_stmt 0 view .LVU12
  62 0014 2422     		movs	r2, #36
  63 0016 84F82F20 		strb	r2, [r4, #47]
ARM GAS  C:\Users\HP\AppData\Local\Temp\ccwbGQU0.s 			page 4


 110:Middlewares/ST/usbx/common/usbx_host_classes/src/ux_host_class_storage_media_characteristics_get.c **** 
 111:Middlewares/ST/usbx/common/usbx_host_classes/src/ux_host_class_storage_media_characteristics_get.c ****     /* Obtain a block of memory for the answer.  */
 112:Middlewares/ST/usbx/common/usbx_host_classes/src/ux_host_class_storage_media_characteristics_get.c ****     inquiry_response =  _ux_utility_memory_allocate(UX_SAFE_ALIGN, UX_CACHE_SAFE_MEMORY, UX_HOST_CL
  64              		.loc 1 112 5 is_stmt 1 view .LVU13
  65              		.loc 1 112 25 is_stmt 0 view .LVU14
  66 001a 0121     		movs	r1, #1
  67 001c 4FF0FF30 		mov	r0, #-1
  68 0020 FFF7FEFF 		bl	_ux_utility_memory_allocate
  69              	.LVL3:
 113:Middlewares/ST/usbx/common/usbx_host_classes/src/ux_host_class_storage_media_characteristics_get.c ****     if (inquiry_response == UX_NULL)
  70              		.loc 1 113 5 is_stmt 1 view .LVU15
  71              		.loc 1 113 8 is_stmt 0 view .LVU16
  72 0024 C8B1     		cbz	r0, .L4
  73 0026 0546     		mov	r5, r0
 114:Middlewares/ST/usbx/common/usbx_host_classes/src/ux_host_class_storage_media_characteristics_get.c ****         return(UX_MEMORY_INSUFFICIENT);
 115:Middlewares/ST/usbx/common/usbx_host_classes/src/ux_host_class_storage_media_characteristics_get.c **** 
 116:Middlewares/ST/usbx/common/usbx_host_classes/src/ux_host_class_storage_media_characteristics_get.c **** #if defined(UX_HOST_STANDALONE)
 117:Middlewares/ST/usbx/common/usbx_host_classes/src/ux_host_class_storage_media_characteristics_get.c ****     UX_HOST_CLASS_STORAGE_TRANS_STATE_RESET(storage);
 118:Middlewares/ST/usbx/common/usbx_host_classes/src/ux_host_class_storage_media_characteristics_get.c ****     storage -> ux_host_class_storage_memory = inquiry_response;
 119:Middlewares/ST/usbx/common/usbx_host_classes/src/ux_host_class_storage_media_characteristics_get.c ****     storage -> ux_host_class_storage_state_state = UX_HOST_CLASS_STORAGE_STATE_TRANSPORT;
 120:Middlewares/ST/usbx/common/usbx_host_classes/src/ux_host_class_storage_media_characteristics_get.c ****     storage -> ux_host_class_storage_state_next = UX_HOST_CLASS_STORAGE_STATE_INQUIRY_SAVE;
 121:Middlewares/ST/usbx/common/usbx_host_classes/src/ux_host_class_storage_media_characteristics_get.c ****     storage -> ux_host_class_storage_trans_data = inquiry_response;
 122:Middlewares/ST/usbx/common/usbx_host_classes/src/ux_host_class_storage_media_characteristics_get.c ****     status = UX_SUCCESS;
 123:Middlewares/ST/usbx/common/usbx_host_classes/src/ux_host_class_storage_media_characteristics_get.c ****     return(status);
 124:Middlewares/ST/usbx/common/usbx_host_classes/src/ux_host_class_storage_media_characteristics_get.c **** #else
 125:Middlewares/ST/usbx/common/usbx_host_classes/src/ux_host_class_storage_media_characteristics_get.c ****     /* Send the command to transport layer.  */
 126:Middlewares/ST/usbx/common/usbx_host_classes/src/ux_host_class_storage_media_characteristics_get.c ****     status =  _ux_host_class_storage_transport(storage, inquiry_response);
  74              		.loc 1 126 5 is_stmt 1 view .LVU17
  75              		.loc 1 126 15 is_stmt 0 view .LVU18
  76 0028 0146     		mov	r1, r0
  77 002a 2046     		mov	r0, r4
  78              	.LVL4:
  79              		.loc 1 126 15 view .LVU19
  80 002c FFF7FEFF 		bl	_ux_host_class_storage_transport
  81              	.LVL5:
 127:Middlewares/ST/usbx/common/usbx_host_classes/src/ux_host_class_storage_media_characteristics_get.c **** 
 128:Middlewares/ST/usbx/common/usbx_host_classes/src/ux_host_class_storage_media_characteristics_get.c ****     /* If we have a transport error, there is not much we can do, simply return the
 129:Middlewares/ST/usbx/common/usbx_host_classes/src/ux_host_class_storage_media_characteristics_get.c ****        error.  */
 130:Middlewares/ST/usbx/common/usbx_host_classes/src/ux_host_class_storage_media_characteristics_get.c ****     if (status == UX_SUCCESS)
  82              		.loc 1 130 5 is_stmt 1 view .LVU20
  83              		.loc 1 130 8 is_stmt 0 view .LVU21
  84 0030 0646     		mov	r6, r0
  85 0032 20B1     		cbz	r0, .L6
  86              	.L3:
 131:Middlewares/ST/usbx/common/usbx_host_classes/src/ux_host_class_storage_media_characteristics_get.c ****     {
 132:Middlewares/ST/usbx/common/usbx_host_classes/src/ux_host_class_storage_media_characteristics_get.c **** 
 133:Middlewares/ST/usbx/common/usbx_host_classes/src/ux_host_class_storage_media_characteristics_get.c ****         /* The Inquiry response contains the type of device/media and a media removable flag.  */
 134:Middlewares/ST/usbx/common/usbx_host_classes/src/ux_host_class_storage_media_characteristics_get.c ****         storage -> ux_host_class_storage_media_type =                                              
 135:Middlewares/ST/usbx/common/usbx_host_classes/src/ux_host_class_storage_media_characteristics_get.c ****         storage -> ux_host_class_storage_lun_removable_media_flags[storage -> ux_host_class_storage
 136:Middlewares/ST/usbx/common/usbx_host_classes/src/ux_host_class_storage_media_characteristics_get.c **** 
 137:Middlewares/ST/usbx/common/usbx_host_classes/src/ux_host_class_storage_media_characteristics_get.c ****         /* Attempt to read the device capacity in order to retrieve the Sector Size. If the command
 138:Middlewares/ST/usbx/common/usbx_host_classes/src/ux_host_class_storage_media_characteristics_get.c ****            we will default to 512 bytes for a regular drive and 2048 bytes for a CD-ROM or optical 
 139:Middlewares/ST/usbx/common/usbx_host_classes/src/ux_host_class_storage_media_characteristics_get.c ****         status =  _ux_host_class_storage_media_capacity_get(storage);
 140:Middlewares/ST/usbx/common/usbx_host_classes/src/ux_host_class_storage_media_characteristics_get.c ****     }       
 141:Middlewares/ST/usbx/common/usbx_host_classes/src/ux_host_class_storage_media_characteristics_get.c **** 
 142:Middlewares/ST/usbx/common/usbx_host_classes/src/ux_host_class_storage_media_characteristics_get.c ****     /* Free the memory resource used for the command response.  */
 143:Middlewares/ST/usbx/common/usbx_host_classes/src/ux_host_class_storage_media_characteristics_get.c ****     _ux_utility_memory_free(inquiry_response);
ARM GAS  C:\Users\HP\AppData\Local\Temp\ccwbGQU0.s 			page 5


  87              		.loc 1 143 5 is_stmt 1 view .LVU22
  88 0034 2846     		mov	r0, r5
  89              	.LVL6:
  90              		.loc 1 143 5 is_stmt 0 view .LVU23
  91 0036 FFF7FEFF 		bl	_ux_utility_memory_free
  92              	.LVL7:
 144:Middlewares/ST/usbx/common/usbx_host_classes/src/ux_host_class_storage_media_characteristics_get.c ****     
 145:Middlewares/ST/usbx/common/usbx_host_classes/src/ux_host_class_storage_media_characteristics_get.c ****     /* Return completion status.  */
 146:Middlewares/ST/usbx/common/usbx_host_classes/src/ux_host_class_storage_media_characteristics_get.c ****     return(status);                                            
  93              		.loc 1 146 5 is_stmt 1 view .LVU24
  94              	.L1:
 147:Middlewares/ST/usbx/common/usbx_host_classes/src/ux_host_class_storage_media_characteristics_get.c **** #endif
 148:Middlewares/ST/usbx/common/usbx_host_classes/src/ux_host_class_storage_media_characteristics_get.c **** }
  95              		.loc 1 148 1 is_stmt 0 view .LVU25
  96 003a 3046     		mov	r0, r6
  97 003c 70BD     		pop	{r4, r5, r6, pc}
  98              	.LVL8:
  99              	.L6:
 134:Middlewares/ST/usbx/common/usbx_host_classes/src/ux_host_class_storage_media_characteristics_get.c ****         storage -> ux_host_class_storage_lun_removable_media_flags[storage -> ux_host_class_storage
 100              		.loc 1 134 9 is_stmt 1 view .LVU26
 134:Middlewares/ST/usbx/common/usbx_host_classes/src/ux_host_class_storage_media_characteristics_get.c ****         storage -> ux_host_class_storage_lun_removable_media_flags[storage -> ux_host_class_storage
 101              		.loc 1 134 109 is_stmt 0 view .LVU27
 102 003e 2B78     		ldrb	r3, [r5]	@ zero_extendqisi2
 134:Middlewares/ST/usbx/common/usbx_host_classes/src/ux_host_class_storage_media_characteristics_get.c ****         storage -> ux_host_class_storage_lun_removable_media_flags[storage -> ux_host_class_storage
 103              		.loc 1 134 53 view .LVU28
 104 0040 2367     		str	r3, [r4, #112]
 135:Middlewares/ST/usbx/common/usbx_host_classes/src/ux_host_class_storage_media_characteristics_get.c **** 
 105              		.loc 1 135 9 is_stmt 1 view .LVU29
 135:Middlewares/ST/usbx/common/usbx_host_classes/src/ux_host_class_storage_media_characteristics_get.c **** 
 106              		.loc 1 135 76 is_stmt 0 view .LVU30
 107 0042 D4F88030 		ldr	r3, [r4, #128]
 135:Middlewares/ST/usbx/common/usbx_host_classes/src/ux_host_class_storage_media_characteristics_get.c **** 
 108              		.loc 1 135 109 view .LVU31
 109 0046 6A78     		ldrb	r2, [r5, #1]	@ zero_extendqisi2
 135:Middlewares/ST/usbx/common/usbx_host_classes/src/ux_host_class_storage_media_characteristics_get.c **** 
 110              		.loc 1 135 106 view .LVU32
 111 0048 1C33     		adds	r3, r3, #28
 112 004a 04EB8303 		add	r3, r4, r3, lsl #2
 113 004e 5A60     		str	r2, [r3, #4]
 139:Middlewares/ST/usbx/common/usbx_host_classes/src/ux_host_class_storage_media_characteristics_get.c ****     }       
 114              		.loc 1 139 9 is_stmt 1 view .LVU33
 139:Middlewares/ST/usbx/common/usbx_host_classes/src/ux_host_class_storage_media_characteristics_get.c ****     }       
 115              		.loc 1 139 19 is_stmt 0 view .LVU34
 116 0050 2046     		mov	r0, r4
 117              	.LVL9:
 139:Middlewares/ST/usbx/common/usbx_host_classes/src/ux_host_class_storage_media_characteristics_get.c ****     }       
 118              		.loc 1 139 19 view .LVU35
 119 0052 FFF7FEFF 		bl	_ux_host_class_storage_media_capacity_get
 120              	.LVL10:
 121 0056 0646     		mov	r6, r0
 122              	.LVL11:
 139:Middlewares/ST/usbx/common/usbx_host_classes/src/ux_host_class_storage_media_characteristics_get.c ****     }       
 123              		.loc 1 139 19 view .LVU36
 124 0058 ECE7     		b	.L3
 125              	.LVL12:
 126              	.L4:
 114:Middlewares/ST/usbx/common/usbx_host_classes/src/ux_host_class_storage_media_characteristics_get.c **** 
ARM GAS  C:\Users\HP\AppData\Local\Temp\ccwbGQU0.s 			page 6


 127              		.loc 1 114 15 view .LVU37
 128 005a 1226     		movs	r6, #18
 129 005c EDE7     		b	.L1
 130              		.cfi_endproc
 131              	.LFE11:
 133              		.text
 134              	.Letext0:
 135              		.file 2 "Middlewares/ST/threadx/ports/cortex_m4/gnu/inc/tx_port.h"
 136              		.file 3 "Middlewares/ST/threadx/common/inc/tx_api.h"
 137              		.file 4 "Middlewares/ST/usbx/common/core/inc/ux_api.h"
 138              		.file 5 "Middlewares/ST/usbx/common/usbx_host_classes/inc/ux_host_class_storage.h"
 139              		.file 6 "Middlewares/ST/usbx/common/core/inc/ux_utility.h"
ARM GAS  C:\Users\HP\AppData\Local\Temp\ccwbGQU0.s 			page 7

