ARM GAS  C:\Users\HP\AppData\Local\Temp\cchHXIcW.s 			page 1


   1              		.cpu cortex-m4
   2              		.arch armv7e-m
   3              		.fpu fpv4-sp-d16
   4              		.eabi_attribute 27, 1
   5              		.eabi_attribute 28, 1
   6              		.eabi_attribute 20, 1
   7              		.eabi_attribute 21, 1
   8              		.eabi_attribute 23, 3
   9              		.eabi_attribute 24, 1
  10              		.eabi_attribute 25, 1
  11              		.eabi_attribute 26, 1
  12              		.eabi_attribute 30, 1
  13              		.eabi_attribute 34, 1
  14              		.eabi_attribute 18, 4
  15              		.file	"ux_host_class_storage_configure.c"
  16              		.text
  17              	.Ltext0:
  18              		.cfi_sections	.debug_frame
  19              		.section	.text._ux_host_class_storage_configure,"ax",%progbits
  20              		.align	1
  21              		.global	_ux_host_class_storage_configure
  22              		.syntax unified
  23              		.thumb
  24              		.thumb_func
  26              	_ux_host_class_storage_configure:
  27              	.LVL0:
  28              	.LFB11:
  29              		.file 1 "Middlewares/ST/usbx/common/usbx_host_classes/src/ux_host_class_storage_configure.c"
   1:Middlewares/ST/usbx/common/usbx_host_classes/src/ux_host_class_storage_configure.c **** /**************************************************************************/
   2:Middlewares/ST/usbx/common/usbx_host_classes/src/ux_host_class_storage_configure.c **** /*                                                                        */
   3:Middlewares/ST/usbx/common/usbx_host_classes/src/ux_host_class_storage_configure.c **** /*       Copyright (c) Microsoft Corporation. All rights reserved.        */
   4:Middlewares/ST/usbx/common/usbx_host_classes/src/ux_host_class_storage_configure.c **** /*                                                                        */
   5:Middlewares/ST/usbx/common/usbx_host_classes/src/ux_host_class_storage_configure.c **** /*       This software is licensed under the Microsoft Software License   */
   6:Middlewares/ST/usbx/common/usbx_host_classes/src/ux_host_class_storage_configure.c **** /*       Terms for Microsoft Azure RTOS. Full text of the license can be  */
   7:Middlewares/ST/usbx/common/usbx_host_classes/src/ux_host_class_storage_configure.c **** /*       found in the LICENSE file at https://aka.ms/AzureRTOS_EULA       */
   8:Middlewares/ST/usbx/common/usbx_host_classes/src/ux_host_class_storage_configure.c **** /*       and in the root directory of this software.                      */
   9:Middlewares/ST/usbx/common/usbx_host_classes/src/ux_host_class_storage_configure.c **** /*                                                                        */
  10:Middlewares/ST/usbx/common/usbx_host_classes/src/ux_host_class_storage_configure.c **** /**************************************************************************/
  11:Middlewares/ST/usbx/common/usbx_host_classes/src/ux_host_class_storage_configure.c **** 
  12:Middlewares/ST/usbx/common/usbx_host_classes/src/ux_host_class_storage_configure.c **** 
  13:Middlewares/ST/usbx/common/usbx_host_classes/src/ux_host_class_storage_configure.c **** /**************************************************************************/
  14:Middlewares/ST/usbx/common/usbx_host_classes/src/ux_host_class_storage_configure.c **** /**************************************************************************/
  15:Middlewares/ST/usbx/common/usbx_host_classes/src/ux_host_class_storage_configure.c **** /**                                                                       */ 
  16:Middlewares/ST/usbx/common/usbx_host_classes/src/ux_host_class_storage_configure.c **** /** USBX Component                                                        */ 
  17:Middlewares/ST/usbx/common/usbx_host_classes/src/ux_host_class_storage_configure.c **** /**                                                                       */
  18:Middlewares/ST/usbx/common/usbx_host_classes/src/ux_host_class_storage_configure.c **** /**   Storage Class                                                       */
  19:Middlewares/ST/usbx/common/usbx_host_classes/src/ux_host_class_storage_configure.c **** /**                                                                       */
  20:Middlewares/ST/usbx/common/usbx_host_classes/src/ux_host_class_storage_configure.c **** /**************************************************************************/
  21:Middlewares/ST/usbx/common/usbx_host_classes/src/ux_host_class_storage_configure.c **** /**************************************************************************/
  22:Middlewares/ST/usbx/common/usbx_host_classes/src/ux_host_class_storage_configure.c **** 
  23:Middlewares/ST/usbx/common/usbx_host_classes/src/ux_host_class_storage_configure.c **** 
  24:Middlewares/ST/usbx/common/usbx_host_classes/src/ux_host_class_storage_configure.c **** /* Include necessary system files.  */
  25:Middlewares/ST/usbx/common/usbx_host_classes/src/ux_host_class_storage_configure.c **** 
  26:Middlewares/ST/usbx/common/usbx_host_classes/src/ux_host_class_storage_configure.c **** #define UX_SOURCE_CODE
  27:Middlewares/ST/usbx/common/usbx_host_classes/src/ux_host_class_storage_configure.c **** 
  28:Middlewares/ST/usbx/common/usbx_host_classes/src/ux_host_class_storage_configure.c **** #include "ux_api.h"
  29:Middlewares/ST/usbx/common/usbx_host_classes/src/ux_host_class_storage_configure.c **** #include "ux_host_class_storage.h"
ARM GAS  C:\Users\HP\AppData\Local\Temp\cchHXIcW.s 			page 2


  30:Middlewares/ST/usbx/common/usbx_host_classes/src/ux_host_class_storage_configure.c **** #include "ux_host_stack.h"
  31:Middlewares/ST/usbx/common/usbx_host_classes/src/ux_host_class_storage_configure.c **** 
  32:Middlewares/ST/usbx/common/usbx_host_classes/src/ux_host_class_storage_configure.c **** 
  33:Middlewares/ST/usbx/common/usbx_host_classes/src/ux_host_class_storage_configure.c **** /**************************************************************************/ 
  34:Middlewares/ST/usbx/common/usbx_host_classes/src/ux_host_class_storage_configure.c **** /*                                                                        */ 
  35:Middlewares/ST/usbx/common/usbx_host_classes/src/ux_host_class_storage_configure.c **** /*  FUNCTION                                               RELEASE        */ 
  36:Middlewares/ST/usbx/common/usbx_host_classes/src/ux_host_class_storage_configure.c **** /*                                                                        */ 
  37:Middlewares/ST/usbx/common/usbx_host_classes/src/ux_host_class_storage_configure.c **** /*    _ux_host_class_storage_configure                    PORTABLE C      */ 
  38:Middlewares/ST/usbx/common/usbx_host_classes/src/ux_host_class_storage_configure.c **** /*                                                           6.1          */
  39:Middlewares/ST/usbx/common/usbx_host_classes/src/ux_host_class_storage_configure.c **** /*  AUTHOR                                                                */
  40:Middlewares/ST/usbx/common/usbx_host_classes/src/ux_host_class_storage_configure.c **** /*                                                                        */
  41:Middlewares/ST/usbx/common/usbx_host_classes/src/ux_host_class_storage_configure.c **** /*    Chaoqiong Xiao, Microsoft Corporation                               */
  42:Middlewares/ST/usbx/common/usbx_host_classes/src/ux_host_class_storage_configure.c **** /*                                                                        */
  43:Middlewares/ST/usbx/common/usbx_host_classes/src/ux_host_class_storage_configure.c **** /*  DESCRIPTION                                                           */
  44:Middlewares/ST/usbx/common/usbx_host_classes/src/ux_host_class_storage_configure.c **** /*                                                                        */ 
  45:Middlewares/ST/usbx/common/usbx_host_classes/src/ux_host_class_storage_configure.c **** /*    This function calls the USBX stack to do a SET_CONFIGURATION to the */
  46:Middlewares/ST/usbx/common/usbx_host_classes/src/ux_host_class_storage_configure.c **** /*    storage device. Once the storage is configured, its interface will  */
  47:Middlewares/ST/usbx/common/usbx_host_classes/src/ux_host_class_storage_configure.c **** /*    be activated. The bulk endpoints enumerated(1 IN, 1 OUT).           */ 
  48:Middlewares/ST/usbx/common/usbx_host_classes/src/ux_host_class_storage_configure.c **** /*                                                                        */ 
  49:Middlewares/ST/usbx/common/usbx_host_classes/src/ux_host_class_storage_configure.c **** /*  INPUT                                                                 */ 
  50:Middlewares/ST/usbx/common/usbx_host_classes/src/ux_host_class_storage_configure.c **** /*                                                                        */ 
  51:Middlewares/ST/usbx/common/usbx_host_classes/src/ux_host_class_storage_configure.c **** /*    storage                               Pointer to storage class      */ 
  52:Middlewares/ST/usbx/common/usbx_host_classes/src/ux_host_class_storage_configure.c **** /*                                                                        */ 
  53:Middlewares/ST/usbx/common/usbx_host_classes/src/ux_host_class_storage_configure.c **** /*  OUTPUT                                                                */ 
  54:Middlewares/ST/usbx/common/usbx_host_classes/src/ux_host_class_storage_configure.c **** /*                                                                        */ 
  55:Middlewares/ST/usbx/common/usbx_host_classes/src/ux_host_class_storage_configure.c **** /*    Completion Status                                                   */ 
  56:Middlewares/ST/usbx/common/usbx_host_classes/src/ux_host_class_storage_configure.c **** /*                                                                        */ 
  57:Middlewares/ST/usbx/common/usbx_host_classes/src/ux_host_class_storage_configure.c **** /*  CALLS                                                                 */ 
  58:Middlewares/ST/usbx/common/usbx_host_classes/src/ux_host_class_storage_configure.c **** /*                                                                        */ 
  59:Middlewares/ST/usbx/common/usbx_host_classes/src/ux_host_class_storage_configure.c **** /*    _ux_host_stack_configuration_interface_get    Get configuration     */ 
  60:Middlewares/ST/usbx/common/usbx_host_classes/src/ux_host_class_storage_configure.c **** /*    _ux_host_stack_device_configuration_get       Get device config     */ 
  61:Middlewares/ST/usbx/common/usbx_host_classes/src/ux_host_class_storage_configure.c **** /*    _ux_host_stack_device_configuration_select    Select configuration  */ 
  62:Middlewares/ST/usbx/common/usbx_host_classes/src/ux_host_class_storage_configure.c **** /*                                                                        */ 
  63:Middlewares/ST/usbx/common/usbx_host_classes/src/ux_host_class_storage_configure.c **** /*  CALLED BY                                                             */ 
  64:Middlewares/ST/usbx/common/usbx_host_classes/src/ux_host_class_storage_configure.c **** /*                                                                        */ 
  65:Middlewares/ST/usbx/common/usbx_host_classes/src/ux_host_class_storage_configure.c **** /*    Storage Class                                                       */ 
  66:Middlewares/ST/usbx/common/usbx_host_classes/src/ux_host_class_storage_configure.c **** /*                                                                        */ 
  67:Middlewares/ST/usbx/common/usbx_host_classes/src/ux_host_class_storage_configure.c **** /*  RELEASE HISTORY                                                       */ 
  68:Middlewares/ST/usbx/common/usbx_host_classes/src/ux_host_class_storage_configure.c **** /*                                                                        */ 
  69:Middlewares/ST/usbx/common/usbx_host_classes/src/ux_host_class_storage_configure.c **** /*    DATE              NAME                      DESCRIPTION             */ 
  70:Middlewares/ST/usbx/common/usbx_host_classes/src/ux_host_class_storage_configure.c **** /*                                                                        */ 
  71:Middlewares/ST/usbx/common/usbx_host_classes/src/ux_host_class_storage_configure.c **** /*  05-19-2020     Chaoqiong Xiao           Initial Version 6.0           */
  72:Middlewares/ST/usbx/common/usbx_host_classes/src/ux_host_class_storage_configure.c **** /*  09-30-2020     Chaoqiong Xiao           Modified comment(s),          */
  73:Middlewares/ST/usbx/common/usbx_host_classes/src/ux_host_class_storage_configure.c **** /*                                            optimized based on compile  */
  74:Middlewares/ST/usbx/common/usbx_host_classes/src/ux_host_class_storage_configure.c **** /*                                            definitions,                */
  75:Middlewares/ST/usbx/common/usbx_host_classes/src/ux_host_class_storage_configure.c **** /*                                            resulting in version 6.1    */
  76:Middlewares/ST/usbx/common/usbx_host_classes/src/ux_host_class_storage_configure.c **** /*                                                                        */
  77:Middlewares/ST/usbx/common/usbx_host_classes/src/ux_host_class_storage_configure.c **** /**************************************************************************/
  78:Middlewares/ST/usbx/common/usbx_host_classes/src/ux_host_class_storage_configure.c **** UINT  _ux_host_class_storage_configure(UX_HOST_CLASS_STORAGE *storage)
  79:Middlewares/ST/usbx/common/usbx_host_classes/src/ux_host_class_storage_configure.c **** {
  30              		.loc 1 79 1 view -0
  31              		.cfi_startproc
  32              		@ args = 0, pretend = 0, frame = 8
  33              		@ frame_needed = 0, uses_anonymous_args = 0
  34              		.loc 1 79 1 is_stmt 0 view .LVU1
  35 0000 10B5     		push	{r4, lr}
  36              	.LCFI0:
ARM GAS  C:\Users\HP\AppData\Local\Temp\cchHXIcW.s 			page 3


  37              		.cfi_def_cfa_offset 8
  38              		.cfi_offset 4, -8
  39              		.cfi_offset 14, -4
  40 0002 82B0     		sub	sp, sp, #8
  41              	.LCFI1:
  42              		.cfi_def_cfa_offset 16
  43 0004 0446     		mov	r4, r0
  80:Middlewares/ST/usbx/common/usbx_host_classes/src/ux_host_class_storage_configure.c **** 
  81:Middlewares/ST/usbx/common/usbx_host_classes/src/ux_host_class_storage_configure.c **** UINT                    status;
  44              		.loc 1 81 1 is_stmt 1 view .LVU2
  82:Middlewares/ST/usbx/common/usbx_host_classes/src/ux_host_class_storage_configure.c **** UX_CONFIGURATION        *configuration;
  45              		.loc 1 82 1 view .LVU3
  83:Middlewares/ST/usbx/common/usbx_host_classes/src/ux_host_class_storage_configure.c **** #if UX_MAX_DEVICES > 1
  84:Middlewares/ST/usbx/common/usbx_host_classes/src/ux_host_class_storage_configure.c **** UX_DEVICE               *parent_device;
  46              		.loc 1 84 1 view .LVU4
  85:Middlewares/ST/usbx/common/usbx_host_classes/src/ux_host_class_storage_configure.c **** #endif
  86:Middlewares/ST/usbx/common/usbx_host_classes/src/ux_host_class_storage_configure.c **** 
  87:Middlewares/ST/usbx/common/usbx_host_classes/src/ux_host_class_storage_configure.c **** 
  88:Middlewares/ST/usbx/common/usbx_host_classes/src/ux_host_class_storage_configure.c ****     /* If the device has been configured already, we don't need to do it
  89:Middlewares/ST/usbx/common/usbx_host_classes/src/ux_host_class_storage_configure.c ****        again.  */
  90:Middlewares/ST/usbx/common/usbx_host_classes/src/ux_host_class_storage_configure.c ****     if (storage -> ux_host_class_storage_device -> ux_device_state == UX_DEVICE_CONFIGURED)
  47              		.loc 1 90 5 view .LVU5
  48              		.loc 1 90 17 is_stmt 0 view .LVU6
  49 0006 8068     		ldr	r0, [r0, #8]
  50              	.LVL1:
  51              		.loc 1 90 49 view .LVU7
  52 0008 8368     		ldr	r3, [r0, #8]
  53              		.loc 1 90 8 view .LVU8
  54 000a 032B     		cmp	r3, #3
  55 000c 2BD0     		beq	.L5
  91:Middlewares/ST/usbx/common/usbx_host_classes/src/ux_host_class_storage_configure.c ****         return(UX_SUCCESS);
  92:Middlewares/ST/usbx/common/usbx_host_classes/src/ux_host_class_storage_configure.c **** 
  93:Middlewares/ST/usbx/common/usbx_host_classes/src/ux_host_class_storage_configure.c ****     /* A storage device normally has one configuration. So retrieve the 1st configuration
  94:Middlewares/ST/usbx/common/usbx_host_classes/src/ux_host_class_storage_configure.c ****        only.  */
  95:Middlewares/ST/usbx/common/usbx_host_classes/src/ux_host_class_storage_configure.c ****     status =  _ux_host_stack_device_configuration_get(storage -> ux_host_class_storage_device, 0, &
  56              		.loc 1 95 5 is_stmt 1 view .LVU9
  57              		.loc 1 95 15 is_stmt 0 view .LVU10
  58 000e 01AA     		add	r2, sp, #4
  59 0010 0021     		movs	r1, #0
  60 0012 FFF7FEFF 		bl	_ux_host_stack_device_configuration_get
  61              	.LVL2:
  96:Middlewares/ST/usbx/common/usbx_host_classes/src/ux_host_class_storage_configure.c **** 
  97:Middlewares/ST/usbx/common/usbx_host_classes/src/ux_host_class_storage_configure.c ****     /* Check completion status.  */
  98:Middlewares/ST/usbx/common/usbx_host_classes/src/ux_host_class_storage_configure.c ****     if (status != UX_SUCCESS)
  62              		.loc 1 98 5 is_stmt 1 view .LVU11
  63              		.loc 1 98 8 is_stmt 0 view .LVU12
  64 0016 C0B9     		cbnz	r0, .L7
  99:Middlewares/ST/usbx/common/usbx_host_classes/src/ux_host_class_storage_configure.c ****     {
 100:Middlewares/ST/usbx/common/usbx_host_classes/src/ux_host_class_storage_configure.c ****     
 101:Middlewares/ST/usbx/common/usbx_host_classes/src/ux_host_class_storage_configure.c ****         /* Error trap. */
 102:Middlewares/ST/usbx/common/usbx_host_classes/src/ux_host_class_storage_configure.c ****         _ux_system_error_handler(UX_SYSTEM_LEVEL_THREAD, UX_SYSTEM_CONTEXT_CLASS, UX_CONFIGURATION_
 103:Middlewares/ST/usbx/common/usbx_host_classes/src/ux_host_class_storage_configure.c **** 
 104:Middlewares/ST/usbx/common/usbx_host_classes/src/ux_host_class_storage_configure.c ****         /* If trace is enabled, insert this event into the trace buffer.  */
 105:Middlewares/ST/usbx/common/usbx_host_classes/src/ux_host_class_storage_configure.c ****         UX_TRACE_IN_LINE_INSERT(UX_TRACE_ERROR, UX_CONFIGURATION_HANDLE_UNKNOWN, storage -> ux_host
 106:Middlewares/ST/usbx/common/usbx_host_classes/src/ux_host_class_storage_configure.c ****     
 107:Middlewares/ST/usbx/common/usbx_host_classes/src/ux_host_class_storage_configure.c ****         return(UX_CONFIGURATION_HANDLE_UNKNOWN);
 108:Middlewares/ST/usbx/common/usbx_host_classes/src/ux_host_class_storage_configure.c ****     }
ARM GAS  C:\Users\HP\AppData\Local\Temp\cchHXIcW.s 			page 4


 109:Middlewares/ST/usbx/common/usbx_host_classes/src/ux_host_class_storage_configure.c **** 
 110:Middlewares/ST/usbx/common/usbx_host_classes/src/ux_host_class_storage_configure.c **** #if UX_MAX_DEVICES > 1
 111:Middlewares/ST/usbx/common/usbx_host_classes/src/ux_host_class_storage_configure.c ****     /* Check the storage device power source and check the parent power source for 
 112:Middlewares/ST/usbx/common/usbx_host_classes/src/ux_host_class_storage_configure.c ****        incompatible connections.  */
 113:Middlewares/ST/usbx/common/usbx_host_classes/src/ux_host_class_storage_configure.c ****     if (storage -> ux_host_class_storage_device -> ux_device_power_source == UX_DEVICE_BUS_POWERED)
  65              		.loc 1 113 5 is_stmt 1 view .LVU13
  66              		.loc 1 113 17 is_stmt 0 view .LVU14
  67 0018 A368     		ldr	r3, [r4, #8]
  68              		.loc 1 113 49 view .LVU15
  69 001a 5A69     		ldr	r2, [r3, #20]
  70              		.loc 1 113 8 view .LVU16
  71 001c 012A     		cmp	r2, #1
  72 001e 05D1     		bne	.L4
 114:Middlewares/ST/usbx/common/usbx_host_classes/src/ux_host_class_storage_configure.c ****     {
 115:Middlewares/ST/usbx/common/usbx_host_classes/src/ux_host_class_storage_configure.c **** 
 116:Middlewares/ST/usbx/common/usbx_host_classes/src/ux_host_class_storage_configure.c ****         /* Pickup pointer to parent device.  */
 117:Middlewares/ST/usbx/common/usbx_host_classes/src/ux_host_class_storage_configure.c ****         parent_device =  storage -> ux_host_class_storage_device -> ux_device_parent;
  73              		.loc 1 117 9 is_stmt 1 view .LVU17
  74              		.loc 1 117 23 is_stmt 0 view .LVU18
  75 0020 D3F81C31 		ldr	r3, [r3, #284]
  76              	.LVL3:
 118:Middlewares/ST/usbx/common/usbx_host_classes/src/ux_host_class_storage_configure.c ****         
 119:Middlewares/ST/usbx/common/usbx_host_classes/src/ux_host_class_storage_configure.c ****         /* If the device is NULL, the parent is the root hub and we don't have to worry 
 120:Middlewares/ST/usbx/common/usbx_host_classes/src/ux_host_class_storage_configure.c ****            if the parent is not the root hub, check for its power source.  */
 121:Middlewares/ST/usbx/common/usbx_host_classes/src/ux_host_class_storage_configure.c ****         if ((parent_device != UX_NULL) && (parent_device -> ux_device_power_source == UX_DEVICE_BUS
  77              		.loc 1 121 9 is_stmt 1 view .LVU19
  78              		.loc 1 121 12 is_stmt 0 view .LVU20
  79 0024 13B1     		cbz	r3, .L4
  80              		.loc 1 121 58 discriminator 1 view .LVU21
  81 0026 5B69     		ldr	r3, [r3, #20]
  82              	.LVL4:
  83              		.loc 1 121 40 discriminator 1 view .LVU22
  84 0028 012B     		cmp	r3, #1
  85 002a 15D0     		beq	.L8
  86              	.LVL5:
  87              	.L4:
 122:Middlewares/ST/usbx/common/usbx_host_classes/src/ux_host_class_storage_configure.c ****         {                        
 123:Middlewares/ST/usbx/common/usbx_host_classes/src/ux_host_class_storage_configure.c **** 
 124:Middlewares/ST/usbx/common/usbx_host_classes/src/ux_host_class_storage_configure.c ****             /* Error trap. */
 125:Middlewares/ST/usbx/common/usbx_host_classes/src/ux_host_class_storage_configure.c ****             _ux_system_error_handler(UX_SYSTEM_LEVEL_THREAD, UX_SYSTEM_CONTEXT_CLASS, UX_CONNECTION
 126:Middlewares/ST/usbx/common/usbx_host_classes/src/ux_host_class_storage_configure.c **** 
 127:Middlewares/ST/usbx/common/usbx_host_classes/src/ux_host_class_storage_configure.c ****             /* If trace is enabled, insert this event into the trace buffer.  */
 128:Middlewares/ST/usbx/common/usbx_host_classes/src/ux_host_class_storage_configure.c ****             UX_TRACE_IN_LINE_INSERT(UX_TRACE_ERROR, UX_CONNECTION_INCOMPATIBLE, storage, 0, 0, UX_T
 129:Middlewares/ST/usbx/common/usbx_host_classes/src/ux_host_class_storage_configure.c **** 
 130:Middlewares/ST/usbx/common/usbx_host_classes/src/ux_host_class_storage_configure.c ****             return(UX_CONNECTION_INCOMPATIBLE);
 131:Middlewares/ST/usbx/common/usbx_host_classes/src/ux_host_class_storage_configure.c ****         }            
 132:Middlewares/ST/usbx/common/usbx_host_classes/src/ux_host_class_storage_configure.c ****     }
 133:Middlewares/ST/usbx/common/usbx_host_classes/src/ux_host_class_storage_configure.c **** #endif
 134:Middlewares/ST/usbx/common/usbx_host_classes/src/ux_host_class_storage_configure.c **** 
 135:Middlewares/ST/usbx/common/usbx_host_classes/src/ux_host_class_storage_configure.c ****     /* We have the valid configuration. Ask the USBX stack to set this configuration.  */        
 136:Middlewares/ST/usbx/common/usbx_host_classes/src/ux_host_class_storage_configure.c ****     status =  _ux_host_stack_device_configuration_select(configuration);
  88              		.loc 1 136 5 is_stmt 1 view .LVU23
  89              		.loc 1 136 15 is_stmt 0 view .LVU24
  90 002c 0198     		ldr	r0, [sp, #4]
  91              	.LVL6:
  92              		.loc 1 136 15 view .LVU25
  93 002e FFF7FEFF 		bl	_ux_host_stack_device_configuration_select
ARM GAS  C:\Users\HP\AppData\Local\Temp\cchHXIcW.s 			page 5


  94              	.LVL7:
 137:Middlewares/ST/usbx/common/usbx_host_classes/src/ux_host_class_storage_configure.c ****     if (status != UX_SUCCESS)
  95              		.loc 1 137 5 is_stmt 1 view .LVU26
  96              		.loc 1 137 8 is_stmt 0 view .LVU27
  97 0032 C8B9     		cbnz	r0, .L1
 138:Middlewares/ST/usbx/common/usbx_host_classes/src/ux_host_class_storage_configure.c ****         return(status);
 139:Middlewares/ST/usbx/common/usbx_host_classes/src/ux_host_class_storage_configure.c **** 
 140:Middlewares/ST/usbx/common/usbx_host_classes/src/ux_host_class_storage_configure.c ****     /* If the operation went well, the storage device default alternate setting
 141:Middlewares/ST/usbx/common/usbx_host_classes/src/ux_host_class_storage_configure.c ****        for the storage device interface is active and the interrupt endpoint is now enabled.
 142:Middlewares/ST/usbx/common/usbx_host_classes/src/ux_host_class_storage_configure.c ****        We have to memorize the first interface since the interrupt endpoint is hooked to it.  */
 143:Middlewares/ST/usbx/common/usbx_host_classes/src/ux_host_class_storage_configure.c ****     status =  _ux_host_stack_configuration_interface_get(configuration, 0, 0, &storage -> ux_host_c
  98              		.loc 1 143 5 is_stmt 1 view .LVU28
  99              		.loc 1 143 15 is_stmt 0 view .LVU29
 100 0034 04F10C03 		add	r3, r4, #12
 101 0038 0022     		movs	r2, #0
 102 003a 1146     		mov	r1, r2
 103 003c 0198     		ldr	r0, [sp, #4]
 104              	.LVL8:
 105              		.loc 1 143 15 view .LVU30
 106 003e FFF7FEFF 		bl	_ux_host_stack_configuration_interface_get
 107              	.LVL9:
 144:Middlewares/ST/usbx/common/usbx_host_classes/src/ux_host_class_storage_configure.c **** 
 145:Middlewares/ST/usbx/common/usbx_host_classes/src/ux_host_class_storage_configure.c ****     /* Check completion status.  */
 146:Middlewares/ST/usbx/common/usbx_host_classes/src/ux_host_class_storage_configure.c ****     if (status != UX_SUCCESS)
 108              		.loc 1 146 5 is_stmt 1 view .LVU31
 109              		.loc 1 146 8 is_stmt 0 view .LVU32
 110 0042 88B1     		cbz	r0, .L1
 147:Middlewares/ST/usbx/common/usbx_host_classes/src/ux_host_class_storage_configure.c ****     {
 148:Middlewares/ST/usbx/common/usbx_host_classes/src/ux_host_class_storage_configure.c ****         /* Store the instance in the interface container, this is for the USBX stack
 149:Middlewares/ST/usbx/common/usbx_host_classes/src/ux_host_class_storage_configure.c ****            when it needs to invoke the class.  */        
 150:Middlewares/ST/usbx/common/usbx_host_classes/src/ux_host_class_storage_configure.c ****         storage -> ux_host_class_storage_interface -> ux_interface_class_instance =  (VOID *) stora
 111              		.loc 1 150 9 is_stmt 1 view .LVU33
 112              		.loc 1 150 17 is_stmt 0 view .LVU34
 113 0044 E368     		ldr	r3, [r4, #12]
 114              		.loc 1 150 83 view .LVU35
 115 0046 5C63     		str	r4, [r3, #52]
 116 0048 0EE0     		b	.L1
 117              	.L7:
 102:Middlewares/ST/usbx/common/usbx_host_classes/src/ux_host_class_storage_configure.c **** 
 118              		.loc 1 102 9 is_stmt 1 view .LVU36
 119 004a 5122     		movs	r2, #81
 120 004c 0721     		movs	r1, #7
 121 004e 0220     		movs	r0, #2
 122              	.LVL10:
 102:Middlewares/ST/usbx/common/usbx_host_classes/src/ux_host_class_storage_configure.c **** 
 123              		.loc 1 102 9 is_stmt 0 view .LVU37
 124 0050 FFF7FEFF 		bl	_ux_system_error_handler
 125              	.LVL11:
 107:Middlewares/ST/usbx/common/usbx_host_classes/src/ux_host_class_storage_configure.c ****     }
 126              		.loc 1 107 9 is_stmt 1 view .LVU38
 107:Middlewares/ST/usbx/common/usbx_host_classes/src/ux_host_class_storage_configure.c ****     }
 127              		.loc 1 107 15 is_stmt 0 view .LVU39
 128 0054 5120     		movs	r0, #81
 129 0056 07E0     		b	.L1
 130              	.LVL12:
 131              	.L8:
 125:Middlewares/ST/usbx/common/usbx_host_classes/src/ux_host_class_storage_configure.c **** 
ARM GAS  C:\Users\HP\AppData\Local\Temp\cchHXIcW.s 			page 6


 132              		.loc 1 125 13 is_stmt 1 view .LVU40
 133 0058 5A22     		movs	r2, #90
 134 005a 0721     		movs	r1, #7
 135 005c 0220     		movs	r0, #2
 136              	.LVL13:
 125:Middlewares/ST/usbx/common/usbx_host_classes/src/ux_host_class_storage_configure.c **** 
 137              		.loc 1 125 13 is_stmt 0 view .LVU41
 138 005e FFF7FEFF 		bl	_ux_system_error_handler
 139              	.LVL14:
 130:Middlewares/ST/usbx/common/usbx_host_classes/src/ux_host_class_storage_configure.c ****         }            
 140              		.loc 1 130 13 is_stmt 1 view .LVU42
 130:Middlewares/ST/usbx/common/usbx_host_classes/src/ux_host_class_storage_configure.c ****         }            
 141              		.loc 1 130 19 is_stmt 0 view .LVU43
 142 0062 5A20     		movs	r0, #90
 143 0064 00E0     		b	.L1
 144              	.L5:
  91:Middlewares/ST/usbx/common/usbx_host_classes/src/ux_host_class_storage_configure.c **** 
 145              		.loc 1 91 15 view .LVU44
 146 0066 0020     		movs	r0, #0
 147              	.L1:
 151:Middlewares/ST/usbx/common/usbx_host_classes/src/ux_host_class_storage_configure.c ****     }
 152:Middlewares/ST/usbx/common/usbx_host_classes/src/ux_host_class_storage_configure.c **** 
 153:Middlewares/ST/usbx/common/usbx_host_classes/src/ux_host_class_storage_configure.c ****     /* Return completion status.  */
 154:Middlewares/ST/usbx/common/usbx_host_classes/src/ux_host_class_storage_configure.c ****     return(status);
 155:Middlewares/ST/usbx/common/usbx_host_classes/src/ux_host_class_storage_configure.c **** }
 148              		.loc 1 155 1 view .LVU45
 149 0068 02B0     		add	sp, sp, #8
 150              	.LCFI2:
 151              		.cfi_def_cfa_offset 8
 152              		@ sp needed
 153 006a 10BD     		pop	{r4, pc}
 154              		.loc 1 155 1 view .LVU46
 155              		.cfi_endproc
 156              	.LFE11:
 158              		.text
 159              	.Letext0:
 160              		.file 2 "Middlewares/ST/threadx/ports/cortex_m4/gnu/inc/tx_port.h"
 161              		.file 3 "Middlewares/ST/threadx/common/inc/tx_api.h"
 162              		.file 4 "Middlewares/ST/usbx/common/core/inc/ux_api.h"
 163              		.file 5 "Middlewares/ST/usbx/common/usbx_host_classes/inc/ux_host_class_storage.h"
 164              		.file 6 "Middlewares/ST/usbx/common/core/inc/ux_host_stack.h"
 165              		.file 7 "Middlewares/ST/usbx/common/core/inc/ux_utility.h"
ARM GAS  C:\Users\HP\AppData\Local\Temp\cchHXIcW.s 			page 7

