ARM GAS  C:\Users\HP\AppData\Local\Temp\ccY6zG5J.s 			page 1


   1              		.cpu cortex-m4
   2              		.arch armv7e-m
   3              		.fpu fpv4-sp-d16
   4              		.eabi_attribute 27, 1
   5              		.eabi_attribute 28, 1
   6              		.eabi_attribute 20, 1
   7              		.eabi_attribute 21, 1
   8              		.eabi_attribute 23, 3
   9              		.eabi_attribute 24, 1
  10              		.eabi_attribute 25, 1
  11              		.eabi_attribute 26, 1
  12              		.eabi_attribute 30, 1
  13              		.eabi_attribute 34, 1
  14              		.eabi_attribute 18, 4
  15              		.file	"ux_host_class_storage_media_recovery_sense_get.c"
  16              		.text
  17              	.Ltext0:
  18              		.cfi_sections	.debug_frame
  19              		.section	.text._ux_host_class_storage_media_recovery_sense_get,"ax",%progbits
  20              		.align	1
  21              		.global	_ux_host_class_storage_media_recovery_sense_get
  22              		.syntax unified
  23              		.thumb
  24              		.thumb_func
  26              	_ux_host_class_storage_media_recovery_sense_get:
  27              	.LVL0:
  28              	.LFB11:
  29              		.file 1 "Middlewares/ST/usbx/common/usbx_host_classes/src/ux_host_class_storage_media_recovery_sen
   1:Middlewares/ST/usbx/common/usbx_host_classes/src/ux_host_class_storage_media_recovery_sense_get.c **** /**************************************************************************/
   2:Middlewares/ST/usbx/common/usbx_host_classes/src/ux_host_class_storage_media_recovery_sense_get.c **** /*                                                                        */
   3:Middlewares/ST/usbx/common/usbx_host_classes/src/ux_host_class_storage_media_recovery_sense_get.c **** /*       Copyright (c) Microsoft Corporation. All rights reserved.        */
   4:Middlewares/ST/usbx/common/usbx_host_classes/src/ux_host_class_storage_media_recovery_sense_get.c **** /*                                                                        */
   5:Middlewares/ST/usbx/common/usbx_host_classes/src/ux_host_class_storage_media_recovery_sense_get.c **** /*       This software is licensed under the Microsoft Software License   */
   6:Middlewares/ST/usbx/common/usbx_host_classes/src/ux_host_class_storage_media_recovery_sense_get.c **** /*       Terms for Microsoft Azure RTOS. Full text of the license can be  */
   7:Middlewares/ST/usbx/common/usbx_host_classes/src/ux_host_class_storage_media_recovery_sense_get.c **** /*       found in the LICENSE file at https://aka.ms/AzureRTOS_EULA       */
   8:Middlewares/ST/usbx/common/usbx_host_classes/src/ux_host_class_storage_media_recovery_sense_get.c **** /*       and in the root directory of this software.                      */
   9:Middlewares/ST/usbx/common/usbx_host_classes/src/ux_host_class_storage_media_recovery_sense_get.c **** /*                                                                        */
  10:Middlewares/ST/usbx/common/usbx_host_classes/src/ux_host_class_storage_media_recovery_sense_get.c **** /**************************************************************************/
  11:Middlewares/ST/usbx/common/usbx_host_classes/src/ux_host_class_storage_media_recovery_sense_get.c **** 
  12:Middlewares/ST/usbx/common/usbx_host_classes/src/ux_host_class_storage_media_recovery_sense_get.c **** 
  13:Middlewares/ST/usbx/common/usbx_host_classes/src/ux_host_class_storage_media_recovery_sense_get.c **** /**************************************************************************/
  14:Middlewares/ST/usbx/common/usbx_host_classes/src/ux_host_class_storage_media_recovery_sense_get.c **** /**************************************************************************/
  15:Middlewares/ST/usbx/common/usbx_host_classes/src/ux_host_class_storage_media_recovery_sense_get.c **** /**                                                                       */ 
  16:Middlewares/ST/usbx/common/usbx_host_classes/src/ux_host_class_storage_media_recovery_sense_get.c **** /** USBX Component                                                        */ 
  17:Middlewares/ST/usbx/common/usbx_host_classes/src/ux_host_class_storage_media_recovery_sense_get.c **** /**                                                                       */
  18:Middlewares/ST/usbx/common/usbx_host_classes/src/ux_host_class_storage_media_recovery_sense_get.c **** /**   Storage Class                                                       */
  19:Middlewares/ST/usbx/common/usbx_host_classes/src/ux_host_class_storage_media_recovery_sense_get.c **** /**                                                                       */
  20:Middlewares/ST/usbx/common/usbx_host_classes/src/ux_host_class_storage_media_recovery_sense_get.c **** /**************************************************************************/
  21:Middlewares/ST/usbx/common/usbx_host_classes/src/ux_host_class_storage_media_recovery_sense_get.c **** /**************************************************************************/
  22:Middlewares/ST/usbx/common/usbx_host_classes/src/ux_host_class_storage_media_recovery_sense_get.c **** 
  23:Middlewares/ST/usbx/common/usbx_host_classes/src/ux_host_class_storage_media_recovery_sense_get.c **** 
  24:Middlewares/ST/usbx/common/usbx_host_classes/src/ux_host_class_storage_media_recovery_sense_get.c **** /* Include necessary system files.  */
  25:Middlewares/ST/usbx/common/usbx_host_classes/src/ux_host_class_storage_media_recovery_sense_get.c **** 
  26:Middlewares/ST/usbx/common/usbx_host_classes/src/ux_host_class_storage_media_recovery_sense_get.c **** #define UX_SOURCE_CODE
  27:Middlewares/ST/usbx/common/usbx_host_classes/src/ux_host_class_storage_media_recovery_sense_get.c **** 
  28:Middlewares/ST/usbx/common/usbx_host_classes/src/ux_host_class_storage_media_recovery_sense_get.c **** #include "ux_api.h"
  29:Middlewares/ST/usbx/common/usbx_host_classes/src/ux_host_class_storage_media_recovery_sense_get.c **** #include "ux_host_class_storage.h"
ARM GAS  C:\Users\HP\AppData\Local\Temp\ccY6zG5J.s 			page 2


  30:Middlewares/ST/usbx/common/usbx_host_classes/src/ux_host_class_storage_media_recovery_sense_get.c **** #include "ux_host_stack.h"
  31:Middlewares/ST/usbx/common/usbx_host_classes/src/ux_host_class_storage_media_recovery_sense_get.c **** 
  32:Middlewares/ST/usbx/common/usbx_host_classes/src/ux_host_class_storage_media_recovery_sense_get.c **** 
  33:Middlewares/ST/usbx/common/usbx_host_classes/src/ux_host_class_storage_media_recovery_sense_get.c **** /**************************************************************************/ 
  34:Middlewares/ST/usbx/common/usbx_host_classes/src/ux_host_class_storage_media_recovery_sense_get.c **** /*                                                                        */ 
  35:Middlewares/ST/usbx/common/usbx_host_classes/src/ux_host_class_storage_media_recovery_sense_get.c **** /*  FUNCTION                                               RELEASE        */ 
  36:Middlewares/ST/usbx/common/usbx_host_classes/src/ux_host_class_storage_media_recovery_sense_get.c **** /*                                                                        */ 
  37:Middlewares/ST/usbx/common/usbx_host_classes/src/ux_host_class_storage_media_recovery_sense_get.c **** /*    _ux_host_class_storage_media_recovery_sense_get     PORTABLE C      */ 
  38:Middlewares/ST/usbx/common/usbx_host_classes/src/ux_host_class_storage_media_recovery_sense_get.c **** /*                                                           6.1          */
  39:Middlewares/ST/usbx/common/usbx_host_classes/src/ux_host_class_storage_media_recovery_sense_get.c **** /*  AUTHOR                                                                */
  40:Middlewares/ST/usbx/common/usbx_host_classes/src/ux_host_class_storage_media_recovery_sense_get.c **** /*                                                                        */
  41:Middlewares/ST/usbx/common/usbx_host_classes/src/ux_host_class_storage_media_recovery_sense_get.c **** /*    Chaoqiong Xiao, Microsoft Corporation                               */
  42:Middlewares/ST/usbx/common/usbx_host_classes/src/ux_host_class_storage_media_recovery_sense_get.c **** /*                                                                        */
  43:Middlewares/ST/usbx/common/usbx_host_classes/src/ux_host_class_storage_media_recovery_sense_get.c **** /*  DESCRIPTION                                                           */
  44:Middlewares/ST/usbx/common/usbx_host_classes/src/ux_host_class_storage_media_recovery_sense_get.c **** /*                                                                        */ 
  45:Middlewares/ST/usbx/common/usbx_host_classes/src/ux_host_class_storage_media_recovery_sense_get.c **** /*    This function will send a MODE_SENSE command to recover from a read */
  46:Middlewares/ST/usbx/common/usbx_host_classes/src/ux_host_class_storage_media_recovery_sense_get.c **** /*    and write error.                                                    */ 
  47:Middlewares/ST/usbx/common/usbx_host_classes/src/ux_host_class_storage_media_recovery_sense_get.c **** /*                                                                        */ 
  48:Middlewares/ST/usbx/common/usbx_host_classes/src/ux_host_class_storage_media_recovery_sense_get.c **** /*  INPUT                                                                 */ 
  49:Middlewares/ST/usbx/common/usbx_host_classes/src/ux_host_class_storage_media_recovery_sense_get.c **** /*                                                                        */ 
  50:Middlewares/ST/usbx/common/usbx_host_classes/src/ux_host_class_storage_media_recovery_sense_get.c **** /*    storage                               Pointer to storage class      */ 
  51:Middlewares/ST/usbx/common/usbx_host_classes/src/ux_host_class_storage_media_recovery_sense_get.c **** /*                                                                        */ 
  52:Middlewares/ST/usbx/common/usbx_host_classes/src/ux_host_class_storage_media_recovery_sense_get.c **** /*  OUTPUT                                                                */ 
  53:Middlewares/ST/usbx/common/usbx_host_classes/src/ux_host_class_storage_media_recovery_sense_get.c **** /*                                                                        */ 
  54:Middlewares/ST/usbx/common/usbx_host_classes/src/ux_host_class_storage_media_recovery_sense_get.c **** /*    Completion Status                                                   */ 
  55:Middlewares/ST/usbx/common/usbx_host_classes/src/ux_host_class_storage_media_recovery_sense_get.c **** /*                                                                        */ 
  56:Middlewares/ST/usbx/common/usbx_host_classes/src/ux_host_class_storage_media_recovery_sense_get.c **** /*  CALLS                                                                 */ 
  57:Middlewares/ST/usbx/common/usbx_host_classes/src/ux_host_class_storage_media_recovery_sense_get.c **** /*                                                                        */ 
  58:Middlewares/ST/usbx/common/usbx_host_classes/src/ux_host_class_storage_media_recovery_sense_get.c **** /*    _ux_host_class_storage_cbw_initialize Initialize CBW                */ 
  59:Middlewares/ST/usbx/common/usbx_host_classes/src/ux_host_class_storage_media_recovery_sense_get.c **** /*    _ux_host_class_storage_transport      Send command                  */ 
  60:Middlewares/ST/usbx/common/usbx_host_classes/src/ux_host_class_storage_media_recovery_sense_get.c **** /*    _ux_utility_memory_allocate           Allocate memory block         */ 
  61:Middlewares/ST/usbx/common/usbx_host_classes/src/ux_host_class_storage_media_recovery_sense_get.c **** /*    _ux_utility_memory_free               Release memory block          */ 
  62:Middlewares/ST/usbx/common/usbx_host_classes/src/ux_host_class_storage_media_recovery_sense_get.c **** /*    _ux_utility_short_put_big_endian      Put short value               */ 
  63:Middlewares/ST/usbx/common/usbx_host_classes/src/ux_host_class_storage_media_recovery_sense_get.c **** /*                                                                        */ 
  64:Middlewares/ST/usbx/common/usbx_host_classes/src/ux_host_class_storage_media_recovery_sense_get.c **** /*  CALLED BY                                                             */ 
  65:Middlewares/ST/usbx/common/usbx_host_classes/src/ux_host_class_storage_media_recovery_sense_get.c **** /*                                                                        */ 
  66:Middlewares/ST/usbx/common/usbx_host_classes/src/ux_host_class_storage_media_recovery_sense_get.c **** /*    Storage Class                                                       */ 
  67:Middlewares/ST/usbx/common/usbx_host_classes/src/ux_host_class_storage_media_recovery_sense_get.c **** /*                                                                        */ 
  68:Middlewares/ST/usbx/common/usbx_host_classes/src/ux_host_class_storage_media_recovery_sense_get.c **** /*  RELEASE HISTORY                                                       */ 
  69:Middlewares/ST/usbx/common/usbx_host_classes/src/ux_host_class_storage_media_recovery_sense_get.c **** /*                                                                        */ 
  70:Middlewares/ST/usbx/common/usbx_host_classes/src/ux_host_class_storage_media_recovery_sense_get.c **** /*    DATE              NAME                      DESCRIPTION             */ 
  71:Middlewares/ST/usbx/common/usbx_host_classes/src/ux_host_class_storage_media_recovery_sense_get.c **** /*                                                                        */ 
  72:Middlewares/ST/usbx/common/usbx_host_classes/src/ux_host_class_storage_media_recovery_sense_get.c **** /*  05-19-2020     Chaoqiong Xiao           Initial Version 6.0           */
  73:Middlewares/ST/usbx/common/usbx_host_classes/src/ux_host_class_storage_media_recovery_sense_get.c **** /*  09-30-2020     Chaoqiong Xiao           Modified comment(s),          */
  74:Middlewares/ST/usbx/common/usbx_host_classes/src/ux_host_class_storage_media_recovery_sense_get.c **** /*                                            resulting in version 6.1    */
  75:Middlewares/ST/usbx/common/usbx_host_classes/src/ux_host_class_storage_media_recovery_sense_get.c **** /*                                                                        */
  76:Middlewares/ST/usbx/common/usbx_host_classes/src/ux_host_class_storage_media_recovery_sense_get.c **** /**************************************************************************/
  77:Middlewares/ST/usbx/common/usbx_host_classes/src/ux_host_class_storage_media_recovery_sense_get.c **** UINT  _ux_host_class_storage_media_recovery_sense_get(UX_HOST_CLASS_STORAGE *storage)
  78:Middlewares/ST/usbx/common/usbx_host_classes/src/ux_host_class_storage_media_recovery_sense_get.c **** {
  30              		.loc 1 78 1 view -0
  31              		.cfi_startproc
  32              		@ args = 0, pretend = 0, frame = 0
  33              		@ frame_needed = 0, uses_anonymous_args = 0
  34              		.loc 1 78 1 is_stmt 0 view .LVU1
  35 0000 38B5     		push	{r3, r4, r5, lr}
  36              	.LCFI0:
  37              		.cfi_def_cfa_offset 16
ARM GAS  C:\Users\HP\AppData\Local\Temp\ccY6zG5J.s 			page 3


  38              		.cfi_offset 3, -16
  39              		.cfi_offset 4, -12
  40              		.cfi_offset 5, -8
  41              		.cfi_offset 14, -4
  42 0002 0446     		mov	r4, r0
  79:Middlewares/ST/usbx/common/usbx_host_classes/src/ux_host_class_storage_media_recovery_sense_get.c **** 
  80:Middlewares/ST/usbx/common/usbx_host_classes/src/ux_host_class_storage_media_recovery_sense_get.c **** UINT            status;
  43              		.loc 1 80 1 is_stmt 1 view .LVU2
  81:Middlewares/ST/usbx/common/usbx_host_classes/src/ux_host_class_storage_media_recovery_sense_get.c **** UCHAR           *cbw;
  44              		.loc 1 81 1 view .LVU3
  82:Middlewares/ST/usbx/common/usbx_host_classes/src/ux_host_class_storage_media_recovery_sense_get.c **** UCHAR           *mode_sense_response;
  45              		.loc 1 82 1 view .LVU4
  83:Middlewares/ST/usbx/common/usbx_host_classes/src/ux_host_class_storage_media_recovery_sense_get.c **** UINT            command_length;
  46              		.loc 1 83 1 view .LVU5
  84:Middlewares/ST/usbx/common/usbx_host_classes/src/ux_host_class_storage_media_recovery_sense_get.c **** 
  85:Middlewares/ST/usbx/common/usbx_host_classes/src/ux_host_class_storage_media_recovery_sense_get.c **** 
  86:Middlewares/ST/usbx/common/usbx_host_classes/src/ux_host_class_storage_media_recovery_sense_get.c ****     /* Use a pointer for the cbw, easier to manipulate.  */
  87:Middlewares/ST/usbx/common/usbx_host_classes/src/ux_host_class_storage_media_recovery_sense_get.c ****     cbw =  (UCHAR *) storage -> ux_host_class_storage_cbw;
  47              		.loc 1 87 5 view .LVU6
  48              	.LVL1:
  88:Middlewares/ST/usbx/common/usbx_host_classes/src/ux_host_class_storage_media_recovery_sense_get.c **** 
  89:Middlewares/ST/usbx/common/usbx_host_classes/src/ux_host_class_storage_media_recovery_sense_get.c ****     /* Get the Write Command Length.  */
  90:Middlewares/ST/usbx/common/usbx_host_classes/src/ux_host_class_storage_media_recovery_sense_get.c **** #ifdef UX_HOST_CLASS_STORAGE_INCLUDE_LEGACY_PROTOCOL_SUPPORT
  91:Middlewares/ST/usbx/common/usbx_host_classes/src/ux_host_class_storage_media_recovery_sense_get.c ****     if (storage -> ux_host_class_storage_interface -> ux_interface_descriptor.bInterfaceSubClass ==
  92:Middlewares/ST/usbx/common/usbx_host_classes/src/ux_host_class_storage_media_recovery_sense_get.c ****         command_length =  UX_HOST_CLASS_STORAGE_MODE_SENSE_COMMAND_LENGTH_UFI;
  93:Middlewares/ST/usbx/common/usbx_host_classes/src/ux_host_class_storage_media_recovery_sense_get.c ****     else
  94:Middlewares/ST/usbx/common/usbx_host_classes/src/ux_host_class_storage_media_recovery_sense_get.c ****         command_length =  UX_HOST_CLASS_STORAGE_MODE_SENSE_COMMAND_LENGTH_SBC;
  95:Middlewares/ST/usbx/common/usbx_host_classes/src/ux_host_class_storage_media_recovery_sense_get.c **** #else
  96:Middlewares/ST/usbx/common/usbx_host_classes/src/ux_host_class_storage_media_recovery_sense_get.c ****     command_length =  UX_HOST_CLASS_STORAGE_MODE_SENSE_COMMAND_LENGTH_SBC;
  49              		.loc 1 96 5 view .LVU7
  97:Middlewares/ST/usbx/common/usbx_host_classes/src/ux_host_class_storage_media_recovery_sense_get.c **** #endif
  98:Middlewares/ST/usbx/common/usbx_host_classes/src/ux_host_class_storage_media_recovery_sense_get.c **** 
  99:Middlewares/ST/usbx/common/usbx_host_classes/src/ux_host_class_storage_media_recovery_sense_get.c ****     /* Initialize the CBW for this command.  */
 100:Middlewares/ST/usbx/common/usbx_host_classes/src/ux_host_class_storage_media_recovery_sense_get.c ****     _ux_host_class_storage_cbw_initialize(storage, UX_HOST_CLASS_STORAGE_DATA_IN, UX_HOST_CLASS_STO
  50              		.loc 1 100 5 view .LVU8
  51 0004 0C23     		movs	r3, #12
  52 0006 1C22     		movs	r2, #28
  53 0008 8021     		movs	r1, #128
  54 000a FFF7FEFF 		bl	_ux_host_class_storage_cbw_initialize
  55              	.LVL2:
 101:Middlewares/ST/usbx/common/usbx_host_classes/src/ux_host_class_storage_media_recovery_sense_get.c ****     
 102:Middlewares/ST/usbx/common/usbx_host_classes/src/ux_host_class_storage_media_recovery_sense_get.c ****     /* Prepare the MODE_SENSE command block.  Distinguish between SUBCLASSES. */
 103:Middlewares/ST/usbx/common/usbx_host_classes/src/ux_host_class_storage_media_recovery_sense_get.c ****     switch (storage -> ux_host_class_storage_interface -> ux_interface_descriptor.bInterfaceSubClas
  56              		.loc 1 103 5 view .LVU9
  57              		.loc 1 103 21 is_stmt 0 view .LVU10
  58 000e E368     		ldr	r3, [r4, #12]
  59              		.loc 1 103 82 view .LVU11
  60 0010 5B6A     		ldr	r3, [r3, #36]
  61              		.loc 1 103 5 view .LVU12
  62 0012 012B     		cmp	r3, #1
  63 0014 1CD0     		beq	.L7
 104:Middlewares/ST/usbx/common/usbx_host_classes/src/ux_host_class_storage_media_recovery_sense_get.c ****     {
 105:Middlewares/ST/usbx/common/usbx_host_classes/src/ux_host_class_storage_media_recovery_sense_get.c ****     
 106:Middlewares/ST/usbx/common/usbx_host_classes/src/ux_host_class_storage_media_recovery_sense_get.c ****         case UX_HOST_CLASS_STORAGE_SUBCLASS_RBC         :
 107:Middlewares/ST/usbx/common/usbx_host_classes/src/ux_host_class_storage_media_recovery_sense_get.c **** #ifdef UX_HOST_CLASS_STORAGE_INCLUDE_LEGACY_PROTOCOL_SUPPORT
 108:Middlewares/ST/usbx/common/usbx_host_classes/src/ux_host_class_storage_media_recovery_sense_get.c ****         case UX_HOST_CLASS_STORAGE_SUBCLASS_UFI         :
 109:Middlewares/ST/usbx/common/usbx_host_classes/src/ux_host_class_storage_media_recovery_sense_get.c **** #endif
ARM GAS  C:\Users\HP\AppData\Local\Temp\ccY6zG5J.s 			page 4


 110:Middlewares/ST/usbx/common/usbx_host_classes/src/ux_host_class_storage_media_recovery_sense_get.c ****             *(cbw + UX_HOST_CLASS_STORAGE_CBW_CB + UX_HOST_CLASS_STORAGE_MODE_SENSE_OPERATION) =  U
 111:Middlewares/ST/usbx/common/usbx_host_classes/src/ux_host_class_storage_media_recovery_sense_get.c ****             break;
 112:Middlewares/ST/usbx/common/usbx_host_classes/src/ux_host_class_storage_media_recovery_sense_get.c **** 
 113:Middlewares/ST/usbx/common/usbx_host_classes/src/ux_host_class_storage_media_recovery_sense_get.c ****         default                                         :            
 114:Middlewares/ST/usbx/common/usbx_host_classes/src/ux_host_class_storage_media_recovery_sense_get.c ****             *(cbw + UX_HOST_CLASS_STORAGE_CBW_CB + UX_HOST_CLASS_STORAGE_MODE_SENSE_OPERATION) =  U
  64              		.loc 1 114 13 is_stmt 1 view .LVU13
  65              		.loc 1 114 96 is_stmt 0 view .LVU14
  66 0016 1A23     		movs	r3, #26
  67 0018 84F82B30 		strb	r3, [r4, #43]
 115:Middlewares/ST/usbx/common/usbx_host_classes/src/ux_host_class_storage_media_recovery_sense_get.c ****             break;
  68              		.loc 1 115 13 is_stmt 1 view .LVU15
  69              	.L3:
 116:Middlewares/ST/usbx/common/usbx_host_classes/src/ux_host_class_storage_media_recovery_sense_get.c ****     }
 117:Middlewares/ST/usbx/common/usbx_host_classes/src/ux_host_class_storage_media_recovery_sense_get.c ****     
 118:Middlewares/ST/usbx/common/usbx_host_classes/src/ux_host_class_storage_media_recovery_sense_get.c ****     /* We ask for a specific page page but we put the buffer to maximum size.  */
 119:Middlewares/ST/usbx/common/usbx_host_classes/src/ux_host_class_storage_media_recovery_sense_get.c ****     *(cbw + UX_HOST_CLASS_STORAGE_CBW_CB + UX_HOST_CLASS_STORAGE_MODE_SENSE_PC_PAGE_CODE) = UX_HOST
  70              		.loc 1 119 5 view .LVU16
  71              		.loc 1 119 91 is_stmt 0 view .LVU17
  72 001c 1C23     		movs	r3, #28
  73 001e 84F82D30 		strb	r3, [r4, #45]
 120:Middlewares/ST/usbx/common/usbx_host_classes/src/ux_host_class_storage_media_recovery_sense_get.c ****     
 121:Middlewares/ST/usbx/common/usbx_host_classes/src/ux_host_class_storage_media_recovery_sense_get.c ****     /* Store the length of the Mode Sense Response.  */
 122:Middlewares/ST/usbx/common/usbx_host_classes/src/ux_host_class_storage_media_recovery_sense_get.c ****     _ux_utility_short_put_big_endian(cbw + UX_HOST_CLASS_STORAGE_CBW_CB + UX_HOST_CLASS_STORAGE_MOD
  74              		.loc 1 122 5 is_stmt 1 view .LVU18
  75 0022 C021     		movs	r1, #192
  76 0024 04F13200 		add	r0, r4, #50
  77 0028 FFF7FEFF 		bl	_ux_utility_short_put_big_endian
  78              	.LVL3:
 123:Middlewares/ST/usbx/common/usbx_host_classes/src/ux_host_class_storage_media_recovery_sense_get.c **** 
 124:Middlewares/ST/usbx/common/usbx_host_classes/src/ux_host_class_storage_media_recovery_sense_get.c ****     /* Obtain a block of memory for the answer.  */
 125:Middlewares/ST/usbx/common/usbx_host_classes/src/ux_host_class_storage_media_recovery_sense_get.c ****     mode_sense_response =  _ux_utility_memory_allocate(UX_SAFE_ALIGN, UX_CACHE_SAFE_MEMORY, UX_HOST
  79              		.loc 1 125 5 view .LVU19
  80              		.loc 1 125 28 is_stmt 0 view .LVU20
  81 002c C022     		movs	r2, #192
  82 002e 0121     		movs	r1, #1
  83 0030 4FF0FF30 		mov	r0, #-1
  84 0034 FFF7FEFF 		bl	_ux_utility_memory_allocate
  85              	.LVL4:
 126:Middlewares/ST/usbx/common/usbx_host_classes/src/ux_host_class_storage_media_recovery_sense_get.c ****     if (mode_sense_response == UX_NULL)
  86              		.loc 1 126 5 is_stmt 1 view .LVU21
  87              		.loc 1 126 8 is_stmt 0 view .LVU22
  88 0038 0546     		mov	r5, r0
  89 003a 68B1     		cbz	r0, .L5
 127:Middlewares/ST/usbx/common/usbx_host_classes/src/ux_host_class_storage_media_recovery_sense_get.c ****         return(UX_MEMORY_INSUFFICIENT);
 128:Middlewares/ST/usbx/common/usbx_host_classes/src/ux_host_class_storage_media_recovery_sense_get.c ****     
 129:Middlewares/ST/usbx/common/usbx_host_classes/src/ux_host_class_storage_media_recovery_sense_get.c ****     /* Send the command to transport layer.  */
 130:Middlewares/ST/usbx/common/usbx_host_classes/src/ux_host_class_storage_media_recovery_sense_get.c ****     status =  _ux_host_class_storage_transport(storage, mode_sense_response);
  90              		.loc 1 130 5 is_stmt 1 view .LVU23
  91              		.loc 1 130 15 is_stmt 0 view .LVU24
  92 003c 0146     		mov	r1, r0
  93 003e 2046     		mov	r0, r4
  94              	.LVL5:
  95              		.loc 1 130 15 view .LVU25
  96 0040 FFF7FEFF 		bl	_ux_host_class_storage_transport
  97              	.LVL6:
  98              		.loc 1 130 15 view .LVU26
  99 0044 0446     		mov	r4, r0
ARM GAS  C:\Users\HP\AppData\Local\Temp\ccY6zG5J.s 			page 5


 100              	.LVL7:
 131:Middlewares/ST/usbx/common/usbx_host_classes/src/ux_host_class_storage_media_recovery_sense_get.c ****     
 132:Middlewares/ST/usbx/common/usbx_host_classes/src/ux_host_class_storage_media_recovery_sense_get.c ****     /* Free the memory resource used for the command response.  */
 133:Middlewares/ST/usbx/common/usbx_host_classes/src/ux_host_class_storage_media_recovery_sense_get.c ****     _ux_utility_memory_free(mode_sense_response);
 101              		.loc 1 133 5 is_stmt 1 view .LVU27
 102 0046 2846     		mov	r0, r5
 103              	.LVL8:
 104              		.loc 1 133 5 is_stmt 0 view .LVU28
 105 0048 FFF7FEFF 		bl	_ux_utility_memory_free
 106              	.LVL9:
 134:Middlewares/ST/usbx/common/usbx_host_classes/src/ux_host_class_storage_media_recovery_sense_get.c ****     
 135:Middlewares/ST/usbx/common/usbx_host_classes/src/ux_host_class_storage_media_recovery_sense_get.c ****     /* Return completion status.  */
 136:Middlewares/ST/usbx/common/usbx_host_classes/src/ux_host_class_storage_media_recovery_sense_get.c ****     return(status);                                            
 107              		.loc 1 136 5 is_stmt 1 view .LVU29
 108              	.L1:
 137:Middlewares/ST/usbx/common/usbx_host_classes/src/ux_host_class_storage_media_recovery_sense_get.c **** }
 109              		.loc 1 137 1 is_stmt 0 view .LVU30
 110 004c 2046     		mov	r0, r4
 111 004e 38BD     		pop	{r3, r4, r5, pc}
 112              	.LVL10:
 113              	.L7:
 110:Middlewares/ST/usbx/common/usbx_host_classes/src/ux_host_class_storage_media_recovery_sense_get.c ****             break;
 114              		.loc 1 110 13 is_stmt 1 view .LVU31
 110:Middlewares/ST/usbx/common/usbx_host_classes/src/ux_host_class_storage_media_recovery_sense_get.c ****             break;
 115              		.loc 1 110 96 is_stmt 0 view .LVU32
 116 0050 5A23     		movs	r3, #90
 117 0052 84F82B30 		strb	r3, [r4, #43]
 111:Middlewares/ST/usbx/common/usbx_host_classes/src/ux_host_class_storage_media_recovery_sense_get.c **** 
 118              		.loc 1 111 13 is_stmt 1 view .LVU33
 119 0056 E1E7     		b	.L3
 120              	.LVL11:
 121              	.L5:
 127:Middlewares/ST/usbx/common/usbx_host_classes/src/ux_host_class_storage_media_recovery_sense_get.c ****     
 122              		.loc 1 127 15 is_stmt 0 view .LVU34
 123 0058 1224     		movs	r4, #18
 124              	.LVL12:
 127:Middlewares/ST/usbx/common/usbx_host_classes/src/ux_host_class_storage_media_recovery_sense_get.c ****     
 125              		.loc 1 127 15 view .LVU35
 126 005a F7E7     		b	.L1
 127              		.cfi_endproc
 128              	.LFE11:
 130              		.text
 131              	.Letext0:
 132              		.file 2 "Middlewares/ST/threadx/ports/cortex_m4/gnu/inc/tx_port.h"
 133              		.file 3 "Middlewares/ST/threadx/common/inc/tx_api.h"
 134              		.file 4 "Middlewares/ST/usbx/common/core/inc/ux_api.h"
 135              		.file 5 "Middlewares/ST/usbx/common/usbx_host_classes/inc/ux_host_class_storage.h"
 136              		.file 6 "Middlewares/ST/usbx/common/core/inc/ux_utility.h"
ARM GAS  C:\Users\HP\AppData\Local\Temp\ccY6zG5J.s 			page 6

